   1              		.syntax unified
   2              		.cpu cortex-m3
   3              		.fpu softvfp
   4              		.eabi_attribute 20, 1
   5              		.eabi_attribute 21, 1
   6              		.eabi_attribute 23, 3
   7              		.eabi_attribute 24, 1
   8              		.eabi_attribute 25, 1
   9              		.eabi_attribute 26, 1
  10              		.eabi_attribute 30, 6
  11              		.eabi_attribute 18, 4
  12              		.thumb
  13              		.file	"gamefield.cpp"
  23              	.Ltext0:
  24              		.file 1 "../air3t/data/gamefield.cpp"
 3926              		.align	2
 3927              		.thumb
 3928              		.thumb_func
 3930              	_ZL20__gthread_key_deletei:
 3931              	.LFB433:
   1:/opt/toolchains/arm-none-eabi/bin/../lib/gcc/arm-none-eabi/4.5.2/../../../../arm-none-eabi/include/c++/4.5.2/arm-none-eabi/thumb/bits/gthr-single.h **** /* Threads compatibility routines for libgcc2 and libobjc.  */
   2:/opt/toolchains/arm-none-eabi/bin/../lib/gcc/arm-none-eabi/4.5.2/../../../../arm-none-eabi/include/c++/4.5.2/arm-none-eabi/thumb/bits/gthr-single.h **** /* Compile this one with gcc.  */
   3:/opt/toolchains/arm-none-eabi/bin/../lib/gcc/arm-none-eabi/4.5.2/../../../../arm-none-eabi/include/c++/4.5.2/arm-none-eabi/thumb/bits/gthr-single.h **** /* Copyright (C) 1997, 1999, 2000, 2004, 2008, 2009
   4:/opt/toolchains/arm-none-eabi/bin/../lib/gcc/arm-none-eabi/4.5.2/../../../../arm-none-eabi/include/c++/4.5.2/arm-none-eabi/thumb/bits/gthr-single.h ****    Free Software Foundation, Inc.
   5:/opt/toolchains/arm-none-eabi/bin/../lib/gcc/arm-none-eabi/4.5.2/../../../../arm-none-eabi/include/c++/4.5.2/arm-none-eabi/thumb/bits/gthr-single.h **** 
   6:/opt/toolchains/arm-none-eabi/bin/../lib/gcc/arm-none-eabi/4.5.2/../../../../arm-none-eabi/include/c++/4.5.2/arm-none-eabi/thumb/bits/gthr-single.h **** This file is part of GCC.
   7:/opt/toolchains/arm-none-eabi/bin/../lib/gcc/arm-none-eabi/4.5.2/../../../../arm-none-eabi/include/c++/4.5.2/arm-none-eabi/thumb/bits/gthr-single.h **** 
   8:/opt/toolchains/arm-none-eabi/bin/../lib/gcc/arm-none-eabi/4.5.2/../../../../arm-none-eabi/include/c++/4.5.2/arm-none-eabi/thumb/bits/gthr-single.h **** GCC is free software; you can redistribute it and/or modify it under
   9:/opt/toolchains/arm-none-eabi/bin/../lib/gcc/arm-none-eabi/4.5.2/../../../../arm-none-eabi/include/c++/4.5.2/arm-none-eabi/thumb/bits/gthr-single.h **** the terms of the GNU General Public License as published by the Free
  10:/opt/toolchains/arm-none-eabi/bin/../lib/gcc/arm-none-eabi/4.5.2/../../../../arm-none-eabi/include/c++/4.5.2/arm-none-eabi/thumb/bits/gthr-single.h **** Software Foundation; either version 3, or (at your option) any later
  11:/opt/toolchains/arm-none-eabi/bin/../lib/gcc/arm-none-eabi/4.5.2/../../../../arm-none-eabi/include/c++/4.5.2/arm-none-eabi/thumb/bits/gthr-single.h **** version.
  12:/opt/toolchains/arm-none-eabi/bin/../lib/gcc/arm-none-eabi/4.5.2/../../../../arm-none-eabi/include/c++/4.5.2/arm-none-eabi/thumb/bits/gthr-single.h **** 
  13:/opt/toolchains/arm-none-eabi/bin/../lib/gcc/arm-none-eabi/4.5.2/../../../../arm-none-eabi/include/c++/4.5.2/arm-none-eabi/thumb/bits/gthr-single.h **** GCC is distributed in the hope that it will be useful, but WITHOUT ANY
  14:/opt/toolchains/arm-none-eabi/bin/../lib/gcc/arm-none-eabi/4.5.2/../../../../arm-none-eabi/include/c++/4.5.2/arm-none-eabi/thumb/bits/gthr-single.h **** WARRANTY; without even the implied warranty of MERCHANTABILITY or
  15:/opt/toolchains/arm-none-eabi/bin/../lib/gcc/arm-none-eabi/4.5.2/../../../../arm-none-eabi/include/c++/4.5.2/arm-none-eabi/thumb/bits/gthr-single.h **** FITNESS FOR A PARTICULAR PURPOSE.  See the GNU General Public License
  16:/opt/toolchains/arm-none-eabi/bin/../lib/gcc/arm-none-eabi/4.5.2/../../../../arm-none-eabi/include/c++/4.5.2/arm-none-eabi/thumb/bits/gthr-single.h **** for more details.
  17:/opt/toolchains/arm-none-eabi/bin/../lib/gcc/arm-none-eabi/4.5.2/../../../../arm-none-eabi/include/c++/4.5.2/arm-none-eabi/thumb/bits/gthr-single.h **** 
  18:/opt/toolchains/arm-none-eabi/bin/../lib/gcc/arm-none-eabi/4.5.2/../../../../arm-none-eabi/include/c++/4.5.2/arm-none-eabi/thumb/bits/gthr-single.h **** Under Section 7 of GPL version 3, you are granted additional
  19:/opt/toolchains/arm-none-eabi/bin/../lib/gcc/arm-none-eabi/4.5.2/../../../../arm-none-eabi/include/c++/4.5.2/arm-none-eabi/thumb/bits/gthr-single.h **** permissions described in the GCC Runtime Library Exception, version
  20:/opt/toolchains/arm-none-eabi/bin/../lib/gcc/arm-none-eabi/4.5.2/../../../../arm-none-eabi/include/c++/4.5.2/arm-none-eabi/thumb/bits/gthr-single.h **** 3.1, as published by the Free Software Foundation.
  21:/opt/toolchains/arm-none-eabi/bin/../lib/gcc/arm-none-eabi/4.5.2/../../../../arm-none-eabi/include/c++/4.5.2/arm-none-eabi/thumb/bits/gthr-single.h **** 
  22:/opt/toolchains/arm-none-eabi/bin/../lib/gcc/arm-none-eabi/4.5.2/../../../../arm-none-eabi/include/c++/4.5.2/arm-none-eabi/thumb/bits/gthr-single.h **** You should have received a copy of the GNU General Public License and
  23:/opt/toolchains/arm-none-eabi/bin/../lib/gcc/arm-none-eabi/4.5.2/../../../../arm-none-eabi/include/c++/4.5.2/arm-none-eabi/thumb/bits/gthr-single.h **** a copy of the GCC Runtime Library Exception along with this program;
  24:/opt/toolchains/arm-none-eabi/bin/../lib/gcc/arm-none-eabi/4.5.2/../../../../arm-none-eabi/include/c++/4.5.2/arm-none-eabi/thumb/bits/gthr-single.h **** see the files COPYING3 and COPYING.RUNTIME respectively.  If not, see
  25:/opt/toolchains/arm-none-eabi/bin/../lib/gcc/arm-none-eabi/4.5.2/../../../../arm-none-eabi/include/c++/4.5.2/arm-none-eabi/thumb/bits/gthr-single.h **** <http://www.gnu.org/licenses/>.  */
  26:/opt/toolchains/arm-none-eabi/bin/../lib/gcc/arm-none-eabi/4.5.2/../../../../arm-none-eabi/include/c++/4.5.2/arm-none-eabi/thumb/bits/gthr-single.h **** 
  27:/opt/toolchains/arm-none-eabi/bin/../lib/gcc/arm-none-eabi/4.5.2/../../../../arm-none-eabi/include/c++/4.5.2/arm-none-eabi/thumb/bits/gthr-single.h **** #ifndef _GLIBCXX_GCC_GTHR_SINGLE_H
  28:/opt/toolchains/arm-none-eabi/bin/../lib/gcc/arm-none-eabi/4.5.2/../../../../arm-none-eabi/include/c++/4.5.2/arm-none-eabi/thumb/bits/gthr-single.h **** #define _GLIBCXX_GCC_GTHR_SINGLE_H
  29:/opt/toolchains/arm-none-eabi/bin/../lib/gcc/arm-none-eabi/4.5.2/../../../../arm-none-eabi/include/c++/4.5.2/arm-none-eabi/thumb/bits/gthr-single.h **** 
  30:/opt/toolchains/arm-none-eabi/bin/../lib/gcc/arm-none-eabi/4.5.2/../../../../arm-none-eabi/include/c++/4.5.2/arm-none-eabi/thumb/bits/gthr-single.h **** /* Just provide compatibility for mutex handling.  */
  31:/opt/toolchains/arm-none-eabi/bin/../lib/gcc/arm-none-eabi/4.5.2/../../../../arm-none-eabi/include/c++/4.5.2/arm-none-eabi/thumb/bits/gthr-single.h **** 
  32:/opt/toolchains/arm-none-eabi/bin/../lib/gcc/arm-none-eabi/4.5.2/../../../../arm-none-eabi/include/c++/4.5.2/arm-none-eabi/thumb/bits/gthr-single.h **** typedef int __gthread_key_t;
  33:/opt/toolchains/arm-none-eabi/bin/../lib/gcc/arm-none-eabi/4.5.2/../../../../arm-none-eabi/include/c++/4.5.2/arm-none-eabi/thumb/bits/gthr-single.h **** typedef int __gthread_once_t;
  34:/opt/toolchains/arm-none-eabi/bin/../lib/gcc/arm-none-eabi/4.5.2/../../../../arm-none-eabi/include/c++/4.5.2/arm-none-eabi/thumb/bits/gthr-single.h **** typedef int __gthread_mutex_t;
  35:/opt/toolchains/arm-none-eabi/bin/../lib/gcc/arm-none-eabi/4.5.2/../../../../arm-none-eabi/include/c++/4.5.2/arm-none-eabi/thumb/bits/gthr-single.h **** typedef int __gthread_recursive_mutex_t;
  36:/opt/toolchains/arm-none-eabi/bin/../lib/gcc/arm-none-eabi/4.5.2/../../../../arm-none-eabi/include/c++/4.5.2/arm-none-eabi/thumb/bits/gthr-single.h **** 
  37:/opt/toolchains/arm-none-eabi/bin/../lib/gcc/arm-none-eabi/4.5.2/../../../../arm-none-eabi/include/c++/4.5.2/arm-none-eabi/thumb/bits/gthr-single.h **** #define __GTHREAD_ONCE_INIT 0
  38:/opt/toolchains/arm-none-eabi/bin/../lib/gcc/arm-none-eabi/4.5.2/../../../../arm-none-eabi/include/c++/4.5.2/arm-none-eabi/thumb/bits/gthr-single.h **** #define __GTHREAD_MUTEX_INIT 0
  39:/opt/toolchains/arm-none-eabi/bin/../lib/gcc/arm-none-eabi/4.5.2/../../../../arm-none-eabi/include/c++/4.5.2/arm-none-eabi/thumb/bits/gthr-single.h **** #define __GTHREAD_RECURSIVE_MUTEX_INIT 0
  40:/opt/toolchains/arm-none-eabi/bin/../lib/gcc/arm-none-eabi/4.5.2/../../../../arm-none-eabi/include/c++/4.5.2/arm-none-eabi/thumb/bits/gthr-single.h **** 
  41:/opt/toolchains/arm-none-eabi/bin/../lib/gcc/arm-none-eabi/4.5.2/../../../../arm-none-eabi/include/c++/4.5.2/arm-none-eabi/thumb/bits/gthr-single.h **** #define _GLIBCXX_UNUSED __attribute__((unused))
  42:/opt/toolchains/arm-none-eabi/bin/../lib/gcc/arm-none-eabi/4.5.2/../../../../arm-none-eabi/include/c++/4.5.2/arm-none-eabi/thumb/bits/gthr-single.h **** 
  43:/opt/toolchains/arm-none-eabi/bin/../lib/gcc/arm-none-eabi/4.5.2/../../../../arm-none-eabi/include/c++/4.5.2/arm-none-eabi/thumb/bits/gthr-single.h **** #ifdef _LIBOBJC
  44:/opt/toolchains/arm-none-eabi/bin/../lib/gcc/arm-none-eabi/4.5.2/../../../../arm-none-eabi/include/c++/4.5.2/arm-none-eabi/thumb/bits/gthr-single.h **** 
  45:/opt/toolchains/arm-none-eabi/bin/../lib/gcc/arm-none-eabi/4.5.2/../../../../arm-none-eabi/include/c++/4.5.2/arm-none-eabi/thumb/bits/gthr-single.h **** /* Thread local storage for a single thread */
  46:/opt/toolchains/arm-none-eabi/bin/../lib/gcc/arm-none-eabi/4.5.2/../../../../arm-none-eabi/include/c++/4.5.2/arm-none-eabi/thumb/bits/gthr-single.h **** static void *thread_local_storage = NULL;
  47:/opt/toolchains/arm-none-eabi/bin/../lib/gcc/arm-none-eabi/4.5.2/../../../../arm-none-eabi/include/c++/4.5.2/arm-none-eabi/thumb/bits/gthr-single.h **** 
  48:/opt/toolchains/arm-none-eabi/bin/../lib/gcc/arm-none-eabi/4.5.2/../../../../arm-none-eabi/include/c++/4.5.2/arm-none-eabi/thumb/bits/gthr-single.h **** /* Backend initialization functions */
  49:/opt/toolchains/arm-none-eabi/bin/../lib/gcc/arm-none-eabi/4.5.2/../../../../arm-none-eabi/include/c++/4.5.2/arm-none-eabi/thumb/bits/gthr-single.h **** 
  50:/opt/toolchains/arm-none-eabi/bin/../lib/gcc/arm-none-eabi/4.5.2/../../../../arm-none-eabi/include/c++/4.5.2/arm-none-eabi/thumb/bits/gthr-single.h **** /* Initialize the threads subsystem.  */
  51:/opt/toolchains/arm-none-eabi/bin/../lib/gcc/arm-none-eabi/4.5.2/../../../../arm-none-eabi/include/c++/4.5.2/arm-none-eabi/thumb/bits/gthr-single.h **** static inline int
  52:/opt/toolchains/arm-none-eabi/bin/../lib/gcc/arm-none-eabi/4.5.2/../../../../arm-none-eabi/include/c++/4.5.2/arm-none-eabi/thumb/bits/gthr-single.h **** __gthread_objc_init_thread_system (void)
  53:/opt/toolchains/arm-none-eabi/bin/../lib/gcc/arm-none-eabi/4.5.2/../../../../arm-none-eabi/include/c++/4.5.2/arm-none-eabi/thumb/bits/gthr-single.h **** {
  54:/opt/toolchains/arm-none-eabi/bin/../lib/gcc/arm-none-eabi/4.5.2/../../../../arm-none-eabi/include/c++/4.5.2/arm-none-eabi/thumb/bits/gthr-single.h ****   /* No thread support available */
  55:/opt/toolchains/arm-none-eabi/bin/../lib/gcc/arm-none-eabi/4.5.2/../../../../arm-none-eabi/include/c++/4.5.2/arm-none-eabi/thumb/bits/gthr-single.h ****   return -1;
  56:/opt/toolchains/arm-none-eabi/bin/../lib/gcc/arm-none-eabi/4.5.2/../../../../arm-none-eabi/include/c++/4.5.2/arm-none-eabi/thumb/bits/gthr-single.h **** }
  57:/opt/toolchains/arm-none-eabi/bin/../lib/gcc/arm-none-eabi/4.5.2/../../../../arm-none-eabi/include/c++/4.5.2/arm-none-eabi/thumb/bits/gthr-single.h **** 
  58:/opt/toolchains/arm-none-eabi/bin/../lib/gcc/arm-none-eabi/4.5.2/../../../../arm-none-eabi/include/c++/4.5.2/arm-none-eabi/thumb/bits/gthr-single.h **** /* Close the threads subsystem.  */
  59:/opt/toolchains/arm-none-eabi/bin/../lib/gcc/arm-none-eabi/4.5.2/../../../../arm-none-eabi/include/c++/4.5.2/arm-none-eabi/thumb/bits/gthr-single.h **** static inline int
  60:/opt/toolchains/arm-none-eabi/bin/../lib/gcc/arm-none-eabi/4.5.2/../../../../arm-none-eabi/include/c++/4.5.2/arm-none-eabi/thumb/bits/gthr-single.h **** __gthread_objc_close_thread_system (void)
  61:/opt/toolchains/arm-none-eabi/bin/../lib/gcc/arm-none-eabi/4.5.2/../../../../arm-none-eabi/include/c++/4.5.2/arm-none-eabi/thumb/bits/gthr-single.h **** {
  62:/opt/toolchains/arm-none-eabi/bin/../lib/gcc/arm-none-eabi/4.5.2/../../../../arm-none-eabi/include/c++/4.5.2/arm-none-eabi/thumb/bits/gthr-single.h ****   /* No thread support available */
  63:/opt/toolchains/arm-none-eabi/bin/../lib/gcc/arm-none-eabi/4.5.2/../../../../arm-none-eabi/include/c++/4.5.2/arm-none-eabi/thumb/bits/gthr-single.h ****   return -1;
  64:/opt/toolchains/arm-none-eabi/bin/../lib/gcc/arm-none-eabi/4.5.2/../../../../arm-none-eabi/include/c++/4.5.2/arm-none-eabi/thumb/bits/gthr-single.h **** }
  65:/opt/toolchains/arm-none-eabi/bin/../lib/gcc/arm-none-eabi/4.5.2/../../../../arm-none-eabi/include/c++/4.5.2/arm-none-eabi/thumb/bits/gthr-single.h **** 
  66:/opt/toolchains/arm-none-eabi/bin/../lib/gcc/arm-none-eabi/4.5.2/../../../../arm-none-eabi/include/c++/4.5.2/arm-none-eabi/thumb/bits/gthr-single.h **** /* Backend thread functions */
  67:/opt/toolchains/arm-none-eabi/bin/../lib/gcc/arm-none-eabi/4.5.2/../../../../arm-none-eabi/include/c++/4.5.2/arm-none-eabi/thumb/bits/gthr-single.h **** 
  68:/opt/toolchains/arm-none-eabi/bin/../lib/gcc/arm-none-eabi/4.5.2/../../../../arm-none-eabi/include/c++/4.5.2/arm-none-eabi/thumb/bits/gthr-single.h **** /* Create a new thread of execution.  */
  69:/opt/toolchains/arm-none-eabi/bin/../lib/gcc/arm-none-eabi/4.5.2/../../../../arm-none-eabi/include/c++/4.5.2/arm-none-eabi/thumb/bits/gthr-single.h **** static inline objc_thread_t
  70:/opt/toolchains/arm-none-eabi/bin/../lib/gcc/arm-none-eabi/4.5.2/../../../../arm-none-eabi/include/c++/4.5.2/arm-none-eabi/thumb/bits/gthr-single.h **** __gthread_objc_thread_detach (void (* func)(void *), void * arg _GLIBCXX_UNUSED)
  71:/opt/toolchains/arm-none-eabi/bin/../lib/gcc/arm-none-eabi/4.5.2/../../../../arm-none-eabi/include/c++/4.5.2/arm-none-eabi/thumb/bits/gthr-single.h **** {
  72:/opt/toolchains/arm-none-eabi/bin/../lib/gcc/arm-none-eabi/4.5.2/../../../../arm-none-eabi/include/c++/4.5.2/arm-none-eabi/thumb/bits/gthr-single.h ****   /* No thread support available */
  73:/opt/toolchains/arm-none-eabi/bin/../lib/gcc/arm-none-eabi/4.5.2/../../../../arm-none-eabi/include/c++/4.5.2/arm-none-eabi/thumb/bits/gthr-single.h ****   return NULL;
  74:/opt/toolchains/arm-none-eabi/bin/../lib/gcc/arm-none-eabi/4.5.2/../../../../arm-none-eabi/include/c++/4.5.2/arm-none-eabi/thumb/bits/gthr-single.h **** }
  75:/opt/toolchains/arm-none-eabi/bin/../lib/gcc/arm-none-eabi/4.5.2/../../../../arm-none-eabi/include/c++/4.5.2/arm-none-eabi/thumb/bits/gthr-single.h **** 
  76:/opt/toolchains/arm-none-eabi/bin/../lib/gcc/arm-none-eabi/4.5.2/../../../../arm-none-eabi/include/c++/4.5.2/arm-none-eabi/thumb/bits/gthr-single.h **** /* Set the current thread's priority.  */
  77:/opt/toolchains/arm-none-eabi/bin/../lib/gcc/arm-none-eabi/4.5.2/../../../../arm-none-eabi/include/c++/4.5.2/arm-none-eabi/thumb/bits/gthr-single.h **** static inline int
  78:/opt/toolchains/arm-none-eabi/bin/../lib/gcc/arm-none-eabi/4.5.2/../../../../arm-none-eabi/include/c++/4.5.2/arm-none-eabi/thumb/bits/gthr-single.h **** __gthread_objc_thread_set_priority (int priority _GLIBCXX_UNUSED)
  79:/opt/toolchains/arm-none-eabi/bin/../lib/gcc/arm-none-eabi/4.5.2/../../../../arm-none-eabi/include/c++/4.5.2/arm-none-eabi/thumb/bits/gthr-single.h **** {
  80:/opt/toolchains/arm-none-eabi/bin/../lib/gcc/arm-none-eabi/4.5.2/../../../../arm-none-eabi/include/c++/4.5.2/arm-none-eabi/thumb/bits/gthr-single.h ****   /* No thread support available */
  81:/opt/toolchains/arm-none-eabi/bin/../lib/gcc/arm-none-eabi/4.5.2/../../../../arm-none-eabi/include/c++/4.5.2/arm-none-eabi/thumb/bits/gthr-single.h ****   return -1;
  82:/opt/toolchains/arm-none-eabi/bin/../lib/gcc/arm-none-eabi/4.5.2/../../../../arm-none-eabi/include/c++/4.5.2/arm-none-eabi/thumb/bits/gthr-single.h **** }
  83:/opt/toolchains/arm-none-eabi/bin/../lib/gcc/arm-none-eabi/4.5.2/../../../../arm-none-eabi/include/c++/4.5.2/arm-none-eabi/thumb/bits/gthr-single.h **** 
  84:/opt/toolchains/arm-none-eabi/bin/../lib/gcc/arm-none-eabi/4.5.2/../../../../arm-none-eabi/include/c++/4.5.2/arm-none-eabi/thumb/bits/gthr-single.h **** /* Return the current thread's priority.  */
  85:/opt/toolchains/arm-none-eabi/bin/../lib/gcc/arm-none-eabi/4.5.2/../../../../arm-none-eabi/include/c++/4.5.2/arm-none-eabi/thumb/bits/gthr-single.h **** static inline int
  86:/opt/toolchains/arm-none-eabi/bin/../lib/gcc/arm-none-eabi/4.5.2/../../../../arm-none-eabi/include/c++/4.5.2/arm-none-eabi/thumb/bits/gthr-single.h **** __gthread_objc_thread_get_priority (void)
  87:/opt/toolchains/arm-none-eabi/bin/../lib/gcc/arm-none-eabi/4.5.2/../../../../arm-none-eabi/include/c++/4.5.2/arm-none-eabi/thumb/bits/gthr-single.h **** {
  88:/opt/toolchains/arm-none-eabi/bin/../lib/gcc/arm-none-eabi/4.5.2/../../../../arm-none-eabi/include/c++/4.5.2/arm-none-eabi/thumb/bits/gthr-single.h ****   return OBJC_THREAD_INTERACTIVE_PRIORITY;
  89:/opt/toolchains/arm-none-eabi/bin/../lib/gcc/arm-none-eabi/4.5.2/../../../../arm-none-eabi/include/c++/4.5.2/arm-none-eabi/thumb/bits/gthr-single.h **** }
  90:/opt/toolchains/arm-none-eabi/bin/../lib/gcc/arm-none-eabi/4.5.2/../../../../arm-none-eabi/include/c++/4.5.2/arm-none-eabi/thumb/bits/gthr-single.h **** 
  91:/opt/toolchains/arm-none-eabi/bin/../lib/gcc/arm-none-eabi/4.5.2/../../../../arm-none-eabi/include/c++/4.5.2/arm-none-eabi/thumb/bits/gthr-single.h **** /* Yield our process time to another thread.  */
  92:/opt/toolchains/arm-none-eabi/bin/../lib/gcc/arm-none-eabi/4.5.2/../../../../arm-none-eabi/include/c++/4.5.2/arm-none-eabi/thumb/bits/gthr-single.h **** static inline void
  93:/opt/toolchains/arm-none-eabi/bin/../lib/gcc/arm-none-eabi/4.5.2/../../../../arm-none-eabi/include/c++/4.5.2/arm-none-eabi/thumb/bits/gthr-single.h **** __gthread_objc_thread_yield (void)
  94:/opt/toolchains/arm-none-eabi/bin/../lib/gcc/arm-none-eabi/4.5.2/../../../../arm-none-eabi/include/c++/4.5.2/arm-none-eabi/thumb/bits/gthr-single.h **** {
  95:/opt/toolchains/arm-none-eabi/bin/../lib/gcc/arm-none-eabi/4.5.2/../../../../arm-none-eabi/include/c++/4.5.2/arm-none-eabi/thumb/bits/gthr-single.h ****   return;
  96:/opt/toolchains/arm-none-eabi/bin/../lib/gcc/arm-none-eabi/4.5.2/../../../../arm-none-eabi/include/c++/4.5.2/arm-none-eabi/thumb/bits/gthr-single.h **** }
  97:/opt/toolchains/arm-none-eabi/bin/../lib/gcc/arm-none-eabi/4.5.2/../../../../arm-none-eabi/include/c++/4.5.2/arm-none-eabi/thumb/bits/gthr-single.h **** 
  98:/opt/toolchains/arm-none-eabi/bin/../lib/gcc/arm-none-eabi/4.5.2/../../../../arm-none-eabi/include/c++/4.5.2/arm-none-eabi/thumb/bits/gthr-single.h **** /* Terminate the current thread.  */
  99:/opt/toolchains/arm-none-eabi/bin/../lib/gcc/arm-none-eabi/4.5.2/../../../../arm-none-eabi/include/c++/4.5.2/arm-none-eabi/thumb/bits/gthr-single.h **** static inline int
 100:/opt/toolchains/arm-none-eabi/bin/../lib/gcc/arm-none-eabi/4.5.2/../../../../arm-none-eabi/include/c++/4.5.2/arm-none-eabi/thumb/bits/gthr-single.h **** __gthread_objc_thread_exit (void)
 101:/opt/toolchains/arm-none-eabi/bin/../lib/gcc/arm-none-eabi/4.5.2/../../../../arm-none-eabi/include/c++/4.5.2/arm-none-eabi/thumb/bits/gthr-single.h **** {
 102:/opt/toolchains/arm-none-eabi/bin/../lib/gcc/arm-none-eabi/4.5.2/../../../../arm-none-eabi/include/c++/4.5.2/arm-none-eabi/thumb/bits/gthr-single.h ****   /* No thread support available */
 103:/opt/toolchains/arm-none-eabi/bin/../lib/gcc/arm-none-eabi/4.5.2/../../../../arm-none-eabi/include/c++/4.5.2/arm-none-eabi/thumb/bits/gthr-single.h ****   /* Should we really exit the program */
 104:/opt/toolchains/arm-none-eabi/bin/../lib/gcc/arm-none-eabi/4.5.2/../../../../arm-none-eabi/include/c++/4.5.2/arm-none-eabi/thumb/bits/gthr-single.h ****   /* exit (&__objc_thread_exit_status); */
 105:/opt/toolchains/arm-none-eabi/bin/../lib/gcc/arm-none-eabi/4.5.2/../../../../arm-none-eabi/include/c++/4.5.2/arm-none-eabi/thumb/bits/gthr-single.h ****   return -1;
 106:/opt/toolchains/arm-none-eabi/bin/../lib/gcc/arm-none-eabi/4.5.2/../../../../arm-none-eabi/include/c++/4.5.2/arm-none-eabi/thumb/bits/gthr-single.h **** }
 107:/opt/toolchains/arm-none-eabi/bin/../lib/gcc/arm-none-eabi/4.5.2/../../../../arm-none-eabi/include/c++/4.5.2/arm-none-eabi/thumb/bits/gthr-single.h **** 
 108:/opt/toolchains/arm-none-eabi/bin/../lib/gcc/arm-none-eabi/4.5.2/../../../../arm-none-eabi/include/c++/4.5.2/arm-none-eabi/thumb/bits/gthr-single.h **** /* Returns an integer value which uniquely describes a thread.  */
 109:/opt/toolchains/arm-none-eabi/bin/../lib/gcc/arm-none-eabi/4.5.2/../../../../arm-none-eabi/include/c++/4.5.2/arm-none-eabi/thumb/bits/gthr-single.h **** static inline objc_thread_t
 110:/opt/toolchains/arm-none-eabi/bin/../lib/gcc/arm-none-eabi/4.5.2/../../../../arm-none-eabi/include/c++/4.5.2/arm-none-eabi/thumb/bits/gthr-single.h **** __gthread_objc_thread_id (void)
 111:/opt/toolchains/arm-none-eabi/bin/../lib/gcc/arm-none-eabi/4.5.2/../../../../arm-none-eabi/include/c++/4.5.2/arm-none-eabi/thumb/bits/gthr-single.h **** {
 112:/opt/toolchains/arm-none-eabi/bin/../lib/gcc/arm-none-eabi/4.5.2/../../../../arm-none-eabi/include/c++/4.5.2/arm-none-eabi/thumb/bits/gthr-single.h ****   /* No thread support, use 1.  */
 113:/opt/toolchains/arm-none-eabi/bin/../lib/gcc/arm-none-eabi/4.5.2/../../../../arm-none-eabi/include/c++/4.5.2/arm-none-eabi/thumb/bits/gthr-single.h ****   return (objc_thread_t) 1;
 114:/opt/toolchains/arm-none-eabi/bin/../lib/gcc/arm-none-eabi/4.5.2/../../../../arm-none-eabi/include/c++/4.5.2/arm-none-eabi/thumb/bits/gthr-single.h **** }
 115:/opt/toolchains/arm-none-eabi/bin/../lib/gcc/arm-none-eabi/4.5.2/../../../../arm-none-eabi/include/c++/4.5.2/arm-none-eabi/thumb/bits/gthr-single.h **** 
 116:/opt/toolchains/arm-none-eabi/bin/../lib/gcc/arm-none-eabi/4.5.2/../../../../arm-none-eabi/include/c++/4.5.2/arm-none-eabi/thumb/bits/gthr-single.h **** /* Sets the thread's local storage pointer.  */
 117:/opt/toolchains/arm-none-eabi/bin/../lib/gcc/arm-none-eabi/4.5.2/../../../../arm-none-eabi/include/c++/4.5.2/arm-none-eabi/thumb/bits/gthr-single.h **** static inline int
 118:/opt/toolchains/arm-none-eabi/bin/../lib/gcc/arm-none-eabi/4.5.2/../../../../arm-none-eabi/include/c++/4.5.2/arm-none-eabi/thumb/bits/gthr-single.h **** __gthread_objc_thread_set_data (void *value)
 119:/opt/toolchains/arm-none-eabi/bin/../lib/gcc/arm-none-eabi/4.5.2/../../../../arm-none-eabi/include/c++/4.5.2/arm-none-eabi/thumb/bits/gthr-single.h **** {
 120:/opt/toolchains/arm-none-eabi/bin/../lib/gcc/arm-none-eabi/4.5.2/../../../../arm-none-eabi/include/c++/4.5.2/arm-none-eabi/thumb/bits/gthr-single.h ****   thread_local_storage = value;
 121:/opt/toolchains/arm-none-eabi/bin/../lib/gcc/arm-none-eabi/4.5.2/../../../../arm-none-eabi/include/c++/4.5.2/arm-none-eabi/thumb/bits/gthr-single.h ****   return 0;
 122:/opt/toolchains/arm-none-eabi/bin/../lib/gcc/arm-none-eabi/4.5.2/../../../../arm-none-eabi/include/c++/4.5.2/arm-none-eabi/thumb/bits/gthr-single.h **** }
 123:/opt/toolchains/arm-none-eabi/bin/../lib/gcc/arm-none-eabi/4.5.2/../../../../arm-none-eabi/include/c++/4.5.2/arm-none-eabi/thumb/bits/gthr-single.h **** 
 124:/opt/toolchains/arm-none-eabi/bin/../lib/gcc/arm-none-eabi/4.5.2/../../../../arm-none-eabi/include/c++/4.5.2/arm-none-eabi/thumb/bits/gthr-single.h **** /* Returns the thread's local storage pointer.  */
 125:/opt/toolchains/arm-none-eabi/bin/../lib/gcc/arm-none-eabi/4.5.2/../../../../arm-none-eabi/include/c++/4.5.2/arm-none-eabi/thumb/bits/gthr-single.h **** static inline void *
 126:/opt/toolchains/arm-none-eabi/bin/../lib/gcc/arm-none-eabi/4.5.2/../../../../arm-none-eabi/include/c++/4.5.2/arm-none-eabi/thumb/bits/gthr-single.h **** __gthread_objc_thread_get_data (void)
 127:/opt/toolchains/arm-none-eabi/bin/../lib/gcc/arm-none-eabi/4.5.2/../../../../arm-none-eabi/include/c++/4.5.2/arm-none-eabi/thumb/bits/gthr-single.h **** {
 128:/opt/toolchains/arm-none-eabi/bin/../lib/gcc/arm-none-eabi/4.5.2/../../../../arm-none-eabi/include/c++/4.5.2/arm-none-eabi/thumb/bits/gthr-single.h ****   return thread_local_storage;
 129:/opt/toolchains/arm-none-eabi/bin/../lib/gcc/arm-none-eabi/4.5.2/../../../../arm-none-eabi/include/c++/4.5.2/arm-none-eabi/thumb/bits/gthr-single.h **** }
 130:/opt/toolchains/arm-none-eabi/bin/../lib/gcc/arm-none-eabi/4.5.2/../../../../arm-none-eabi/include/c++/4.5.2/arm-none-eabi/thumb/bits/gthr-single.h **** 
 131:/opt/toolchains/arm-none-eabi/bin/../lib/gcc/arm-none-eabi/4.5.2/../../../../arm-none-eabi/include/c++/4.5.2/arm-none-eabi/thumb/bits/gthr-single.h **** /* Backend mutex functions */
 132:/opt/toolchains/arm-none-eabi/bin/../lib/gcc/arm-none-eabi/4.5.2/../../../../arm-none-eabi/include/c++/4.5.2/arm-none-eabi/thumb/bits/gthr-single.h **** 
 133:/opt/toolchains/arm-none-eabi/bin/../lib/gcc/arm-none-eabi/4.5.2/../../../../arm-none-eabi/include/c++/4.5.2/arm-none-eabi/thumb/bits/gthr-single.h **** /* Allocate a mutex.  */
 134:/opt/toolchains/arm-none-eabi/bin/../lib/gcc/arm-none-eabi/4.5.2/../../../../arm-none-eabi/include/c++/4.5.2/arm-none-eabi/thumb/bits/gthr-single.h **** static inline int
 135:/opt/toolchains/arm-none-eabi/bin/../lib/gcc/arm-none-eabi/4.5.2/../../../../arm-none-eabi/include/c++/4.5.2/arm-none-eabi/thumb/bits/gthr-single.h **** __gthread_objc_mutex_allocate (objc_mutex_t mutex _GLIBCXX_UNUSED)
 136:/opt/toolchains/arm-none-eabi/bin/../lib/gcc/arm-none-eabi/4.5.2/../../../../arm-none-eabi/include/c++/4.5.2/arm-none-eabi/thumb/bits/gthr-single.h **** {
 137:/opt/toolchains/arm-none-eabi/bin/../lib/gcc/arm-none-eabi/4.5.2/../../../../arm-none-eabi/include/c++/4.5.2/arm-none-eabi/thumb/bits/gthr-single.h ****   return 0;
 138:/opt/toolchains/arm-none-eabi/bin/../lib/gcc/arm-none-eabi/4.5.2/../../../../arm-none-eabi/include/c++/4.5.2/arm-none-eabi/thumb/bits/gthr-single.h **** }
 139:/opt/toolchains/arm-none-eabi/bin/../lib/gcc/arm-none-eabi/4.5.2/../../../../arm-none-eabi/include/c++/4.5.2/arm-none-eabi/thumb/bits/gthr-single.h **** 
 140:/opt/toolchains/arm-none-eabi/bin/../lib/gcc/arm-none-eabi/4.5.2/../../../../arm-none-eabi/include/c++/4.5.2/arm-none-eabi/thumb/bits/gthr-single.h **** /* Deallocate a mutex.  */
 141:/opt/toolchains/arm-none-eabi/bin/../lib/gcc/arm-none-eabi/4.5.2/../../../../arm-none-eabi/include/c++/4.5.2/arm-none-eabi/thumb/bits/gthr-single.h **** static inline int
 142:/opt/toolchains/arm-none-eabi/bin/../lib/gcc/arm-none-eabi/4.5.2/../../../../arm-none-eabi/include/c++/4.5.2/arm-none-eabi/thumb/bits/gthr-single.h **** __gthread_objc_mutex_deallocate (objc_mutex_t mutex _GLIBCXX_UNUSED)
 143:/opt/toolchains/arm-none-eabi/bin/../lib/gcc/arm-none-eabi/4.5.2/../../../../arm-none-eabi/include/c++/4.5.2/arm-none-eabi/thumb/bits/gthr-single.h **** {
 144:/opt/toolchains/arm-none-eabi/bin/../lib/gcc/arm-none-eabi/4.5.2/../../../../arm-none-eabi/include/c++/4.5.2/arm-none-eabi/thumb/bits/gthr-single.h ****   return 0;
 145:/opt/toolchains/arm-none-eabi/bin/../lib/gcc/arm-none-eabi/4.5.2/../../../../arm-none-eabi/include/c++/4.5.2/arm-none-eabi/thumb/bits/gthr-single.h **** }
 146:/opt/toolchains/arm-none-eabi/bin/../lib/gcc/arm-none-eabi/4.5.2/../../../../arm-none-eabi/include/c++/4.5.2/arm-none-eabi/thumb/bits/gthr-single.h **** 
 147:/opt/toolchains/arm-none-eabi/bin/../lib/gcc/arm-none-eabi/4.5.2/../../../../arm-none-eabi/include/c++/4.5.2/arm-none-eabi/thumb/bits/gthr-single.h **** /* Grab a lock on a mutex.  */
 148:/opt/toolchains/arm-none-eabi/bin/../lib/gcc/arm-none-eabi/4.5.2/../../../../arm-none-eabi/include/c++/4.5.2/arm-none-eabi/thumb/bits/gthr-single.h **** static inline int
 149:/opt/toolchains/arm-none-eabi/bin/../lib/gcc/arm-none-eabi/4.5.2/../../../../arm-none-eabi/include/c++/4.5.2/arm-none-eabi/thumb/bits/gthr-single.h **** __gthread_objc_mutex_lock (objc_mutex_t mutex _GLIBCXX_UNUSED)
 150:/opt/toolchains/arm-none-eabi/bin/../lib/gcc/arm-none-eabi/4.5.2/../../../../arm-none-eabi/include/c++/4.5.2/arm-none-eabi/thumb/bits/gthr-single.h **** {
 151:/opt/toolchains/arm-none-eabi/bin/../lib/gcc/arm-none-eabi/4.5.2/../../../../arm-none-eabi/include/c++/4.5.2/arm-none-eabi/thumb/bits/gthr-single.h ****   /* There can only be one thread, so we always get the lock */
 152:/opt/toolchains/arm-none-eabi/bin/../lib/gcc/arm-none-eabi/4.5.2/../../../../arm-none-eabi/include/c++/4.5.2/arm-none-eabi/thumb/bits/gthr-single.h ****   return 0;
 153:/opt/toolchains/arm-none-eabi/bin/../lib/gcc/arm-none-eabi/4.5.2/../../../../arm-none-eabi/include/c++/4.5.2/arm-none-eabi/thumb/bits/gthr-single.h **** }
 154:/opt/toolchains/arm-none-eabi/bin/../lib/gcc/arm-none-eabi/4.5.2/../../../../arm-none-eabi/include/c++/4.5.2/arm-none-eabi/thumb/bits/gthr-single.h **** 
 155:/opt/toolchains/arm-none-eabi/bin/../lib/gcc/arm-none-eabi/4.5.2/../../../../arm-none-eabi/include/c++/4.5.2/arm-none-eabi/thumb/bits/gthr-single.h **** /* Try to grab a lock on a mutex.  */
 156:/opt/toolchains/arm-none-eabi/bin/../lib/gcc/arm-none-eabi/4.5.2/../../../../arm-none-eabi/include/c++/4.5.2/arm-none-eabi/thumb/bits/gthr-single.h **** static inline int
 157:/opt/toolchains/arm-none-eabi/bin/../lib/gcc/arm-none-eabi/4.5.2/../../../../arm-none-eabi/include/c++/4.5.2/arm-none-eabi/thumb/bits/gthr-single.h **** __gthread_objc_mutex_trylock (objc_mutex_t mutex _GLIBCXX_UNUSED)
 158:/opt/toolchains/arm-none-eabi/bin/../lib/gcc/arm-none-eabi/4.5.2/../../../../arm-none-eabi/include/c++/4.5.2/arm-none-eabi/thumb/bits/gthr-single.h **** {
 159:/opt/toolchains/arm-none-eabi/bin/../lib/gcc/arm-none-eabi/4.5.2/../../../../arm-none-eabi/include/c++/4.5.2/arm-none-eabi/thumb/bits/gthr-single.h ****   /* There can only be one thread, so we always get the lock */
 160:/opt/toolchains/arm-none-eabi/bin/../lib/gcc/arm-none-eabi/4.5.2/../../../../arm-none-eabi/include/c++/4.5.2/arm-none-eabi/thumb/bits/gthr-single.h ****   return 0;
 161:/opt/toolchains/arm-none-eabi/bin/../lib/gcc/arm-none-eabi/4.5.2/../../../../arm-none-eabi/include/c++/4.5.2/arm-none-eabi/thumb/bits/gthr-single.h **** }
 162:/opt/toolchains/arm-none-eabi/bin/../lib/gcc/arm-none-eabi/4.5.2/../../../../arm-none-eabi/include/c++/4.5.2/arm-none-eabi/thumb/bits/gthr-single.h **** 
 163:/opt/toolchains/arm-none-eabi/bin/../lib/gcc/arm-none-eabi/4.5.2/../../../../arm-none-eabi/include/c++/4.5.2/arm-none-eabi/thumb/bits/gthr-single.h **** /* Unlock the mutex */
 164:/opt/toolchains/arm-none-eabi/bin/../lib/gcc/arm-none-eabi/4.5.2/../../../../arm-none-eabi/include/c++/4.5.2/arm-none-eabi/thumb/bits/gthr-single.h **** static inline int
 165:/opt/toolchains/arm-none-eabi/bin/../lib/gcc/arm-none-eabi/4.5.2/../../../../arm-none-eabi/include/c++/4.5.2/arm-none-eabi/thumb/bits/gthr-single.h **** __gthread_objc_mutex_unlock (objc_mutex_t mutex _GLIBCXX_UNUSED)
 166:/opt/toolchains/arm-none-eabi/bin/../lib/gcc/arm-none-eabi/4.5.2/../../../../arm-none-eabi/include/c++/4.5.2/arm-none-eabi/thumb/bits/gthr-single.h **** {
 167:/opt/toolchains/arm-none-eabi/bin/../lib/gcc/arm-none-eabi/4.5.2/../../../../arm-none-eabi/include/c++/4.5.2/arm-none-eabi/thumb/bits/gthr-single.h ****   return 0;
 168:/opt/toolchains/arm-none-eabi/bin/../lib/gcc/arm-none-eabi/4.5.2/../../../../arm-none-eabi/include/c++/4.5.2/arm-none-eabi/thumb/bits/gthr-single.h **** }
 169:/opt/toolchains/arm-none-eabi/bin/../lib/gcc/arm-none-eabi/4.5.2/../../../../arm-none-eabi/include/c++/4.5.2/arm-none-eabi/thumb/bits/gthr-single.h **** 
 170:/opt/toolchains/arm-none-eabi/bin/../lib/gcc/arm-none-eabi/4.5.2/../../../../arm-none-eabi/include/c++/4.5.2/arm-none-eabi/thumb/bits/gthr-single.h **** /* Backend condition mutex functions */
 171:/opt/toolchains/arm-none-eabi/bin/../lib/gcc/arm-none-eabi/4.5.2/../../../../arm-none-eabi/include/c++/4.5.2/arm-none-eabi/thumb/bits/gthr-single.h **** 
 172:/opt/toolchains/arm-none-eabi/bin/../lib/gcc/arm-none-eabi/4.5.2/../../../../arm-none-eabi/include/c++/4.5.2/arm-none-eabi/thumb/bits/gthr-single.h **** /* Allocate a condition.  */
 173:/opt/toolchains/arm-none-eabi/bin/../lib/gcc/arm-none-eabi/4.5.2/../../../../arm-none-eabi/include/c++/4.5.2/arm-none-eabi/thumb/bits/gthr-single.h **** static inline int
 174:/opt/toolchains/arm-none-eabi/bin/../lib/gcc/arm-none-eabi/4.5.2/../../../../arm-none-eabi/include/c++/4.5.2/arm-none-eabi/thumb/bits/gthr-single.h **** __gthread_objc_condition_allocate (objc_condition_t condition _GLIBCXX_UNUSED)
 175:/opt/toolchains/arm-none-eabi/bin/../lib/gcc/arm-none-eabi/4.5.2/../../../../arm-none-eabi/include/c++/4.5.2/arm-none-eabi/thumb/bits/gthr-single.h **** {
 176:/opt/toolchains/arm-none-eabi/bin/../lib/gcc/arm-none-eabi/4.5.2/../../../../arm-none-eabi/include/c++/4.5.2/arm-none-eabi/thumb/bits/gthr-single.h ****   return 0;
 177:/opt/toolchains/arm-none-eabi/bin/../lib/gcc/arm-none-eabi/4.5.2/../../../../arm-none-eabi/include/c++/4.5.2/arm-none-eabi/thumb/bits/gthr-single.h **** }
 178:/opt/toolchains/arm-none-eabi/bin/../lib/gcc/arm-none-eabi/4.5.2/../../../../arm-none-eabi/include/c++/4.5.2/arm-none-eabi/thumb/bits/gthr-single.h **** 
 179:/opt/toolchains/arm-none-eabi/bin/../lib/gcc/arm-none-eabi/4.5.2/../../../../arm-none-eabi/include/c++/4.5.2/arm-none-eabi/thumb/bits/gthr-single.h **** /* Deallocate a condition.  */
 180:/opt/toolchains/arm-none-eabi/bin/../lib/gcc/arm-none-eabi/4.5.2/../../../../arm-none-eabi/include/c++/4.5.2/arm-none-eabi/thumb/bits/gthr-single.h **** static inline int
 181:/opt/toolchains/arm-none-eabi/bin/../lib/gcc/arm-none-eabi/4.5.2/../../../../arm-none-eabi/include/c++/4.5.2/arm-none-eabi/thumb/bits/gthr-single.h **** __gthread_objc_condition_deallocate (objc_condition_t condition _GLIBCXX_UNUSED)
 182:/opt/toolchains/arm-none-eabi/bin/../lib/gcc/arm-none-eabi/4.5.2/../../../../arm-none-eabi/include/c++/4.5.2/arm-none-eabi/thumb/bits/gthr-single.h **** {
 183:/opt/toolchains/arm-none-eabi/bin/../lib/gcc/arm-none-eabi/4.5.2/../../../../arm-none-eabi/include/c++/4.5.2/arm-none-eabi/thumb/bits/gthr-single.h ****   return 0;
 184:/opt/toolchains/arm-none-eabi/bin/../lib/gcc/arm-none-eabi/4.5.2/../../../../arm-none-eabi/include/c++/4.5.2/arm-none-eabi/thumb/bits/gthr-single.h **** }
 185:/opt/toolchains/arm-none-eabi/bin/../lib/gcc/arm-none-eabi/4.5.2/../../../../arm-none-eabi/include/c++/4.5.2/arm-none-eabi/thumb/bits/gthr-single.h **** 
 186:/opt/toolchains/arm-none-eabi/bin/../lib/gcc/arm-none-eabi/4.5.2/../../../../arm-none-eabi/include/c++/4.5.2/arm-none-eabi/thumb/bits/gthr-single.h **** /* Wait on the condition */
 187:/opt/toolchains/arm-none-eabi/bin/../lib/gcc/arm-none-eabi/4.5.2/../../../../arm-none-eabi/include/c++/4.5.2/arm-none-eabi/thumb/bits/gthr-single.h **** static inline int
 188:/opt/toolchains/arm-none-eabi/bin/../lib/gcc/arm-none-eabi/4.5.2/../../../../arm-none-eabi/include/c++/4.5.2/arm-none-eabi/thumb/bits/gthr-single.h **** __gthread_objc_condition_wait (objc_condition_t condition _GLIBCXX_UNUSED,
 189:/opt/toolchains/arm-none-eabi/bin/../lib/gcc/arm-none-eabi/4.5.2/../../../../arm-none-eabi/include/c++/4.5.2/arm-none-eabi/thumb/bits/gthr-single.h **** 			       objc_mutex_t mutex _GLIBCXX_UNUSED)
 190:/opt/toolchains/arm-none-eabi/bin/../lib/gcc/arm-none-eabi/4.5.2/../../../../arm-none-eabi/include/c++/4.5.2/arm-none-eabi/thumb/bits/gthr-single.h **** {
 191:/opt/toolchains/arm-none-eabi/bin/../lib/gcc/arm-none-eabi/4.5.2/../../../../arm-none-eabi/include/c++/4.5.2/arm-none-eabi/thumb/bits/gthr-single.h ****   return 0;
 192:/opt/toolchains/arm-none-eabi/bin/../lib/gcc/arm-none-eabi/4.5.2/../../../../arm-none-eabi/include/c++/4.5.2/arm-none-eabi/thumb/bits/gthr-single.h **** }
 193:/opt/toolchains/arm-none-eabi/bin/../lib/gcc/arm-none-eabi/4.5.2/../../../../arm-none-eabi/include/c++/4.5.2/arm-none-eabi/thumb/bits/gthr-single.h **** 
 194:/opt/toolchains/arm-none-eabi/bin/../lib/gcc/arm-none-eabi/4.5.2/../../../../arm-none-eabi/include/c++/4.5.2/arm-none-eabi/thumb/bits/gthr-single.h **** /* Wake up all threads waiting on this condition.  */
 195:/opt/toolchains/arm-none-eabi/bin/../lib/gcc/arm-none-eabi/4.5.2/../../../../arm-none-eabi/include/c++/4.5.2/arm-none-eabi/thumb/bits/gthr-single.h **** static inline int
 196:/opt/toolchains/arm-none-eabi/bin/../lib/gcc/arm-none-eabi/4.5.2/../../../../arm-none-eabi/include/c++/4.5.2/arm-none-eabi/thumb/bits/gthr-single.h **** __gthread_objc_condition_broadcast (objc_condition_t condition _GLIBCXX_UNUSED)
 197:/opt/toolchains/arm-none-eabi/bin/../lib/gcc/arm-none-eabi/4.5.2/../../../../arm-none-eabi/include/c++/4.5.2/arm-none-eabi/thumb/bits/gthr-single.h **** {
 198:/opt/toolchains/arm-none-eabi/bin/../lib/gcc/arm-none-eabi/4.5.2/../../../../arm-none-eabi/include/c++/4.5.2/arm-none-eabi/thumb/bits/gthr-single.h ****   return 0;
 199:/opt/toolchains/arm-none-eabi/bin/../lib/gcc/arm-none-eabi/4.5.2/../../../../arm-none-eabi/include/c++/4.5.2/arm-none-eabi/thumb/bits/gthr-single.h **** }
 200:/opt/toolchains/arm-none-eabi/bin/../lib/gcc/arm-none-eabi/4.5.2/../../../../arm-none-eabi/include/c++/4.5.2/arm-none-eabi/thumb/bits/gthr-single.h **** 
 201:/opt/toolchains/arm-none-eabi/bin/../lib/gcc/arm-none-eabi/4.5.2/../../../../arm-none-eabi/include/c++/4.5.2/arm-none-eabi/thumb/bits/gthr-single.h **** /* Wake up one thread waiting on this condition.  */
 202:/opt/toolchains/arm-none-eabi/bin/../lib/gcc/arm-none-eabi/4.5.2/../../../../arm-none-eabi/include/c++/4.5.2/arm-none-eabi/thumb/bits/gthr-single.h **** static inline int
 203:/opt/toolchains/arm-none-eabi/bin/../lib/gcc/arm-none-eabi/4.5.2/../../../../arm-none-eabi/include/c++/4.5.2/arm-none-eabi/thumb/bits/gthr-single.h **** __gthread_objc_condition_signal (objc_condition_t condition _GLIBCXX_UNUSED)
 204:/opt/toolchains/arm-none-eabi/bin/../lib/gcc/arm-none-eabi/4.5.2/../../../../arm-none-eabi/include/c++/4.5.2/arm-none-eabi/thumb/bits/gthr-single.h **** {
 205:/opt/toolchains/arm-none-eabi/bin/../lib/gcc/arm-none-eabi/4.5.2/../../../../arm-none-eabi/include/c++/4.5.2/arm-none-eabi/thumb/bits/gthr-single.h ****   return 0;
 206:/opt/toolchains/arm-none-eabi/bin/../lib/gcc/arm-none-eabi/4.5.2/../../../../arm-none-eabi/include/c++/4.5.2/arm-none-eabi/thumb/bits/gthr-single.h **** }
 207:/opt/toolchains/arm-none-eabi/bin/../lib/gcc/arm-none-eabi/4.5.2/../../../../arm-none-eabi/include/c++/4.5.2/arm-none-eabi/thumb/bits/gthr-single.h **** 
 208:/opt/toolchains/arm-none-eabi/bin/../lib/gcc/arm-none-eabi/4.5.2/../../../../arm-none-eabi/include/c++/4.5.2/arm-none-eabi/thumb/bits/gthr-single.h **** #else /* _LIBOBJC */
 209:/opt/toolchains/arm-none-eabi/bin/../lib/gcc/arm-none-eabi/4.5.2/../../../../arm-none-eabi/include/c++/4.5.2/arm-none-eabi/thumb/bits/gthr-single.h **** 
 210:/opt/toolchains/arm-none-eabi/bin/../lib/gcc/arm-none-eabi/4.5.2/../../../../arm-none-eabi/include/c++/4.5.2/arm-none-eabi/thumb/bits/gthr-single.h **** static inline int
 211:/opt/toolchains/arm-none-eabi/bin/../lib/gcc/arm-none-eabi/4.5.2/../../../../arm-none-eabi/include/c++/4.5.2/arm-none-eabi/thumb/bits/gthr-single.h **** __gthread_active_p (void)
 212:/opt/toolchains/arm-none-eabi/bin/../lib/gcc/arm-none-eabi/4.5.2/../../../../arm-none-eabi/include/c++/4.5.2/arm-none-eabi/thumb/bits/gthr-single.h **** {
 213:/opt/toolchains/arm-none-eabi/bin/../lib/gcc/arm-none-eabi/4.5.2/../../../../arm-none-eabi/include/c++/4.5.2/arm-none-eabi/thumb/bits/gthr-single.h ****   return 0;
 214:/opt/toolchains/arm-none-eabi/bin/../lib/gcc/arm-none-eabi/4.5.2/../../../../arm-none-eabi/include/c++/4.5.2/arm-none-eabi/thumb/bits/gthr-single.h **** }
 215:/opt/toolchains/arm-none-eabi/bin/../lib/gcc/arm-none-eabi/4.5.2/../../../../arm-none-eabi/include/c++/4.5.2/arm-none-eabi/thumb/bits/gthr-single.h **** 
 216:/opt/toolchains/arm-none-eabi/bin/../lib/gcc/arm-none-eabi/4.5.2/../../../../arm-none-eabi/include/c++/4.5.2/arm-none-eabi/thumb/bits/gthr-single.h **** static inline int
 217:/opt/toolchains/arm-none-eabi/bin/../lib/gcc/arm-none-eabi/4.5.2/../../../../arm-none-eabi/include/c++/4.5.2/arm-none-eabi/thumb/bits/gthr-single.h **** __gthread_once (__gthread_once_t *__once _GLIBCXX_UNUSED, void (*__func) (void) _GLIBCXX_UNUSED)
 218:/opt/toolchains/arm-none-eabi/bin/../lib/gcc/arm-none-eabi/4.5.2/../../../../arm-none-eabi/include/c++/4.5.2/arm-none-eabi/thumb/bits/gthr-single.h **** {
 219:/opt/toolchains/arm-none-eabi/bin/../lib/gcc/arm-none-eabi/4.5.2/../../../../arm-none-eabi/include/c++/4.5.2/arm-none-eabi/thumb/bits/gthr-single.h ****   return 0;
 220:/opt/toolchains/arm-none-eabi/bin/../lib/gcc/arm-none-eabi/4.5.2/../../../../arm-none-eabi/include/c++/4.5.2/arm-none-eabi/thumb/bits/gthr-single.h **** }
 221:/opt/toolchains/arm-none-eabi/bin/../lib/gcc/arm-none-eabi/4.5.2/../../../../arm-none-eabi/include/c++/4.5.2/arm-none-eabi/thumb/bits/gthr-single.h **** 
 222:/opt/toolchains/arm-none-eabi/bin/../lib/gcc/arm-none-eabi/4.5.2/../../../../arm-none-eabi/include/c++/4.5.2/arm-none-eabi/thumb/bits/gthr-single.h **** static inline int _GLIBCXX_UNUSED
 223:/opt/toolchains/arm-none-eabi/bin/../lib/gcc/arm-none-eabi/4.5.2/../../../../arm-none-eabi/include/c++/4.5.2/arm-none-eabi/thumb/bits/gthr-single.h **** __gthread_key_create (__gthread_key_t *__key _GLIBCXX_UNUSED, void (*__func) (void *) _GLIBCXX_UNUS
 224:/opt/toolchains/arm-none-eabi/bin/../lib/gcc/arm-none-eabi/4.5.2/../../../../arm-none-eabi/include/c++/4.5.2/arm-none-eabi/thumb/bits/gthr-single.h **** {
 225:/opt/toolchains/arm-none-eabi/bin/../lib/gcc/arm-none-eabi/4.5.2/../../../../arm-none-eabi/include/c++/4.5.2/arm-none-eabi/thumb/bits/gthr-single.h ****   return 0;
 226:/opt/toolchains/arm-none-eabi/bin/../lib/gcc/arm-none-eabi/4.5.2/../../../../arm-none-eabi/include/c++/4.5.2/arm-none-eabi/thumb/bits/gthr-single.h **** }
 227:/opt/toolchains/arm-none-eabi/bin/../lib/gcc/arm-none-eabi/4.5.2/../../../../arm-none-eabi/include/c++/4.5.2/arm-none-eabi/thumb/bits/gthr-single.h **** 
 228:/opt/toolchains/arm-none-eabi/bin/../lib/gcc/arm-none-eabi/4.5.2/../../../../arm-none-eabi/include/c++/4.5.2/arm-none-eabi/thumb/bits/gthr-single.h **** static int _GLIBCXX_UNUSED
 229:/opt/toolchains/arm-none-eabi/bin/../lib/gcc/arm-none-eabi/4.5.2/../../../../arm-none-eabi/include/c++/4.5.2/arm-none-eabi/thumb/bits/gthr-single.h **** __gthread_key_delete (__gthread_key_t __key _GLIBCXX_UNUSED)
 230:/opt/toolchains/arm-none-eabi/bin/../lib/gcc/arm-none-eabi/4.5.2/../../../../arm-none-eabi/include/c++/4.5.2/arm-none-eabi/thumb/bits/gthr-single.h **** {
 3932              		.loc 68 230 0
 3933              		.cfi_startproc
 3934              		@ args = 0, pretend = 0, frame = 8
 3935              		@ frame_needed = 1, uses_anonymous_args = 0
 3936              		@ link register save eliminated.
 3937 0000 80B4     		push	{r7}
 3938              	.LCFI0:
 3939              		.cfi_def_cfa_offset 4
 3940 0002 83B0     		sub	sp, sp, #12
 3941              	.LCFI1:
 3942              		.cfi_def_cfa_offset 16
 3943 0004 00AF     		add	r7, sp, #0
 3944              		.cfi_offset 7, -4
 3945              	.LCFI2:
 3946              		.cfi_def_cfa_register 7
 3947 0006 7860     		str	r0, [r7, #4]
 231:/opt/toolchains/arm-none-eabi/bin/../lib/gcc/arm-none-eabi/4.5.2/../../../../arm-none-eabi/include/c++/4.5.2/arm-none-eabi/thumb/bits/gthr-single.h ****   return 0;
 3948              		.loc 68 231 0
 3949 0008 4FF00003 		mov	r3, #0
 232:/opt/toolchains/arm-none-eabi/bin/../lib/gcc/arm-none-eabi/4.5.2/../../../../arm-none-eabi/include/c++/4.5.2/arm-none-eabi/thumb/bits/gthr-single.h **** }
 3950              		.loc 68 232 0
 3951 000c 1846     		mov	r0, r3
 3952 000e 07F10C07 		add	r7, r7, #12
 3953 0012 BD46     		mov	sp, r7
 3954 0014 80BC     		pop	{r7}
 3955 0016 7047     		bx	lr
 3956              		.cfi_endproc
 3957              	.LFE433:
 3959              		.section	.text._ZN5Air3T9GameFieldC2ERNS_5ModelE,"ax",%progbits
 3960              		.align	2
 3961              		.global	_ZN5Air3T9GameFieldC2ERNS_5ModelE
 3962              		.thumb
 3963              		.thumb_func
 3965              	_ZN5Air3T9GameFieldC2ERNS_5ModelE:
 3966              	.LFB865:
   1:../air3t/data/gamefield.cpp **** #include "GameField"
   2:../air3t/data/gamefield.cpp **** #include "Model"
   3:../air3t/data/gamefield.cpp **** #include <assert.h>
   4:../air3t/data/gamefield.cpp **** #include <algorithm>
   5:../air3t/data/gamefield.cpp **** 
   6:../air3t/data/gamefield.cpp **** namespace Air3T
   7:../air3t/data/gamefield.cpp **** {
   8:../air3t/data/gamefield.cpp **** 	GameField::GameField( Model & model ) : _model( model )
 3967              		.loc 1 8 0
 3968              		.cfi_startproc
 3969              		@ args = 0, pretend = 0, frame = 16
 3970              		@ frame_needed = 1, uses_anonymous_args = 0
 3971              		@ link register save eliminated.
 3972 0000 80B4     		push	{r7}
 3973              	.LCFI3:
 3974              		.cfi_def_cfa_offset 4
 3975 0002 85B0     		sub	sp, sp, #20
 3976              	.LCFI4:
 3977              		.cfi_def_cfa_offset 24
 3978 0004 00AF     		add	r7, sp, #0
 3979              		.cfi_offset 7, -4
 3980              	.LCFI5:
 3981              		.cfi_def_cfa_register 7
 3982 0006 7860     		str	r0, [r7, #4]
 3983 0008 3960     		str	r1, [r7, #0]
 3984              	.LBB2:
 3985              		.loc 1 8 0
 3986 000a 7B68     		ldr	r3, [r7, #4]
 3987 000c 3A68     		ldr	r2, [r7, #0]
 3988 000e DA60     		str	r2, [r3, #12]
 3989              	.LBB3:
 3990              	.LBB4:
   9:../air3t/data/gamefield.cpp **** 	{
  10:../air3t/data/gamefield.cpp **** 		for ( int i = 0 ; i < 9 ; ++i )
 3991              		.loc 1 10 0
 3992 0010 4FF00003 		mov	r3, #0
 3993 0014 FB60     		str	r3, [r7, #12]
 3994 0016 09E0     		b	.L3
 3995              	.L4:
  11:../air3t/data/gamefield.cpp **** 			_data[i] = None;
 3996              		.loc 1 11 0 discriminator 2
 3997 0018 7A68     		ldr	r2, [r7, #4]
 3998 001a FB68     		ldr	r3, [r7, #12]
 3999 001c D318     		adds	r3, r2, r3
 4000 001e 4FF00002 		mov	r2, #0
 4001 0022 1A70     		strb	r2, [r3, #0]
  10:../air3t/data/gamefield.cpp **** 		for ( int i = 0 ; i < 9 ; ++i )
 4002              		.loc 1 10 0 discriminator 2
 4003 0024 FB68     		ldr	r3, [r7, #12]
 4004 0026 03F10103 		add	r3, r3, #1
 4005 002a FB60     		str	r3, [r7, #12]
 4006              	.L3:
  10:../air3t/data/gamefield.cpp **** 		for ( int i = 0 ; i < 9 ; ++i )
 4007              		.loc 1 10 0 is_stmt 0 discriminator 1
 4008 002c FB68     		ldr	r3, [r7, #12]
 4009 002e 082B     		cmp	r3, #8
 4010 0030 CCBF     		ite	gt
 4011 0032 0023     		movgt	r3, #0
 4012 0034 0123     		movle	r3, #1
 4013 0036 DBB2     		uxtb	r3, r3
 4014 0038 002B     		cmp	r3, #0
 4015 003a EDD1     		bne	.L4
 4016              	.LBE4:
 4017              	.LBE3:
 4018              	.LBE2:
  12:../air3t/data/gamefield.cpp **** 	}
 4019              		.loc 1 12 0 is_stmt 1
 4020 003c 7B68     		ldr	r3, [r7, #4]
 4021 003e 1846     		mov	r0, r3
 4022 0040 07F11407 		add	r7, r7, #20
 4023 0044 BD46     		mov	sp, r7
 4024 0046 80BC     		pop	{r7}
 4025 0048 7047     		bx	lr
 4026              		.cfi_endproc
 4027              	.LFE865:
 4029              		.global	_ZN5Air3T9GameFieldC1ERNS_5ModelE
 4030              		.thumb_set _ZN5Air3T9GameFieldC1ERNS_5ModelE,_ZN5Air3T9GameFieldC2ERNS_5ModelE
 4031 004a 00BF     		.section	.text._ZN5Air3T9GameField5clearEv,"ax",%progbits
 4032              		.align	2
 4033              		.global	_ZN5Air3T9GameField5clearEv
 4034              		.thumb
 4035              		.thumb_func
 4037              	_ZN5Air3T9GameField5clearEv:
 4038              	.LFB867:
  13:../air3t/data/gamefield.cpp **** 
  14:../air3t/data/gamefield.cpp **** 	void GameField::clear()
  15:../air3t/data/gamefield.cpp **** 	{
 4039              		.loc 1 15 0
 4040              		.cfi_startproc
 4041              		@ args = 0, pretend = 0, frame = 16
 4042              		@ frame_needed = 1, uses_anonymous_args = 0
 4043 0000 80B5     		push	{r7, lr}
 4044              	.LCFI6:
 4045              		.cfi_def_cfa_offset 8
 4046 0002 84B0     		sub	sp, sp, #16
 4047              	.LCFI7:
 4048              		.cfi_def_cfa_offset 24
 4049 0004 00AF     		add	r7, sp, #0
 4050              		.cfi_offset 14, -4
 4051              		.cfi_offset 7, -8
 4052              	.LCFI8:
 4053              		.cfi_def_cfa_register 7
 4054 0006 7860     		str	r0, [r7, #4]
 4055              	.LBB5:
 4056              	.LBB6:
  16:../air3t/data/gamefield.cpp **** 		for ( int i = 0 ; i < 9 ; ++i )
 4057              		.loc 1 16 0
 4058 0008 4FF00003 		mov	r3, #0
 4059 000c FB60     		str	r3, [r7, #12]
 4060 000e 09E0     		b	.L7
 4061              	.L8:
  17:../air3t/data/gamefield.cpp **** 			_data[i] = None;
 4062              		.loc 1 17 0 discriminator 2
 4063 0010 7A68     		ldr	r2, [r7, #4]
 4064 0012 FB68     		ldr	r3, [r7, #12]
 4065 0014 D318     		adds	r3, r2, r3
 4066 0016 4FF00002 		mov	r2, #0
 4067 001a 1A70     		strb	r2, [r3, #0]
  16:../air3t/data/gamefield.cpp **** 		for ( int i = 0 ; i < 9 ; ++i )
 4068              		.loc 1 16 0 discriminator 2
 4069 001c FB68     		ldr	r3, [r7, #12]
 4070 001e 03F10103 		add	r3, r3, #1
 4071 0022 FB60     		str	r3, [r7, #12]
 4072              	.L7:
  16:../air3t/data/gamefield.cpp **** 		for ( int i = 0 ; i < 9 ; ++i )
 4073              		.loc 1 16 0 is_stmt 0 discriminator 1
 4074 0024 FB68     		ldr	r3, [r7, #12]
 4075 0026 082B     		cmp	r3, #8
 4076 0028 CCBF     		ite	gt
 4077 002a 0023     		movgt	r3, #0
 4078 002c 0123     		movle	r3, #1
 4079 002e DBB2     		uxtb	r3, r3
 4080 0030 002B     		cmp	r3, #0
 4081 0032 EDD1     		bne	.L8
 4082              	.LBE6:
  18:../air3t/data/gamefield.cpp **** 
  19:../air3t/data/gamefield.cpp **** 		_model._update( Model::GameFieldSection );
 4083              		.loc 1 19 0 is_stmt 1
 4084 0034 7B68     		ldr	r3, [r7, #4]
 4085 0036 DB68     		ldr	r3, [r3, #12]
 4086 0038 1846     		mov	r0, r3
 4087 003a 4FF00201 		mov	r1, #2
 4088 003e FFF7FEFF 		bl	_ZN5Air3T5Model7_updateEi
 4089              	.LBE5:
  20:../air3t/data/gamefield.cpp **** 	}
 4090              		.loc 1 20 0
 4091 0042 07F11007 		add	r7, r7, #16
 4092 0046 BD46     		mov	sp, r7
 4093 0048 80BD     		pop	{r7, pc}
 4094              		.cfi_endproc
 4095              	.LFE867:
 4097 004a 00BF     		.section	.text._ZNK5Air3T9GameField6winnerEv,"ax",%progbits
 4098              		.align	2
 4099              		.global	_ZNK5Air3T9GameField6winnerEv
 4100              		.thumb
 4101              		.thumb_func
 4103              	_ZNK5Air3T9GameField6winnerEv:
 4104              	.LFB868:
  21:../air3t/data/gamefield.cpp **** 
  22:../air3t/data/gamefield.cpp **** 	GameField::Symbol GameField::winner() const
  23:../air3t/data/gamefield.cpp **** 	{
 4105              		.loc 1 23 0
 4106              		.cfi_startproc
 4107              		@ args = 0, pretend = 0, frame = 40
 4108              		@ frame_needed = 1, uses_anonymous_args = 0
 4109              		@ link register save eliminated.
 4110 0000 80B4     		push	{r7}
 4111              	.LCFI9:
 4112              		.cfi_def_cfa_offset 4
 4113 0002 8BB0     		sub	sp, sp, #44
 4114              	.LCFI10:
 4115              		.cfi_def_cfa_offset 48
 4116 0004 00AF     		add	r7, sp, #0
 4117              		.cfi_offset 7, -4
 4118              	.LCFI11:
 4119              		.cfi_def_cfa_register 7
 4120 0006 7860     		str	r0, [r7, #4]
 4121              	.LBB7:
 4122              	.LBB8:
  24:../air3t/data/gamefield.cpp **** 		for ( int sequenceIncrement = 1 ; sequenceIncrement <= 4 ; ++sequenceIncrement )
 4123              		.loc 1 24 0
 4124 0008 4FF00103 		mov	r3, #1
 4125 000c 7B62     		str	r3, [r7, #36]
 4126 000e 5CE0     		b	.L10
 4127              	.L22:
 4128              	.LBB9:
  25:../air3t/data/gamefield.cpp **** 		{
  26:../air3t/data/gamefield.cpp **** 			int startField = sequenceIncrement == 2 ? 2 : 0;
 4129              		.loc 1 26 0
 4130 0010 7B6A     		ldr	r3, [r7, #36]
 4131 0012 022B     		cmp	r3, #2
 4132 0014 02D1     		bne	.L11
 4133              		.loc 1 26 0 is_stmt 0 discriminator 1
 4134 0016 4FF00203 		mov	r3, #2
 4135 001a 01E0     		b	.L12
 4136              	.L11:
 4137              		.loc 1 26 0 discriminator 2
 4138 001c 4FF00003 		mov	r3, #0
 4139              	.L12:
 4140              		.loc 1 26 0 discriminator 3
 4141 0020 3B61     		str	r3, [r7, #16]
  27:../air3t/data/gamefield.cpp **** 			int posibilityIncrement = 4 - sequenceIncrement;
 4142              		.loc 1 27 0 is_stmt 1 discriminator 3
 4143 0022 7B6A     		ldr	r3, [r7, #36]
 4144 0024 C3F10403 		rsb	r3, r3, #4
 4145 0028 FB60     		str	r3, [r7, #12]
 4146              	.LBB10:
  28:../air3t/data/gamefield.cpp **** 			for ( int j = 0 ; j < ( sequenceIncrement % 2 ? 3 : 1 ) ; ++j )
 4147              		.loc 1 28 0 discriminator 3
 4148 002a 4FF00003 		mov	r3, #0
 4149 002e 3B62     		str	r3, [r7, #32]
 4150 0030 34E0     		b	.L13
 4151              	.L21:
 4152              	.LBB11:
  29:../air3t/data/gamefield.cpp **** 			{
  30:../air3t/data/gamefield.cpp **** 				int sum = 0;
 4153              		.loc 1 30 0
 4154 0032 4FF00003 		mov	r3, #0
 4155 0036 FB61     		str	r3, [r7, #28]
 4156              	.LBB12:
  31:../air3t/data/gamefield.cpp **** 				for ( int i = 0 ; i < 3 ; ++i ) sum += _data[startField + j * posibilityIncrement + i * sequenc
 4157              		.loc 1 31 0
 4158 0038 4FF00003 		mov	r3, #0
 4159 003c BB61     		str	r3, [r7, #24]
 4160 003e 14E0     		b	.L14
 4161              	.L15:
 4162              		.loc 1 31 0 is_stmt 0 discriminator 2
 4163 0040 3B6A     		ldr	r3, [r7, #32]
 4164 0042 FA68     		ldr	r2, [r7, #12]
 4165 0044 02FB03F2 		mul	r2, r2, r3
 4166 0048 BB69     		ldr	r3, [r7, #24]
 4167 004a 796A     		ldr	r1, [r7, #36]
 4168 004c 01FB03F3 		mul	r3, r1, r3
 4169 0050 D218     		adds	r2, r2, r3
 4170 0052 3B69     		ldr	r3, [r7, #16]
 4171 0054 D318     		adds	r3, r2, r3
 4172 0056 7A68     		ldr	r2, [r7, #4]
 4173 0058 D35C     		ldrb	r3, [r2, r3]	@ zero_extendqisi2
 4174 005a 5BB2     		sxtb	r3, r3
 4175 005c FA69     		ldr	r2, [r7, #28]
 4176 005e D318     		adds	r3, r2, r3
 4177 0060 FB61     		str	r3, [r7, #28]
 4178 0062 BB69     		ldr	r3, [r7, #24]
 4179 0064 03F10103 		add	r3, r3, #1
 4180 0068 BB61     		str	r3, [r7, #24]
 4181              	.L14:
 4182              		.loc 1 31 0 discriminator 1
 4183 006a BB69     		ldr	r3, [r7, #24]
 4184 006c 022B     		cmp	r3, #2
 4185 006e CCBF     		ite	gt
 4186 0070 0023     		movgt	r3, #0
 4187 0072 0123     		movle	r3, #1
 4188 0074 DBB2     		uxtb	r3, r3
 4189 0076 002B     		cmp	r3, #0
 4190 0078 E2D1     		bne	.L15
 4191              	.LBE12:
  32:../air3t/data/gamefield.cpp **** 				if ( sum == 3 ) return Circle;
 4192              		.loc 1 32 0 is_stmt 1
 4193 007a FB69     		ldr	r3, [r7, #28]
 4194 007c 032B     		cmp	r3, #3
 4195 007e 02D1     		bne	.L16
 4196              		.loc 1 32 0 is_stmt 0 discriminator 1
 4197 0080 4FF00103 		mov	r3, #1
 4198 0084 44E0     		b	.L17
 4199              	.L16:
  33:../air3t/data/gamefield.cpp **** 				if ( sum == -3 ) return Cross;
 4200              		.loc 1 33 0 is_stmt 1
 4201 0086 FB69     		ldr	r3, [r7, #28]
 4202 0088 13F1030F 		cmn	r3, #3
 4203 008c 02D1     		bne	.L18
 4204              		.loc 1 33 0 is_stmt 0 discriminator 1
 4205 008e 4FF0FF03 		mov	r3, #255
 4206 0092 3DE0     		b	.L17
 4207              	.L18:
 4208              	.LBE11:
  28:../air3t/data/gamefield.cpp **** 			for ( int j = 0 ; j < ( sequenceIncrement % 2 ? 3 : 1 ) ; ++j )
 4209              		.loc 1 28 0 is_stmt 1
 4210 0094 3B6A     		ldr	r3, [r7, #32]
 4211 0096 03F10103 		add	r3, r3, #1
 4212 009a 3B62     		str	r3, [r7, #32]
 4213              	.L13:
  28:../air3t/data/gamefield.cpp **** 			for ( int j = 0 ; j < ( sequenceIncrement % 2 ? 3 : 1 ) ; ++j )
 4214              		.loc 1 28 0 is_stmt 0 discriminator 1
 4215 009c 7B6A     		ldr	r3, [r7, #36]
 4216 009e 03F00103 		and	r3, r3, #1
 4217 00a2 DBB2     		uxtb	r3, r3
 4218 00a4 002B     		cmp	r3, #0
 4219 00a6 02D0     		beq	.L19
  28:../air3t/data/gamefield.cpp **** 			for ( int j = 0 ; j < ( sequenceIncrement % 2 ? 3 : 1 ) ; ++j )
 4220              		.loc 1 28 0 discriminator 2
 4221 00a8 4FF00303 		mov	r3, #3
 4222 00ac 01E0     		b	.L20
 4223              	.L19:
  28:../air3t/data/gamefield.cpp **** 			for ( int j = 0 ; j < ( sequenceIncrement % 2 ? 3 : 1 ) ; ++j )
 4224              		.loc 1 28 0 discriminator 3
 4225 00ae 4FF00103 		mov	r3, #1
 4226              	.L20:
  28:../air3t/data/gamefield.cpp **** 			for ( int j = 0 ; j < ( sequenceIncrement % 2 ? 3 : 1 ) ; ++j )
 4227              		.loc 1 28 0 discriminator 4
 4228 00b2 3A6A     		ldr	r2, [r7, #32]
 4229 00b4 9342     		cmp	r3, r2
 4230 00b6 D4BF     		ite	le
 4231 00b8 0023     		movle	r3, #0
 4232 00ba 0123     		movgt	r3, #1
 4233 00bc DBB2     		uxtb	r3, r3
 4234 00be 002B     		cmp	r3, #0
 4235 00c0 B7D1     		bne	.L21
 4236              	.LBE10:
 4237              	.LBE9:
  24:../air3t/data/gamefield.cpp **** 		for ( int sequenceIncrement = 1 ; sequenceIncrement <= 4 ; ++sequenceIncrement )
 4238              		.loc 1 24 0 is_stmt 1
 4239 00c2 7B6A     		ldr	r3, [r7, #36]
 4240 00c4 03F10103 		add	r3, r3, #1
 4241 00c8 7B62     		str	r3, [r7, #36]
 4242              	.L10:
  24:../air3t/data/gamefield.cpp **** 		for ( int sequenceIncrement = 1 ; sequenceIncrement <= 4 ; ++sequenceIncrement )
 4243              		.loc 1 24 0 is_stmt 0 discriminator 1
 4244 00ca 7B6A     		ldr	r3, [r7, #36]
 4245 00cc 042B     		cmp	r3, #4
 4246 00ce CCBF     		ite	gt
 4247 00d0 0023     		movgt	r3, #0
 4248 00d2 0123     		movle	r3, #1
 4249 00d4 DBB2     		uxtb	r3, r3
 4250 00d6 002B     		cmp	r3, #0
 4251 00d8 9AD1     		bne	.L22
 4252              	.LBE8:
 4253              	.LBB13:
  34:../air3t/data/gamefield.cpp **** 			}
  35:../air3t/data/gamefield.cpp **** 		}
  36:../air3t/data/gamefield.cpp **** 
  37:../air3t/data/gamefield.cpp **** 		//Is there a draft?
  38:../air3t/data/gamefield.cpp **** 		for ( int i = 0 ; i < 9 ; i++ )
 4254              		.loc 1 38 0 is_stmt 1
 4255 00da 4FF00003 		mov	r3, #0
 4256 00de 7B61     		str	r3, [r7, #20]
 4257 00e0 0CE0     		b	.L23
 4258              	.L25:
  39:../air3t/data/gamefield.cpp **** 			if ( _data[i] == None ) return None;
 4259              		.loc 1 39 0
 4260 00e2 7A68     		ldr	r2, [r7, #4]
 4261 00e4 7B69     		ldr	r3, [r7, #20]
 4262 00e6 D318     		adds	r3, r2, r3
 4263 00e8 1B78     		ldrb	r3, [r3, #0]	@ zero_extendqisi2
 4264 00ea 002B     		cmp	r3, #0
 4265 00ec 02D1     		bne	.L24
 4266              		.loc 1 39 0 is_stmt 0 discriminator 1
 4267 00ee 4FF00003 		mov	r3, #0
 4268 00f2 0DE0     		b	.L17
 4269              	.L24:
  38:../air3t/data/gamefield.cpp **** 		for ( int i = 0 ; i < 9 ; i++ )
 4270              		.loc 1 38 0 is_stmt 1
 4271 00f4 7B69     		ldr	r3, [r7, #20]
 4272 00f6 03F10103 		add	r3, r3, #1
 4273 00fa 7B61     		str	r3, [r7, #20]
 4274              	.L23:
  38:../air3t/data/gamefield.cpp **** 		for ( int i = 0 ; i < 9 ; i++ )
 4275              		.loc 1 38 0 is_stmt 0 discriminator 1
 4276 00fc 7B69     		ldr	r3, [r7, #20]
 4277 00fe 082B     		cmp	r3, #8
 4278 0100 CCBF     		ite	gt
 4279 0102 0023     		movgt	r3, #0
 4280 0104 0123     		movle	r3, #1
 4281 0106 DBB2     		uxtb	r3, r3
 4282 0108 002B     		cmp	r3, #0
 4283 010a EAD1     		bne	.L25
 4284              	.LBE13:
  40:../air3t/data/gamefield.cpp **** 		return Tie;
 4285              		.loc 1 40 0 is_stmt 1
 4286 010c 4FF00203 		mov	r3, #2
 4287              	.L17:
 4288 0110 5BB2     		sxtb	r3, r3
 4289              	.LBE7:
  41:../air3t/data/gamefield.cpp **** 	}
 4290              		.loc 1 41 0
 4291 0112 1846     		mov	r0, r3
 4292 0114 07F12C07 		add	r7, r7, #44
 4293 0118 BD46     		mov	sp, r7
 4294 011a 80BC     		pop	{r7}
 4295 011c 7047     		bx	lr
 4296              		.cfi_endproc
 4297              	.LFE868:
 4299 011e 00BF     		.section	.rodata
 4300              		.align	2
 4301              	.LC0:
 4302 0000 2E2E2F61 		.ascii	"../air3t/data/gamefield.cpp\000"
 4302      69723374 
 4302      2F646174 
 4302      612F6761 
 4302      6D656669 
 4303              		.align	2
 4304              	.LC1:
 4305 001c 6669656C 		.ascii	"field.x < 3 && field.y < 3\000"
 4305      642E7820 
 4305      3C203320 
 4305      26262066 
 4305      69656C64 
 4306 0037 00       		.section	.text._ZNK5Air3T9GameField6symbolERKNS0_5FieldE,"ax",%progbits
 4307              		.align	2
 4308              		.global	_ZNK5Air3T9GameField6symbolERKNS0_5FieldE
 4309              		.thumb
 4310              		.thumb_func
 4312              	_ZNK5Air3T9GameField6symbolERKNS0_5FieldE:
 4313              	.LFB869:
  42:../air3t/data/gamefield.cpp **** 
  43:../air3t/data/gamefield.cpp **** 	GameField::Symbol GameField::symbol( const Field & field ) const
  44:../air3t/data/gamefield.cpp **** 	{
 4314              		.loc 1 44 0
 4315              		.cfi_startproc
 4316              		@ args = 0, pretend = 0, frame = 16
 4317              		@ frame_needed = 1, uses_anonymous_args = 0
 4318 0000 80B5     		push	{r7, lr}
 4319              	.LCFI12:
 4320              		.cfi_def_cfa_offset 8
 4321 0002 84B0     		sub	sp, sp, #16
 4322              	.LCFI13:
 4323              		.cfi_def_cfa_offset 24
 4324 0004 00AF     		add	r7, sp, #0
 4325              		.cfi_offset 14, -4
 4326              		.cfi_offset 7, -8
 4327              	.LCFI14:
 4328              		.cfi_def_cfa_register 7
 4329 0006 7860     		str	r0, [r7, #4]
 4330 0008 3960     		str	r1, [r7, #0]
 4331              	.LBB14:
  45:../air3t/data/gamefield.cpp **** 		assert( field.x < 3 && field.y < 3 );
 4332              		.loc 1 45 0
 4333 000a 3B68     		ldr	r3, [r7, #0]
 4334 000c 1B68     		ldr	r3, [r3, #0]
 4335 000e 022B     		cmp	r3, #2
 4336 0010 03D8     		bhi	.L27
 4337              		.loc 1 45 0 is_stmt 0 discriminator 2
 4338 0012 3B68     		ldr	r3, [r7, #0]
 4339 0014 5B68     		ldr	r3, [r3, #4]
 4340 0016 022B     		cmp	r3, #2
 4341 0018 0FD9     		bls	.L28
 4342              	.L27:
 4343              		.loc 1 45 0 discriminator 1
 4344 001a 40F20000 		movw	r0, #:lower16:.LC0
 4345 001e C0F20000 		movt	r0, #:upper16:.LC0
 4346 0022 4FF02D01 		mov	r1, #45
 4347 0026 40F20002 		movw	r2, #:lower16:_ZZNK5Air3T9GameField6symbolERKNS0_5FieldEE19__PRETTY_FUNCTION__
 4348 002a C0F20002 		movt	r2, #:upper16:_ZZNK5Air3T9GameField6symbolERKNS0_5FieldEE19__PRETTY_FUNCTION__
 4349 002e 40F20003 		movw	r3, #:lower16:.LC1
 4350 0032 C0F20003 		movt	r3, #:upper16:.LC1
 4351 0036 FFF7FEFF 		bl	__assert_func
 4352              	.L28:
  46:../air3t/data/gamefield.cpp **** 		return static_cast<Symbol>( _data[std::min( field.x + 3 * field.y , 9U )] );
 4353              		.loc 1 46 0 is_stmt 1
 4354 003a 3B68     		ldr	r3, [r7, #0]
 4355 003c 1968     		ldr	r1, [r3, #0]
 4356 003e 3B68     		ldr	r3, [r7, #0]
 4357 0040 5A68     		ldr	r2, [r3, #4]
 4358 0042 1346     		mov	r3, r2
 4359 0044 4FEA4303 		lsl	r3, r3, #1
 4360 0048 9B18     		adds	r3, r3, r2
 4361 004a CB18     		adds	r3, r1, r3
 4362 004c BB60     		str	r3, [r7, #8]
 4363 004e 4FF00903 		mov	r3, #9
 4364 0052 FB60     		str	r3, [r7, #12]
 4365 0054 07F10802 		add	r2, r7, #8
 4366 0058 07F10C03 		add	r3, r7, #12
 4367 005c 1046     		mov	r0, r2
 4368 005e 1946     		mov	r1, r3
 4369 0060 FFF7FEFF 		bl	_ZSt3minIjERKT_S2_S2_
 4370 0064 0346     		mov	r3, r0
 4371 0066 1B68     		ldr	r3, [r3, #0]
 4372 0068 7A68     		ldr	r2, [r7, #4]
 4373 006a D35C     		ldrb	r3, [r2, r3]	@ zero_extendqisi2
 4374 006c 5BB2     		sxtb	r3, r3
 4375              	.LBE14:
  47:../air3t/data/gamefield.cpp **** 	}
 4376              		.loc 1 47 0
 4377 006e 1846     		mov	r0, r3
 4378 0070 07F11007 		add	r7, r7, #16
 4379 0074 BD46     		mov	sp, r7
 4380 0076 80BD     		pop	{r7, pc}
 4381              		.cfi_endproc
 4382              	.LFE869:
 4384              		.section	.text._ZN5Air3T9GameField9setSymbolERKNS0_5FieldENS0_6SymbolE,"ax",%progbits
 4385              		.align	2
 4386              		.global	_ZN5Air3T9GameField9setSymbolERKNS0_5FieldENS0_6SymbolE
 4387              		.thumb
 4388              		.thumb_func
 4390              	_ZN5Air3T9GameField9setSymbolERKNS0_5FieldENS0_6SymbolE:
 4391              	.LFB870:
  48:../air3t/data/gamefield.cpp **** 
  49:../air3t/data/gamefield.cpp **** 	void GameField::setSymbol( const Field & field , Symbol symbol )
  50:../air3t/data/gamefield.cpp **** 	{
 4392              		.loc 1 50 0
 4393              		.cfi_startproc
 4394              		@ args = 0, pretend = 0, frame = 24
 4395              		@ frame_needed = 1, uses_anonymous_args = 0
 4396 0000 80B5     		push	{r7, lr}
 4397              	.LCFI15:
 4398              		.cfi_def_cfa_offset 8
 4399 0002 86B0     		sub	sp, sp, #24
 4400              	.LCFI16:
 4401              		.cfi_def_cfa_offset 32
 4402 0004 00AF     		add	r7, sp, #0
 4403              		.cfi_offset 14, -4
 4404              		.cfi_offset 7, -8
 4405              	.LCFI17:
 4406              		.cfi_def_cfa_register 7
 4407 0006 F860     		str	r0, [r7, #12]
 4408 0008 B960     		str	r1, [r7, #8]
 4409 000a 1346     		mov	r3, r2
 4410 000c FB71     		strb	r3, [r7, #7]
 4411              	.LBB15:
  51:../air3t/data/gamefield.cpp **** 		assert( field.x < 3 && field.y < 3 );
 4412              		.loc 1 51 0
 4413 000e BB68     		ldr	r3, [r7, #8]
 4414 0010 1B68     		ldr	r3, [r3, #0]
 4415 0012 022B     		cmp	r3, #2
 4416 0014 03D8     		bhi	.L30
 4417              		.loc 1 51 0 is_stmt 0 discriminator 2
 4418 0016 BB68     		ldr	r3, [r7, #8]
 4419 0018 5B68     		ldr	r3, [r3, #4]
 4420 001a 022B     		cmp	r3, #2
 4421 001c 0FD9     		bls	.L31
 4422              	.L30:
 4423              		.loc 1 51 0 discriminator 1
 4424 001e 40F20000 		movw	r0, #:lower16:.LC0
 4425 0022 C0F20000 		movt	r0, #:upper16:.LC0
 4426 0026 4FF03301 		mov	r1, #51
 4427 002a 40F20002 		movw	r2, #:lower16:_ZZN5Air3T9GameField9setSymbolERKNS0_5FieldENS0_6SymbolEE19__PRETTY_FUNCTION__
 4428 002e C0F20002 		movt	r2, #:upper16:_ZZN5Air3T9GameField9setSymbolERKNS0_5FieldENS0_6SymbolEE19__PRETTY_FUNCTION__
 4429 0032 40F20003 		movw	r3, #:lower16:.LC1
 4430 0036 C0F20003 		movt	r3, #:upper16:.LC1
 4431 003a FFF7FEFF 		bl	__assert_func
 4432              	.L31:
  52:../air3t/data/gamefield.cpp **** 		_data[std::min( field.x + 3 * field.y , 9U )] = symbol;
 4433              		.loc 1 52 0 is_stmt 1
 4434 003e BB68     		ldr	r3, [r7, #8]
 4435 0040 1968     		ldr	r1, [r3, #0]
 4436 0042 BB68     		ldr	r3, [r7, #8]
 4437 0044 5A68     		ldr	r2, [r3, #4]
 4438 0046 1346     		mov	r3, r2
 4439 0048 4FEA4303 		lsl	r3, r3, #1
 4440 004c 9B18     		adds	r3, r3, r2
 4441 004e CB18     		adds	r3, r1, r3
 4442 0050 3B61     		str	r3, [r7, #16]
 4443 0052 4FF00903 		mov	r3, #9
 4444 0056 7B61     		str	r3, [r7, #20]
 4445 0058 07F11002 		add	r2, r7, #16
 4446 005c 07F11403 		add	r3, r7, #20
 4447 0060 1046     		mov	r0, r2
 4448 0062 1946     		mov	r1, r3
 4449 0064 FFF7FEFF 		bl	_ZSt3minIjERKT_S2_S2_
 4450 0068 0346     		mov	r3, r0
 4451 006a 1B68     		ldr	r3, [r3, #0]
 4452 006c FA68     		ldr	r2, [r7, #12]
 4453 006e F979     		ldrb	r1, [r7, #7]
 4454 0070 D154     		strb	r1, [r2, r3]
  53:../air3t/data/gamefield.cpp **** 
  54:../air3t/data/gamefield.cpp **** 		_model._update( Model::GameFieldSection );
 4455              		.loc 1 54 0
 4456 0072 FB68     		ldr	r3, [r7, #12]
 4457 0074 DB68     		ldr	r3, [r3, #12]
 4458 0076 1846     		mov	r0, r3
 4459 0078 4FF00201 		mov	r1, #2
 4460 007c FFF7FEFF 		bl	_ZN5Air3T5Model7_updateEi
 4461              	.LBE15:
  55:../air3t/data/gamefield.cpp **** 	}
 4462              		.loc 1 55 0
 4463 0080 07F11807 		add	r7, r7, #24
 4464 0084 BD46     		mov	sp, r7
 4465 0086 80BD     		pop	{r7, pc}
 4466              		.cfi_endproc
 4467              	.LFE870:
 4469              		.section	.text._ZN5Air3T9GameField7rawDataEv,"ax",%progbits
 4470              		.align	2
 4471              		.global	_ZN5Air3T9GameField7rawDataEv
 4472              		.thumb
 4473              		.thumb_func
 4475              	_ZN5Air3T9GameField7rawDataEv:
 4476              	.LFB871:
  56:../air3t/data/gamefield.cpp **** 
  57:../air3t/data/gamefield.cpp **** 	int8_t * GameField::rawData()
  58:../air3t/data/gamefield.cpp **** 	{
 4477              		.loc 1 58 0
 4478              		.cfi_startproc
 4479              		@ args = 0, pretend = 0, frame = 8
 4480              		@ frame_needed = 1, uses_anonymous_args = 0
 4481              		@ link register save eliminated.
 4482 0000 80B4     		push	{r7}
 4483              	.LCFI18:
 4484              		.cfi_def_cfa_offset 4
 4485 0002 83B0     		sub	sp, sp, #12
 4486              	.LCFI19:
 4487              		.cfi_def_cfa_offset 16
 4488 0004 00AF     		add	r7, sp, #0
 4489              		.cfi_offset 7, -4
 4490              	.LCFI20:
 4491              		.cfi_def_cfa_register 7
 4492 0006 7860     		str	r0, [r7, #4]
  59:../air3t/data/gamefield.cpp **** 		return _data;
 4493              		.loc 1 59 0
 4494 0008 7B68     		ldr	r3, [r7, #4]
  60:../air3t/data/gamefield.cpp **** 	}
 4495              		.loc 1 60 0
 4496 000a 1846     		mov	r0, r3
 4497 000c 07F10C07 		add	r7, r7, #12
 4498 0010 BD46     		mov	sp, r7
 4499 0012 80BC     		pop	{r7}
 4500 0014 7047     		bx	lr
 4501              		.cfi_endproc
 4502              	.LFE871:
 4504 0016 00BF     		.section	.text._ZSt3minIjERKT_S2_S2_,"axG",%progbits,_ZSt3minIjERKT_S2_S2_,comdat
 4505              		.align	2
 4506              		.weak	_ZSt3minIjERKT_S2_S2_
 4507              		.thumb
 4508              		.thumb_func
 4510              	_ZSt3minIjERKT_S2_S2_:
 4511              	.LFB872:
   1:/opt/toolchains/arm-none-eabi/bin/../lib/gcc/arm-none-eabi/4.5.2/../../../../arm-none-eabi/include/c++/4.5.2/bits/stl_algobase.h **** // Core algorithmic facilities -*- C++ -*-
   2:/opt/toolchains/arm-none-eabi/bin/../lib/gcc/arm-none-eabi/4.5.2/../../../../arm-none-eabi/include/c++/4.5.2/bits/stl_algobase.h **** 
   3:/opt/toolchains/arm-none-eabi/bin/../lib/gcc/arm-none-eabi/4.5.2/../../../../arm-none-eabi/include/c++/4.5.2/bits/stl_algobase.h **** // Copyright (C) 2001, 2002, 2003, 2004, 2005, 2006, 2007, 2008, 2009, 2010
   4:/opt/toolchains/arm-none-eabi/bin/../lib/gcc/arm-none-eabi/4.5.2/../../../../arm-none-eabi/include/c++/4.5.2/bits/stl_algobase.h **** // Free Software Foundation, Inc.
   5:/opt/toolchains/arm-none-eabi/bin/../lib/gcc/arm-none-eabi/4.5.2/../../../../arm-none-eabi/include/c++/4.5.2/bits/stl_algobase.h **** //
   6:/opt/toolchains/arm-none-eabi/bin/../lib/gcc/arm-none-eabi/4.5.2/../../../../arm-none-eabi/include/c++/4.5.2/bits/stl_algobase.h **** // This file is part of the GNU ISO C++ Library.  This library is free
   7:/opt/toolchains/arm-none-eabi/bin/../lib/gcc/arm-none-eabi/4.5.2/../../../../arm-none-eabi/include/c++/4.5.2/bits/stl_algobase.h **** // software; you can redistribute it and/or modify it under the
   8:/opt/toolchains/arm-none-eabi/bin/../lib/gcc/arm-none-eabi/4.5.2/../../../../arm-none-eabi/include/c++/4.5.2/bits/stl_algobase.h **** // terms of the GNU General Public License as published by the
   9:/opt/toolchains/arm-none-eabi/bin/../lib/gcc/arm-none-eabi/4.5.2/../../../../arm-none-eabi/include/c++/4.5.2/bits/stl_algobase.h **** // Free Software Foundation; either version 3, or (at your option)
  10:/opt/toolchains/arm-none-eabi/bin/../lib/gcc/arm-none-eabi/4.5.2/../../../../arm-none-eabi/include/c++/4.5.2/bits/stl_algobase.h **** // any later version.
  11:/opt/toolchains/arm-none-eabi/bin/../lib/gcc/arm-none-eabi/4.5.2/../../../../arm-none-eabi/include/c++/4.5.2/bits/stl_algobase.h **** 
  12:/opt/toolchains/arm-none-eabi/bin/../lib/gcc/arm-none-eabi/4.5.2/../../../../arm-none-eabi/include/c++/4.5.2/bits/stl_algobase.h **** // This library is distributed in the hope that it will be useful,
  13:/opt/toolchains/arm-none-eabi/bin/../lib/gcc/arm-none-eabi/4.5.2/../../../../arm-none-eabi/include/c++/4.5.2/bits/stl_algobase.h **** // but WITHOUT ANY WARRANTY; without even the implied warranty of
  14:/opt/toolchains/arm-none-eabi/bin/../lib/gcc/arm-none-eabi/4.5.2/../../../../arm-none-eabi/include/c++/4.5.2/bits/stl_algobase.h **** // MERCHANTABILITY or FITNESS FOR A PARTICULAR PURPOSE.  See the
  15:/opt/toolchains/arm-none-eabi/bin/../lib/gcc/arm-none-eabi/4.5.2/../../../../arm-none-eabi/include/c++/4.5.2/bits/stl_algobase.h **** // GNU General Public License for more details.
  16:/opt/toolchains/arm-none-eabi/bin/../lib/gcc/arm-none-eabi/4.5.2/../../../../arm-none-eabi/include/c++/4.5.2/bits/stl_algobase.h **** 
  17:/opt/toolchains/arm-none-eabi/bin/../lib/gcc/arm-none-eabi/4.5.2/../../../../arm-none-eabi/include/c++/4.5.2/bits/stl_algobase.h **** // Under Section 7 of GPL version 3, you are granted additional
  18:/opt/toolchains/arm-none-eabi/bin/../lib/gcc/arm-none-eabi/4.5.2/../../../../arm-none-eabi/include/c++/4.5.2/bits/stl_algobase.h **** // permissions described in the GCC Runtime Library Exception, version
  19:/opt/toolchains/arm-none-eabi/bin/../lib/gcc/arm-none-eabi/4.5.2/../../../../arm-none-eabi/include/c++/4.5.2/bits/stl_algobase.h **** // 3.1, as published by the Free Software Foundation.
  20:/opt/toolchains/arm-none-eabi/bin/../lib/gcc/arm-none-eabi/4.5.2/../../../../arm-none-eabi/include/c++/4.5.2/bits/stl_algobase.h **** 
  21:/opt/toolchains/arm-none-eabi/bin/../lib/gcc/arm-none-eabi/4.5.2/../../../../arm-none-eabi/include/c++/4.5.2/bits/stl_algobase.h **** // You should have received a copy of the GNU General Public License and
  22:/opt/toolchains/arm-none-eabi/bin/../lib/gcc/arm-none-eabi/4.5.2/../../../../arm-none-eabi/include/c++/4.5.2/bits/stl_algobase.h **** // a copy of the GCC Runtime Library Exception along with this program;
  23:/opt/toolchains/arm-none-eabi/bin/../lib/gcc/arm-none-eabi/4.5.2/../../../../arm-none-eabi/include/c++/4.5.2/bits/stl_algobase.h **** // see the files COPYING3 and COPYING.RUNTIME respectively.  If not, see
  24:/opt/toolchains/arm-none-eabi/bin/../lib/gcc/arm-none-eabi/4.5.2/../../../../arm-none-eabi/include/c++/4.5.2/bits/stl_algobase.h **** // <http://www.gnu.org/licenses/>.
  25:/opt/toolchains/arm-none-eabi/bin/../lib/gcc/arm-none-eabi/4.5.2/../../../../arm-none-eabi/include/c++/4.5.2/bits/stl_algobase.h **** 
  26:/opt/toolchains/arm-none-eabi/bin/../lib/gcc/arm-none-eabi/4.5.2/../../../../arm-none-eabi/include/c++/4.5.2/bits/stl_algobase.h **** /*
  27:/opt/toolchains/arm-none-eabi/bin/../lib/gcc/arm-none-eabi/4.5.2/../../../../arm-none-eabi/include/c++/4.5.2/bits/stl_algobase.h ****  *
  28:/opt/toolchains/arm-none-eabi/bin/../lib/gcc/arm-none-eabi/4.5.2/../../../../arm-none-eabi/include/c++/4.5.2/bits/stl_algobase.h ****  * Copyright (c) 1994
  29:/opt/toolchains/arm-none-eabi/bin/../lib/gcc/arm-none-eabi/4.5.2/../../../../arm-none-eabi/include/c++/4.5.2/bits/stl_algobase.h ****  * Hewlett-Packard Company
  30:/opt/toolchains/arm-none-eabi/bin/../lib/gcc/arm-none-eabi/4.5.2/../../../../arm-none-eabi/include/c++/4.5.2/bits/stl_algobase.h ****  *
  31:/opt/toolchains/arm-none-eabi/bin/../lib/gcc/arm-none-eabi/4.5.2/../../../../arm-none-eabi/include/c++/4.5.2/bits/stl_algobase.h ****  * Permission to use, copy, modify, distribute and sell this software
  32:/opt/toolchains/arm-none-eabi/bin/../lib/gcc/arm-none-eabi/4.5.2/../../../../arm-none-eabi/include/c++/4.5.2/bits/stl_algobase.h ****  * and its documentation for any purpose is hereby granted without fee,
  33:/opt/toolchains/arm-none-eabi/bin/../lib/gcc/arm-none-eabi/4.5.2/../../../../arm-none-eabi/include/c++/4.5.2/bits/stl_algobase.h ****  * provided that the above copyright notice appear in all copies and
  34:/opt/toolchains/arm-none-eabi/bin/../lib/gcc/arm-none-eabi/4.5.2/../../../../arm-none-eabi/include/c++/4.5.2/bits/stl_algobase.h ****  * that both that copyright notice and this permission notice appear
  35:/opt/toolchains/arm-none-eabi/bin/../lib/gcc/arm-none-eabi/4.5.2/../../../../arm-none-eabi/include/c++/4.5.2/bits/stl_algobase.h ****  * in supporting documentation.  Hewlett-Packard Company makes no
  36:/opt/toolchains/arm-none-eabi/bin/../lib/gcc/arm-none-eabi/4.5.2/../../../../arm-none-eabi/include/c++/4.5.2/bits/stl_algobase.h ****  * representations about the suitability of this software for any
  37:/opt/toolchains/arm-none-eabi/bin/../lib/gcc/arm-none-eabi/4.5.2/../../../../arm-none-eabi/include/c++/4.5.2/bits/stl_algobase.h ****  * purpose.  It is provided "as is" without express or implied warranty.
  38:/opt/toolchains/arm-none-eabi/bin/../lib/gcc/arm-none-eabi/4.5.2/../../../../arm-none-eabi/include/c++/4.5.2/bits/stl_algobase.h ****  *
  39:/opt/toolchains/arm-none-eabi/bin/../lib/gcc/arm-none-eabi/4.5.2/../../../../arm-none-eabi/include/c++/4.5.2/bits/stl_algobase.h ****  *
  40:/opt/toolchains/arm-none-eabi/bin/../lib/gcc/arm-none-eabi/4.5.2/../../../../arm-none-eabi/include/c++/4.5.2/bits/stl_algobase.h ****  * Copyright (c) 1996-1998
  41:/opt/toolchains/arm-none-eabi/bin/../lib/gcc/arm-none-eabi/4.5.2/../../../../arm-none-eabi/include/c++/4.5.2/bits/stl_algobase.h ****  * Silicon Graphics Computer Systems, Inc.
  42:/opt/toolchains/arm-none-eabi/bin/../lib/gcc/arm-none-eabi/4.5.2/../../../../arm-none-eabi/include/c++/4.5.2/bits/stl_algobase.h ****  *
  43:/opt/toolchains/arm-none-eabi/bin/../lib/gcc/arm-none-eabi/4.5.2/../../../../arm-none-eabi/include/c++/4.5.2/bits/stl_algobase.h ****  * Permission to use, copy, modify, distribute and sell this software
  44:/opt/toolchains/arm-none-eabi/bin/../lib/gcc/arm-none-eabi/4.5.2/../../../../arm-none-eabi/include/c++/4.5.2/bits/stl_algobase.h ****  * and its documentation for any purpose is hereby granted without fee,
  45:/opt/toolchains/arm-none-eabi/bin/../lib/gcc/arm-none-eabi/4.5.2/../../../../arm-none-eabi/include/c++/4.5.2/bits/stl_algobase.h ****  * provided that the above copyright notice appear in all copies and
  46:/opt/toolchains/arm-none-eabi/bin/../lib/gcc/arm-none-eabi/4.5.2/../../../../arm-none-eabi/include/c++/4.5.2/bits/stl_algobase.h ****  * that both that copyright notice and this permission notice appear
  47:/opt/toolchains/arm-none-eabi/bin/../lib/gcc/arm-none-eabi/4.5.2/../../../../arm-none-eabi/include/c++/4.5.2/bits/stl_algobase.h ****  * in supporting documentation.  Silicon Graphics makes no
  48:/opt/toolchains/arm-none-eabi/bin/../lib/gcc/arm-none-eabi/4.5.2/../../../../arm-none-eabi/include/c++/4.5.2/bits/stl_algobase.h ****  * representations about the suitability of this software for any
  49:/opt/toolchains/arm-none-eabi/bin/../lib/gcc/arm-none-eabi/4.5.2/../../../../arm-none-eabi/include/c++/4.5.2/bits/stl_algobase.h ****  * purpose.  It is provided "as is" without express or implied warranty.
  50:/opt/toolchains/arm-none-eabi/bin/../lib/gcc/arm-none-eabi/4.5.2/../../../../arm-none-eabi/include/c++/4.5.2/bits/stl_algobase.h ****  */
  51:/opt/toolchains/arm-none-eabi/bin/../lib/gcc/arm-none-eabi/4.5.2/../../../../arm-none-eabi/include/c++/4.5.2/bits/stl_algobase.h **** 
  52:/opt/toolchains/arm-none-eabi/bin/../lib/gcc/arm-none-eabi/4.5.2/../../../../arm-none-eabi/include/c++/4.5.2/bits/stl_algobase.h **** /** @file stl_algobase.h
  53:/opt/toolchains/arm-none-eabi/bin/../lib/gcc/arm-none-eabi/4.5.2/../../../../arm-none-eabi/include/c++/4.5.2/bits/stl_algobase.h ****  *  This is an internal header file, included by other library headers.
  54:/opt/toolchains/arm-none-eabi/bin/../lib/gcc/arm-none-eabi/4.5.2/../../../../arm-none-eabi/include/c++/4.5.2/bits/stl_algobase.h ****  *  You should not attempt to use it directly.
  55:/opt/toolchains/arm-none-eabi/bin/../lib/gcc/arm-none-eabi/4.5.2/../../../../arm-none-eabi/include/c++/4.5.2/bits/stl_algobase.h ****  */
  56:/opt/toolchains/arm-none-eabi/bin/../lib/gcc/arm-none-eabi/4.5.2/../../../../arm-none-eabi/include/c++/4.5.2/bits/stl_algobase.h **** 
  57:/opt/toolchains/arm-none-eabi/bin/../lib/gcc/arm-none-eabi/4.5.2/../../../../arm-none-eabi/include/c++/4.5.2/bits/stl_algobase.h **** #ifndef _STL_ALGOBASE_H
  58:/opt/toolchains/arm-none-eabi/bin/../lib/gcc/arm-none-eabi/4.5.2/../../../../arm-none-eabi/include/c++/4.5.2/bits/stl_algobase.h **** #define _STL_ALGOBASE_H 1
  59:/opt/toolchains/arm-none-eabi/bin/../lib/gcc/arm-none-eabi/4.5.2/../../../../arm-none-eabi/include/c++/4.5.2/bits/stl_algobase.h **** 
  60:/opt/toolchains/arm-none-eabi/bin/../lib/gcc/arm-none-eabi/4.5.2/../../../../arm-none-eabi/include/c++/4.5.2/bits/stl_algobase.h **** #include <bits/c++config.h>
  61:/opt/toolchains/arm-none-eabi/bin/../lib/gcc/arm-none-eabi/4.5.2/../../../../arm-none-eabi/include/c++/4.5.2/bits/stl_algobase.h **** #include <cstddef>
  62:/opt/toolchains/arm-none-eabi/bin/../lib/gcc/arm-none-eabi/4.5.2/../../../../arm-none-eabi/include/c++/4.5.2/bits/stl_algobase.h **** #include <bits/functexcept.h>
  63:/opt/toolchains/arm-none-eabi/bin/../lib/gcc/arm-none-eabi/4.5.2/../../../../arm-none-eabi/include/c++/4.5.2/bits/stl_algobase.h **** #include <bits/cpp_type_traits.h>
  64:/opt/toolchains/arm-none-eabi/bin/../lib/gcc/arm-none-eabi/4.5.2/../../../../arm-none-eabi/include/c++/4.5.2/bits/stl_algobase.h **** #include <ext/type_traits.h>
  65:/opt/toolchains/arm-none-eabi/bin/../lib/gcc/arm-none-eabi/4.5.2/../../../../arm-none-eabi/include/c++/4.5.2/bits/stl_algobase.h **** #include <ext/numeric_traits.h>
  66:/opt/toolchains/arm-none-eabi/bin/../lib/gcc/arm-none-eabi/4.5.2/../../../../arm-none-eabi/include/c++/4.5.2/bits/stl_algobase.h **** #include <bits/stl_pair.h>
  67:/opt/toolchains/arm-none-eabi/bin/../lib/gcc/arm-none-eabi/4.5.2/../../../../arm-none-eabi/include/c++/4.5.2/bits/stl_algobase.h **** #include <bits/stl_iterator_base_types.h>
  68:/opt/toolchains/arm-none-eabi/bin/../lib/gcc/arm-none-eabi/4.5.2/../../../../arm-none-eabi/include/c++/4.5.2/bits/stl_algobase.h **** #include <bits/stl_iterator_base_funcs.h>
  69:/opt/toolchains/arm-none-eabi/bin/../lib/gcc/arm-none-eabi/4.5.2/../../../../arm-none-eabi/include/c++/4.5.2/bits/stl_algobase.h **** #include <bits/stl_iterator.h>
  70:/opt/toolchains/arm-none-eabi/bin/../lib/gcc/arm-none-eabi/4.5.2/../../../../arm-none-eabi/include/c++/4.5.2/bits/stl_algobase.h **** #include <bits/concept_check.h>
  71:/opt/toolchains/arm-none-eabi/bin/../lib/gcc/arm-none-eabi/4.5.2/../../../../arm-none-eabi/include/c++/4.5.2/bits/stl_algobase.h **** #include <debug/debug.h>
  72:/opt/toolchains/arm-none-eabi/bin/../lib/gcc/arm-none-eabi/4.5.2/../../../../arm-none-eabi/include/c++/4.5.2/bits/stl_algobase.h **** #include <bits/move.h> // For std::swap and _GLIBCXX_MOVE
  73:/opt/toolchains/arm-none-eabi/bin/../lib/gcc/arm-none-eabi/4.5.2/../../../../arm-none-eabi/include/c++/4.5.2/bits/stl_algobase.h **** 
  74:/opt/toolchains/arm-none-eabi/bin/../lib/gcc/arm-none-eabi/4.5.2/../../../../arm-none-eabi/include/c++/4.5.2/bits/stl_algobase.h **** _GLIBCXX_BEGIN_NAMESPACE(std)
  75:/opt/toolchains/arm-none-eabi/bin/../lib/gcc/arm-none-eabi/4.5.2/../../../../arm-none-eabi/include/c++/4.5.2/bits/stl_algobase.h **** 
  76:/opt/toolchains/arm-none-eabi/bin/../lib/gcc/arm-none-eabi/4.5.2/../../../../arm-none-eabi/include/c++/4.5.2/bits/stl_algobase.h ****   // See http://gcc.gnu.org/ml/libstdc++/2004-08/msg00167.html: in a
  77:/opt/toolchains/arm-none-eabi/bin/../lib/gcc/arm-none-eabi/4.5.2/../../../../arm-none-eabi/include/c++/4.5.2/bits/stl_algobase.h ****   // nutshell, we are partially implementing the resolution of DR 187,
  78:/opt/toolchains/arm-none-eabi/bin/../lib/gcc/arm-none-eabi/4.5.2/../../../../arm-none-eabi/include/c++/4.5.2/bits/stl_algobase.h ****   // when it's safe, i.e., the value_types are equal.
  79:/opt/toolchains/arm-none-eabi/bin/../lib/gcc/arm-none-eabi/4.5.2/../../../../arm-none-eabi/include/c++/4.5.2/bits/stl_algobase.h ****   template<bool _BoolType>
  80:/opt/toolchains/arm-none-eabi/bin/../lib/gcc/arm-none-eabi/4.5.2/../../../../arm-none-eabi/include/c++/4.5.2/bits/stl_algobase.h ****     struct __iter_swap
  81:/opt/toolchains/arm-none-eabi/bin/../lib/gcc/arm-none-eabi/4.5.2/../../../../arm-none-eabi/include/c++/4.5.2/bits/stl_algobase.h ****     {
  82:/opt/toolchains/arm-none-eabi/bin/../lib/gcc/arm-none-eabi/4.5.2/../../../../arm-none-eabi/include/c++/4.5.2/bits/stl_algobase.h ****       template<typename _ForwardIterator1, typename _ForwardIterator2>
  83:/opt/toolchains/arm-none-eabi/bin/../lib/gcc/arm-none-eabi/4.5.2/../../../../arm-none-eabi/include/c++/4.5.2/bits/stl_algobase.h ****         static void
  84:/opt/toolchains/arm-none-eabi/bin/../lib/gcc/arm-none-eabi/4.5.2/../../../../arm-none-eabi/include/c++/4.5.2/bits/stl_algobase.h ****         iter_swap(_ForwardIterator1 __a, _ForwardIterator2 __b)
  85:/opt/toolchains/arm-none-eabi/bin/../lib/gcc/arm-none-eabi/4.5.2/../../../../arm-none-eabi/include/c++/4.5.2/bits/stl_algobase.h ****         {
  86:/opt/toolchains/arm-none-eabi/bin/../lib/gcc/arm-none-eabi/4.5.2/../../../../arm-none-eabi/include/c++/4.5.2/bits/stl_algobase.h ****           typedef typename iterator_traits<_ForwardIterator1>::value_type
  87:/opt/toolchains/arm-none-eabi/bin/../lib/gcc/arm-none-eabi/4.5.2/../../../../arm-none-eabi/include/c++/4.5.2/bits/stl_algobase.h ****             _ValueType1;
  88:/opt/toolchains/arm-none-eabi/bin/../lib/gcc/arm-none-eabi/4.5.2/../../../../arm-none-eabi/include/c++/4.5.2/bits/stl_algobase.h ****           _ValueType1 __tmp = _GLIBCXX_MOVE(*__a);
  89:/opt/toolchains/arm-none-eabi/bin/../lib/gcc/arm-none-eabi/4.5.2/../../../../arm-none-eabi/include/c++/4.5.2/bits/stl_algobase.h ****           *__a = _GLIBCXX_MOVE(*__b);
  90:/opt/toolchains/arm-none-eabi/bin/../lib/gcc/arm-none-eabi/4.5.2/../../../../arm-none-eabi/include/c++/4.5.2/bits/stl_algobase.h ****           *__b = _GLIBCXX_MOVE(__tmp);
  91:/opt/toolchains/arm-none-eabi/bin/../lib/gcc/arm-none-eabi/4.5.2/../../../../arm-none-eabi/include/c++/4.5.2/bits/stl_algobase.h **** 	}
  92:/opt/toolchains/arm-none-eabi/bin/../lib/gcc/arm-none-eabi/4.5.2/../../../../arm-none-eabi/include/c++/4.5.2/bits/stl_algobase.h ****     };
  93:/opt/toolchains/arm-none-eabi/bin/../lib/gcc/arm-none-eabi/4.5.2/../../../../arm-none-eabi/include/c++/4.5.2/bits/stl_algobase.h **** 
  94:/opt/toolchains/arm-none-eabi/bin/../lib/gcc/arm-none-eabi/4.5.2/../../../../arm-none-eabi/include/c++/4.5.2/bits/stl_algobase.h ****   template<>
  95:/opt/toolchains/arm-none-eabi/bin/../lib/gcc/arm-none-eabi/4.5.2/../../../../arm-none-eabi/include/c++/4.5.2/bits/stl_algobase.h ****     struct __iter_swap<true>
  96:/opt/toolchains/arm-none-eabi/bin/../lib/gcc/arm-none-eabi/4.5.2/../../../../arm-none-eabi/include/c++/4.5.2/bits/stl_algobase.h ****     {
  97:/opt/toolchains/arm-none-eabi/bin/../lib/gcc/arm-none-eabi/4.5.2/../../../../arm-none-eabi/include/c++/4.5.2/bits/stl_algobase.h ****       template<typename _ForwardIterator1, typename _ForwardIterator2>
  98:/opt/toolchains/arm-none-eabi/bin/../lib/gcc/arm-none-eabi/4.5.2/../../../../arm-none-eabi/include/c++/4.5.2/bits/stl_algobase.h ****         static void 
  99:/opt/toolchains/arm-none-eabi/bin/../lib/gcc/arm-none-eabi/4.5.2/../../../../arm-none-eabi/include/c++/4.5.2/bits/stl_algobase.h ****         iter_swap(_ForwardIterator1 __a, _ForwardIterator2 __b)
 100:/opt/toolchains/arm-none-eabi/bin/../lib/gcc/arm-none-eabi/4.5.2/../../../../arm-none-eabi/include/c++/4.5.2/bits/stl_algobase.h ****         {
 101:/opt/toolchains/arm-none-eabi/bin/../lib/gcc/arm-none-eabi/4.5.2/../../../../arm-none-eabi/include/c++/4.5.2/bits/stl_algobase.h ****           swap(*__a, *__b);
 102:/opt/toolchains/arm-none-eabi/bin/../lib/gcc/arm-none-eabi/4.5.2/../../../../arm-none-eabi/include/c++/4.5.2/bits/stl_algobase.h ****         }
 103:/opt/toolchains/arm-none-eabi/bin/../lib/gcc/arm-none-eabi/4.5.2/../../../../arm-none-eabi/include/c++/4.5.2/bits/stl_algobase.h ****     };
 104:/opt/toolchains/arm-none-eabi/bin/../lib/gcc/arm-none-eabi/4.5.2/../../../../arm-none-eabi/include/c++/4.5.2/bits/stl_algobase.h **** 
 105:/opt/toolchains/arm-none-eabi/bin/../lib/gcc/arm-none-eabi/4.5.2/../../../../arm-none-eabi/include/c++/4.5.2/bits/stl_algobase.h ****   /**
 106:/opt/toolchains/arm-none-eabi/bin/../lib/gcc/arm-none-eabi/4.5.2/../../../../arm-none-eabi/include/c++/4.5.2/bits/stl_algobase.h ****    *  @brief Swaps the contents of two iterators.
 107:/opt/toolchains/arm-none-eabi/bin/../lib/gcc/arm-none-eabi/4.5.2/../../../../arm-none-eabi/include/c++/4.5.2/bits/stl_algobase.h ****    *  @ingroup mutating_algorithms
 108:/opt/toolchains/arm-none-eabi/bin/../lib/gcc/arm-none-eabi/4.5.2/../../../../arm-none-eabi/include/c++/4.5.2/bits/stl_algobase.h ****    *  @param  a  An iterator.
 109:/opt/toolchains/arm-none-eabi/bin/../lib/gcc/arm-none-eabi/4.5.2/../../../../arm-none-eabi/include/c++/4.5.2/bits/stl_algobase.h ****    *  @param  b  Another iterator.
 110:/opt/toolchains/arm-none-eabi/bin/../lib/gcc/arm-none-eabi/4.5.2/../../../../arm-none-eabi/include/c++/4.5.2/bits/stl_algobase.h ****    *  @return   Nothing.
 111:/opt/toolchains/arm-none-eabi/bin/../lib/gcc/arm-none-eabi/4.5.2/../../../../arm-none-eabi/include/c++/4.5.2/bits/stl_algobase.h ****    *
 112:/opt/toolchains/arm-none-eabi/bin/../lib/gcc/arm-none-eabi/4.5.2/../../../../arm-none-eabi/include/c++/4.5.2/bits/stl_algobase.h ****    *  This function swaps the values pointed to by two iterators, not the
 113:/opt/toolchains/arm-none-eabi/bin/../lib/gcc/arm-none-eabi/4.5.2/../../../../arm-none-eabi/include/c++/4.5.2/bits/stl_algobase.h ****    *  iterators themselves.
 114:/opt/toolchains/arm-none-eabi/bin/../lib/gcc/arm-none-eabi/4.5.2/../../../../arm-none-eabi/include/c++/4.5.2/bits/stl_algobase.h ****   */
 115:/opt/toolchains/arm-none-eabi/bin/../lib/gcc/arm-none-eabi/4.5.2/../../../../arm-none-eabi/include/c++/4.5.2/bits/stl_algobase.h ****   template<typename _ForwardIterator1, typename _ForwardIterator2>
 116:/opt/toolchains/arm-none-eabi/bin/../lib/gcc/arm-none-eabi/4.5.2/../../../../arm-none-eabi/include/c++/4.5.2/bits/stl_algobase.h ****     inline void
 117:/opt/toolchains/arm-none-eabi/bin/../lib/gcc/arm-none-eabi/4.5.2/../../../../arm-none-eabi/include/c++/4.5.2/bits/stl_algobase.h ****     iter_swap(_ForwardIterator1 __a, _ForwardIterator2 __b)
 118:/opt/toolchains/arm-none-eabi/bin/../lib/gcc/arm-none-eabi/4.5.2/../../../../arm-none-eabi/include/c++/4.5.2/bits/stl_algobase.h ****     {
 119:/opt/toolchains/arm-none-eabi/bin/../lib/gcc/arm-none-eabi/4.5.2/../../../../arm-none-eabi/include/c++/4.5.2/bits/stl_algobase.h ****       typedef typename iterator_traits<_ForwardIterator1>::value_type
 120:/opt/toolchains/arm-none-eabi/bin/../lib/gcc/arm-none-eabi/4.5.2/../../../../arm-none-eabi/include/c++/4.5.2/bits/stl_algobase.h **** 	_ValueType1;
 121:/opt/toolchains/arm-none-eabi/bin/../lib/gcc/arm-none-eabi/4.5.2/../../../../arm-none-eabi/include/c++/4.5.2/bits/stl_algobase.h ****       typedef typename iterator_traits<_ForwardIterator2>::value_type
 122:/opt/toolchains/arm-none-eabi/bin/../lib/gcc/arm-none-eabi/4.5.2/../../../../arm-none-eabi/include/c++/4.5.2/bits/stl_algobase.h **** 	_ValueType2;
 123:/opt/toolchains/arm-none-eabi/bin/../lib/gcc/arm-none-eabi/4.5.2/../../../../arm-none-eabi/include/c++/4.5.2/bits/stl_algobase.h **** 
 124:/opt/toolchains/arm-none-eabi/bin/../lib/gcc/arm-none-eabi/4.5.2/../../../../arm-none-eabi/include/c++/4.5.2/bits/stl_algobase.h ****       // concept requirements
 125:/opt/toolchains/arm-none-eabi/bin/../lib/gcc/arm-none-eabi/4.5.2/../../../../arm-none-eabi/include/c++/4.5.2/bits/stl_algobase.h ****       __glibcxx_function_requires(_Mutable_ForwardIteratorConcept<
 126:/opt/toolchains/arm-none-eabi/bin/../lib/gcc/arm-none-eabi/4.5.2/../../../../arm-none-eabi/include/c++/4.5.2/bits/stl_algobase.h **** 				  _ForwardIterator1>)
 127:/opt/toolchains/arm-none-eabi/bin/../lib/gcc/arm-none-eabi/4.5.2/../../../../arm-none-eabi/include/c++/4.5.2/bits/stl_algobase.h ****       __glibcxx_function_requires(_Mutable_ForwardIteratorConcept<
 128:/opt/toolchains/arm-none-eabi/bin/../lib/gcc/arm-none-eabi/4.5.2/../../../../arm-none-eabi/include/c++/4.5.2/bits/stl_algobase.h **** 				  _ForwardIterator2>)
 129:/opt/toolchains/arm-none-eabi/bin/../lib/gcc/arm-none-eabi/4.5.2/../../../../arm-none-eabi/include/c++/4.5.2/bits/stl_algobase.h ****       __glibcxx_function_requires(_ConvertibleConcept<_ValueType1,
 130:/opt/toolchains/arm-none-eabi/bin/../lib/gcc/arm-none-eabi/4.5.2/../../../../arm-none-eabi/include/c++/4.5.2/bits/stl_algobase.h **** 				  _ValueType2>)
 131:/opt/toolchains/arm-none-eabi/bin/../lib/gcc/arm-none-eabi/4.5.2/../../../../arm-none-eabi/include/c++/4.5.2/bits/stl_algobase.h ****       __glibcxx_function_requires(_ConvertibleConcept<_ValueType2,
 132:/opt/toolchains/arm-none-eabi/bin/../lib/gcc/arm-none-eabi/4.5.2/../../../../arm-none-eabi/include/c++/4.5.2/bits/stl_algobase.h **** 				  _ValueType1>)
 133:/opt/toolchains/arm-none-eabi/bin/../lib/gcc/arm-none-eabi/4.5.2/../../../../arm-none-eabi/include/c++/4.5.2/bits/stl_algobase.h **** 
 134:/opt/toolchains/arm-none-eabi/bin/../lib/gcc/arm-none-eabi/4.5.2/../../../../arm-none-eabi/include/c++/4.5.2/bits/stl_algobase.h ****       typedef typename iterator_traits<_ForwardIterator1>::reference
 135:/opt/toolchains/arm-none-eabi/bin/../lib/gcc/arm-none-eabi/4.5.2/../../../../arm-none-eabi/include/c++/4.5.2/bits/stl_algobase.h **** 	_ReferenceType1;
 136:/opt/toolchains/arm-none-eabi/bin/../lib/gcc/arm-none-eabi/4.5.2/../../../../arm-none-eabi/include/c++/4.5.2/bits/stl_algobase.h ****       typedef typename iterator_traits<_ForwardIterator2>::reference
 137:/opt/toolchains/arm-none-eabi/bin/../lib/gcc/arm-none-eabi/4.5.2/../../../../arm-none-eabi/include/c++/4.5.2/bits/stl_algobase.h **** 	_ReferenceType2;
 138:/opt/toolchains/arm-none-eabi/bin/../lib/gcc/arm-none-eabi/4.5.2/../../../../arm-none-eabi/include/c++/4.5.2/bits/stl_algobase.h ****       std::__iter_swap<__are_same<_ValueType1, _ValueType2>::__value
 139:/opt/toolchains/arm-none-eabi/bin/../lib/gcc/arm-none-eabi/4.5.2/../../../../arm-none-eabi/include/c++/4.5.2/bits/stl_algobase.h **** 	&& __are_same<_ValueType1&, _ReferenceType1>::__value
 140:/opt/toolchains/arm-none-eabi/bin/../lib/gcc/arm-none-eabi/4.5.2/../../../../arm-none-eabi/include/c++/4.5.2/bits/stl_algobase.h **** 	&& __are_same<_ValueType2&, _ReferenceType2>::__value>::
 141:/opt/toolchains/arm-none-eabi/bin/../lib/gcc/arm-none-eabi/4.5.2/../../../../arm-none-eabi/include/c++/4.5.2/bits/stl_algobase.h **** 	iter_swap(__a, __b);
 142:/opt/toolchains/arm-none-eabi/bin/../lib/gcc/arm-none-eabi/4.5.2/../../../../arm-none-eabi/include/c++/4.5.2/bits/stl_algobase.h ****     }
 143:/opt/toolchains/arm-none-eabi/bin/../lib/gcc/arm-none-eabi/4.5.2/../../../../arm-none-eabi/include/c++/4.5.2/bits/stl_algobase.h **** 
 144:/opt/toolchains/arm-none-eabi/bin/../lib/gcc/arm-none-eabi/4.5.2/../../../../arm-none-eabi/include/c++/4.5.2/bits/stl_algobase.h ****   /**
 145:/opt/toolchains/arm-none-eabi/bin/../lib/gcc/arm-none-eabi/4.5.2/../../../../arm-none-eabi/include/c++/4.5.2/bits/stl_algobase.h ****    *  @brief Swap the elements of two sequences.
 146:/opt/toolchains/arm-none-eabi/bin/../lib/gcc/arm-none-eabi/4.5.2/../../../../arm-none-eabi/include/c++/4.5.2/bits/stl_algobase.h ****    *  @ingroup mutating_algorithms
 147:/opt/toolchains/arm-none-eabi/bin/../lib/gcc/arm-none-eabi/4.5.2/../../../../arm-none-eabi/include/c++/4.5.2/bits/stl_algobase.h ****    *  @param  first1  A forward iterator.
 148:/opt/toolchains/arm-none-eabi/bin/../lib/gcc/arm-none-eabi/4.5.2/../../../../arm-none-eabi/include/c++/4.5.2/bits/stl_algobase.h ****    *  @param  last1   A forward iterator.
 149:/opt/toolchains/arm-none-eabi/bin/../lib/gcc/arm-none-eabi/4.5.2/../../../../arm-none-eabi/include/c++/4.5.2/bits/stl_algobase.h ****    *  @param  first2  A forward iterator.
 150:/opt/toolchains/arm-none-eabi/bin/../lib/gcc/arm-none-eabi/4.5.2/../../../../arm-none-eabi/include/c++/4.5.2/bits/stl_algobase.h ****    *  @return   An iterator equal to @p first2+(last1-first1).
 151:/opt/toolchains/arm-none-eabi/bin/../lib/gcc/arm-none-eabi/4.5.2/../../../../arm-none-eabi/include/c++/4.5.2/bits/stl_algobase.h ****    *
 152:/opt/toolchains/arm-none-eabi/bin/../lib/gcc/arm-none-eabi/4.5.2/../../../../arm-none-eabi/include/c++/4.5.2/bits/stl_algobase.h ****    *  Swaps each element in the range @p [first1,last1) with the
 153:/opt/toolchains/arm-none-eabi/bin/../lib/gcc/arm-none-eabi/4.5.2/../../../../arm-none-eabi/include/c++/4.5.2/bits/stl_algobase.h ****    *  corresponding element in the range @p [first2,(last1-first1)).
 154:/opt/toolchains/arm-none-eabi/bin/../lib/gcc/arm-none-eabi/4.5.2/../../../../arm-none-eabi/include/c++/4.5.2/bits/stl_algobase.h ****    *  The ranges must not overlap.
 155:/opt/toolchains/arm-none-eabi/bin/../lib/gcc/arm-none-eabi/4.5.2/../../../../arm-none-eabi/include/c++/4.5.2/bits/stl_algobase.h ****   */
 156:/opt/toolchains/arm-none-eabi/bin/../lib/gcc/arm-none-eabi/4.5.2/../../../../arm-none-eabi/include/c++/4.5.2/bits/stl_algobase.h ****   template<typename _ForwardIterator1, typename _ForwardIterator2>
 157:/opt/toolchains/arm-none-eabi/bin/../lib/gcc/arm-none-eabi/4.5.2/../../../../arm-none-eabi/include/c++/4.5.2/bits/stl_algobase.h ****     _ForwardIterator2
 158:/opt/toolchains/arm-none-eabi/bin/../lib/gcc/arm-none-eabi/4.5.2/../../../../arm-none-eabi/include/c++/4.5.2/bits/stl_algobase.h ****     swap_ranges(_ForwardIterator1 __first1, _ForwardIterator1 __last1,
 159:/opt/toolchains/arm-none-eabi/bin/../lib/gcc/arm-none-eabi/4.5.2/../../../../arm-none-eabi/include/c++/4.5.2/bits/stl_algobase.h **** 		_ForwardIterator2 __first2)
 160:/opt/toolchains/arm-none-eabi/bin/../lib/gcc/arm-none-eabi/4.5.2/../../../../arm-none-eabi/include/c++/4.5.2/bits/stl_algobase.h ****     {
 161:/opt/toolchains/arm-none-eabi/bin/../lib/gcc/arm-none-eabi/4.5.2/../../../../arm-none-eabi/include/c++/4.5.2/bits/stl_algobase.h ****       // concept requirements
 162:/opt/toolchains/arm-none-eabi/bin/../lib/gcc/arm-none-eabi/4.5.2/../../../../arm-none-eabi/include/c++/4.5.2/bits/stl_algobase.h ****       __glibcxx_function_requires(_Mutable_ForwardIteratorConcept<
 163:/opt/toolchains/arm-none-eabi/bin/../lib/gcc/arm-none-eabi/4.5.2/../../../../arm-none-eabi/include/c++/4.5.2/bits/stl_algobase.h **** 				  _ForwardIterator1>)
 164:/opt/toolchains/arm-none-eabi/bin/../lib/gcc/arm-none-eabi/4.5.2/../../../../arm-none-eabi/include/c++/4.5.2/bits/stl_algobase.h ****       __glibcxx_function_requires(_Mutable_ForwardIteratorConcept<
 165:/opt/toolchains/arm-none-eabi/bin/../lib/gcc/arm-none-eabi/4.5.2/../../../../arm-none-eabi/include/c++/4.5.2/bits/stl_algobase.h **** 				  _ForwardIterator2>)
 166:/opt/toolchains/arm-none-eabi/bin/../lib/gcc/arm-none-eabi/4.5.2/../../../../arm-none-eabi/include/c++/4.5.2/bits/stl_algobase.h ****       __glibcxx_requires_valid_range(__first1, __last1);
 167:/opt/toolchains/arm-none-eabi/bin/../lib/gcc/arm-none-eabi/4.5.2/../../../../arm-none-eabi/include/c++/4.5.2/bits/stl_algobase.h **** 
 168:/opt/toolchains/arm-none-eabi/bin/../lib/gcc/arm-none-eabi/4.5.2/../../../../arm-none-eabi/include/c++/4.5.2/bits/stl_algobase.h ****       for (; __first1 != __last1; ++__first1, ++__first2)
 169:/opt/toolchains/arm-none-eabi/bin/../lib/gcc/arm-none-eabi/4.5.2/../../../../arm-none-eabi/include/c++/4.5.2/bits/stl_algobase.h **** 	std::iter_swap(__first1, __first2);
 170:/opt/toolchains/arm-none-eabi/bin/../lib/gcc/arm-none-eabi/4.5.2/../../../../arm-none-eabi/include/c++/4.5.2/bits/stl_algobase.h ****       return __first2;
 171:/opt/toolchains/arm-none-eabi/bin/../lib/gcc/arm-none-eabi/4.5.2/../../../../arm-none-eabi/include/c++/4.5.2/bits/stl_algobase.h ****     }
 172:/opt/toolchains/arm-none-eabi/bin/../lib/gcc/arm-none-eabi/4.5.2/../../../../arm-none-eabi/include/c++/4.5.2/bits/stl_algobase.h **** 
 173:/opt/toolchains/arm-none-eabi/bin/../lib/gcc/arm-none-eabi/4.5.2/../../../../arm-none-eabi/include/c++/4.5.2/bits/stl_algobase.h ****   /**
 174:/opt/toolchains/arm-none-eabi/bin/../lib/gcc/arm-none-eabi/4.5.2/../../../../arm-none-eabi/include/c++/4.5.2/bits/stl_algobase.h ****    *  @brief This does what you think it does.
 175:/opt/toolchains/arm-none-eabi/bin/../lib/gcc/arm-none-eabi/4.5.2/../../../../arm-none-eabi/include/c++/4.5.2/bits/stl_algobase.h ****    *  @ingroup sorting_algorithms
 176:/opt/toolchains/arm-none-eabi/bin/../lib/gcc/arm-none-eabi/4.5.2/../../../../arm-none-eabi/include/c++/4.5.2/bits/stl_algobase.h ****    *  @param  a  A thing of arbitrary type.
 177:/opt/toolchains/arm-none-eabi/bin/../lib/gcc/arm-none-eabi/4.5.2/../../../../arm-none-eabi/include/c++/4.5.2/bits/stl_algobase.h ****    *  @param  b  Another thing of arbitrary type.
 178:/opt/toolchains/arm-none-eabi/bin/../lib/gcc/arm-none-eabi/4.5.2/../../../../arm-none-eabi/include/c++/4.5.2/bits/stl_algobase.h ****    *  @return   The lesser of the parameters.
 179:/opt/toolchains/arm-none-eabi/bin/../lib/gcc/arm-none-eabi/4.5.2/../../../../arm-none-eabi/include/c++/4.5.2/bits/stl_algobase.h ****    *
 180:/opt/toolchains/arm-none-eabi/bin/../lib/gcc/arm-none-eabi/4.5.2/../../../../arm-none-eabi/include/c++/4.5.2/bits/stl_algobase.h ****    *  This is the simple classic generic implementation.  It will work on
 181:/opt/toolchains/arm-none-eabi/bin/../lib/gcc/arm-none-eabi/4.5.2/../../../../arm-none-eabi/include/c++/4.5.2/bits/stl_algobase.h ****    *  temporary expressions, since they are only evaluated once, unlike a
 182:/opt/toolchains/arm-none-eabi/bin/../lib/gcc/arm-none-eabi/4.5.2/../../../../arm-none-eabi/include/c++/4.5.2/bits/stl_algobase.h ****    *  preprocessor macro.
 183:/opt/toolchains/arm-none-eabi/bin/../lib/gcc/arm-none-eabi/4.5.2/../../../../arm-none-eabi/include/c++/4.5.2/bits/stl_algobase.h ****   */
 184:/opt/toolchains/arm-none-eabi/bin/../lib/gcc/arm-none-eabi/4.5.2/../../../../arm-none-eabi/include/c++/4.5.2/bits/stl_algobase.h ****   template<typename _Tp>
 185:/opt/toolchains/arm-none-eabi/bin/../lib/gcc/arm-none-eabi/4.5.2/../../../../arm-none-eabi/include/c++/4.5.2/bits/stl_algobase.h ****     inline const _Tp&
 186:/opt/toolchains/arm-none-eabi/bin/../lib/gcc/arm-none-eabi/4.5.2/../../../../arm-none-eabi/include/c++/4.5.2/bits/stl_algobase.h ****     min(const _Tp& __a, const _Tp& __b)
 4512              		.loc 9 186 0
 4513              		.cfi_startproc
 4514              		@ args = 0, pretend = 0, frame = 8
 4515              		@ frame_needed = 1, uses_anonymous_args = 0
 4516              		@ link register save eliminated.
 4517 0000 80B4     		push	{r7}
 4518              	.LCFI21:
 4519              		.cfi_def_cfa_offset 4
 4520 0002 83B0     		sub	sp, sp, #12
 4521              	.LCFI22:
 4522              		.cfi_def_cfa_offset 16
 4523 0004 00AF     		add	r7, sp, #0
 4524              		.cfi_offset 7, -4
 4525              	.LCFI23:
 4526              		.cfi_def_cfa_register 7
 4527 0006 7860     		str	r0, [r7, #4]
 4528 0008 3960     		str	r1, [r7, #0]
 187:/opt/toolchains/arm-none-eabi/bin/../lib/gcc/arm-none-eabi/4.5.2/../../../../arm-none-eabi/include/c++/4.5.2/bits/stl_algobase.h ****     {
 188:/opt/toolchains/arm-none-eabi/bin/../lib/gcc/arm-none-eabi/4.5.2/../../../../arm-none-eabi/include/c++/4.5.2/bits/stl_algobase.h ****       // concept requirements
 189:/opt/toolchains/arm-none-eabi/bin/../lib/gcc/arm-none-eabi/4.5.2/../../../../arm-none-eabi/include/c++/4.5.2/bits/stl_algobase.h ****       __glibcxx_function_requires(_LessThanComparableConcept<_Tp>)
 190:/opt/toolchains/arm-none-eabi/bin/../lib/gcc/arm-none-eabi/4.5.2/../../../../arm-none-eabi/include/c++/4.5.2/bits/stl_algobase.h ****       //return __b < __a ? __b : __a;
 191:/opt/toolchains/arm-none-eabi/bin/../lib/gcc/arm-none-eabi/4.5.2/../../../../arm-none-eabi/include/c++/4.5.2/bits/stl_algobase.h ****       if (__b < __a)
 4529              		.loc 9 191 0
 4530 000a 3B68     		ldr	r3, [r7, #0]
 4531 000c 1A68     		ldr	r2, [r3, #0]
 4532 000e 7B68     		ldr	r3, [r7, #4]
 4533 0010 1B68     		ldr	r3, [r3, #0]
 4534 0012 9A42     		cmp	r2, r3
 4535 0014 01D2     		bcs	.L34
 192:/opt/toolchains/arm-none-eabi/bin/../lib/gcc/arm-none-eabi/4.5.2/../../../../arm-none-eabi/include/c++/4.5.2/bits/stl_algobase.h **** 	return __b;
 4536              		.loc 9 192 0
 4537 0016 3B68     		ldr	r3, [r7, #0]
 4538 0018 00E0     		b	.L35
 4539              	.L34:
 193:/opt/toolchains/arm-none-eabi/bin/../lib/gcc/arm-none-eabi/4.5.2/../../../../arm-none-eabi/include/c++/4.5.2/bits/stl_algobase.h ****       return __a;
 4540              		.loc 9 193 0
 4541 001a 7B68     		ldr	r3, [r7, #4]
 4542              	.L35:
 194:/opt/toolchains/arm-none-eabi/bin/../lib/gcc/arm-none-eabi/4.5.2/../../../../arm-none-eabi/include/c++/4.5.2/bits/stl_algobase.h ****     }
 4543              		.loc 9 194 0
 4544 001c 1846     		mov	r0, r3
 4545 001e 07F10C07 		add	r7, r7, #12
 4546 0022 BD46     		mov	sp, r7
 4547 0024 80BC     		pop	{r7}
 4548 0026 7047     		bx	lr
 4549              		.cfi_endproc
 4550              	.LFE872:
 4552              		.section	.rodata._ZZN5Air3T9GameField9setSymbolERKNS0_5FieldENS0_6SymbolEE19__PRETTY_FUNCTION__,"a
 4553              		.align	2
 4556              	_ZZN5Air3T9GameField9setSymbolERKNS0_5FieldENS0_6SymbolEE19__PRETTY_FUNCTION__:
 4557 0000 766F6964 		.ascii	"void Air3T::GameField::setSymbol(const Air3T::GameF"
 4557      20416972 
 4557      33543A3A 
 4557      47616D65 
 4557      4669656C 
 4558 0033 69656C64 		.ascii	"ield::Field&, Air3T::GameField::Symbol)\000"
 4558      3A3A4669 
 4558      656C6426 
 4558      2C204169 
 4558      7233543A 
 4559 005b 00       		.section	.rodata._ZZNK5Air3T9GameField6symbolERKNS0_5FieldEE19__PRETTY_FUNCTION__,"a",%progbits
 4560              		.align	2
 4563              	_ZZNK5Air3T9GameField6symbolERKNS0_5FieldEE19__PRETTY_FUNCTION__:
 4564 0000 41697233 		.ascii	"Air3T::GameField::Symbol Air3T::GameField::symbol(c"
 4564      543A3A47 
 4564      616D6546 
 4564      69656C64 
 4564      3A3A5379 
 4565 0033 6F6E7374 		.ascii	"onst Air3T::GameField::Field&) const\000"
 4565      20416972 
 4565      33543A3A 
 4565      47616D65 
 4565      4669656C 
 4566              		.text
 4567              	.Letext0: