   1              		.syntax unified
   2              		.cpu cortex-m3
   3              		.fpu softvfp
   4              		.eabi_attribute 20, 1
   5              		.eabi_attribute 21, 1
   6              		.eabi_attribute 23, 3
   7              		.eabi_attribute 24, 1
   8              		.eabi_attribute 25, 1
   9              		.eabi_attribute 26, 1
  10              		.eabi_attribute 30, 6
  11              		.eabi_attribute 18, 4
  12              		.thumb
  13              		.file	"model.cpp"
  23              	.Ltext0:
  24              		.file 1 "../air3t/data/model.cpp"
 3952              		.align	2
 3953              		.weak	_ZnwjPv
 3954              		.thumb
 3955              		.thumb_func
 3957              	_ZnwjPv:
 3958              	.LFB163:
   1:/opt/toolchains/arm-none-eabi/bin/../lib/gcc/arm-none-eabi/4.5.2/../../../../arm-none-eabi/include/c++/4.5.2/new **** // The -*- C++ -*- dynamic memory management header.
   2:/opt/toolchains/arm-none-eabi/bin/../lib/gcc/arm-none-eabi/4.5.2/../../../../arm-none-eabi/include/c++/4.5.2/new **** 
   3:/opt/toolchains/arm-none-eabi/bin/../lib/gcc/arm-none-eabi/4.5.2/../../../../arm-none-eabi/include/c++/4.5.2/new **** // Copyright (C) 1994, 1995, 1996, 1997, 1998, 1999, 2000, 2001, 2002,
   4:/opt/toolchains/arm-none-eabi/bin/../lib/gcc/arm-none-eabi/4.5.2/../../../../arm-none-eabi/include/c++/4.5.2/new **** // 2003, 2004, 2005, 2006, 2007, 2009, 2010
   5:/opt/toolchains/arm-none-eabi/bin/../lib/gcc/arm-none-eabi/4.5.2/../../../../arm-none-eabi/include/c++/4.5.2/new **** // Free Software Foundation
   6:/opt/toolchains/arm-none-eabi/bin/../lib/gcc/arm-none-eabi/4.5.2/../../../../arm-none-eabi/include/c++/4.5.2/new **** 
   7:/opt/toolchains/arm-none-eabi/bin/../lib/gcc/arm-none-eabi/4.5.2/../../../../arm-none-eabi/include/c++/4.5.2/new **** // This file is part of GCC.
   8:/opt/toolchains/arm-none-eabi/bin/../lib/gcc/arm-none-eabi/4.5.2/../../../../arm-none-eabi/include/c++/4.5.2/new **** //
   9:/opt/toolchains/arm-none-eabi/bin/../lib/gcc/arm-none-eabi/4.5.2/../../../../arm-none-eabi/include/c++/4.5.2/new **** // GCC is free software; you can redistribute it and/or modify
  10:/opt/toolchains/arm-none-eabi/bin/../lib/gcc/arm-none-eabi/4.5.2/../../../../arm-none-eabi/include/c++/4.5.2/new **** // it under the terms of the GNU General Public License as published by
  11:/opt/toolchains/arm-none-eabi/bin/../lib/gcc/arm-none-eabi/4.5.2/../../../../arm-none-eabi/include/c++/4.5.2/new **** // the Free Software Foundation; either version 3, or (at your option)
  12:/opt/toolchains/arm-none-eabi/bin/../lib/gcc/arm-none-eabi/4.5.2/../../../../arm-none-eabi/include/c++/4.5.2/new **** // any later version.
  13:/opt/toolchains/arm-none-eabi/bin/../lib/gcc/arm-none-eabi/4.5.2/../../../../arm-none-eabi/include/c++/4.5.2/new **** // 
  14:/opt/toolchains/arm-none-eabi/bin/../lib/gcc/arm-none-eabi/4.5.2/../../../../arm-none-eabi/include/c++/4.5.2/new **** // GCC is distributed in the hope that it will be useful,
  15:/opt/toolchains/arm-none-eabi/bin/../lib/gcc/arm-none-eabi/4.5.2/../../../../arm-none-eabi/include/c++/4.5.2/new **** // but WITHOUT ANY WARRANTY; without even the implied warranty of
  16:/opt/toolchains/arm-none-eabi/bin/../lib/gcc/arm-none-eabi/4.5.2/../../../../arm-none-eabi/include/c++/4.5.2/new **** // MERCHANTABILITY or FITNESS FOR A PARTICULAR PURPOSE.  See the
  17:/opt/toolchains/arm-none-eabi/bin/../lib/gcc/arm-none-eabi/4.5.2/../../../../arm-none-eabi/include/c++/4.5.2/new **** // GNU General Public License for more details.
  18:/opt/toolchains/arm-none-eabi/bin/../lib/gcc/arm-none-eabi/4.5.2/../../../../arm-none-eabi/include/c++/4.5.2/new **** // 
  19:/opt/toolchains/arm-none-eabi/bin/../lib/gcc/arm-none-eabi/4.5.2/../../../../arm-none-eabi/include/c++/4.5.2/new **** // Under Section 7 of GPL version 3, you are granted additional
  20:/opt/toolchains/arm-none-eabi/bin/../lib/gcc/arm-none-eabi/4.5.2/../../../../arm-none-eabi/include/c++/4.5.2/new **** // permissions described in the GCC Runtime Library Exception, version
  21:/opt/toolchains/arm-none-eabi/bin/../lib/gcc/arm-none-eabi/4.5.2/../../../../arm-none-eabi/include/c++/4.5.2/new **** // 3.1, as published by the Free Software Foundation.
  22:/opt/toolchains/arm-none-eabi/bin/../lib/gcc/arm-none-eabi/4.5.2/../../../../arm-none-eabi/include/c++/4.5.2/new **** 
  23:/opt/toolchains/arm-none-eabi/bin/../lib/gcc/arm-none-eabi/4.5.2/../../../../arm-none-eabi/include/c++/4.5.2/new **** // You should have received a copy of the GNU General Public License and
  24:/opt/toolchains/arm-none-eabi/bin/../lib/gcc/arm-none-eabi/4.5.2/../../../../arm-none-eabi/include/c++/4.5.2/new **** // a copy of the GCC Runtime Library Exception along with this program;
  25:/opt/toolchains/arm-none-eabi/bin/../lib/gcc/arm-none-eabi/4.5.2/../../../../arm-none-eabi/include/c++/4.5.2/new **** // see the files COPYING3 and COPYING.RUNTIME respectively.  If not, see
  26:/opt/toolchains/arm-none-eabi/bin/../lib/gcc/arm-none-eabi/4.5.2/../../../../arm-none-eabi/include/c++/4.5.2/new **** // <http://www.gnu.org/licenses/>.
  27:/opt/toolchains/arm-none-eabi/bin/../lib/gcc/arm-none-eabi/4.5.2/../../../../arm-none-eabi/include/c++/4.5.2/new **** 
  28:/opt/toolchains/arm-none-eabi/bin/../lib/gcc/arm-none-eabi/4.5.2/../../../../arm-none-eabi/include/c++/4.5.2/new **** /** @file new
  29:/opt/toolchains/arm-none-eabi/bin/../lib/gcc/arm-none-eabi/4.5.2/../../../../arm-none-eabi/include/c++/4.5.2/new ****  *  This is a Standard C++ Library header.
  30:/opt/toolchains/arm-none-eabi/bin/../lib/gcc/arm-none-eabi/4.5.2/../../../../arm-none-eabi/include/c++/4.5.2/new ****  *
  31:/opt/toolchains/arm-none-eabi/bin/../lib/gcc/arm-none-eabi/4.5.2/../../../../arm-none-eabi/include/c++/4.5.2/new ****  *  The header @c new defines several functions to manage dynamic memory and
  32:/opt/toolchains/arm-none-eabi/bin/../lib/gcc/arm-none-eabi/4.5.2/../../../../arm-none-eabi/include/c++/4.5.2/new ****  *  handling memory allocation errors; see
  33:/opt/toolchains/arm-none-eabi/bin/../lib/gcc/arm-none-eabi/4.5.2/../../../../arm-none-eabi/include/c++/4.5.2/new ****  *  http://gcc.gnu.org/onlinedocs/libstdc++/18_support/howto.html#4 for more.
  34:/opt/toolchains/arm-none-eabi/bin/../lib/gcc/arm-none-eabi/4.5.2/../../../../arm-none-eabi/include/c++/4.5.2/new ****  */
  35:/opt/toolchains/arm-none-eabi/bin/../lib/gcc/arm-none-eabi/4.5.2/../../../../arm-none-eabi/include/c++/4.5.2/new **** 
  36:/opt/toolchains/arm-none-eabi/bin/../lib/gcc/arm-none-eabi/4.5.2/../../../../arm-none-eabi/include/c++/4.5.2/new **** #ifndef _NEW
  37:/opt/toolchains/arm-none-eabi/bin/../lib/gcc/arm-none-eabi/4.5.2/../../../../arm-none-eabi/include/c++/4.5.2/new **** #define _NEW
  38:/opt/toolchains/arm-none-eabi/bin/../lib/gcc/arm-none-eabi/4.5.2/../../../../arm-none-eabi/include/c++/4.5.2/new **** 
  39:/opt/toolchains/arm-none-eabi/bin/../lib/gcc/arm-none-eabi/4.5.2/../../../../arm-none-eabi/include/c++/4.5.2/new **** #pragma GCC system_header
  40:/opt/toolchains/arm-none-eabi/bin/../lib/gcc/arm-none-eabi/4.5.2/../../../../arm-none-eabi/include/c++/4.5.2/new **** 
  41:/opt/toolchains/arm-none-eabi/bin/../lib/gcc/arm-none-eabi/4.5.2/../../../../arm-none-eabi/include/c++/4.5.2/new **** #include <cstddef>
  42:/opt/toolchains/arm-none-eabi/bin/../lib/gcc/arm-none-eabi/4.5.2/../../../../arm-none-eabi/include/c++/4.5.2/new **** #include <exception>
  43:/opt/toolchains/arm-none-eabi/bin/../lib/gcc/arm-none-eabi/4.5.2/../../../../arm-none-eabi/include/c++/4.5.2/new **** 
  44:/opt/toolchains/arm-none-eabi/bin/../lib/gcc/arm-none-eabi/4.5.2/../../../../arm-none-eabi/include/c++/4.5.2/new **** #pragma GCC visibility push(default)
  45:/opt/toolchains/arm-none-eabi/bin/../lib/gcc/arm-none-eabi/4.5.2/../../../../arm-none-eabi/include/c++/4.5.2/new **** 
  46:/opt/toolchains/arm-none-eabi/bin/../lib/gcc/arm-none-eabi/4.5.2/../../../../arm-none-eabi/include/c++/4.5.2/new **** extern "C++" {
  47:/opt/toolchains/arm-none-eabi/bin/../lib/gcc/arm-none-eabi/4.5.2/../../../../arm-none-eabi/include/c++/4.5.2/new **** 
  48:/opt/toolchains/arm-none-eabi/bin/../lib/gcc/arm-none-eabi/4.5.2/../../../../arm-none-eabi/include/c++/4.5.2/new **** namespace std 
  49:/opt/toolchains/arm-none-eabi/bin/../lib/gcc/arm-none-eabi/4.5.2/../../../../arm-none-eabi/include/c++/4.5.2/new **** {
  50:/opt/toolchains/arm-none-eabi/bin/../lib/gcc/arm-none-eabi/4.5.2/../../../../arm-none-eabi/include/c++/4.5.2/new ****   /**
  51:/opt/toolchains/arm-none-eabi/bin/../lib/gcc/arm-none-eabi/4.5.2/../../../../arm-none-eabi/include/c++/4.5.2/new ****    *  @brief  Exception possibly thrown by @c new.
  52:/opt/toolchains/arm-none-eabi/bin/../lib/gcc/arm-none-eabi/4.5.2/../../../../arm-none-eabi/include/c++/4.5.2/new ****    *  @ingroup exceptions
  53:/opt/toolchains/arm-none-eabi/bin/../lib/gcc/arm-none-eabi/4.5.2/../../../../arm-none-eabi/include/c++/4.5.2/new ****    *
  54:/opt/toolchains/arm-none-eabi/bin/../lib/gcc/arm-none-eabi/4.5.2/../../../../arm-none-eabi/include/c++/4.5.2/new ****    *  @c bad_alloc (or classes derived from it) is used to report allocation
  55:/opt/toolchains/arm-none-eabi/bin/../lib/gcc/arm-none-eabi/4.5.2/../../../../arm-none-eabi/include/c++/4.5.2/new ****    *  errors from the throwing forms of @c new.  */
  56:/opt/toolchains/arm-none-eabi/bin/../lib/gcc/arm-none-eabi/4.5.2/../../../../arm-none-eabi/include/c++/4.5.2/new ****   class bad_alloc : public exception 
  57:/opt/toolchains/arm-none-eabi/bin/../lib/gcc/arm-none-eabi/4.5.2/../../../../arm-none-eabi/include/c++/4.5.2/new ****   {
  58:/opt/toolchains/arm-none-eabi/bin/../lib/gcc/arm-none-eabi/4.5.2/../../../../arm-none-eabi/include/c++/4.5.2/new ****   public:
  59:/opt/toolchains/arm-none-eabi/bin/../lib/gcc/arm-none-eabi/4.5.2/../../../../arm-none-eabi/include/c++/4.5.2/new ****     bad_alloc() throw() { }
  60:/opt/toolchains/arm-none-eabi/bin/../lib/gcc/arm-none-eabi/4.5.2/../../../../arm-none-eabi/include/c++/4.5.2/new **** 
  61:/opt/toolchains/arm-none-eabi/bin/../lib/gcc/arm-none-eabi/4.5.2/../../../../arm-none-eabi/include/c++/4.5.2/new ****     // This declaration is not useless:
  62:/opt/toolchains/arm-none-eabi/bin/../lib/gcc/arm-none-eabi/4.5.2/../../../../arm-none-eabi/include/c++/4.5.2/new ****     // http://gcc.gnu.org/onlinedocs/gcc-3.0.2/gcc_6.html#SEC118
  63:/opt/toolchains/arm-none-eabi/bin/../lib/gcc/arm-none-eabi/4.5.2/../../../../arm-none-eabi/include/c++/4.5.2/new ****     virtual ~bad_alloc() throw();
  64:/opt/toolchains/arm-none-eabi/bin/../lib/gcc/arm-none-eabi/4.5.2/../../../../arm-none-eabi/include/c++/4.5.2/new **** 
  65:/opt/toolchains/arm-none-eabi/bin/../lib/gcc/arm-none-eabi/4.5.2/../../../../arm-none-eabi/include/c++/4.5.2/new ****     // See comment in eh_exception.cc.
  66:/opt/toolchains/arm-none-eabi/bin/../lib/gcc/arm-none-eabi/4.5.2/../../../../arm-none-eabi/include/c++/4.5.2/new ****     virtual const char* what() const throw();
  67:/opt/toolchains/arm-none-eabi/bin/../lib/gcc/arm-none-eabi/4.5.2/../../../../arm-none-eabi/include/c++/4.5.2/new ****   };
  68:/opt/toolchains/arm-none-eabi/bin/../lib/gcc/arm-none-eabi/4.5.2/../../../../arm-none-eabi/include/c++/4.5.2/new **** 
  69:/opt/toolchains/arm-none-eabi/bin/../lib/gcc/arm-none-eabi/4.5.2/../../../../arm-none-eabi/include/c++/4.5.2/new ****   struct nothrow_t { };
  70:/opt/toolchains/arm-none-eabi/bin/../lib/gcc/arm-none-eabi/4.5.2/../../../../arm-none-eabi/include/c++/4.5.2/new **** 
  71:/opt/toolchains/arm-none-eabi/bin/../lib/gcc/arm-none-eabi/4.5.2/../../../../arm-none-eabi/include/c++/4.5.2/new ****   extern const nothrow_t nothrow;
  72:/opt/toolchains/arm-none-eabi/bin/../lib/gcc/arm-none-eabi/4.5.2/../../../../arm-none-eabi/include/c++/4.5.2/new **** 
  73:/opt/toolchains/arm-none-eabi/bin/../lib/gcc/arm-none-eabi/4.5.2/../../../../arm-none-eabi/include/c++/4.5.2/new ****   /** If you write your own error handler to be called by @c new, it must
  74:/opt/toolchains/arm-none-eabi/bin/../lib/gcc/arm-none-eabi/4.5.2/../../../../arm-none-eabi/include/c++/4.5.2/new ****    *  be of this type.  */
  75:/opt/toolchains/arm-none-eabi/bin/../lib/gcc/arm-none-eabi/4.5.2/../../../../arm-none-eabi/include/c++/4.5.2/new ****   typedef void (*new_handler)();
  76:/opt/toolchains/arm-none-eabi/bin/../lib/gcc/arm-none-eabi/4.5.2/../../../../arm-none-eabi/include/c++/4.5.2/new **** 
  77:/opt/toolchains/arm-none-eabi/bin/../lib/gcc/arm-none-eabi/4.5.2/../../../../arm-none-eabi/include/c++/4.5.2/new ****   /// Takes a replacement handler as the argument, returns the
  78:/opt/toolchains/arm-none-eabi/bin/../lib/gcc/arm-none-eabi/4.5.2/../../../../arm-none-eabi/include/c++/4.5.2/new ****   /// previous handler.
  79:/opt/toolchains/arm-none-eabi/bin/../lib/gcc/arm-none-eabi/4.5.2/../../../../arm-none-eabi/include/c++/4.5.2/new ****   new_handler set_new_handler(new_handler) throw();
  80:/opt/toolchains/arm-none-eabi/bin/../lib/gcc/arm-none-eabi/4.5.2/../../../../arm-none-eabi/include/c++/4.5.2/new **** } // namespace std
  81:/opt/toolchains/arm-none-eabi/bin/../lib/gcc/arm-none-eabi/4.5.2/../../../../arm-none-eabi/include/c++/4.5.2/new **** 
  82:/opt/toolchains/arm-none-eabi/bin/../lib/gcc/arm-none-eabi/4.5.2/../../../../arm-none-eabi/include/c++/4.5.2/new **** //@{
  83:/opt/toolchains/arm-none-eabi/bin/../lib/gcc/arm-none-eabi/4.5.2/../../../../arm-none-eabi/include/c++/4.5.2/new **** /** These are replaceable signatures:
  84:/opt/toolchains/arm-none-eabi/bin/../lib/gcc/arm-none-eabi/4.5.2/../../../../arm-none-eabi/include/c++/4.5.2/new ****  *  - normal single new and delete (no arguments, throw @c bad_alloc on error)
  85:/opt/toolchains/arm-none-eabi/bin/../lib/gcc/arm-none-eabi/4.5.2/../../../../arm-none-eabi/include/c++/4.5.2/new ****  *  - normal array new and delete (same)
  86:/opt/toolchains/arm-none-eabi/bin/../lib/gcc/arm-none-eabi/4.5.2/../../../../arm-none-eabi/include/c++/4.5.2/new ****  *  - @c nothrow single new and delete (take a @c nothrow argument, return
  87:/opt/toolchains/arm-none-eabi/bin/../lib/gcc/arm-none-eabi/4.5.2/../../../../arm-none-eabi/include/c++/4.5.2/new ****  *    @c NULL on error)
  88:/opt/toolchains/arm-none-eabi/bin/../lib/gcc/arm-none-eabi/4.5.2/../../../../arm-none-eabi/include/c++/4.5.2/new ****  *  - @c nothrow array new and delete (same)
  89:/opt/toolchains/arm-none-eabi/bin/../lib/gcc/arm-none-eabi/4.5.2/../../../../arm-none-eabi/include/c++/4.5.2/new ****  *
  90:/opt/toolchains/arm-none-eabi/bin/../lib/gcc/arm-none-eabi/4.5.2/../../../../arm-none-eabi/include/c++/4.5.2/new ****  *  Placement new and delete signatures (take a memory address argument,
  91:/opt/toolchains/arm-none-eabi/bin/../lib/gcc/arm-none-eabi/4.5.2/../../../../arm-none-eabi/include/c++/4.5.2/new ****  *  does nothing) may not be replaced by a user's program.
  92:/opt/toolchains/arm-none-eabi/bin/../lib/gcc/arm-none-eabi/4.5.2/../../../../arm-none-eabi/include/c++/4.5.2/new **** */
  93:/opt/toolchains/arm-none-eabi/bin/../lib/gcc/arm-none-eabi/4.5.2/../../../../arm-none-eabi/include/c++/4.5.2/new **** void* operator new(std::size_t) throw (std::bad_alloc);
  94:/opt/toolchains/arm-none-eabi/bin/../lib/gcc/arm-none-eabi/4.5.2/../../../../arm-none-eabi/include/c++/4.5.2/new **** void* operator new[](std::size_t) throw (std::bad_alloc);
  95:/opt/toolchains/arm-none-eabi/bin/../lib/gcc/arm-none-eabi/4.5.2/../../../../arm-none-eabi/include/c++/4.5.2/new **** void operator delete(void*) throw();
  96:/opt/toolchains/arm-none-eabi/bin/../lib/gcc/arm-none-eabi/4.5.2/../../../../arm-none-eabi/include/c++/4.5.2/new **** void operator delete[](void*) throw();
  97:/opt/toolchains/arm-none-eabi/bin/../lib/gcc/arm-none-eabi/4.5.2/../../../../arm-none-eabi/include/c++/4.5.2/new **** void* operator new(std::size_t, const std::nothrow_t&) throw();
  98:/opt/toolchains/arm-none-eabi/bin/../lib/gcc/arm-none-eabi/4.5.2/../../../../arm-none-eabi/include/c++/4.5.2/new **** void* operator new[](std::size_t, const std::nothrow_t&) throw();
  99:/opt/toolchains/arm-none-eabi/bin/../lib/gcc/arm-none-eabi/4.5.2/../../../../arm-none-eabi/include/c++/4.5.2/new **** void operator delete(void*, const std::nothrow_t&) throw();
 100:/opt/toolchains/arm-none-eabi/bin/../lib/gcc/arm-none-eabi/4.5.2/../../../../arm-none-eabi/include/c++/4.5.2/new **** void operator delete[](void*, const std::nothrow_t&) throw();
 101:/opt/toolchains/arm-none-eabi/bin/../lib/gcc/arm-none-eabi/4.5.2/../../../../arm-none-eabi/include/c++/4.5.2/new **** 
 102:/opt/toolchains/arm-none-eabi/bin/../lib/gcc/arm-none-eabi/4.5.2/../../../../arm-none-eabi/include/c++/4.5.2/new **** // Default placement versions of operator new.
 103:/opt/toolchains/arm-none-eabi/bin/../lib/gcc/arm-none-eabi/4.5.2/../../../../arm-none-eabi/include/c++/4.5.2/new **** inline void* operator new(std::size_t, void* __p) throw() { return __p; }
 3959              		.loc 26 103 0
 3960              		.cfi_startproc
 3961              		@ args = 0, pretend = 0, frame = 8
 3962              		@ frame_needed = 1, uses_anonymous_args = 0
 3963              		@ link register save eliminated.
 3964 0000 80B4     		push	{r7}
 3965              	.LCFI0:
 3966              		.cfi_def_cfa_offset 4
 3967 0002 83B0     		sub	sp, sp, #12
 3968              	.LCFI1:
 3969              		.cfi_def_cfa_offset 16
 3970 0004 00AF     		add	r7, sp, #0
 3971              		.cfi_offset 7, -4
 3972              	.LCFI2:
 3973              		.cfi_def_cfa_register 7
 3974 0006 7860     		str	r0, [r7, #4]
 3975 0008 3960     		str	r1, [r7, #0]
 3976              		.loc 26 103 0
 3977 000a 3B68     		ldr	r3, [r7, #0]
 3978 000c 1846     		mov	r0, r3
 3979 000e 07F10C07 		add	r7, r7, #12
 3980 0012 BD46     		mov	sp, r7
 3981 0014 80BC     		pop	{r7}
 3982 0016 7047     		bx	lr
 3983              		.cfi_endproc
 3984              	.LFE163:
 3986              		.section	.text._ZL20__gthread_key_deletei,"ax",%progbits
 3987              		.align	2
 3988              		.thumb
 3989              		.thumb_func
 3991              	_ZL20__gthread_key_deletei:
 3992              	.LFB433:
   1:/opt/toolchains/arm-none-eabi/bin/../lib/gcc/arm-none-eabi/4.5.2/../../../../arm-none-eabi/include/c++/4.5.2/arm-none-eabi/thumb/bits/gthr-single.h **** /* Threads compatibility routines for libgcc2 and libobjc.  */
   2:/opt/toolchains/arm-none-eabi/bin/../lib/gcc/arm-none-eabi/4.5.2/../../../../arm-none-eabi/include/c++/4.5.2/arm-none-eabi/thumb/bits/gthr-single.h **** /* Compile this one with gcc.  */
   3:/opt/toolchains/arm-none-eabi/bin/../lib/gcc/arm-none-eabi/4.5.2/../../../../arm-none-eabi/include/c++/4.5.2/arm-none-eabi/thumb/bits/gthr-single.h **** /* Copyright (C) 1997, 1999, 2000, 2004, 2008, 2009
   4:/opt/toolchains/arm-none-eabi/bin/../lib/gcc/arm-none-eabi/4.5.2/../../../../arm-none-eabi/include/c++/4.5.2/arm-none-eabi/thumb/bits/gthr-single.h ****    Free Software Foundation, Inc.
   5:/opt/toolchains/arm-none-eabi/bin/../lib/gcc/arm-none-eabi/4.5.2/../../../../arm-none-eabi/include/c++/4.5.2/arm-none-eabi/thumb/bits/gthr-single.h **** 
   6:/opt/toolchains/arm-none-eabi/bin/../lib/gcc/arm-none-eabi/4.5.2/../../../../arm-none-eabi/include/c++/4.5.2/arm-none-eabi/thumb/bits/gthr-single.h **** This file is part of GCC.
   7:/opt/toolchains/arm-none-eabi/bin/../lib/gcc/arm-none-eabi/4.5.2/../../../../arm-none-eabi/include/c++/4.5.2/arm-none-eabi/thumb/bits/gthr-single.h **** 
   8:/opt/toolchains/arm-none-eabi/bin/../lib/gcc/arm-none-eabi/4.5.2/../../../../arm-none-eabi/include/c++/4.5.2/arm-none-eabi/thumb/bits/gthr-single.h **** GCC is free software; you can redistribute it and/or modify it under
   9:/opt/toolchains/arm-none-eabi/bin/../lib/gcc/arm-none-eabi/4.5.2/../../../../arm-none-eabi/include/c++/4.5.2/arm-none-eabi/thumb/bits/gthr-single.h **** the terms of the GNU General Public License as published by the Free
  10:/opt/toolchains/arm-none-eabi/bin/../lib/gcc/arm-none-eabi/4.5.2/../../../../arm-none-eabi/include/c++/4.5.2/arm-none-eabi/thumb/bits/gthr-single.h **** Software Foundation; either version 3, or (at your option) any later
  11:/opt/toolchains/arm-none-eabi/bin/../lib/gcc/arm-none-eabi/4.5.2/../../../../arm-none-eabi/include/c++/4.5.2/arm-none-eabi/thumb/bits/gthr-single.h **** version.
  12:/opt/toolchains/arm-none-eabi/bin/../lib/gcc/arm-none-eabi/4.5.2/../../../../arm-none-eabi/include/c++/4.5.2/arm-none-eabi/thumb/bits/gthr-single.h **** 
  13:/opt/toolchains/arm-none-eabi/bin/../lib/gcc/arm-none-eabi/4.5.2/../../../../arm-none-eabi/include/c++/4.5.2/arm-none-eabi/thumb/bits/gthr-single.h **** GCC is distributed in the hope that it will be useful, but WITHOUT ANY
  14:/opt/toolchains/arm-none-eabi/bin/../lib/gcc/arm-none-eabi/4.5.2/../../../../arm-none-eabi/include/c++/4.5.2/arm-none-eabi/thumb/bits/gthr-single.h **** WARRANTY; without even the implied warranty of MERCHANTABILITY or
  15:/opt/toolchains/arm-none-eabi/bin/../lib/gcc/arm-none-eabi/4.5.2/../../../../arm-none-eabi/include/c++/4.5.2/arm-none-eabi/thumb/bits/gthr-single.h **** FITNESS FOR A PARTICULAR PURPOSE.  See the GNU General Public License
  16:/opt/toolchains/arm-none-eabi/bin/../lib/gcc/arm-none-eabi/4.5.2/../../../../arm-none-eabi/include/c++/4.5.2/arm-none-eabi/thumb/bits/gthr-single.h **** for more details.
  17:/opt/toolchains/arm-none-eabi/bin/../lib/gcc/arm-none-eabi/4.5.2/../../../../arm-none-eabi/include/c++/4.5.2/arm-none-eabi/thumb/bits/gthr-single.h **** 
  18:/opt/toolchains/arm-none-eabi/bin/../lib/gcc/arm-none-eabi/4.5.2/../../../../arm-none-eabi/include/c++/4.5.2/arm-none-eabi/thumb/bits/gthr-single.h **** Under Section 7 of GPL version 3, you are granted additional
  19:/opt/toolchains/arm-none-eabi/bin/../lib/gcc/arm-none-eabi/4.5.2/../../../../arm-none-eabi/include/c++/4.5.2/arm-none-eabi/thumb/bits/gthr-single.h **** permissions described in the GCC Runtime Library Exception, version
  20:/opt/toolchains/arm-none-eabi/bin/../lib/gcc/arm-none-eabi/4.5.2/../../../../arm-none-eabi/include/c++/4.5.2/arm-none-eabi/thumb/bits/gthr-single.h **** 3.1, as published by the Free Software Foundation.
  21:/opt/toolchains/arm-none-eabi/bin/../lib/gcc/arm-none-eabi/4.5.2/../../../../arm-none-eabi/include/c++/4.5.2/arm-none-eabi/thumb/bits/gthr-single.h **** 
  22:/opt/toolchains/arm-none-eabi/bin/../lib/gcc/arm-none-eabi/4.5.2/../../../../arm-none-eabi/include/c++/4.5.2/arm-none-eabi/thumb/bits/gthr-single.h **** You should have received a copy of the GNU General Public License and
  23:/opt/toolchains/arm-none-eabi/bin/../lib/gcc/arm-none-eabi/4.5.2/../../../../arm-none-eabi/include/c++/4.5.2/arm-none-eabi/thumb/bits/gthr-single.h **** a copy of the GCC Runtime Library Exception along with this program;
  24:/opt/toolchains/arm-none-eabi/bin/../lib/gcc/arm-none-eabi/4.5.2/../../../../arm-none-eabi/include/c++/4.5.2/arm-none-eabi/thumb/bits/gthr-single.h **** see the files COPYING3 and COPYING.RUNTIME respectively.  If not, see
  25:/opt/toolchains/arm-none-eabi/bin/../lib/gcc/arm-none-eabi/4.5.2/../../../../arm-none-eabi/include/c++/4.5.2/arm-none-eabi/thumb/bits/gthr-single.h **** <http://www.gnu.org/licenses/>.  */
  26:/opt/toolchains/arm-none-eabi/bin/../lib/gcc/arm-none-eabi/4.5.2/../../../../arm-none-eabi/include/c++/4.5.2/arm-none-eabi/thumb/bits/gthr-single.h **** 
  27:/opt/toolchains/arm-none-eabi/bin/../lib/gcc/arm-none-eabi/4.5.2/../../../../arm-none-eabi/include/c++/4.5.2/arm-none-eabi/thumb/bits/gthr-single.h **** #ifndef _GLIBCXX_GCC_GTHR_SINGLE_H
  28:/opt/toolchains/arm-none-eabi/bin/../lib/gcc/arm-none-eabi/4.5.2/../../../../arm-none-eabi/include/c++/4.5.2/arm-none-eabi/thumb/bits/gthr-single.h **** #define _GLIBCXX_GCC_GTHR_SINGLE_H
  29:/opt/toolchains/arm-none-eabi/bin/../lib/gcc/arm-none-eabi/4.5.2/../../../../arm-none-eabi/include/c++/4.5.2/arm-none-eabi/thumb/bits/gthr-single.h **** 
  30:/opt/toolchains/arm-none-eabi/bin/../lib/gcc/arm-none-eabi/4.5.2/../../../../arm-none-eabi/include/c++/4.5.2/arm-none-eabi/thumb/bits/gthr-single.h **** /* Just provide compatibility for mutex handling.  */
  31:/opt/toolchains/arm-none-eabi/bin/../lib/gcc/arm-none-eabi/4.5.2/../../../../arm-none-eabi/include/c++/4.5.2/arm-none-eabi/thumb/bits/gthr-single.h **** 
  32:/opt/toolchains/arm-none-eabi/bin/../lib/gcc/arm-none-eabi/4.5.2/../../../../arm-none-eabi/include/c++/4.5.2/arm-none-eabi/thumb/bits/gthr-single.h **** typedef int __gthread_key_t;
  33:/opt/toolchains/arm-none-eabi/bin/../lib/gcc/arm-none-eabi/4.5.2/../../../../arm-none-eabi/include/c++/4.5.2/arm-none-eabi/thumb/bits/gthr-single.h **** typedef int __gthread_once_t;
  34:/opt/toolchains/arm-none-eabi/bin/../lib/gcc/arm-none-eabi/4.5.2/../../../../arm-none-eabi/include/c++/4.5.2/arm-none-eabi/thumb/bits/gthr-single.h **** typedef int __gthread_mutex_t;
  35:/opt/toolchains/arm-none-eabi/bin/../lib/gcc/arm-none-eabi/4.5.2/../../../../arm-none-eabi/include/c++/4.5.2/arm-none-eabi/thumb/bits/gthr-single.h **** typedef int __gthread_recursive_mutex_t;
  36:/opt/toolchains/arm-none-eabi/bin/../lib/gcc/arm-none-eabi/4.5.2/../../../../arm-none-eabi/include/c++/4.5.2/arm-none-eabi/thumb/bits/gthr-single.h **** 
  37:/opt/toolchains/arm-none-eabi/bin/../lib/gcc/arm-none-eabi/4.5.2/../../../../arm-none-eabi/include/c++/4.5.2/arm-none-eabi/thumb/bits/gthr-single.h **** #define __GTHREAD_ONCE_INIT 0
  38:/opt/toolchains/arm-none-eabi/bin/../lib/gcc/arm-none-eabi/4.5.2/../../../../arm-none-eabi/include/c++/4.5.2/arm-none-eabi/thumb/bits/gthr-single.h **** #define __GTHREAD_MUTEX_INIT 0
  39:/opt/toolchains/arm-none-eabi/bin/../lib/gcc/arm-none-eabi/4.5.2/../../../../arm-none-eabi/include/c++/4.5.2/arm-none-eabi/thumb/bits/gthr-single.h **** #define __GTHREAD_RECURSIVE_MUTEX_INIT 0
  40:/opt/toolchains/arm-none-eabi/bin/../lib/gcc/arm-none-eabi/4.5.2/../../../../arm-none-eabi/include/c++/4.5.2/arm-none-eabi/thumb/bits/gthr-single.h **** 
  41:/opt/toolchains/arm-none-eabi/bin/../lib/gcc/arm-none-eabi/4.5.2/../../../../arm-none-eabi/include/c++/4.5.2/arm-none-eabi/thumb/bits/gthr-single.h **** #define _GLIBCXX_UNUSED __attribute__((unused))
  42:/opt/toolchains/arm-none-eabi/bin/../lib/gcc/arm-none-eabi/4.5.2/../../../../arm-none-eabi/include/c++/4.5.2/arm-none-eabi/thumb/bits/gthr-single.h **** 
  43:/opt/toolchains/arm-none-eabi/bin/../lib/gcc/arm-none-eabi/4.5.2/../../../../arm-none-eabi/include/c++/4.5.2/arm-none-eabi/thumb/bits/gthr-single.h **** #ifdef _LIBOBJC
  44:/opt/toolchains/arm-none-eabi/bin/../lib/gcc/arm-none-eabi/4.5.2/../../../../arm-none-eabi/include/c++/4.5.2/arm-none-eabi/thumb/bits/gthr-single.h **** 
  45:/opt/toolchains/arm-none-eabi/bin/../lib/gcc/arm-none-eabi/4.5.2/../../../../arm-none-eabi/include/c++/4.5.2/arm-none-eabi/thumb/bits/gthr-single.h **** /* Thread local storage for a single thread */
  46:/opt/toolchains/arm-none-eabi/bin/../lib/gcc/arm-none-eabi/4.5.2/../../../../arm-none-eabi/include/c++/4.5.2/arm-none-eabi/thumb/bits/gthr-single.h **** static void *thread_local_storage = NULL;
  47:/opt/toolchains/arm-none-eabi/bin/../lib/gcc/arm-none-eabi/4.5.2/../../../../arm-none-eabi/include/c++/4.5.2/arm-none-eabi/thumb/bits/gthr-single.h **** 
  48:/opt/toolchains/arm-none-eabi/bin/../lib/gcc/arm-none-eabi/4.5.2/../../../../arm-none-eabi/include/c++/4.5.2/arm-none-eabi/thumb/bits/gthr-single.h **** /* Backend initialization functions */
  49:/opt/toolchains/arm-none-eabi/bin/../lib/gcc/arm-none-eabi/4.5.2/../../../../arm-none-eabi/include/c++/4.5.2/arm-none-eabi/thumb/bits/gthr-single.h **** 
  50:/opt/toolchains/arm-none-eabi/bin/../lib/gcc/arm-none-eabi/4.5.2/../../../../arm-none-eabi/include/c++/4.5.2/arm-none-eabi/thumb/bits/gthr-single.h **** /* Initialize the threads subsystem.  */
  51:/opt/toolchains/arm-none-eabi/bin/../lib/gcc/arm-none-eabi/4.5.2/../../../../arm-none-eabi/include/c++/4.5.2/arm-none-eabi/thumb/bits/gthr-single.h **** static inline int
  52:/opt/toolchains/arm-none-eabi/bin/../lib/gcc/arm-none-eabi/4.5.2/../../../../arm-none-eabi/include/c++/4.5.2/arm-none-eabi/thumb/bits/gthr-single.h **** __gthread_objc_init_thread_system (void)
  53:/opt/toolchains/arm-none-eabi/bin/../lib/gcc/arm-none-eabi/4.5.2/../../../../arm-none-eabi/include/c++/4.5.2/arm-none-eabi/thumb/bits/gthr-single.h **** {
  54:/opt/toolchains/arm-none-eabi/bin/../lib/gcc/arm-none-eabi/4.5.2/../../../../arm-none-eabi/include/c++/4.5.2/arm-none-eabi/thumb/bits/gthr-single.h ****   /* No thread support available */
  55:/opt/toolchains/arm-none-eabi/bin/../lib/gcc/arm-none-eabi/4.5.2/../../../../arm-none-eabi/include/c++/4.5.2/arm-none-eabi/thumb/bits/gthr-single.h ****   return -1;
  56:/opt/toolchains/arm-none-eabi/bin/../lib/gcc/arm-none-eabi/4.5.2/../../../../arm-none-eabi/include/c++/4.5.2/arm-none-eabi/thumb/bits/gthr-single.h **** }
  57:/opt/toolchains/arm-none-eabi/bin/../lib/gcc/arm-none-eabi/4.5.2/../../../../arm-none-eabi/include/c++/4.5.2/arm-none-eabi/thumb/bits/gthr-single.h **** 
  58:/opt/toolchains/arm-none-eabi/bin/../lib/gcc/arm-none-eabi/4.5.2/../../../../arm-none-eabi/include/c++/4.5.2/arm-none-eabi/thumb/bits/gthr-single.h **** /* Close the threads subsystem.  */
  59:/opt/toolchains/arm-none-eabi/bin/../lib/gcc/arm-none-eabi/4.5.2/../../../../arm-none-eabi/include/c++/4.5.2/arm-none-eabi/thumb/bits/gthr-single.h **** static inline int
  60:/opt/toolchains/arm-none-eabi/bin/../lib/gcc/arm-none-eabi/4.5.2/../../../../arm-none-eabi/include/c++/4.5.2/arm-none-eabi/thumb/bits/gthr-single.h **** __gthread_objc_close_thread_system (void)
  61:/opt/toolchains/arm-none-eabi/bin/../lib/gcc/arm-none-eabi/4.5.2/../../../../arm-none-eabi/include/c++/4.5.2/arm-none-eabi/thumb/bits/gthr-single.h **** {
  62:/opt/toolchains/arm-none-eabi/bin/../lib/gcc/arm-none-eabi/4.5.2/../../../../arm-none-eabi/include/c++/4.5.2/arm-none-eabi/thumb/bits/gthr-single.h ****   /* No thread support available */
  63:/opt/toolchains/arm-none-eabi/bin/../lib/gcc/arm-none-eabi/4.5.2/../../../../arm-none-eabi/include/c++/4.5.2/arm-none-eabi/thumb/bits/gthr-single.h ****   return -1;
  64:/opt/toolchains/arm-none-eabi/bin/../lib/gcc/arm-none-eabi/4.5.2/../../../../arm-none-eabi/include/c++/4.5.2/arm-none-eabi/thumb/bits/gthr-single.h **** }
  65:/opt/toolchains/arm-none-eabi/bin/../lib/gcc/arm-none-eabi/4.5.2/../../../../arm-none-eabi/include/c++/4.5.2/arm-none-eabi/thumb/bits/gthr-single.h **** 
  66:/opt/toolchains/arm-none-eabi/bin/../lib/gcc/arm-none-eabi/4.5.2/../../../../arm-none-eabi/include/c++/4.5.2/arm-none-eabi/thumb/bits/gthr-single.h **** /* Backend thread functions */
  67:/opt/toolchains/arm-none-eabi/bin/../lib/gcc/arm-none-eabi/4.5.2/../../../../arm-none-eabi/include/c++/4.5.2/arm-none-eabi/thumb/bits/gthr-single.h **** 
  68:/opt/toolchains/arm-none-eabi/bin/../lib/gcc/arm-none-eabi/4.5.2/../../../../arm-none-eabi/include/c++/4.5.2/arm-none-eabi/thumb/bits/gthr-single.h **** /* Create a new thread of execution.  */
  69:/opt/toolchains/arm-none-eabi/bin/../lib/gcc/arm-none-eabi/4.5.2/../../../../arm-none-eabi/include/c++/4.5.2/arm-none-eabi/thumb/bits/gthr-single.h **** static inline objc_thread_t
  70:/opt/toolchains/arm-none-eabi/bin/../lib/gcc/arm-none-eabi/4.5.2/../../../../arm-none-eabi/include/c++/4.5.2/arm-none-eabi/thumb/bits/gthr-single.h **** __gthread_objc_thread_detach (void (* func)(void *), void * arg _GLIBCXX_UNUSED)
  71:/opt/toolchains/arm-none-eabi/bin/../lib/gcc/arm-none-eabi/4.5.2/../../../../arm-none-eabi/include/c++/4.5.2/arm-none-eabi/thumb/bits/gthr-single.h **** {
  72:/opt/toolchains/arm-none-eabi/bin/../lib/gcc/arm-none-eabi/4.5.2/../../../../arm-none-eabi/include/c++/4.5.2/arm-none-eabi/thumb/bits/gthr-single.h ****   /* No thread support available */
  73:/opt/toolchains/arm-none-eabi/bin/../lib/gcc/arm-none-eabi/4.5.2/../../../../arm-none-eabi/include/c++/4.5.2/arm-none-eabi/thumb/bits/gthr-single.h ****   return NULL;
  74:/opt/toolchains/arm-none-eabi/bin/../lib/gcc/arm-none-eabi/4.5.2/../../../../arm-none-eabi/include/c++/4.5.2/arm-none-eabi/thumb/bits/gthr-single.h **** }
  75:/opt/toolchains/arm-none-eabi/bin/../lib/gcc/arm-none-eabi/4.5.2/../../../../arm-none-eabi/include/c++/4.5.2/arm-none-eabi/thumb/bits/gthr-single.h **** 
  76:/opt/toolchains/arm-none-eabi/bin/../lib/gcc/arm-none-eabi/4.5.2/../../../../arm-none-eabi/include/c++/4.5.2/arm-none-eabi/thumb/bits/gthr-single.h **** /* Set the current thread's priority.  */
  77:/opt/toolchains/arm-none-eabi/bin/../lib/gcc/arm-none-eabi/4.5.2/../../../../arm-none-eabi/include/c++/4.5.2/arm-none-eabi/thumb/bits/gthr-single.h **** static inline int
  78:/opt/toolchains/arm-none-eabi/bin/../lib/gcc/arm-none-eabi/4.5.2/../../../../arm-none-eabi/include/c++/4.5.2/arm-none-eabi/thumb/bits/gthr-single.h **** __gthread_objc_thread_set_priority (int priority _GLIBCXX_UNUSED)
  79:/opt/toolchains/arm-none-eabi/bin/../lib/gcc/arm-none-eabi/4.5.2/../../../../arm-none-eabi/include/c++/4.5.2/arm-none-eabi/thumb/bits/gthr-single.h **** {
  80:/opt/toolchains/arm-none-eabi/bin/../lib/gcc/arm-none-eabi/4.5.2/../../../../arm-none-eabi/include/c++/4.5.2/arm-none-eabi/thumb/bits/gthr-single.h ****   /* No thread support available */
  81:/opt/toolchains/arm-none-eabi/bin/../lib/gcc/arm-none-eabi/4.5.2/../../../../arm-none-eabi/include/c++/4.5.2/arm-none-eabi/thumb/bits/gthr-single.h ****   return -1;
  82:/opt/toolchains/arm-none-eabi/bin/../lib/gcc/arm-none-eabi/4.5.2/../../../../arm-none-eabi/include/c++/4.5.2/arm-none-eabi/thumb/bits/gthr-single.h **** }
  83:/opt/toolchains/arm-none-eabi/bin/../lib/gcc/arm-none-eabi/4.5.2/../../../../arm-none-eabi/include/c++/4.5.2/arm-none-eabi/thumb/bits/gthr-single.h **** 
  84:/opt/toolchains/arm-none-eabi/bin/../lib/gcc/arm-none-eabi/4.5.2/../../../../arm-none-eabi/include/c++/4.5.2/arm-none-eabi/thumb/bits/gthr-single.h **** /* Return the current thread's priority.  */
  85:/opt/toolchains/arm-none-eabi/bin/../lib/gcc/arm-none-eabi/4.5.2/../../../../arm-none-eabi/include/c++/4.5.2/arm-none-eabi/thumb/bits/gthr-single.h **** static inline int
  86:/opt/toolchains/arm-none-eabi/bin/../lib/gcc/arm-none-eabi/4.5.2/../../../../arm-none-eabi/include/c++/4.5.2/arm-none-eabi/thumb/bits/gthr-single.h **** __gthread_objc_thread_get_priority (void)
  87:/opt/toolchains/arm-none-eabi/bin/../lib/gcc/arm-none-eabi/4.5.2/../../../../arm-none-eabi/include/c++/4.5.2/arm-none-eabi/thumb/bits/gthr-single.h **** {
  88:/opt/toolchains/arm-none-eabi/bin/../lib/gcc/arm-none-eabi/4.5.2/../../../../arm-none-eabi/include/c++/4.5.2/arm-none-eabi/thumb/bits/gthr-single.h ****   return OBJC_THREAD_INTERACTIVE_PRIORITY;
  89:/opt/toolchains/arm-none-eabi/bin/../lib/gcc/arm-none-eabi/4.5.2/../../../../arm-none-eabi/include/c++/4.5.2/arm-none-eabi/thumb/bits/gthr-single.h **** }
  90:/opt/toolchains/arm-none-eabi/bin/../lib/gcc/arm-none-eabi/4.5.2/../../../../arm-none-eabi/include/c++/4.5.2/arm-none-eabi/thumb/bits/gthr-single.h **** 
  91:/opt/toolchains/arm-none-eabi/bin/../lib/gcc/arm-none-eabi/4.5.2/../../../../arm-none-eabi/include/c++/4.5.2/arm-none-eabi/thumb/bits/gthr-single.h **** /* Yield our process time to another thread.  */
  92:/opt/toolchains/arm-none-eabi/bin/../lib/gcc/arm-none-eabi/4.5.2/../../../../arm-none-eabi/include/c++/4.5.2/arm-none-eabi/thumb/bits/gthr-single.h **** static inline void
  93:/opt/toolchains/arm-none-eabi/bin/../lib/gcc/arm-none-eabi/4.5.2/../../../../arm-none-eabi/include/c++/4.5.2/arm-none-eabi/thumb/bits/gthr-single.h **** __gthread_objc_thread_yield (void)
  94:/opt/toolchains/arm-none-eabi/bin/../lib/gcc/arm-none-eabi/4.5.2/../../../../arm-none-eabi/include/c++/4.5.2/arm-none-eabi/thumb/bits/gthr-single.h **** {
  95:/opt/toolchains/arm-none-eabi/bin/../lib/gcc/arm-none-eabi/4.5.2/../../../../arm-none-eabi/include/c++/4.5.2/arm-none-eabi/thumb/bits/gthr-single.h ****   return;
  96:/opt/toolchains/arm-none-eabi/bin/../lib/gcc/arm-none-eabi/4.5.2/../../../../arm-none-eabi/include/c++/4.5.2/arm-none-eabi/thumb/bits/gthr-single.h **** }
  97:/opt/toolchains/arm-none-eabi/bin/../lib/gcc/arm-none-eabi/4.5.2/../../../../arm-none-eabi/include/c++/4.5.2/arm-none-eabi/thumb/bits/gthr-single.h **** 
  98:/opt/toolchains/arm-none-eabi/bin/../lib/gcc/arm-none-eabi/4.5.2/../../../../arm-none-eabi/include/c++/4.5.2/arm-none-eabi/thumb/bits/gthr-single.h **** /* Terminate the current thread.  */
  99:/opt/toolchains/arm-none-eabi/bin/../lib/gcc/arm-none-eabi/4.5.2/../../../../arm-none-eabi/include/c++/4.5.2/arm-none-eabi/thumb/bits/gthr-single.h **** static inline int
 100:/opt/toolchains/arm-none-eabi/bin/../lib/gcc/arm-none-eabi/4.5.2/../../../../arm-none-eabi/include/c++/4.5.2/arm-none-eabi/thumb/bits/gthr-single.h **** __gthread_objc_thread_exit (void)
 101:/opt/toolchains/arm-none-eabi/bin/../lib/gcc/arm-none-eabi/4.5.2/../../../../arm-none-eabi/include/c++/4.5.2/arm-none-eabi/thumb/bits/gthr-single.h **** {
 102:/opt/toolchains/arm-none-eabi/bin/../lib/gcc/arm-none-eabi/4.5.2/../../../../arm-none-eabi/include/c++/4.5.2/arm-none-eabi/thumb/bits/gthr-single.h ****   /* No thread support available */
 103:/opt/toolchains/arm-none-eabi/bin/../lib/gcc/arm-none-eabi/4.5.2/../../../../arm-none-eabi/include/c++/4.5.2/arm-none-eabi/thumb/bits/gthr-single.h ****   /* Should we really exit the program */
 104:/opt/toolchains/arm-none-eabi/bin/../lib/gcc/arm-none-eabi/4.5.2/../../../../arm-none-eabi/include/c++/4.5.2/arm-none-eabi/thumb/bits/gthr-single.h ****   /* exit (&__objc_thread_exit_status); */
 105:/opt/toolchains/arm-none-eabi/bin/../lib/gcc/arm-none-eabi/4.5.2/../../../../arm-none-eabi/include/c++/4.5.2/arm-none-eabi/thumb/bits/gthr-single.h ****   return -1;
 106:/opt/toolchains/arm-none-eabi/bin/../lib/gcc/arm-none-eabi/4.5.2/../../../../arm-none-eabi/include/c++/4.5.2/arm-none-eabi/thumb/bits/gthr-single.h **** }
 107:/opt/toolchains/arm-none-eabi/bin/../lib/gcc/arm-none-eabi/4.5.2/../../../../arm-none-eabi/include/c++/4.5.2/arm-none-eabi/thumb/bits/gthr-single.h **** 
 108:/opt/toolchains/arm-none-eabi/bin/../lib/gcc/arm-none-eabi/4.5.2/../../../../arm-none-eabi/include/c++/4.5.2/arm-none-eabi/thumb/bits/gthr-single.h **** /* Returns an integer value which uniquely describes a thread.  */
 109:/opt/toolchains/arm-none-eabi/bin/../lib/gcc/arm-none-eabi/4.5.2/../../../../arm-none-eabi/include/c++/4.5.2/arm-none-eabi/thumb/bits/gthr-single.h **** static inline objc_thread_t
 110:/opt/toolchains/arm-none-eabi/bin/../lib/gcc/arm-none-eabi/4.5.2/../../../../arm-none-eabi/include/c++/4.5.2/arm-none-eabi/thumb/bits/gthr-single.h **** __gthread_objc_thread_id (void)
 111:/opt/toolchains/arm-none-eabi/bin/../lib/gcc/arm-none-eabi/4.5.2/../../../../arm-none-eabi/include/c++/4.5.2/arm-none-eabi/thumb/bits/gthr-single.h **** {
 112:/opt/toolchains/arm-none-eabi/bin/../lib/gcc/arm-none-eabi/4.5.2/../../../../arm-none-eabi/include/c++/4.5.2/arm-none-eabi/thumb/bits/gthr-single.h ****   /* No thread support, use 1.  */
 113:/opt/toolchains/arm-none-eabi/bin/../lib/gcc/arm-none-eabi/4.5.2/../../../../arm-none-eabi/include/c++/4.5.2/arm-none-eabi/thumb/bits/gthr-single.h ****   return (objc_thread_t) 1;
 114:/opt/toolchains/arm-none-eabi/bin/../lib/gcc/arm-none-eabi/4.5.2/../../../../arm-none-eabi/include/c++/4.5.2/arm-none-eabi/thumb/bits/gthr-single.h **** }
 115:/opt/toolchains/arm-none-eabi/bin/../lib/gcc/arm-none-eabi/4.5.2/../../../../arm-none-eabi/include/c++/4.5.2/arm-none-eabi/thumb/bits/gthr-single.h **** 
 116:/opt/toolchains/arm-none-eabi/bin/../lib/gcc/arm-none-eabi/4.5.2/../../../../arm-none-eabi/include/c++/4.5.2/arm-none-eabi/thumb/bits/gthr-single.h **** /* Sets the thread's local storage pointer.  */
 117:/opt/toolchains/arm-none-eabi/bin/../lib/gcc/arm-none-eabi/4.5.2/../../../../arm-none-eabi/include/c++/4.5.2/arm-none-eabi/thumb/bits/gthr-single.h **** static inline int
 118:/opt/toolchains/arm-none-eabi/bin/../lib/gcc/arm-none-eabi/4.5.2/../../../../arm-none-eabi/include/c++/4.5.2/arm-none-eabi/thumb/bits/gthr-single.h **** __gthread_objc_thread_set_data (void *value)
 119:/opt/toolchains/arm-none-eabi/bin/../lib/gcc/arm-none-eabi/4.5.2/../../../../arm-none-eabi/include/c++/4.5.2/arm-none-eabi/thumb/bits/gthr-single.h **** {
 120:/opt/toolchains/arm-none-eabi/bin/../lib/gcc/arm-none-eabi/4.5.2/../../../../arm-none-eabi/include/c++/4.5.2/arm-none-eabi/thumb/bits/gthr-single.h ****   thread_local_storage = value;
 121:/opt/toolchains/arm-none-eabi/bin/../lib/gcc/arm-none-eabi/4.5.2/../../../../arm-none-eabi/include/c++/4.5.2/arm-none-eabi/thumb/bits/gthr-single.h ****   return 0;
 122:/opt/toolchains/arm-none-eabi/bin/../lib/gcc/arm-none-eabi/4.5.2/../../../../arm-none-eabi/include/c++/4.5.2/arm-none-eabi/thumb/bits/gthr-single.h **** }
 123:/opt/toolchains/arm-none-eabi/bin/../lib/gcc/arm-none-eabi/4.5.2/../../../../arm-none-eabi/include/c++/4.5.2/arm-none-eabi/thumb/bits/gthr-single.h **** 
 124:/opt/toolchains/arm-none-eabi/bin/../lib/gcc/arm-none-eabi/4.5.2/../../../../arm-none-eabi/include/c++/4.5.2/arm-none-eabi/thumb/bits/gthr-single.h **** /* Returns the thread's local storage pointer.  */
 125:/opt/toolchains/arm-none-eabi/bin/../lib/gcc/arm-none-eabi/4.5.2/../../../../arm-none-eabi/include/c++/4.5.2/arm-none-eabi/thumb/bits/gthr-single.h **** static inline void *
 126:/opt/toolchains/arm-none-eabi/bin/../lib/gcc/arm-none-eabi/4.5.2/../../../../arm-none-eabi/include/c++/4.5.2/arm-none-eabi/thumb/bits/gthr-single.h **** __gthread_objc_thread_get_data (void)
 127:/opt/toolchains/arm-none-eabi/bin/../lib/gcc/arm-none-eabi/4.5.2/../../../../arm-none-eabi/include/c++/4.5.2/arm-none-eabi/thumb/bits/gthr-single.h **** {
 128:/opt/toolchains/arm-none-eabi/bin/../lib/gcc/arm-none-eabi/4.5.2/../../../../arm-none-eabi/include/c++/4.5.2/arm-none-eabi/thumb/bits/gthr-single.h ****   return thread_local_storage;
 129:/opt/toolchains/arm-none-eabi/bin/../lib/gcc/arm-none-eabi/4.5.2/../../../../arm-none-eabi/include/c++/4.5.2/arm-none-eabi/thumb/bits/gthr-single.h **** }
 130:/opt/toolchains/arm-none-eabi/bin/../lib/gcc/arm-none-eabi/4.5.2/../../../../arm-none-eabi/include/c++/4.5.2/arm-none-eabi/thumb/bits/gthr-single.h **** 
 131:/opt/toolchains/arm-none-eabi/bin/../lib/gcc/arm-none-eabi/4.5.2/../../../../arm-none-eabi/include/c++/4.5.2/arm-none-eabi/thumb/bits/gthr-single.h **** /* Backend mutex functions */
 132:/opt/toolchains/arm-none-eabi/bin/../lib/gcc/arm-none-eabi/4.5.2/../../../../arm-none-eabi/include/c++/4.5.2/arm-none-eabi/thumb/bits/gthr-single.h **** 
 133:/opt/toolchains/arm-none-eabi/bin/../lib/gcc/arm-none-eabi/4.5.2/../../../../arm-none-eabi/include/c++/4.5.2/arm-none-eabi/thumb/bits/gthr-single.h **** /* Allocate a mutex.  */
 134:/opt/toolchains/arm-none-eabi/bin/../lib/gcc/arm-none-eabi/4.5.2/../../../../arm-none-eabi/include/c++/4.5.2/arm-none-eabi/thumb/bits/gthr-single.h **** static inline int
 135:/opt/toolchains/arm-none-eabi/bin/../lib/gcc/arm-none-eabi/4.5.2/../../../../arm-none-eabi/include/c++/4.5.2/arm-none-eabi/thumb/bits/gthr-single.h **** __gthread_objc_mutex_allocate (objc_mutex_t mutex _GLIBCXX_UNUSED)
 136:/opt/toolchains/arm-none-eabi/bin/../lib/gcc/arm-none-eabi/4.5.2/../../../../arm-none-eabi/include/c++/4.5.2/arm-none-eabi/thumb/bits/gthr-single.h **** {
 137:/opt/toolchains/arm-none-eabi/bin/../lib/gcc/arm-none-eabi/4.5.2/../../../../arm-none-eabi/include/c++/4.5.2/arm-none-eabi/thumb/bits/gthr-single.h ****   return 0;
 138:/opt/toolchains/arm-none-eabi/bin/../lib/gcc/arm-none-eabi/4.5.2/../../../../arm-none-eabi/include/c++/4.5.2/arm-none-eabi/thumb/bits/gthr-single.h **** }
 139:/opt/toolchains/arm-none-eabi/bin/../lib/gcc/arm-none-eabi/4.5.2/../../../../arm-none-eabi/include/c++/4.5.2/arm-none-eabi/thumb/bits/gthr-single.h **** 
 140:/opt/toolchains/arm-none-eabi/bin/../lib/gcc/arm-none-eabi/4.5.2/../../../../arm-none-eabi/include/c++/4.5.2/arm-none-eabi/thumb/bits/gthr-single.h **** /* Deallocate a mutex.  */
 141:/opt/toolchains/arm-none-eabi/bin/../lib/gcc/arm-none-eabi/4.5.2/../../../../arm-none-eabi/include/c++/4.5.2/arm-none-eabi/thumb/bits/gthr-single.h **** static inline int
 142:/opt/toolchains/arm-none-eabi/bin/../lib/gcc/arm-none-eabi/4.5.2/../../../../arm-none-eabi/include/c++/4.5.2/arm-none-eabi/thumb/bits/gthr-single.h **** __gthread_objc_mutex_deallocate (objc_mutex_t mutex _GLIBCXX_UNUSED)
 143:/opt/toolchains/arm-none-eabi/bin/../lib/gcc/arm-none-eabi/4.5.2/../../../../arm-none-eabi/include/c++/4.5.2/arm-none-eabi/thumb/bits/gthr-single.h **** {
 144:/opt/toolchains/arm-none-eabi/bin/../lib/gcc/arm-none-eabi/4.5.2/../../../../arm-none-eabi/include/c++/4.5.2/arm-none-eabi/thumb/bits/gthr-single.h ****   return 0;
 145:/opt/toolchains/arm-none-eabi/bin/../lib/gcc/arm-none-eabi/4.5.2/../../../../arm-none-eabi/include/c++/4.5.2/arm-none-eabi/thumb/bits/gthr-single.h **** }
 146:/opt/toolchains/arm-none-eabi/bin/../lib/gcc/arm-none-eabi/4.5.2/../../../../arm-none-eabi/include/c++/4.5.2/arm-none-eabi/thumb/bits/gthr-single.h **** 
 147:/opt/toolchains/arm-none-eabi/bin/../lib/gcc/arm-none-eabi/4.5.2/../../../../arm-none-eabi/include/c++/4.5.2/arm-none-eabi/thumb/bits/gthr-single.h **** /* Grab a lock on a mutex.  */
 148:/opt/toolchains/arm-none-eabi/bin/../lib/gcc/arm-none-eabi/4.5.2/../../../../arm-none-eabi/include/c++/4.5.2/arm-none-eabi/thumb/bits/gthr-single.h **** static inline int
 149:/opt/toolchains/arm-none-eabi/bin/../lib/gcc/arm-none-eabi/4.5.2/../../../../arm-none-eabi/include/c++/4.5.2/arm-none-eabi/thumb/bits/gthr-single.h **** __gthread_objc_mutex_lock (objc_mutex_t mutex _GLIBCXX_UNUSED)
 150:/opt/toolchains/arm-none-eabi/bin/../lib/gcc/arm-none-eabi/4.5.2/../../../../arm-none-eabi/include/c++/4.5.2/arm-none-eabi/thumb/bits/gthr-single.h **** {
 151:/opt/toolchains/arm-none-eabi/bin/../lib/gcc/arm-none-eabi/4.5.2/../../../../arm-none-eabi/include/c++/4.5.2/arm-none-eabi/thumb/bits/gthr-single.h ****   /* There can only be one thread, so we always get the lock */
 152:/opt/toolchains/arm-none-eabi/bin/../lib/gcc/arm-none-eabi/4.5.2/../../../../arm-none-eabi/include/c++/4.5.2/arm-none-eabi/thumb/bits/gthr-single.h ****   return 0;
 153:/opt/toolchains/arm-none-eabi/bin/../lib/gcc/arm-none-eabi/4.5.2/../../../../arm-none-eabi/include/c++/4.5.2/arm-none-eabi/thumb/bits/gthr-single.h **** }
 154:/opt/toolchains/arm-none-eabi/bin/../lib/gcc/arm-none-eabi/4.5.2/../../../../arm-none-eabi/include/c++/4.5.2/arm-none-eabi/thumb/bits/gthr-single.h **** 
 155:/opt/toolchains/arm-none-eabi/bin/../lib/gcc/arm-none-eabi/4.5.2/../../../../arm-none-eabi/include/c++/4.5.2/arm-none-eabi/thumb/bits/gthr-single.h **** /* Try to grab a lock on a mutex.  */
 156:/opt/toolchains/arm-none-eabi/bin/../lib/gcc/arm-none-eabi/4.5.2/../../../../arm-none-eabi/include/c++/4.5.2/arm-none-eabi/thumb/bits/gthr-single.h **** static inline int
 157:/opt/toolchains/arm-none-eabi/bin/../lib/gcc/arm-none-eabi/4.5.2/../../../../arm-none-eabi/include/c++/4.5.2/arm-none-eabi/thumb/bits/gthr-single.h **** __gthread_objc_mutex_trylock (objc_mutex_t mutex _GLIBCXX_UNUSED)
 158:/opt/toolchains/arm-none-eabi/bin/../lib/gcc/arm-none-eabi/4.5.2/../../../../arm-none-eabi/include/c++/4.5.2/arm-none-eabi/thumb/bits/gthr-single.h **** {
 159:/opt/toolchains/arm-none-eabi/bin/../lib/gcc/arm-none-eabi/4.5.2/../../../../arm-none-eabi/include/c++/4.5.2/arm-none-eabi/thumb/bits/gthr-single.h ****   /* There can only be one thread, so we always get the lock */
 160:/opt/toolchains/arm-none-eabi/bin/../lib/gcc/arm-none-eabi/4.5.2/../../../../arm-none-eabi/include/c++/4.5.2/arm-none-eabi/thumb/bits/gthr-single.h ****   return 0;
 161:/opt/toolchains/arm-none-eabi/bin/../lib/gcc/arm-none-eabi/4.5.2/../../../../arm-none-eabi/include/c++/4.5.2/arm-none-eabi/thumb/bits/gthr-single.h **** }
 162:/opt/toolchains/arm-none-eabi/bin/../lib/gcc/arm-none-eabi/4.5.2/../../../../arm-none-eabi/include/c++/4.5.2/arm-none-eabi/thumb/bits/gthr-single.h **** 
 163:/opt/toolchains/arm-none-eabi/bin/../lib/gcc/arm-none-eabi/4.5.2/../../../../arm-none-eabi/include/c++/4.5.2/arm-none-eabi/thumb/bits/gthr-single.h **** /* Unlock the mutex */
 164:/opt/toolchains/arm-none-eabi/bin/../lib/gcc/arm-none-eabi/4.5.2/../../../../arm-none-eabi/include/c++/4.5.2/arm-none-eabi/thumb/bits/gthr-single.h **** static inline int
 165:/opt/toolchains/arm-none-eabi/bin/../lib/gcc/arm-none-eabi/4.5.2/../../../../arm-none-eabi/include/c++/4.5.2/arm-none-eabi/thumb/bits/gthr-single.h **** __gthread_objc_mutex_unlock (objc_mutex_t mutex _GLIBCXX_UNUSED)
 166:/opt/toolchains/arm-none-eabi/bin/../lib/gcc/arm-none-eabi/4.5.2/../../../../arm-none-eabi/include/c++/4.5.2/arm-none-eabi/thumb/bits/gthr-single.h **** {
 167:/opt/toolchains/arm-none-eabi/bin/../lib/gcc/arm-none-eabi/4.5.2/../../../../arm-none-eabi/include/c++/4.5.2/arm-none-eabi/thumb/bits/gthr-single.h ****   return 0;
 168:/opt/toolchains/arm-none-eabi/bin/../lib/gcc/arm-none-eabi/4.5.2/../../../../arm-none-eabi/include/c++/4.5.2/arm-none-eabi/thumb/bits/gthr-single.h **** }
 169:/opt/toolchains/arm-none-eabi/bin/../lib/gcc/arm-none-eabi/4.5.2/../../../../arm-none-eabi/include/c++/4.5.2/arm-none-eabi/thumb/bits/gthr-single.h **** 
 170:/opt/toolchains/arm-none-eabi/bin/../lib/gcc/arm-none-eabi/4.5.2/../../../../arm-none-eabi/include/c++/4.5.2/arm-none-eabi/thumb/bits/gthr-single.h **** /* Backend condition mutex functions */
 171:/opt/toolchains/arm-none-eabi/bin/../lib/gcc/arm-none-eabi/4.5.2/../../../../arm-none-eabi/include/c++/4.5.2/arm-none-eabi/thumb/bits/gthr-single.h **** 
 172:/opt/toolchains/arm-none-eabi/bin/../lib/gcc/arm-none-eabi/4.5.2/../../../../arm-none-eabi/include/c++/4.5.2/arm-none-eabi/thumb/bits/gthr-single.h **** /* Allocate a condition.  */
 173:/opt/toolchains/arm-none-eabi/bin/../lib/gcc/arm-none-eabi/4.5.2/../../../../arm-none-eabi/include/c++/4.5.2/arm-none-eabi/thumb/bits/gthr-single.h **** static inline int
 174:/opt/toolchains/arm-none-eabi/bin/../lib/gcc/arm-none-eabi/4.5.2/../../../../arm-none-eabi/include/c++/4.5.2/arm-none-eabi/thumb/bits/gthr-single.h **** __gthread_objc_condition_allocate (objc_condition_t condition _GLIBCXX_UNUSED)
 175:/opt/toolchains/arm-none-eabi/bin/../lib/gcc/arm-none-eabi/4.5.2/../../../../arm-none-eabi/include/c++/4.5.2/arm-none-eabi/thumb/bits/gthr-single.h **** {
 176:/opt/toolchains/arm-none-eabi/bin/../lib/gcc/arm-none-eabi/4.5.2/../../../../arm-none-eabi/include/c++/4.5.2/arm-none-eabi/thumb/bits/gthr-single.h ****   return 0;
 177:/opt/toolchains/arm-none-eabi/bin/../lib/gcc/arm-none-eabi/4.5.2/../../../../arm-none-eabi/include/c++/4.5.2/arm-none-eabi/thumb/bits/gthr-single.h **** }
 178:/opt/toolchains/arm-none-eabi/bin/../lib/gcc/arm-none-eabi/4.5.2/../../../../arm-none-eabi/include/c++/4.5.2/arm-none-eabi/thumb/bits/gthr-single.h **** 
 179:/opt/toolchains/arm-none-eabi/bin/../lib/gcc/arm-none-eabi/4.5.2/../../../../arm-none-eabi/include/c++/4.5.2/arm-none-eabi/thumb/bits/gthr-single.h **** /* Deallocate a condition.  */
 180:/opt/toolchains/arm-none-eabi/bin/../lib/gcc/arm-none-eabi/4.5.2/../../../../arm-none-eabi/include/c++/4.5.2/arm-none-eabi/thumb/bits/gthr-single.h **** static inline int
 181:/opt/toolchains/arm-none-eabi/bin/../lib/gcc/arm-none-eabi/4.5.2/../../../../arm-none-eabi/include/c++/4.5.2/arm-none-eabi/thumb/bits/gthr-single.h **** __gthread_objc_condition_deallocate (objc_condition_t condition _GLIBCXX_UNUSED)
 182:/opt/toolchains/arm-none-eabi/bin/../lib/gcc/arm-none-eabi/4.5.2/../../../../arm-none-eabi/include/c++/4.5.2/arm-none-eabi/thumb/bits/gthr-single.h **** {
 183:/opt/toolchains/arm-none-eabi/bin/../lib/gcc/arm-none-eabi/4.5.2/../../../../arm-none-eabi/include/c++/4.5.2/arm-none-eabi/thumb/bits/gthr-single.h ****   return 0;
 184:/opt/toolchains/arm-none-eabi/bin/../lib/gcc/arm-none-eabi/4.5.2/../../../../arm-none-eabi/include/c++/4.5.2/arm-none-eabi/thumb/bits/gthr-single.h **** }
 185:/opt/toolchains/arm-none-eabi/bin/../lib/gcc/arm-none-eabi/4.5.2/../../../../arm-none-eabi/include/c++/4.5.2/arm-none-eabi/thumb/bits/gthr-single.h **** 
 186:/opt/toolchains/arm-none-eabi/bin/../lib/gcc/arm-none-eabi/4.5.2/../../../../arm-none-eabi/include/c++/4.5.2/arm-none-eabi/thumb/bits/gthr-single.h **** /* Wait on the condition */
 187:/opt/toolchains/arm-none-eabi/bin/../lib/gcc/arm-none-eabi/4.5.2/../../../../arm-none-eabi/include/c++/4.5.2/arm-none-eabi/thumb/bits/gthr-single.h **** static inline int
 188:/opt/toolchains/arm-none-eabi/bin/../lib/gcc/arm-none-eabi/4.5.2/../../../../arm-none-eabi/include/c++/4.5.2/arm-none-eabi/thumb/bits/gthr-single.h **** __gthread_objc_condition_wait (objc_condition_t condition _GLIBCXX_UNUSED,
 189:/opt/toolchains/arm-none-eabi/bin/../lib/gcc/arm-none-eabi/4.5.2/../../../../arm-none-eabi/include/c++/4.5.2/arm-none-eabi/thumb/bits/gthr-single.h **** 			       objc_mutex_t mutex _GLIBCXX_UNUSED)
 190:/opt/toolchains/arm-none-eabi/bin/../lib/gcc/arm-none-eabi/4.5.2/../../../../arm-none-eabi/include/c++/4.5.2/arm-none-eabi/thumb/bits/gthr-single.h **** {
 191:/opt/toolchains/arm-none-eabi/bin/../lib/gcc/arm-none-eabi/4.5.2/../../../../arm-none-eabi/include/c++/4.5.2/arm-none-eabi/thumb/bits/gthr-single.h ****   return 0;
 192:/opt/toolchains/arm-none-eabi/bin/../lib/gcc/arm-none-eabi/4.5.2/../../../../arm-none-eabi/include/c++/4.5.2/arm-none-eabi/thumb/bits/gthr-single.h **** }
 193:/opt/toolchains/arm-none-eabi/bin/../lib/gcc/arm-none-eabi/4.5.2/../../../../arm-none-eabi/include/c++/4.5.2/arm-none-eabi/thumb/bits/gthr-single.h **** 
 194:/opt/toolchains/arm-none-eabi/bin/../lib/gcc/arm-none-eabi/4.5.2/../../../../arm-none-eabi/include/c++/4.5.2/arm-none-eabi/thumb/bits/gthr-single.h **** /* Wake up all threads waiting on this condition.  */
 195:/opt/toolchains/arm-none-eabi/bin/../lib/gcc/arm-none-eabi/4.5.2/../../../../arm-none-eabi/include/c++/4.5.2/arm-none-eabi/thumb/bits/gthr-single.h **** static inline int
 196:/opt/toolchains/arm-none-eabi/bin/../lib/gcc/arm-none-eabi/4.5.2/../../../../arm-none-eabi/include/c++/4.5.2/arm-none-eabi/thumb/bits/gthr-single.h **** __gthread_objc_condition_broadcast (objc_condition_t condition _GLIBCXX_UNUSED)
 197:/opt/toolchains/arm-none-eabi/bin/../lib/gcc/arm-none-eabi/4.5.2/../../../../arm-none-eabi/include/c++/4.5.2/arm-none-eabi/thumb/bits/gthr-single.h **** {
 198:/opt/toolchains/arm-none-eabi/bin/../lib/gcc/arm-none-eabi/4.5.2/../../../../arm-none-eabi/include/c++/4.5.2/arm-none-eabi/thumb/bits/gthr-single.h ****   return 0;
 199:/opt/toolchains/arm-none-eabi/bin/../lib/gcc/arm-none-eabi/4.5.2/../../../../arm-none-eabi/include/c++/4.5.2/arm-none-eabi/thumb/bits/gthr-single.h **** }
 200:/opt/toolchains/arm-none-eabi/bin/../lib/gcc/arm-none-eabi/4.5.2/../../../../arm-none-eabi/include/c++/4.5.2/arm-none-eabi/thumb/bits/gthr-single.h **** 
 201:/opt/toolchains/arm-none-eabi/bin/../lib/gcc/arm-none-eabi/4.5.2/../../../../arm-none-eabi/include/c++/4.5.2/arm-none-eabi/thumb/bits/gthr-single.h **** /* Wake up one thread waiting on this condition.  */
 202:/opt/toolchains/arm-none-eabi/bin/../lib/gcc/arm-none-eabi/4.5.2/../../../../arm-none-eabi/include/c++/4.5.2/arm-none-eabi/thumb/bits/gthr-single.h **** static inline int
 203:/opt/toolchains/arm-none-eabi/bin/../lib/gcc/arm-none-eabi/4.5.2/../../../../arm-none-eabi/include/c++/4.5.2/arm-none-eabi/thumb/bits/gthr-single.h **** __gthread_objc_condition_signal (objc_condition_t condition _GLIBCXX_UNUSED)
 204:/opt/toolchains/arm-none-eabi/bin/../lib/gcc/arm-none-eabi/4.5.2/../../../../arm-none-eabi/include/c++/4.5.2/arm-none-eabi/thumb/bits/gthr-single.h **** {
 205:/opt/toolchains/arm-none-eabi/bin/../lib/gcc/arm-none-eabi/4.5.2/../../../../arm-none-eabi/include/c++/4.5.2/arm-none-eabi/thumb/bits/gthr-single.h ****   return 0;
 206:/opt/toolchains/arm-none-eabi/bin/../lib/gcc/arm-none-eabi/4.5.2/../../../../arm-none-eabi/include/c++/4.5.2/arm-none-eabi/thumb/bits/gthr-single.h **** }
 207:/opt/toolchains/arm-none-eabi/bin/../lib/gcc/arm-none-eabi/4.5.2/../../../../arm-none-eabi/include/c++/4.5.2/arm-none-eabi/thumb/bits/gthr-single.h **** 
 208:/opt/toolchains/arm-none-eabi/bin/../lib/gcc/arm-none-eabi/4.5.2/../../../../arm-none-eabi/include/c++/4.5.2/arm-none-eabi/thumb/bits/gthr-single.h **** #else /* _LIBOBJC */
 209:/opt/toolchains/arm-none-eabi/bin/../lib/gcc/arm-none-eabi/4.5.2/../../../../arm-none-eabi/include/c++/4.5.2/arm-none-eabi/thumb/bits/gthr-single.h **** 
 210:/opt/toolchains/arm-none-eabi/bin/../lib/gcc/arm-none-eabi/4.5.2/../../../../arm-none-eabi/include/c++/4.5.2/arm-none-eabi/thumb/bits/gthr-single.h **** static inline int
 211:/opt/toolchains/arm-none-eabi/bin/../lib/gcc/arm-none-eabi/4.5.2/../../../../arm-none-eabi/include/c++/4.5.2/arm-none-eabi/thumb/bits/gthr-single.h **** __gthread_active_p (void)
 212:/opt/toolchains/arm-none-eabi/bin/../lib/gcc/arm-none-eabi/4.5.2/../../../../arm-none-eabi/include/c++/4.5.2/arm-none-eabi/thumb/bits/gthr-single.h **** {
 213:/opt/toolchains/arm-none-eabi/bin/../lib/gcc/arm-none-eabi/4.5.2/../../../../arm-none-eabi/include/c++/4.5.2/arm-none-eabi/thumb/bits/gthr-single.h ****   return 0;
 214:/opt/toolchains/arm-none-eabi/bin/../lib/gcc/arm-none-eabi/4.5.2/../../../../arm-none-eabi/include/c++/4.5.2/arm-none-eabi/thumb/bits/gthr-single.h **** }
 215:/opt/toolchains/arm-none-eabi/bin/../lib/gcc/arm-none-eabi/4.5.2/../../../../arm-none-eabi/include/c++/4.5.2/arm-none-eabi/thumb/bits/gthr-single.h **** 
 216:/opt/toolchains/arm-none-eabi/bin/../lib/gcc/arm-none-eabi/4.5.2/../../../../arm-none-eabi/include/c++/4.5.2/arm-none-eabi/thumb/bits/gthr-single.h **** static inline int
 217:/opt/toolchains/arm-none-eabi/bin/../lib/gcc/arm-none-eabi/4.5.2/../../../../arm-none-eabi/include/c++/4.5.2/arm-none-eabi/thumb/bits/gthr-single.h **** __gthread_once (__gthread_once_t *__once _GLIBCXX_UNUSED, void (*__func) (void) _GLIBCXX_UNUSED)
 218:/opt/toolchains/arm-none-eabi/bin/../lib/gcc/arm-none-eabi/4.5.2/../../../../arm-none-eabi/include/c++/4.5.2/arm-none-eabi/thumb/bits/gthr-single.h **** {
 219:/opt/toolchains/arm-none-eabi/bin/../lib/gcc/arm-none-eabi/4.5.2/../../../../arm-none-eabi/include/c++/4.5.2/arm-none-eabi/thumb/bits/gthr-single.h ****   return 0;
 220:/opt/toolchains/arm-none-eabi/bin/../lib/gcc/arm-none-eabi/4.5.2/../../../../arm-none-eabi/include/c++/4.5.2/arm-none-eabi/thumb/bits/gthr-single.h **** }
 221:/opt/toolchains/arm-none-eabi/bin/../lib/gcc/arm-none-eabi/4.5.2/../../../../arm-none-eabi/include/c++/4.5.2/arm-none-eabi/thumb/bits/gthr-single.h **** 
 222:/opt/toolchains/arm-none-eabi/bin/../lib/gcc/arm-none-eabi/4.5.2/../../../../arm-none-eabi/include/c++/4.5.2/arm-none-eabi/thumb/bits/gthr-single.h **** static inline int _GLIBCXX_UNUSED
 223:/opt/toolchains/arm-none-eabi/bin/../lib/gcc/arm-none-eabi/4.5.2/../../../../arm-none-eabi/include/c++/4.5.2/arm-none-eabi/thumb/bits/gthr-single.h **** __gthread_key_create (__gthread_key_t *__key _GLIBCXX_UNUSED, void (*__func) (void *) _GLIBCXX_UNUS
 224:/opt/toolchains/arm-none-eabi/bin/../lib/gcc/arm-none-eabi/4.5.2/../../../../arm-none-eabi/include/c++/4.5.2/arm-none-eabi/thumb/bits/gthr-single.h **** {
 225:/opt/toolchains/arm-none-eabi/bin/../lib/gcc/arm-none-eabi/4.5.2/../../../../arm-none-eabi/include/c++/4.5.2/arm-none-eabi/thumb/bits/gthr-single.h ****   return 0;
 226:/opt/toolchains/arm-none-eabi/bin/../lib/gcc/arm-none-eabi/4.5.2/../../../../arm-none-eabi/include/c++/4.5.2/arm-none-eabi/thumb/bits/gthr-single.h **** }
 227:/opt/toolchains/arm-none-eabi/bin/../lib/gcc/arm-none-eabi/4.5.2/../../../../arm-none-eabi/include/c++/4.5.2/arm-none-eabi/thumb/bits/gthr-single.h **** 
 228:/opt/toolchains/arm-none-eabi/bin/../lib/gcc/arm-none-eabi/4.5.2/../../../../arm-none-eabi/include/c++/4.5.2/arm-none-eabi/thumb/bits/gthr-single.h **** static int _GLIBCXX_UNUSED
 229:/opt/toolchains/arm-none-eabi/bin/../lib/gcc/arm-none-eabi/4.5.2/../../../../arm-none-eabi/include/c++/4.5.2/arm-none-eabi/thumb/bits/gthr-single.h **** __gthread_key_delete (__gthread_key_t __key _GLIBCXX_UNUSED)
 230:/opt/toolchains/arm-none-eabi/bin/../lib/gcc/arm-none-eabi/4.5.2/../../../../arm-none-eabi/include/c++/4.5.2/arm-none-eabi/thumb/bits/gthr-single.h **** {
 3993              		.loc 68 230 0
 3994              		.cfi_startproc
 3995              		@ args = 0, pretend = 0, frame = 8
 3996              		@ frame_needed = 1, uses_anonymous_args = 0
 3997              		@ link register save eliminated.
 3998 0000 80B4     		push	{r7}
 3999              	.LCFI3:
 4000              		.cfi_def_cfa_offset 4
 4001 0002 83B0     		sub	sp, sp, #12
 4002              	.LCFI4:
 4003              		.cfi_def_cfa_offset 16
 4004 0004 00AF     		add	r7, sp, #0
 4005              		.cfi_offset 7, -4
 4006              	.LCFI5:
 4007              		.cfi_def_cfa_register 7
 4008 0006 7860     		str	r0, [r7, #4]
 231:/opt/toolchains/arm-none-eabi/bin/../lib/gcc/arm-none-eabi/4.5.2/../../../../arm-none-eabi/include/c++/4.5.2/arm-none-eabi/thumb/bits/gthr-single.h ****   return 0;
 4009              		.loc 68 231 0
 4010 0008 4FF00003 		mov	r3, #0
 232:/opt/toolchains/arm-none-eabi/bin/../lib/gcc/arm-none-eabi/4.5.2/../../../../arm-none-eabi/include/c++/4.5.2/arm-none-eabi/thumb/bits/gthr-single.h **** }
 4011              		.loc 68 232 0
 4012 000c 1846     		mov	r0, r3
 4013 000e 07F10C07 		add	r7, r7, #12
 4014 0012 BD46     		mov	sp, r7
 4015 0014 80BC     		pop	{r7}
 4016 0016 7047     		bx	lr
 4017              		.cfi_endproc
 4018              	.LFE433:
 4020              		.section	.text._ZNSt4listIPN5Air3T5IViewESaIS2_EED2Ev,"axG",%progbits,_ZNSt4listIPN5Air3T5IViewESa
 4021              		.align	2
 4022              		.weak	_ZNSt4listIPN5Air3T5IViewESaIS2_EED2Ev
 4023              		.thumb
 4024              		.thumb_func
 4026              	_ZNSt4listIPN5Air3T5IViewESaIS2_EED2Ev:
 4027              	.LFB888:
   1:/opt/toolchains/arm-none-eabi/bin/../lib/gcc/arm-none-eabi/4.5.2/../../../../arm-none-eabi/include/c++/4.5.2/bits/stl_list.h **** // List implementation -*- C++ -*-
   2:/opt/toolchains/arm-none-eabi/bin/../lib/gcc/arm-none-eabi/4.5.2/../../../../arm-none-eabi/include/c++/4.5.2/bits/stl_list.h **** 
   3:/opt/toolchains/arm-none-eabi/bin/../lib/gcc/arm-none-eabi/4.5.2/../../../../arm-none-eabi/include/c++/4.5.2/bits/stl_list.h **** // Copyright (C) 2001, 2002, 2003, 2004, 2005, 2006, 2007, 2008, 2009, 2010
   4:/opt/toolchains/arm-none-eabi/bin/../lib/gcc/arm-none-eabi/4.5.2/../../../../arm-none-eabi/include/c++/4.5.2/bits/stl_list.h **** // Free Software Foundation, Inc.
   5:/opt/toolchains/arm-none-eabi/bin/../lib/gcc/arm-none-eabi/4.5.2/../../../../arm-none-eabi/include/c++/4.5.2/bits/stl_list.h **** //
   6:/opt/toolchains/arm-none-eabi/bin/../lib/gcc/arm-none-eabi/4.5.2/../../../../arm-none-eabi/include/c++/4.5.2/bits/stl_list.h **** // This file is part of the GNU ISO C++ Library.  This library is free
   7:/opt/toolchains/arm-none-eabi/bin/../lib/gcc/arm-none-eabi/4.5.2/../../../../arm-none-eabi/include/c++/4.5.2/bits/stl_list.h **** // software; you can redistribute it and/or modify it under the
   8:/opt/toolchains/arm-none-eabi/bin/../lib/gcc/arm-none-eabi/4.5.2/../../../../arm-none-eabi/include/c++/4.5.2/bits/stl_list.h **** // terms of the GNU General Public License as published by the
   9:/opt/toolchains/arm-none-eabi/bin/../lib/gcc/arm-none-eabi/4.5.2/../../../../arm-none-eabi/include/c++/4.5.2/bits/stl_list.h **** // Free Software Foundation; either version 3, or (at your option)
  10:/opt/toolchains/arm-none-eabi/bin/../lib/gcc/arm-none-eabi/4.5.2/../../../../arm-none-eabi/include/c++/4.5.2/bits/stl_list.h **** // any later version.
  11:/opt/toolchains/arm-none-eabi/bin/../lib/gcc/arm-none-eabi/4.5.2/../../../../arm-none-eabi/include/c++/4.5.2/bits/stl_list.h **** 
  12:/opt/toolchains/arm-none-eabi/bin/../lib/gcc/arm-none-eabi/4.5.2/../../../../arm-none-eabi/include/c++/4.5.2/bits/stl_list.h **** // This library is distributed in the hope that it will be useful,
  13:/opt/toolchains/arm-none-eabi/bin/../lib/gcc/arm-none-eabi/4.5.2/../../../../arm-none-eabi/include/c++/4.5.2/bits/stl_list.h **** // but WITHOUT ANY WARRANTY; without even the implied warranty of
  14:/opt/toolchains/arm-none-eabi/bin/../lib/gcc/arm-none-eabi/4.5.2/../../../../arm-none-eabi/include/c++/4.5.2/bits/stl_list.h **** // MERCHANTABILITY or FITNESS FOR A PARTICULAR PURPOSE.  See the
  15:/opt/toolchains/arm-none-eabi/bin/../lib/gcc/arm-none-eabi/4.5.2/../../../../arm-none-eabi/include/c++/4.5.2/bits/stl_list.h **** // GNU General Public License for more details.
  16:/opt/toolchains/arm-none-eabi/bin/../lib/gcc/arm-none-eabi/4.5.2/../../../../arm-none-eabi/include/c++/4.5.2/bits/stl_list.h **** 
  17:/opt/toolchains/arm-none-eabi/bin/../lib/gcc/arm-none-eabi/4.5.2/../../../../arm-none-eabi/include/c++/4.5.2/bits/stl_list.h **** // Under Section 7 of GPL version 3, you are granted additional
  18:/opt/toolchains/arm-none-eabi/bin/../lib/gcc/arm-none-eabi/4.5.2/../../../../arm-none-eabi/include/c++/4.5.2/bits/stl_list.h **** // permissions described in the GCC Runtime Library Exception, version
  19:/opt/toolchains/arm-none-eabi/bin/../lib/gcc/arm-none-eabi/4.5.2/../../../../arm-none-eabi/include/c++/4.5.2/bits/stl_list.h **** // 3.1, as published by the Free Software Foundation.
  20:/opt/toolchains/arm-none-eabi/bin/../lib/gcc/arm-none-eabi/4.5.2/../../../../arm-none-eabi/include/c++/4.5.2/bits/stl_list.h **** 
  21:/opt/toolchains/arm-none-eabi/bin/../lib/gcc/arm-none-eabi/4.5.2/../../../../arm-none-eabi/include/c++/4.5.2/bits/stl_list.h **** // You should have received a copy of the GNU General Public License and
  22:/opt/toolchains/arm-none-eabi/bin/../lib/gcc/arm-none-eabi/4.5.2/../../../../arm-none-eabi/include/c++/4.5.2/bits/stl_list.h **** // a copy of the GCC Runtime Library Exception along with this program;
  23:/opt/toolchains/arm-none-eabi/bin/../lib/gcc/arm-none-eabi/4.5.2/../../../../arm-none-eabi/include/c++/4.5.2/bits/stl_list.h **** // see the files COPYING3 and COPYING.RUNTIME respectively.  If not, see
  24:/opt/toolchains/arm-none-eabi/bin/../lib/gcc/arm-none-eabi/4.5.2/../../../../arm-none-eabi/include/c++/4.5.2/bits/stl_list.h **** // <http://www.gnu.org/licenses/>.
  25:/opt/toolchains/arm-none-eabi/bin/../lib/gcc/arm-none-eabi/4.5.2/../../../../arm-none-eabi/include/c++/4.5.2/bits/stl_list.h **** 
  26:/opt/toolchains/arm-none-eabi/bin/../lib/gcc/arm-none-eabi/4.5.2/../../../../arm-none-eabi/include/c++/4.5.2/bits/stl_list.h **** /*
  27:/opt/toolchains/arm-none-eabi/bin/../lib/gcc/arm-none-eabi/4.5.2/../../../../arm-none-eabi/include/c++/4.5.2/bits/stl_list.h ****  *
  28:/opt/toolchains/arm-none-eabi/bin/../lib/gcc/arm-none-eabi/4.5.2/../../../../arm-none-eabi/include/c++/4.5.2/bits/stl_list.h ****  * Copyright (c) 1994
  29:/opt/toolchains/arm-none-eabi/bin/../lib/gcc/arm-none-eabi/4.5.2/../../../../arm-none-eabi/include/c++/4.5.2/bits/stl_list.h ****  * Hewlett-Packard Company
  30:/opt/toolchains/arm-none-eabi/bin/../lib/gcc/arm-none-eabi/4.5.2/../../../../arm-none-eabi/include/c++/4.5.2/bits/stl_list.h ****  *
  31:/opt/toolchains/arm-none-eabi/bin/../lib/gcc/arm-none-eabi/4.5.2/../../../../arm-none-eabi/include/c++/4.5.2/bits/stl_list.h ****  * Permission to use, copy, modify, distribute and sell this software
  32:/opt/toolchains/arm-none-eabi/bin/../lib/gcc/arm-none-eabi/4.5.2/../../../../arm-none-eabi/include/c++/4.5.2/bits/stl_list.h ****  * and its documentation for any purpose is hereby granted without fee,
  33:/opt/toolchains/arm-none-eabi/bin/../lib/gcc/arm-none-eabi/4.5.2/../../../../arm-none-eabi/include/c++/4.5.2/bits/stl_list.h ****  * provided that the above copyright notice appear in all copies and
  34:/opt/toolchains/arm-none-eabi/bin/../lib/gcc/arm-none-eabi/4.5.2/../../../../arm-none-eabi/include/c++/4.5.2/bits/stl_list.h ****  * that both that copyright notice and this permission notice appear
  35:/opt/toolchains/arm-none-eabi/bin/../lib/gcc/arm-none-eabi/4.5.2/../../../../arm-none-eabi/include/c++/4.5.2/bits/stl_list.h ****  * in supporting documentation.  Hewlett-Packard Company makes no
  36:/opt/toolchains/arm-none-eabi/bin/../lib/gcc/arm-none-eabi/4.5.2/../../../../arm-none-eabi/include/c++/4.5.2/bits/stl_list.h ****  * representations about the suitability of this software for any
  37:/opt/toolchains/arm-none-eabi/bin/../lib/gcc/arm-none-eabi/4.5.2/../../../../arm-none-eabi/include/c++/4.5.2/bits/stl_list.h ****  * purpose.  It is provided "as is" without express or implied warranty.
  38:/opt/toolchains/arm-none-eabi/bin/../lib/gcc/arm-none-eabi/4.5.2/../../../../arm-none-eabi/include/c++/4.5.2/bits/stl_list.h ****  *
  39:/opt/toolchains/arm-none-eabi/bin/../lib/gcc/arm-none-eabi/4.5.2/../../../../arm-none-eabi/include/c++/4.5.2/bits/stl_list.h ****  *
  40:/opt/toolchains/arm-none-eabi/bin/../lib/gcc/arm-none-eabi/4.5.2/../../../../arm-none-eabi/include/c++/4.5.2/bits/stl_list.h ****  * Copyright (c) 1996,1997
  41:/opt/toolchains/arm-none-eabi/bin/../lib/gcc/arm-none-eabi/4.5.2/../../../../arm-none-eabi/include/c++/4.5.2/bits/stl_list.h ****  * Silicon Graphics Computer Systems, Inc.
  42:/opt/toolchains/arm-none-eabi/bin/../lib/gcc/arm-none-eabi/4.5.2/../../../../arm-none-eabi/include/c++/4.5.2/bits/stl_list.h ****  *
  43:/opt/toolchains/arm-none-eabi/bin/../lib/gcc/arm-none-eabi/4.5.2/../../../../arm-none-eabi/include/c++/4.5.2/bits/stl_list.h ****  * Permission to use, copy, modify, distribute and sell this software
  44:/opt/toolchains/arm-none-eabi/bin/../lib/gcc/arm-none-eabi/4.5.2/../../../../arm-none-eabi/include/c++/4.5.2/bits/stl_list.h ****  * and its documentation for any purpose is hereby granted without fee,
  45:/opt/toolchains/arm-none-eabi/bin/../lib/gcc/arm-none-eabi/4.5.2/../../../../arm-none-eabi/include/c++/4.5.2/bits/stl_list.h ****  * provided that the above copyright notice appear in all copies and
  46:/opt/toolchains/arm-none-eabi/bin/../lib/gcc/arm-none-eabi/4.5.2/../../../../arm-none-eabi/include/c++/4.5.2/bits/stl_list.h ****  * that both that copyright notice and this permission notice appear
  47:/opt/toolchains/arm-none-eabi/bin/../lib/gcc/arm-none-eabi/4.5.2/../../../../arm-none-eabi/include/c++/4.5.2/bits/stl_list.h ****  * in supporting documentation.  Silicon Graphics makes no
  48:/opt/toolchains/arm-none-eabi/bin/../lib/gcc/arm-none-eabi/4.5.2/../../../../arm-none-eabi/include/c++/4.5.2/bits/stl_list.h ****  * representations about the suitability of this software for any
  49:/opt/toolchains/arm-none-eabi/bin/../lib/gcc/arm-none-eabi/4.5.2/../../../../arm-none-eabi/include/c++/4.5.2/bits/stl_list.h ****  * purpose.  It is provided "as is" without express or implied warranty.
  50:/opt/toolchains/arm-none-eabi/bin/../lib/gcc/arm-none-eabi/4.5.2/../../../../arm-none-eabi/include/c++/4.5.2/bits/stl_list.h ****  */
  51:/opt/toolchains/arm-none-eabi/bin/../lib/gcc/arm-none-eabi/4.5.2/../../../../arm-none-eabi/include/c++/4.5.2/bits/stl_list.h **** 
  52:/opt/toolchains/arm-none-eabi/bin/../lib/gcc/arm-none-eabi/4.5.2/../../../../arm-none-eabi/include/c++/4.5.2/bits/stl_list.h **** /** @file stl_list.h
  53:/opt/toolchains/arm-none-eabi/bin/../lib/gcc/arm-none-eabi/4.5.2/../../../../arm-none-eabi/include/c++/4.5.2/bits/stl_list.h ****  *  This is an internal header file, included by other library headers.
  54:/opt/toolchains/arm-none-eabi/bin/../lib/gcc/arm-none-eabi/4.5.2/../../../../arm-none-eabi/include/c++/4.5.2/bits/stl_list.h ****  *  You should not attempt to use it directly.
  55:/opt/toolchains/arm-none-eabi/bin/../lib/gcc/arm-none-eabi/4.5.2/../../../../arm-none-eabi/include/c++/4.5.2/bits/stl_list.h ****  */
  56:/opt/toolchains/arm-none-eabi/bin/../lib/gcc/arm-none-eabi/4.5.2/../../../../arm-none-eabi/include/c++/4.5.2/bits/stl_list.h **** 
  57:/opt/toolchains/arm-none-eabi/bin/../lib/gcc/arm-none-eabi/4.5.2/../../../../arm-none-eabi/include/c++/4.5.2/bits/stl_list.h **** #ifndef _STL_LIST_H
  58:/opt/toolchains/arm-none-eabi/bin/../lib/gcc/arm-none-eabi/4.5.2/../../../../arm-none-eabi/include/c++/4.5.2/bits/stl_list.h **** #define _STL_LIST_H 1
  59:/opt/toolchains/arm-none-eabi/bin/../lib/gcc/arm-none-eabi/4.5.2/../../../../arm-none-eabi/include/c++/4.5.2/bits/stl_list.h **** 
  60:/opt/toolchains/arm-none-eabi/bin/../lib/gcc/arm-none-eabi/4.5.2/../../../../arm-none-eabi/include/c++/4.5.2/bits/stl_list.h **** #include <bits/concept_check.h>
  61:/opt/toolchains/arm-none-eabi/bin/../lib/gcc/arm-none-eabi/4.5.2/../../../../arm-none-eabi/include/c++/4.5.2/bits/stl_list.h **** #include <initializer_list>
  62:/opt/toolchains/arm-none-eabi/bin/../lib/gcc/arm-none-eabi/4.5.2/../../../../arm-none-eabi/include/c++/4.5.2/bits/stl_list.h **** 
  63:/opt/toolchains/arm-none-eabi/bin/../lib/gcc/arm-none-eabi/4.5.2/../../../../arm-none-eabi/include/c++/4.5.2/bits/stl_list.h **** _GLIBCXX_BEGIN_NESTED_NAMESPACE(std, _GLIBCXX_STD_D)
  64:/opt/toolchains/arm-none-eabi/bin/../lib/gcc/arm-none-eabi/4.5.2/../../../../arm-none-eabi/include/c++/4.5.2/bits/stl_list.h **** 
  65:/opt/toolchains/arm-none-eabi/bin/../lib/gcc/arm-none-eabi/4.5.2/../../../../arm-none-eabi/include/c++/4.5.2/bits/stl_list.h ****   // Supporting structures are split into common and templated types; the
  66:/opt/toolchains/arm-none-eabi/bin/../lib/gcc/arm-none-eabi/4.5.2/../../../../arm-none-eabi/include/c++/4.5.2/bits/stl_list.h ****   // latter publicly inherits from the former in an effort to reduce code
  67:/opt/toolchains/arm-none-eabi/bin/../lib/gcc/arm-none-eabi/4.5.2/../../../../arm-none-eabi/include/c++/4.5.2/bits/stl_list.h ****   // duplication.  This results in some "needless" static_cast'ing later on,
  68:/opt/toolchains/arm-none-eabi/bin/../lib/gcc/arm-none-eabi/4.5.2/../../../../arm-none-eabi/include/c++/4.5.2/bits/stl_list.h ****   // but it's all safe downcasting.
  69:/opt/toolchains/arm-none-eabi/bin/../lib/gcc/arm-none-eabi/4.5.2/../../../../arm-none-eabi/include/c++/4.5.2/bits/stl_list.h **** 
  70:/opt/toolchains/arm-none-eabi/bin/../lib/gcc/arm-none-eabi/4.5.2/../../../../arm-none-eabi/include/c++/4.5.2/bits/stl_list.h ****   /// Common part of a node in the %list. 
  71:/opt/toolchains/arm-none-eabi/bin/../lib/gcc/arm-none-eabi/4.5.2/../../../../arm-none-eabi/include/c++/4.5.2/bits/stl_list.h ****   struct _List_node_base
  72:/opt/toolchains/arm-none-eabi/bin/../lib/gcc/arm-none-eabi/4.5.2/../../../../arm-none-eabi/include/c++/4.5.2/bits/stl_list.h ****   {
  73:/opt/toolchains/arm-none-eabi/bin/../lib/gcc/arm-none-eabi/4.5.2/../../../../arm-none-eabi/include/c++/4.5.2/bits/stl_list.h ****     _List_node_base* _M_next;
  74:/opt/toolchains/arm-none-eabi/bin/../lib/gcc/arm-none-eabi/4.5.2/../../../../arm-none-eabi/include/c++/4.5.2/bits/stl_list.h ****     _List_node_base* _M_prev;
  75:/opt/toolchains/arm-none-eabi/bin/../lib/gcc/arm-none-eabi/4.5.2/../../../../arm-none-eabi/include/c++/4.5.2/bits/stl_list.h **** 
  76:/opt/toolchains/arm-none-eabi/bin/../lib/gcc/arm-none-eabi/4.5.2/../../../../arm-none-eabi/include/c++/4.5.2/bits/stl_list.h ****     static void
  77:/opt/toolchains/arm-none-eabi/bin/../lib/gcc/arm-none-eabi/4.5.2/../../../../arm-none-eabi/include/c++/4.5.2/bits/stl_list.h ****     swap(_List_node_base& __x, _List_node_base& __y) throw ();
  78:/opt/toolchains/arm-none-eabi/bin/../lib/gcc/arm-none-eabi/4.5.2/../../../../arm-none-eabi/include/c++/4.5.2/bits/stl_list.h **** 
  79:/opt/toolchains/arm-none-eabi/bin/../lib/gcc/arm-none-eabi/4.5.2/../../../../arm-none-eabi/include/c++/4.5.2/bits/stl_list.h ****     void
  80:/opt/toolchains/arm-none-eabi/bin/../lib/gcc/arm-none-eabi/4.5.2/../../../../arm-none-eabi/include/c++/4.5.2/bits/stl_list.h ****     _M_transfer(_List_node_base * const __first,
  81:/opt/toolchains/arm-none-eabi/bin/../lib/gcc/arm-none-eabi/4.5.2/../../../../arm-none-eabi/include/c++/4.5.2/bits/stl_list.h **** 		_List_node_base * const __last) throw ();
  82:/opt/toolchains/arm-none-eabi/bin/../lib/gcc/arm-none-eabi/4.5.2/../../../../arm-none-eabi/include/c++/4.5.2/bits/stl_list.h **** 
  83:/opt/toolchains/arm-none-eabi/bin/../lib/gcc/arm-none-eabi/4.5.2/../../../../arm-none-eabi/include/c++/4.5.2/bits/stl_list.h ****     void
  84:/opt/toolchains/arm-none-eabi/bin/../lib/gcc/arm-none-eabi/4.5.2/../../../../arm-none-eabi/include/c++/4.5.2/bits/stl_list.h ****     _M_reverse() throw ();
  85:/opt/toolchains/arm-none-eabi/bin/../lib/gcc/arm-none-eabi/4.5.2/../../../../arm-none-eabi/include/c++/4.5.2/bits/stl_list.h **** 
  86:/opt/toolchains/arm-none-eabi/bin/../lib/gcc/arm-none-eabi/4.5.2/../../../../arm-none-eabi/include/c++/4.5.2/bits/stl_list.h ****     void
  87:/opt/toolchains/arm-none-eabi/bin/../lib/gcc/arm-none-eabi/4.5.2/../../../../arm-none-eabi/include/c++/4.5.2/bits/stl_list.h ****     _M_hook(_List_node_base * const __position) throw ();
  88:/opt/toolchains/arm-none-eabi/bin/../lib/gcc/arm-none-eabi/4.5.2/../../../../arm-none-eabi/include/c++/4.5.2/bits/stl_list.h **** 
  89:/opt/toolchains/arm-none-eabi/bin/../lib/gcc/arm-none-eabi/4.5.2/../../../../arm-none-eabi/include/c++/4.5.2/bits/stl_list.h ****     void
  90:/opt/toolchains/arm-none-eabi/bin/../lib/gcc/arm-none-eabi/4.5.2/../../../../arm-none-eabi/include/c++/4.5.2/bits/stl_list.h ****     _M_unhook() throw ();
  91:/opt/toolchains/arm-none-eabi/bin/../lib/gcc/arm-none-eabi/4.5.2/../../../../arm-none-eabi/include/c++/4.5.2/bits/stl_list.h ****   };
  92:/opt/toolchains/arm-none-eabi/bin/../lib/gcc/arm-none-eabi/4.5.2/../../../../arm-none-eabi/include/c++/4.5.2/bits/stl_list.h **** 
  93:/opt/toolchains/arm-none-eabi/bin/../lib/gcc/arm-none-eabi/4.5.2/../../../../arm-none-eabi/include/c++/4.5.2/bits/stl_list.h ****   /// An actual node in the %list.
  94:/opt/toolchains/arm-none-eabi/bin/../lib/gcc/arm-none-eabi/4.5.2/../../../../arm-none-eabi/include/c++/4.5.2/bits/stl_list.h ****   template<typename _Tp>
  95:/opt/toolchains/arm-none-eabi/bin/../lib/gcc/arm-none-eabi/4.5.2/../../../../arm-none-eabi/include/c++/4.5.2/bits/stl_list.h ****     struct _List_node : public _List_node_base
  96:/opt/toolchains/arm-none-eabi/bin/../lib/gcc/arm-none-eabi/4.5.2/../../../../arm-none-eabi/include/c++/4.5.2/bits/stl_list.h ****     {
  97:/opt/toolchains/arm-none-eabi/bin/../lib/gcc/arm-none-eabi/4.5.2/../../../../arm-none-eabi/include/c++/4.5.2/bits/stl_list.h ****       ///< User's data.
  98:/opt/toolchains/arm-none-eabi/bin/../lib/gcc/arm-none-eabi/4.5.2/../../../../arm-none-eabi/include/c++/4.5.2/bits/stl_list.h ****       _Tp _M_data;
  99:/opt/toolchains/arm-none-eabi/bin/../lib/gcc/arm-none-eabi/4.5.2/../../../../arm-none-eabi/include/c++/4.5.2/bits/stl_list.h **** 
 100:/opt/toolchains/arm-none-eabi/bin/../lib/gcc/arm-none-eabi/4.5.2/../../../../arm-none-eabi/include/c++/4.5.2/bits/stl_list.h **** #ifdef __GXX_EXPERIMENTAL_CXX0X__
 101:/opt/toolchains/arm-none-eabi/bin/../lib/gcc/arm-none-eabi/4.5.2/../../../../arm-none-eabi/include/c++/4.5.2/bits/stl_list.h ****       template<typename... _Args>
 102:/opt/toolchains/arm-none-eabi/bin/../lib/gcc/arm-none-eabi/4.5.2/../../../../arm-none-eabi/include/c++/4.5.2/bits/stl_list.h ****         _List_node(_Args&&... __args)
 103:/opt/toolchains/arm-none-eabi/bin/../lib/gcc/arm-none-eabi/4.5.2/../../../../arm-none-eabi/include/c++/4.5.2/bits/stl_list.h **** 	: _List_node_base(), _M_data(std::forward<_Args>(__args)...) { }
 104:/opt/toolchains/arm-none-eabi/bin/../lib/gcc/arm-none-eabi/4.5.2/../../../../arm-none-eabi/include/c++/4.5.2/bits/stl_list.h **** #endif
 105:/opt/toolchains/arm-none-eabi/bin/../lib/gcc/arm-none-eabi/4.5.2/../../../../arm-none-eabi/include/c++/4.5.2/bits/stl_list.h ****     };
 106:/opt/toolchains/arm-none-eabi/bin/../lib/gcc/arm-none-eabi/4.5.2/../../../../arm-none-eabi/include/c++/4.5.2/bits/stl_list.h **** 
 107:/opt/toolchains/arm-none-eabi/bin/../lib/gcc/arm-none-eabi/4.5.2/../../../../arm-none-eabi/include/c++/4.5.2/bits/stl_list.h ****   /**
 108:/opt/toolchains/arm-none-eabi/bin/../lib/gcc/arm-none-eabi/4.5.2/../../../../arm-none-eabi/include/c++/4.5.2/bits/stl_list.h ****    *  @brief A list::iterator.
 109:/opt/toolchains/arm-none-eabi/bin/../lib/gcc/arm-none-eabi/4.5.2/../../../../arm-none-eabi/include/c++/4.5.2/bits/stl_list.h ****    *
 110:/opt/toolchains/arm-none-eabi/bin/../lib/gcc/arm-none-eabi/4.5.2/../../../../arm-none-eabi/include/c++/4.5.2/bits/stl_list.h ****    *  All the functions are op overloads.
 111:/opt/toolchains/arm-none-eabi/bin/../lib/gcc/arm-none-eabi/4.5.2/../../../../arm-none-eabi/include/c++/4.5.2/bits/stl_list.h ****   */
 112:/opt/toolchains/arm-none-eabi/bin/../lib/gcc/arm-none-eabi/4.5.2/../../../../arm-none-eabi/include/c++/4.5.2/bits/stl_list.h ****   template<typename _Tp>
 113:/opt/toolchains/arm-none-eabi/bin/../lib/gcc/arm-none-eabi/4.5.2/../../../../arm-none-eabi/include/c++/4.5.2/bits/stl_list.h ****     struct _List_iterator
 114:/opt/toolchains/arm-none-eabi/bin/../lib/gcc/arm-none-eabi/4.5.2/../../../../arm-none-eabi/include/c++/4.5.2/bits/stl_list.h ****     {
 115:/opt/toolchains/arm-none-eabi/bin/../lib/gcc/arm-none-eabi/4.5.2/../../../../arm-none-eabi/include/c++/4.5.2/bits/stl_list.h ****       typedef _List_iterator<_Tp>                _Self;
 116:/opt/toolchains/arm-none-eabi/bin/../lib/gcc/arm-none-eabi/4.5.2/../../../../arm-none-eabi/include/c++/4.5.2/bits/stl_list.h ****       typedef _List_node<_Tp>                    _Node;
 117:/opt/toolchains/arm-none-eabi/bin/../lib/gcc/arm-none-eabi/4.5.2/../../../../arm-none-eabi/include/c++/4.5.2/bits/stl_list.h **** 
 118:/opt/toolchains/arm-none-eabi/bin/../lib/gcc/arm-none-eabi/4.5.2/../../../../arm-none-eabi/include/c++/4.5.2/bits/stl_list.h ****       typedef ptrdiff_t                          difference_type;
 119:/opt/toolchains/arm-none-eabi/bin/../lib/gcc/arm-none-eabi/4.5.2/../../../../arm-none-eabi/include/c++/4.5.2/bits/stl_list.h ****       typedef std::bidirectional_iterator_tag    iterator_category;
 120:/opt/toolchains/arm-none-eabi/bin/../lib/gcc/arm-none-eabi/4.5.2/../../../../arm-none-eabi/include/c++/4.5.2/bits/stl_list.h ****       typedef _Tp                                value_type;
 121:/opt/toolchains/arm-none-eabi/bin/../lib/gcc/arm-none-eabi/4.5.2/../../../../arm-none-eabi/include/c++/4.5.2/bits/stl_list.h ****       typedef _Tp*                               pointer;
 122:/opt/toolchains/arm-none-eabi/bin/../lib/gcc/arm-none-eabi/4.5.2/../../../../arm-none-eabi/include/c++/4.5.2/bits/stl_list.h ****       typedef _Tp&                               reference;
 123:/opt/toolchains/arm-none-eabi/bin/../lib/gcc/arm-none-eabi/4.5.2/../../../../arm-none-eabi/include/c++/4.5.2/bits/stl_list.h **** 
 124:/opt/toolchains/arm-none-eabi/bin/../lib/gcc/arm-none-eabi/4.5.2/../../../../arm-none-eabi/include/c++/4.5.2/bits/stl_list.h ****       _List_iterator()
 125:/opt/toolchains/arm-none-eabi/bin/../lib/gcc/arm-none-eabi/4.5.2/../../../../arm-none-eabi/include/c++/4.5.2/bits/stl_list.h ****       : _M_node() { }
 126:/opt/toolchains/arm-none-eabi/bin/../lib/gcc/arm-none-eabi/4.5.2/../../../../arm-none-eabi/include/c++/4.5.2/bits/stl_list.h **** 
 127:/opt/toolchains/arm-none-eabi/bin/../lib/gcc/arm-none-eabi/4.5.2/../../../../arm-none-eabi/include/c++/4.5.2/bits/stl_list.h ****       explicit
 128:/opt/toolchains/arm-none-eabi/bin/../lib/gcc/arm-none-eabi/4.5.2/../../../../arm-none-eabi/include/c++/4.5.2/bits/stl_list.h ****       _List_iterator(_List_node_base* __x)
 129:/opt/toolchains/arm-none-eabi/bin/../lib/gcc/arm-none-eabi/4.5.2/../../../../arm-none-eabi/include/c++/4.5.2/bits/stl_list.h ****       : _M_node(__x) { }
 130:/opt/toolchains/arm-none-eabi/bin/../lib/gcc/arm-none-eabi/4.5.2/../../../../arm-none-eabi/include/c++/4.5.2/bits/stl_list.h **** 
 131:/opt/toolchains/arm-none-eabi/bin/../lib/gcc/arm-none-eabi/4.5.2/../../../../arm-none-eabi/include/c++/4.5.2/bits/stl_list.h ****       // Must downcast from List_node_base to _List_node to get to _M_data.
 132:/opt/toolchains/arm-none-eabi/bin/../lib/gcc/arm-none-eabi/4.5.2/../../../../arm-none-eabi/include/c++/4.5.2/bits/stl_list.h ****       reference
 133:/opt/toolchains/arm-none-eabi/bin/../lib/gcc/arm-none-eabi/4.5.2/../../../../arm-none-eabi/include/c++/4.5.2/bits/stl_list.h ****       operator*() const
 134:/opt/toolchains/arm-none-eabi/bin/../lib/gcc/arm-none-eabi/4.5.2/../../../../arm-none-eabi/include/c++/4.5.2/bits/stl_list.h ****       { return static_cast<_Node*>(_M_node)->_M_data; }
 135:/opt/toolchains/arm-none-eabi/bin/../lib/gcc/arm-none-eabi/4.5.2/../../../../arm-none-eabi/include/c++/4.5.2/bits/stl_list.h **** 
 136:/opt/toolchains/arm-none-eabi/bin/../lib/gcc/arm-none-eabi/4.5.2/../../../../arm-none-eabi/include/c++/4.5.2/bits/stl_list.h ****       pointer
 137:/opt/toolchains/arm-none-eabi/bin/../lib/gcc/arm-none-eabi/4.5.2/../../../../arm-none-eabi/include/c++/4.5.2/bits/stl_list.h ****       operator->() const
 138:/opt/toolchains/arm-none-eabi/bin/../lib/gcc/arm-none-eabi/4.5.2/../../../../arm-none-eabi/include/c++/4.5.2/bits/stl_list.h ****       { return &static_cast<_Node*>(_M_node)->_M_data; }
 139:/opt/toolchains/arm-none-eabi/bin/../lib/gcc/arm-none-eabi/4.5.2/../../../../arm-none-eabi/include/c++/4.5.2/bits/stl_list.h **** 
 140:/opt/toolchains/arm-none-eabi/bin/../lib/gcc/arm-none-eabi/4.5.2/../../../../arm-none-eabi/include/c++/4.5.2/bits/stl_list.h ****       _Self&
 141:/opt/toolchains/arm-none-eabi/bin/../lib/gcc/arm-none-eabi/4.5.2/../../../../arm-none-eabi/include/c++/4.5.2/bits/stl_list.h ****       operator++()
 142:/opt/toolchains/arm-none-eabi/bin/../lib/gcc/arm-none-eabi/4.5.2/../../../../arm-none-eabi/include/c++/4.5.2/bits/stl_list.h ****       {
 143:/opt/toolchains/arm-none-eabi/bin/../lib/gcc/arm-none-eabi/4.5.2/../../../../arm-none-eabi/include/c++/4.5.2/bits/stl_list.h **** 	_M_node = _M_node->_M_next;
 144:/opt/toolchains/arm-none-eabi/bin/../lib/gcc/arm-none-eabi/4.5.2/../../../../arm-none-eabi/include/c++/4.5.2/bits/stl_list.h **** 	return *this;
 145:/opt/toolchains/arm-none-eabi/bin/../lib/gcc/arm-none-eabi/4.5.2/../../../../arm-none-eabi/include/c++/4.5.2/bits/stl_list.h ****       }
 146:/opt/toolchains/arm-none-eabi/bin/../lib/gcc/arm-none-eabi/4.5.2/../../../../arm-none-eabi/include/c++/4.5.2/bits/stl_list.h **** 
 147:/opt/toolchains/arm-none-eabi/bin/../lib/gcc/arm-none-eabi/4.5.2/../../../../arm-none-eabi/include/c++/4.5.2/bits/stl_list.h ****       _Self
 148:/opt/toolchains/arm-none-eabi/bin/../lib/gcc/arm-none-eabi/4.5.2/../../../../arm-none-eabi/include/c++/4.5.2/bits/stl_list.h ****       operator++(int)
 149:/opt/toolchains/arm-none-eabi/bin/../lib/gcc/arm-none-eabi/4.5.2/../../../../arm-none-eabi/include/c++/4.5.2/bits/stl_list.h ****       {
 150:/opt/toolchains/arm-none-eabi/bin/../lib/gcc/arm-none-eabi/4.5.2/../../../../arm-none-eabi/include/c++/4.5.2/bits/stl_list.h **** 	_Self __tmp = *this;
 151:/opt/toolchains/arm-none-eabi/bin/../lib/gcc/arm-none-eabi/4.5.2/../../../../arm-none-eabi/include/c++/4.5.2/bits/stl_list.h **** 	_M_node = _M_node->_M_next;
 152:/opt/toolchains/arm-none-eabi/bin/../lib/gcc/arm-none-eabi/4.5.2/../../../../arm-none-eabi/include/c++/4.5.2/bits/stl_list.h **** 	return __tmp;
 153:/opt/toolchains/arm-none-eabi/bin/../lib/gcc/arm-none-eabi/4.5.2/../../../../arm-none-eabi/include/c++/4.5.2/bits/stl_list.h ****       }
 154:/opt/toolchains/arm-none-eabi/bin/../lib/gcc/arm-none-eabi/4.5.2/../../../../arm-none-eabi/include/c++/4.5.2/bits/stl_list.h **** 
 155:/opt/toolchains/arm-none-eabi/bin/../lib/gcc/arm-none-eabi/4.5.2/../../../../arm-none-eabi/include/c++/4.5.2/bits/stl_list.h ****       _Self&
 156:/opt/toolchains/arm-none-eabi/bin/../lib/gcc/arm-none-eabi/4.5.2/../../../../arm-none-eabi/include/c++/4.5.2/bits/stl_list.h ****       operator--()
 157:/opt/toolchains/arm-none-eabi/bin/../lib/gcc/arm-none-eabi/4.5.2/../../../../arm-none-eabi/include/c++/4.5.2/bits/stl_list.h ****       {
 158:/opt/toolchains/arm-none-eabi/bin/../lib/gcc/arm-none-eabi/4.5.2/../../../../arm-none-eabi/include/c++/4.5.2/bits/stl_list.h **** 	_M_node = _M_node->_M_prev;
 159:/opt/toolchains/arm-none-eabi/bin/../lib/gcc/arm-none-eabi/4.5.2/../../../../arm-none-eabi/include/c++/4.5.2/bits/stl_list.h **** 	return *this;
 160:/opt/toolchains/arm-none-eabi/bin/../lib/gcc/arm-none-eabi/4.5.2/../../../../arm-none-eabi/include/c++/4.5.2/bits/stl_list.h ****       }
 161:/opt/toolchains/arm-none-eabi/bin/../lib/gcc/arm-none-eabi/4.5.2/../../../../arm-none-eabi/include/c++/4.5.2/bits/stl_list.h **** 
 162:/opt/toolchains/arm-none-eabi/bin/../lib/gcc/arm-none-eabi/4.5.2/../../../../arm-none-eabi/include/c++/4.5.2/bits/stl_list.h ****       _Self
 163:/opt/toolchains/arm-none-eabi/bin/../lib/gcc/arm-none-eabi/4.5.2/../../../../arm-none-eabi/include/c++/4.5.2/bits/stl_list.h ****       operator--(int)
 164:/opt/toolchains/arm-none-eabi/bin/../lib/gcc/arm-none-eabi/4.5.2/../../../../arm-none-eabi/include/c++/4.5.2/bits/stl_list.h ****       {
 165:/opt/toolchains/arm-none-eabi/bin/../lib/gcc/arm-none-eabi/4.5.2/../../../../arm-none-eabi/include/c++/4.5.2/bits/stl_list.h **** 	_Self __tmp = *this;
 166:/opt/toolchains/arm-none-eabi/bin/../lib/gcc/arm-none-eabi/4.5.2/../../../../arm-none-eabi/include/c++/4.5.2/bits/stl_list.h **** 	_M_node = _M_node->_M_prev;
 167:/opt/toolchains/arm-none-eabi/bin/../lib/gcc/arm-none-eabi/4.5.2/../../../../arm-none-eabi/include/c++/4.5.2/bits/stl_list.h **** 	return __tmp;
 168:/opt/toolchains/arm-none-eabi/bin/../lib/gcc/arm-none-eabi/4.5.2/../../../../arm-none-eabi/include/c++/4.5.2/bits/stl_list.h ****       }
 169:/opt/toolchains/arm-none-eabi/bin/../lib/gcc/arm-none-eabi/4.5.2/../../../../arm-none-eabi/include/c++/4.5.2/bits/stl_list.h **** 
 170:/opt/toolchains/arm-none-eabi/bin/../lib/gcc/arm-none-eabi/4.5.2/../../../../arm-none-eabi/include/c++/4.5.2/bits/stl_list.h ****       bool
 171:/opt/toolchains/arm-none-eabi/bin/../lib/gcc/arm-none-eabi/4.5.2/../../../../arm-none-eabi/include/c++/4.5.2/bits/stl_list.h ****       operator==(const _Self& __x) const
 172:/opt/toolchains/arm-none-eabi/bin/../lib/gcc/arm-none-eabi/4.5.2/../../../../arm-none-eabi/include/c++/4.5.2/bits/stl_list.h ****       { return _M_node == __x._M_node; }
 173:/opt/toolchains/arm-none-eabi/bin/../lib/gcc/arm-none-eabi/4.5.2/../../../../arm-none-eabi/include/c++/4.5.2/bits/stl_list.h **** 
 174:/opt/toolchains/arm-none-eabi/bin/../lib/gcc/arm-none-eabi/4.5.2/../../../../arm-none-eabi/include/c++/4.5.2/bits/stl_list.h ****       bool
 175:/opt/toolchains/arm-none-eabi/bin/../lib/gcc/arm-none-eabi/4.5.2/../../../../arm-none-eabi/include/c++/4.5.2/bits/stl_list.h ****       operator!=(const _Self& __x) const
 176:/opt/toolchains/arm-none-eabi/bin/../lib/gcc/arm-none-eabi/4.5.2/../../../../arm-none-eabi/include/c++/4.5.2/bits/stl_list.h ****       { return _M_node != __x._M_node; }
 177:/opt/toolchains/arm-none-eabi/bin/../lib/gcc/arm-none-eabi/4.5.2/../../../../arm-none-eabi/include/c++/4.5.2/bits/stl_list.h **** 
 178:/opt/toolchains/arm-none-eabi/bin/../lib/gcc/arm-none-eabi/4.5.2/../../../../arm-none-eabi/include/c++/4.5.2/bits/stl_list.h ****       // The only member points to the %list element.
 179:/opt/toolchains/arm-none-eabi/bin/../lib/gcc/arm-none-eabi/4.5.2/../../../../arm-none-eabi/include/c++/4.5.2/bits/stl_list.h ****       _List_node_base* _M_node;
 180:/opt/toolchains/arm-none-eabi/bin/../lib/gcc/arm-none-eabi/4.5.2/../../../../arm-none-eabi/include/c++/4.5.2/bits/stl_list.h ****     };
 181:/opt/toolchains/arm-none-eabi/bin/../lib/gcc/arm-none-eabi/4.5.2/../../../../arm-none-eabi/include/c++/4.5.2/bits/stl_list.h **** 
 182:/opt/toolchains/arm-none-eabi/bin/../lib/gcc/arm-none-eabi/4.5.2/../../../../arm-none-eabi/include/c++/4.5.2/bits/stl_list.h ****   /**
 183:/opt/toolchains/arm-none-eabi/bin/../lib/gcc/arm-none-eabi/4.5.2/../../../../arm-none-eabi/include/c++/4.5.2/bits/stl_list.h ****    *  @brief A list::const_iterator.
 184:/opt/toolchains/arm-none-eabi/bin/../lib/gcc/arm-none-eabi/4.5.2/../../../../arm-none-eabi/include/c++/4.5.2/bits/stl_list.h ****    *
 185:/opt/toolchains/arm-none-eabi/bin/../lib/gcc/arm-none-eabi/4.5.2/../../../../arm-none-eabi/include/c++/4.5.2/bits/stl_list.h ****    *  All the functions are op overloads.
 186:/opt/toolchains/arm-none-eabi/bin/../lib/gcc/arm-none-eabi/4.5.2/../../../../arm-none-eabi/include/c++/4.5.2/bits/stl_list.h ****   */
 187:/opt/toolchains/arm-none-eabi/bin/../lib/gcc/arm-none-eabi/4.5.2/../../../../arm-none-eabi/include/c++/4.5.2/bits/stl_list.h ****   template<typename _Tp>
 188:/opt/toolchains/arm-none-eabi/bin/../lib/gcc/arm-none-eabi/4.5.2/../../../../arm-none-eabi/include/c++/4.5.2/bits/stl_list.h ****     struct _List_const_iterator
 189:/opt/toolchains/arm-none-eabi/bin/../lib/gcc/arm-none-eabi/4.5.2/../../../../arm-none-eabi/include/c++/4.5.2/bits/stl_list.h ****     {
 190:/opt/toolchains/arm-none-eabi/bin/../lib/gcc/arm-none-eabi/4.5.2/../../../../arm-none-eabi/include/c++/4.5.2/bits/stl_list.h ****       typedef _List_const_iterator<_Tp>          _Self;
 191:/opt/toolchains/arm-none-eabi/bin/../lib/gcc/arm-none-eabi/4.5.2/../../../../arm-none-eabi/include/c++/4.5.2/bits/stl_list.h ****       typedef const _List_node<_Tp>              _Node;
 192:/opt/toolchains/arm-none-eabi/bin/../lib/gcc/arm-none-eabi/4.5.2/../../../../arm-none-eabi/include/c++/4.5.2/bits/stl_list.h ****       typedef _List_iterator<_Tp>                iterator;
 193:/opt/toolchains/arm-none-eabi/bin/../lib/gcc/arm-none-eabi/4.5.2/../../../../arm-none-eabi/include/c++/4.5.2/bits/stl_list.h **** 
 194:/opt/toolchains/arm-none-eabi/bin/../lib/gcc/arm-none-eabi/4.5.2/../../../../arm-none-eabi/include/c++/4.5.2/bits/stl_list.h ****       typedef ptrdiff_t                          difference_type;
 195:/opt/toolchains/arm-none-eabi/bin/../lib/gcc/arm-none-eabi/4.5.2/../../../../arm-none-eabi/include/c++/4.5.2/bits/stl_list.h ****       typedef std::bidirectional_iterator_tag    iterator_category;
 196:/opt/toolchains/arm-none-eabi/bin/../lib/gcc/arm-none-eabi/4.5.2/../../../../arm-none-eabi/include/c++/4.5.2/bits/stl_list.h ****       typedef _Tp                                value_type;
 197:/opt/toolchains/arm-none-eabi/bin/../lib/gcc/arm-none-eabi/4.5.2/../../../../arm-none-eabi/include/c++/4.5.2/bits/stl_list.h ****       typedef const _Tp*                         pointer;
 198:/opt/toolchains/arm-none-eabi/bin/../lib/gcc/arm-none-eabi/4.5.2/../../../../arm-none-eabi/include/c++/4.5.2/bits/stl_list.h ****       typedef const _Tp&                         reference;
 199:/opt/toolchains/arm-none-eabi/bin/../lib/gcc/arm-none-eabi/4.5.2/../../../../arm-none-eabi/include/c++/4.5.2/bits/stl_list.h **** 
 200:/opt/toolchains/arm-none-eabi/bin/../lib/gcc/arm-none-eabi/4.5.2/../../../../arm-none-eabi/include/c++/4.5.2/bits/stl_list.h ****       _List_const_iterator()
 201:/opt/toolchains/arm-none-eabi/bin/../lib/gcc/arm-none-eabi/4.5.2/../../../../arm-none-eabi/include/c++/4.5.2/bits/stl_list.h ****       : _M_node() { }
 202:/opt/toolchains/arm-none-eabi/bin/../lib/gcc/arm-none-eabi/4.5.2/../../../../arm-none-eabi/include/c++/4.5.2/bits/stl_list.h **** 
 203:/opt/toolchains/arm-none-eabi/bin/../lib/gcc/arm-none-eabi/4.5.2/../../../../arm-none-eabi/include/c++/4.5.2/bits/stl_list.h ****       explicit
 204:/opt/toolchains/arm-none-eabi/bin/../lib/gcc/arm-none-eabi/4.5.2/../../../../arm-none-eabi/include/c++/4.5.2/bits/stl_list.h ****       _List_const_iterator(const _List_node_base* __x)
 205:/opt/toolchains/arm-none-eabi/bin/../lib/gcc/arm-none-eabi/4.5.2/../../../../arm-none-eabi/include/c++/4.5.2/bits/stl_list.h ****       : _M_node(__x) { }
 206:/opt/toolchains/arm-none-eabi/bin/../lib/gcc/arm-none-eabi/4.5.2/../../../../arm-none-eabi/include/c++/4.5.2/bits/stl_list.h **** 
 207:/opt/toolchains/arm-none-eabi/bin/../lib/gcc/arm-none-eabi/4.5.2/../../../../arm-none-eabi/include/c++/4.5.2/bits/stl_list.h ****       _List_const_iterator(const iterator& __x)
 208:/opt/toolchains/arm-none-eabi/bin/../lib/gcc/arm-none-eabi/4.5.2/../../../../arm-none-eabi/include/c++/4.5.2/bits/stl_list.h ****       : _M_node(__x._M_node) { }
 209:/opt/toolchains/arm-none-eabi/bin/../lib/gcc/arm-none-eabi/4.5.2/../../../../arm-none-eabi/include/c++/4.5.2/bits/stl_list.h **** 
 210:/opt/toolchains/arm-none-eabi/bin/../lib/gcc/arm-none-eabi/4.5.2/../../../../arm-none-eabi/include/c++/4.5.2/bits/stl_list.h ****       // Must downcast from List_node_base to _List_node to get to
 211:/opt/toolchains/arm-none-eabi/bin/../lib/gcc/arm-none-eabi/4.5.2/../../../../arm-none-eabi/include/c++/4.5.2/bits/stl_list.h ****       // _M_data.
 212:/opt/toolchains/arm-none-eabi/bin/../lib/gcc/arm-none-eabi/4.5.2/../../../../arm-none-eabi/include/c++/4.5.2/bits/stl_list.h ****       reference
 213:/opt/toolchains/arm-none-eabi/bin/../lib/gcc/arm-none-eabi/4.5.2/../../../../arm-none-eabi/include/c++/4.5.2/bits/stl_list.h ****       operator*() const
 214:/opt/toolchains/arm-none-eabi/bin/../lib/gcc/arm-none-eabi/4.5.2/../../../../arm-none-eabi/include/c++/4.5.2/bits/stl_list.h ****       { return static_cast<_Node*>(_M_node)->_M_data; }
 215:/opt/toolchains/arm-none-eabi/bin/../lib/gcc/arm-none-eabi/4.5.2/../../../../arm-none-eabi/include/c++/4.5.2/bits/stl_list.h **** 
 216:/opt/toolchains/arm-none-eabi/bin/../lib/gcc/arm-none-eabi/4.5.2/../../../../arm-none-eabi/include/c++/4.5.2/bits/stl_list.h ****       pointer
 217:/opt/toolchains/arm-none-eabi/bin/../lib/gcc/arm-none-eabi/4.5.2/../../../../arm-none-eabi/include/c++/4.5.2/bits/stl_list.h ****       operator->() const
 218:/opt/toolchains/arm-none-eabi/bin/../lib/gcc/arm-none-eabi/4.5.2/../../../../arm-none-eabi/include/c++/4.5.2/bits/stl_list.h ****       { return &static_cast<_Node*>(_M_node)->_M_data; }
 219:/opt/toolchains/arm-none-eabi/bin/../lib/gcc/arm-none-eabi/4.5.2/../../../../arm-none-eabi/include/c++/4.5.2/bits/stl_list.h **** 
 220:/opt/toolchains/arm-none-eabi/bin/../lib/gcc/arm-none-eabi/4.5.2/../../../../arm-none-eabi/include/c++/4.5.2/bits/stl_list.h ****       _Self&
 221:/opt/toolchains/arm-none-eabi/bin/../lib/gcc/arm-none-eabi/4.5.2/../../../../arm-none-eabi/include/c++/4.5.2/bits/stl_list.h ****       operator++()
 222:/opt/toolchains/arm-none-eabi/bin/../lib/gcc/arm-none-eabi/4.5.2/../../../../arm-none-eabi/include/c++/4.5.2/bits/stl_list.h ****       {
 223:/opt/toolchains/arm-none-eabi/bin/../lib/gcc/arm-none-eabi/4.5.2/../../../../arm-none-eabi/include/c++/4.5.2/bits/stl_list.h **** 	_M_node = _M_node->_M_next;
 224:/opt/toolchains/arm-none-eabi/bin/../lib/gcc/arm-none-eabi/4.5.2/../../../../arm-none-eabi/include/c++/4.5.2/bits/stl_list.h **** 	return *this;
 225:/opt/toolchains/arm-none-eabi/bin/../lib/gcc/arm-none-eabi/4.5.2/../../../../arm-none-eabi/include/c++/4.5.2/bits/stl_list.h ****       }
 226:/opt/toolchains/arm-none-eabi/bin/../lib/gcc/arm-none-eabi/4.5.2/../../../../arm-none-eabi/include/c++/4.5.2/bits/stl_list.h **** 
 227:/opt/toolchains/arm-none-eabi/bin/../lib/gcc/arm-none-eabi/4.5.2/../../../../arm-none-eabi/include/c++/4.5.2/bits/stl_list.h ****       _Self
 228:/opt/toolchains/arm-none-eabi/bin/../lib/gcc/arm-none-eabi/4.5.2/../../../../arm-none-eabi/include/c++/4.5.2/bits/stl_list.h ****       operator++(int)
 229:/opt/toolchains/arm-none-eabi/bin/../lib/gcc/arm-none-eabi/4.5.2/../../../../arm-none-eabi/include/c++/4.5.2/bits/stl_list.h ****       {
 230:/opt/toolchains/arm-none-eabi/bin/../lib/gcc/arm-none-eabi/4.5.2/../../../../arm-none-eabi/include/c++/4.5.2/bits/stl_list.h **** 	_Self __tmp = *this;
 231:/opt/toolchains/arm-none-eabi/bin/../lib/gcc/arm-none-eabi/4.5.2/../../../../arm-none-eabi/include/c++/4.5.2/bits/stl_list.h **** 	_M_node = _M_node->_M_next;
 232:/opt/toolchains/arm-none-eabi/bin/../lib/gcc/arm-none-eabi/4.5.2/../../../../arm-none-eabi/include/c++/4.5.2/bits/stl_list.h **** 	return __tmp;
 233:/opt/toolchains/arm-none-eabi/bin/../lib/gcc/arm-none-eabi/4.5.2/../../../../arm-none-eabi/include/c++/4.5.2/bits/stl_list.h ****       }
 234:/opt/toolchains/arm-none-eabi/bin/../lib/gcc/arm-none-eabi/4.5.2/../../../../arm-none-eabi/include/c++/4.5.2/bits/stl_list.h **** 
 235:/opt/toolchains/arm-none-eabi/bin/../lib/gcc/arm-none-eabi/4.5.2/../../../../arm-none-eabi/include/c++/4.5.2/bits/stl_list.h ****       _Self&
 236:/opt/toolchains/arm-none-eabi/bin/../lib/gcc/arm-none-eabi/4.5.2/../../../../arm-none-eabi/include/c++/4.5.2/bits/stl_list.h ****       operator--()
 237:/opt/toolchains/arm-none-eabi/bin/../lib/gcc/arm-none-eabi/4.5.2/../../../../arm-none-eabi/include/c++/4.5.2/bits/stl_list.h ****       {
 238:/opt/toolchains/arm-none-eabi/bin/../lib/gcc/arm-none-eabi/4.5.2/../../../../arm-none-eabi/include/c++/4.5.2/bits/stl_list.h **** 	_M_node = _M_node->_M_prev;
 239:/opt/toolchains/arm-none-eabi/bin/../lib/gcc/arm-none-eabi/4.5.2/../../../../arm-none-eabi/include/c++/4.5.2/bits/stl_list.h **** 	return *this;
 240:/opt/toolchains/arm-none-eabi/bin/../lib/gcc/arm-none-eabi/4.5.2/../../../../arm-none-eabi/include/c++/4.5.2/bits/stl_list.h ****       }
 241:/opt/toolchains/arm-none-eabi/bin/../lib/gcc/arm-none-eabi/4.5.2/../../../../arm-none-eabi/include/c++/4.5.2/bits/stl_list.h **** 
 242:/opt/toolchains/arm-none-eabi/bin/../lib/gcc/arm-none-eabi/4.5.2/../../../../arm-none-eabi/include/c++/4.5.2/bits/stl_list.h ****       _Self
 243:/opt/toolchains/arm-none-eabi/bin/../lib/gcc/arm-none-eabi/4.5.2/../../../../arm-none-eabi/include/c++/4.5.2/bits/stl_list.h ****       operator--(int)
 244:/opt/toolchains/arm-none-eabi/bin/../lib/gcc/arm-none-eabi/4.5.2/../../../../arm-none-eabi/include/c++/4.5.2/bits/stl_list.h ****       {
 245:/opt/toolchains/arm-none-eabi/bin/../lib/gcc/arm-none-eabi/4.5.2/../../../../arm-none-eabi/include/c++/4.5.2/bits/stl_list.h **** 	_Self __tmp = *this;
 246:/opt/toolchains/arm-none-eabi/bin/../lib/gcc/arm-none-eabi/4.5.2/../../../../arm-none-eabi/include/c++/4.5.2/bits/stl_list.h **** 	_M_node = _M_node->_M_prev;
 247:/opt/toolchains/arm-none-eabi/bin/../lib/gcc/arm-none-eabi/4.5.2/../../../../arm-none-eabi/include/c++/4.5.2/bits/stl_list.h **** 	return __tmp;
 248:/opt/toolchains/arm-none-eabi/bin/../lib/gcc/arm-none-eabi/4.5.2/../../../../arm-none-eabi/include/c++/4.5.2/bits/stl_list.h ****       }
 249:/opt/toolchains/arm-none-eabi/bin/../lib/gcc/arm-none-eabi/4.5.2/../../../../arm-none-eabi/include/c++/4.5.2/bits/stl_list.h **** 
 250:/opt/toolchains/arm-none-eabi/bin/../lib/gcc/arm-none-eabi/4.5.2/../../../../arm-none-eabi/include/c++/4.5.2/bits/stl_list.h ****       bool
 251:/opt/toolchains/arm-none-eabi/bin/../lib/gcc/arm-none-eabi/4.5.2/../../../../arm-none-eabi/include/c++/4.5.2/bits/stl_list.h ****       operator==(const _Self& __x) const
 252:/opt/toolchains/arm-none-eabi/bin/../lib/gcc/arm-none-eabi/4.5.2/../../../../arm-none-eabi/include/c++/4.5.2/bits/stl_list.h ****       { return _M_node == __x._M_node; }
 253:/opt/toolchains/arm-none-eabi/bin/../lib/gcc/arm-none-eabi/4.5.2/../../../../arm-none-eabi/include/c++/4.5.2/bits/stl_list.h **** 
 254:/opt/toolchains/arm-none-eabi/bin/../lib/gcc/arm-none-eabi/4.5.2/../../../../arm-none-eabi/include/c++/4.5.2/bits/stl_list.h ****       bool
 255:/opt/toolchains/arm-none-eabi/bin/../lib/gcc/arm-none-eabi/4.5.2/../../../../arm-none-eabi/include/c++/4.5.2/bits/stl_list.h ****       operator!=(const _Self& __x) const
 256:/opt/toolchains/arm-none-eabi/bin/../lib/gcc/arm-none-eabi/4.5.2/../../../../arm-none-eabi/include/c++/4.5.2/bits/stl_list.h ****       { return _M_node != __x._M_node; }
 257:/opt/toolchains/arm-none-eabi/bin/../lib/gcc/arm-none-eabi/4.5.2/../../../../arm-none-eabi/include/c++/4.5.2/bits/stl_list.h **** 
 258:/opt/toolchains/arm-none-eabi/bin/../lib/gcc/arm-none-eabi/4.5.2/../../../../arm-none-eabi/include/c++/4.5.2/bits/stl_list.h ****       // The only member points to the %list element.
 259:/opt/toolchains/arm-none-eabi/bin/../lib/gcc/arm-none-eabi/4.5.2/../../../../arm-none-eabi/include/c++/4.5.2/bits/stl_list.h ****       const _List_node_base* _M_node;
 260:/opt/toolchains/arm-none-eabi/bin/../lib/gcc/arm-none-eabi/4.5.2/../../../../arm-none-eabi/include/c++/4.5.2/bits/stl_list.h ****     };
 261:/opt/toolchains/arm-none-eabi/bin/../lib/gcc/arm-none-eabi/4.5.2/../../../../arm-none-eabi/include/c++/4.5.2/bits/stl_list.h **** 
 262:/opt/toolchains/arm-none-eabi/bin/../lib/gcc/arm-none-eabi/4.5.2/../../../../arm-none-eabi/include/c++/4.5.2/bits/stl_list.h ****   template<typename _Val>
 263:/opt/toolchains/arm-none-eabi/bin/../lib/gcc/arm-none-eabi/4.5.2/../../../../arm-none-eabi/include/c++/4.5.2/bits/stl_list.h ****     inline bool
 264:/opt/toolchains/arm-none-eabi/bin/../lib/gcc/arm-none-eabi/4.5.2/../../../../arm-none-eabi/include/c++/4.5.2/bits/stl_list.h ****     operator==(const _List_iterator<_Val>& __x,
 265:/opt/toolchains/arm-none-eabi/bin/../lib/gcc/arm-none-eabi/4.5.2/../../../../arm-none-eabi/include/c++/4.5.2/bits/stl_list.h **** 	       const _List_const_iterator<_Val>& __y)
 266:/opt/toolchains/arm-none-eabi/bin/../lib/gcc/arm-none-eabi/4.5.2/../../../../arm-none-eabi/include/c++/4.5.2/bits/stl_list.h ****     { return __x._M_node == __y._M_node; }
 267:/opt/toolchains/arm-none-eabi/bin/../lib/gcc/arm-none-eabi/4.5.2/../../../../arm-none-eabi/include/c++/4.5.2/bits/stl_list.h **** 
 268:/opt/toolchains/arm-none-eabi/bin/../lib/gcc/arm-none-eabi/4.5.2/../../../../arm-none-eabi/include/c++/4.5.2/bits/stl_list.h ****   template<typename _Val>
 269:/opt/toolchains/arm-none-eabi/bin/../lib/gcc/arm-none-eabi/4.5.2/../../../../arm-none-eabi/include/c++/4.5.2/bits/stl_list.h ****     inline bool
 270:/opt/toolchains/arm-none-eabi/bin/../lib/gcc/arm-none-eabi/4.5.2/../../../../arm-none-eabi/include/c++/4.5.2/bits/stl_list.h ****     operator!=(const _List_iterator<_Val>& __x,
 271:/opt/toolchains/arm-none-eabi/bin/../lib/gcc/arm-none-eabi/4.5.2/../../../../arm-none-eabi/include/c++/4.5.2/bits/stl_list.h ****                const _List_const_iterator<_Val>& __y)
 272:/opt/toolchains/arm-none-eabi/bin/../lib/gcc/arm-none-eabi/4.5.2/../../../../arm-none-eabi/include/c++/4.5.2/bits/stl_list.h ****     { return __x._M_node != __y._M_node; }
 273:/opt/toolchains/arm-none-eabi/bin/../lib/gcc/arm-none-eabi/4.5.2/../../../../arm-none-eabi/include/c++/4.5.2/bits/stl_list.h **** 
 274:/opt/toolchains/arm-none-eabi/bin/../lib/gcc/arm-none-eabi/4.5.2/../../../../arm-none-eabi/include/c++/4.5.2/bits/stl_list.h **** 
 275:/opt/toolchains/arm-none-eabi/bin/../lib/gcc/arm-none-eabi/4.5.2/../../../../arm-none-eabi/include/c++/4.5.2/bits/stl_list.h ****   /// See bits/stl_deque.h's _Deque_base for an explanation.
 276:/opt/toolchains/arm-none-eabi/bin/../lib/gcc/arm-none-eabi/4.5.2/../../../../arm-none-eabi/include/c++/4.5.2/bits/stl_list.h ****   template<typename _Tp, typename _Alloc>
 277:/opt/toolchains/arm-none-eabi/bin/../lib/gcc/arm-none-eabi/4.5.2/../../../../arm-none-eabi/include/c++/4.5.2/bits/stl_list.h ****     class _List_base
 278:/opt/toolchains/arm-none-eabi/bin/../lib/gcc/arm-none-eabi/4.5.2/../../../../arm-none-eabi/include/c++/4.5.2/bits/stl_list.h ****     {
 279:/opt/toolchains/arm-none-eabi/bin/../lib/gcc/arm-none-eabi/4.5.2/../../../../arm-none-eabi/include/c++/4.5.2/bits/stl_list.h ****     protected:
 280:/opt/toolchains/arm-none-eabi/bin/../lib/gcc/arm-none-eabi/4.5.2/../../../../arm-none-eabi/include/c++/4.5.2/bits/stl_list.h ****       // NOTA BENE
 281:/opt/toolchains/arm-none-eabi/bin/../lib/gcc/arm-none-eabi/4.5.2/../../../../arm-none-eabi/include/c++/4.5.2/bits/stl_list.h ****       // The stored instance is not actually of "allocator_type"'s
 282:/opt/toolchains/arm-none-eabi/bin/../lib/gcc/arm-none-eabi/4.5.2/../../../../arm-none-eabi/include/c++/4.5.2/bits/stl_list.h ****       // type.  Instead we rebind the type to
 283:/opt/toolchains/arm-none-eabi/bin/../lib/gcc/arm-none-eabi/4.5.2/../../../../arm-none-eabi/include/c++/4.5.2/bits/stl_list.h ****       // Allocator<List_node<Tp>>, which according to [20.1.5]/4
 284:/opt/toolchains/arm-none-eabi/bin/../lib/gcc/arm-none-eabi/4.5.2/../../../../arm-none-eabi/include/c++/4.5.2/bits/stl_list.h ****       // should probably be the same.  List_node<Tp> is not the same
 285:/opt/toolchains/arm-none-eabi/bin/../lib/gcc/arm-none-eabi/4.5.2/../../../../arm-none-eabi/include/c++/4.5.2/bits/stl_list.h ****       // size as Tp (it's two pointers larger), and specializations on
 286:/opt/toolchains/arm-none-eabi/bin/../lib/gcc/arm-none-eabi/4.5.2/../../../../arm-none-eabi/include/c++/4.5.2/bits/stl_list.h ****       // Tp may go unused because List_node<Tp> is being bound
 287:/opt/toolchains/arm-none-eabi/bin/../lib/gcc/arm-none-eabi/4.5.2/../../../../arm-none-eabi/include/c++/4.5.2/bits/stl_list.h ****       // instead.
 288:/opt/toolchains/arm-none-eabi/bin/../lib/gcc/arm-none-eabi/4.5.2/../../../../arm-none-eabi/include/c++/4.5.2/bits/stl_list.h ****       //
 289:/opt/toolchains/arm-none-eabi/bin/../lib/gcc/arm-none-eabi/4.5.2/../../../../arm-none-eabi/include/c++/4.5.2/bits/stl_list.h ****       // We put this to the test in the constructors and in
 290:/opt/toolchains/arm-none-eabi/bin/../lib/gcc/arm-none-eabi/4.5.2/../../../../arm-none-eabi/include/c++/4.5.2/bits/stl_list.h ****       // get_allocator, where we use conversions between
 291:/opt/toolchains/arm-none-eabi/bin/../lib/gcc/arm-none-eabi/4.5.2/../../../../arm-none-eabi/include/c++/4.5.2/bits/stl_list.h ****       // allocator_type and _Node_alloc_type. The conversion is
 292:/opt/toolchains/arm-none-eabi/bin/../lib/gcc/arm-none-eabi/4.5.2/../../../../arm-none-eabi/include/c++/4.5.2/bits/stl_list.h ****       // required by table 32 in [20.1.5].
 293:/opt/toolchains/arm-none-eabi/bin/../lib/gcc/arm-none-eabi/4.5.2/../../../../arm-none-eabi/include/c++/4.5.2/bits/stl_list.h ****       typedef typename _Alloc::template rebind<_List_node<_Tp> >::other
 294:/opt/toolchains/arm-none-eabi/bin/../lib/gcc/arm-none-eabi/4.5.2/../../../../arm-none-eabi/include/c++/4.5.2/bits/stl_list.h ****         _Node_alloc_type;
 295:/opt/toolchains/arm-none-eabi/bin/../lib/gcc/arm-none-eabi/4.5.2/../../../../arm-none-eabi/include/c++/4.5.2/bits/stl_list.h **** 
 296:/opt/toolchains/arm-none-eabi/bin/../lib/gcc/arm-none-eabi/4.5.2/../../../../arm-none-eabi/include/c++/4.5.2/bits/stl_list.h ****       typedef typename _Alloc::template rebind<_Tp>::other _Tp_alloc_type;
 297:/opt/toolchains/arm-none-eabi/bin/../lib/gcc/arm-none-eabi/4.5.2/../../../../arm-none-eabi/include/c++/4.5.2/bits/stl_list.h **** 
 298:/opt/toolchains/arm-none-eabi/bin/../lib/gcc/arm-none-eabi/4.5.2/../../../../arm-none-eabi/include/c++/4.5.2/bits/stl_list.h ****       struct _List_impl 
 299:/opt/toolchains/arm-none-eabi/bin/../lib/gcc/arm-none-eabi/4.5.2/../../../../arm-none-eabi/include/c++/4.5.2/bits/stl_list.h ****       : public _Node_alloc_type
 300:/opt/toolchains/arm-none-eabi/bin/../lib/gcc/arm-none-eabi/4.5.2/../../../../arm-none-eabi/include/c++/4.5.2/bits/stl_list.h ****       {
 301:/opt/toolchains/arm-none-eabi/bin/../lib/gcc/arm-none-eabi/4.5.2/../../../../arm-none-eabi/include/c++/4.5.2/bits/stl_list.h **** 	_List_node_base _M_node;
 302:/opt/toolchains/arm-none-eabi/bin/../lib/gcc/arm-none-eabi/4.5.2/../../../../arm-none-eabi/include/c++/4.5.2/bits/stl_list.h **** 
 303:/opt/toolchains/arm-none-eabi/bin/../lib/gcc/arm-none-eabi/4.5.2/../../../../arm-none-eabi/include/c++/4.5.2/bits/stl_list.h **** 	_List_impl()
 304:/opt/toolchains/arm-none-eabi/bin/../lib/gcc/arm-none-eabi/4.5.2/../../../../arm-none-eabi/include/c++/4.5.2/bits/stl_list.h **** 	: _Node_alloc_type(), _M_node()
 305:/opt/toolchains/arm-none-eabi/bin/../lib/gcc/arm-none-eabi/4.5.2/../../../../arm-none-eabi/include/c++/4.5.2/bits/stl_list.h **** 	{ }
 306:/opt/toolchains/arm-none-eabi/bin/../lib/gcc/arm-none-eabi/4.5.2/../../../../arm-none-eabi/include/c++/4.5.2/bits/stl_list.h **** 
 307:/opt/toolchains/arm-none-eabi/bin/../lib/gcc/arm-none-eabi/4.5.2/../../../../arm-none-eabi/include/c++/4.5.2/bits/stl_list.h **** 	_List_impl(const _Node_alloc_type& __a)
 308:/opt/toolchains/arm-none-eabi/bin/../lib/gcc/arm-none-eabi/4.5.2/../../../../arm-none-eabi/include/c++/4.5.2/bits/stl_list.h **** 	: _Node_alloc_type(__a), _M_node()
 309:/opt/toolchains/arm-none-eabi/bin/../lib/gcc/arm-none-eabi/4.5.2/../../../../arm-none-eabi/include/c++/4.5.2/bits/stl_list.h **** 	{ }
 310:/opt/toolchains/arm-none-eabi/bin/../lib/gcc/arm-none-eabi/4.5.2/../../../../arm-none-eabi/include/c++/4.5.2/bits/stl_list.h ****       };
 311:/opt/toolchains/arm-none-eabi/bin/../lib/gcc/arm-none-eabi/4.5.2/../../../../arm-none-eabi/include/c++/4.5.2/bits/stl_list.h **** 
 312:/opt/toolchains/arm-none-eabi/bin/../lib/gcc/arm-none-eabi/4.5.2/../../../../arm-none-eabi/include/c++/4.5.2/bits/stl_list.h ****       _List_impl _M_impl;
 313:/opt/toolchains/arm-none-eabi/bin/../lib/gcc/arm-none-eabi/4.5.2/../../../../arm-none-eabi/include/c++/4.5.2/bits/stl_list.h **** 
 314:/opt/toolchains/arm-none-eabi/bin/../lib/gcc/arm-none-eabi/4.5.2/../../../../arm-none-eabi/include/c++/4.5.2/bits/stl_list.h ****       _List_node<_Tp>*
 315:/opt/toolchains/arm-none-eabi/bin/../lib/gcc/arm-none-eabi/4.5.2/../../../../arm-none-eabi/include/c++/4.5.2/bits/stl_list.h ****       _M_get_node()
 316:/opt/toolchains/arm-none-eabi/bin/../lib/gcc/arm-none-eabi/4.5.2/../../../../arm-none-eabi/include/c++/4.5.2/bits/stl_list.h ****       { return _M_impl._Node_alloc_type::allocate(1); }
 317:/opt/toolchains/arm-none-eabi/bin/../lib/gcc/arm-none-eabi/4.5.2/../../../../arm-none-eabi/include/c++/4.5.2/bits/stl_list.h ****       
 318:/opt/toolchains/arm-none-eabi/bin/../lib/gcc/arm-none-eabi/4.5.2/../../../../arm-none-eabi/include/c++/4.5.2/bits/stl_list.h ****       void
 319:/opt/toolchains/arm-none-eabi/bin/../lib/gcc/arm-none-eabi/4.5.2/../../../../arm-none-eabi/include/c++/4.5.2/bits/stl_list.h ****       _M_put_node(_List_node<_Tp>* __p)
 320:/opt/toolchains/arm-none-eabi/bin/../lib/gcc/arm-none-eabi/4.5.2/../../../../arm-none-eabi/include/c++/4.5.2/bits/stl_list.h ****       { _M_impl._Node_alloc_type::deallocate(__p, 1); }
 321:/opt/toolchains/arm-none-eabi/bin/../lib/gcc/arm-none-eabi/4.5.2/../../../../arm-none-eabi/include/c++/4.5.2/bits/stl_list.h ****       
 322:/opt/toolchains/arm-none-eabi/bin/../lib/gcc/arm-none-eabi/4.5.2/../../../../arm-none-eabi/include/c++/4.5.2/bits/stl_list.h ****   public:
 323:/opt/toolchains/arm-none-eabi/bin/../lib/gcc/arm-none-eabi/4.5.2/../../../../arm-none-eabi/include/c++/4.5.2/bits/stl_list.h ****       typedef _Alloc allocator_type;
 324:/opt/toolchains/arm-none-eabi/bin/../lib/gcc/arm-none-eabi/4.5.2/../../../../arm-none-eabi/include/c++/4.5.2/bits/stl_list.h **** 
 325:/opt/toolchains/arm-none-eabi/bin/../lib/gcc/arm-none-eabi/4.5.2/../../../../arm-none-eabi/include/c++/4.5.2/bits/stl_list.h ****       _Node_alloc_type&
 326:/opt/toolchains/arm-none-eabi/bin/../lib/gcc/arm-none-eabi/4.5.2/../../../../arm-none-eabi/include/c++/4.5.2/bits/stl_list.h ****       _M_get_Node_allocator()
 327:/opt/toolchains/arm-none-eabi/bin/../lib/gcc/arm-none-eabi/4.5.2/../../../../arm-none-eabi/include/c++/4.5.2/bits/stl_list.h ****       { return *static_cast<_Node_alloc_type*>(&this->_M_impl); }
 328:/opt/toolchains/arm-none-eabi/bin/../lib/gcc/arm-none-eabi/4.5.2/../../../../arm-none-eabi/include/c++/4.5.2/bits/stl_list.h **** 
 329:/opt/toolchains/arm-none-eabi/bin/../lib/gcc/arm-none-eabi/4.5.2/../../../../arm-none-eabi/include/c++/4.5.2/bits/stl_list.h ****       const _Node_alloc_type&
 330:/opt/toolchains/arm-none-eabi/bin/../lib/gcc/arm-none-eabi/4.5.2/../../../../arm-none-eabi/include/c++/4.5.2/bits/stl_list.h ****       _M_get_Node_allocator() const
 331:/opt/toolchains/arm-none-eabi/bin/../lib/gcc/arm-none-eabi/4.5.2/../../../../arm-none-eabi/include/c++/4.5.2/bits/stl_list.h ****       { return *static_cast<const _Node_alloc_type*>(&this->_M_impl); }
 332:/opt/toolchains/arm-none-eabi/bin/../lib/gcc/arm-none-eabi/4.5.2/../../../../arm-none-eabi/include/c++/4.5.2/bits/stl_list.h **** 
 333:/opt/toolchains/arm-none-eabi/bin/../lib/gcc/arm-none-eabi/4.5.2/../../../../arm-none-eabi/include/c++/4.5.2/bits/stl_list.h ****       _Tp_alloc_type
 334:/opt/toolchains/arm-none-eabi/bin/../lib/gcc/arm-none-eabi/4.5.2/../../../../arm-none-eabi/include/c++/4.5.2/bits/stl_list.h ****       _M_get_Tp_allocator() const
 335:/opt/toolchains/arm-none-eabi/bin/../lib/gcc/arm-none-eabi/4.5.2/../../../../arm-none-eabi/include/c++/4.5.2/bits/stl_list.h ****       { return _Tp_alloc_type(_M_get_Node_allocator()); }
 336:/opt/toolchains/arm-none-eabi/bin/../lib/gcc/arm-none-eabi/4.5.2/../../../../arm-none-eabi/include/c++/4.5.2/bits/stl_list.h **** 
 337:/opt/toolchains/arm-none-eabi/bin/../lib/gcc/arm-none-eabi/4.5.2/../../../../arm-none-eabi/include/c++/4.5.2/bits/stl_list.h ****       allocator_type
 338:/opt/toolchains/arm-none-eabi/bin/../lib/gcc/arm-none-eabi/4.5.2/../../../../arm-none-eabi/include/c++/4.5.2/bits/stl_list.h ****       get_allocator() const
 339:/opt/toolchains/arm-none-eabi/bin/../lib/gcc/arm-none-eabi/4.5.2/../../../../arm-none-eabi/include/c++/4.5.2/bits/stl_list.h ****       { return allocator_type(_M_get_Node_allocator()); }
 340:/opt/toolchains/arm-none-eabi/bin/../lib/gcc/arm-none-eabi/4.5.2/../../../../arm-none-eabi/include/c++/4.5.2/bits/stl_list.h **** 
 341:/opt/toolchains/arm-none-eabi/bin/../lib/gcc/arm-none-eabi/4.5.2/../../../../arm-none-eabi/include/c++/4.5.2/bits/stl_list.h ****       _List_base()
 342:/opt/toolchains/arm-none-eabi/bin/../lib/gcc/arm-none-eabi/4.5.2/../../../../arm-none-eabi/include/c++/4.5.2/bits/stl_list.h ****       : _M_impl()
 343:/opt/toolchains/arm-none-eabi/bin/../lib/gcc/arm-none-eabi/4.5.2/../../../../arm-none-eabi/include/c++/4.5.2/bits/stl_list.h ****       { _M_init(); }
 344:/opt/toolchains/arm-none-eabi/bin/../lib/gcc/arm-none-eabi/4.5.2/../../../../arm-none-eabi/include/c++/4.5.2/bits/stl_list.h **** 
 345:/opt/toolchains/arm-none-eabi/bin/../lib/gcc/arm-none-eabi/4.5.2/../../../../arm-none-eabi/include/c++/4.5.2/bits/stl_list.h ****       _List_base(const allocator_type& __a)
 346:/opt/toolchains/arm-none-eabi/bin/../lib/gcc/arm-none-eabi/4.5.2/../../../../arm-none-eabi/include/c++/4.5.2/bits/stl_list.h ****       : _M_impl(__a)
 347:/opt/toolchains/arm-none-eabi/bin/../lib/gcc/arm-none-eabi/4.5.2/../../../../arm-none-eabi/include/c++/4.5.2/bits/stl_list.h ****       { _M_init(); }
 348:/opt/toolchains/arm-none-eabi/bin/../lib/gcc/arm-none-eabi/4.5.2/../../../../arm-none-eabi/include/c++/4.5.2/bits/stl_list.h **** 
 349:/opt/toolchains/arm-none-eabi/bin/../lib/gcc/arm-none-eabi/4.5.2/../../../../arm-none-eabi/include/c++/4.5.2/bits/stl_list.h **** #ifdef __GXX_EXPERIMENTAL_CXX0X__
 350:/opt/toolchains/arm-none-eabi/bin/../lib/gcc/arm-none-eabi/4.5.2/../../../../arm-none-eabi/include/c++/4.5.2/bits/stl_list.h ****       _List_base(_List_base&& __x)
 351:/opt/toolchains/arm-none-eabi/bin/../lib/gcc/arm-none-eabi/4.5.2/../../../../arm-none-eabi/include/c++/4.5.2/bits/stl_list.h ****       : _M_impl(__x._M_get_Node_allocator())
 352:/opt/toolchains/arm-none-eabi/bin/../lib/gcc/arm-none-eabi/4.5.2/../../../../arm-none-eabi/include/c++/4.5.2/bits/stl_list.h ****       {
 353:/opt/toolchains/arm-none-eabi/bin/../lib/gcc/arm-none-eabi/4.5.2/../../../../arm-none-eabi/include/c++/4.5.2/bits/stl_list.h **** 	_M_init();
 354:/opt/toolchains/arm-none-eabi/bin/../lib/gcc/arm-none-eabi/4.5.2/../../../../arm-none-eabi/include/c++/4.5.2/bits/stl_list.h **** 	_List_node_base::swap(this->_M_impl._M_node, __x._M_impl._M_node);	
 355:/opt/toolchains/arm-none-eabi/bin/../lib/gcc/arm-none-eabi/4.5.2/../../../../arm-none-eabi/include/c++/4.5.2/bits/stl_list.h ****       }
 356:/opt/toolchains/arm-none-eabi/bin/../lib/gcc/arm-none-eabi/4.5.2/../../../../arm-none-eabi/include/c++/4.5.2/bits/stl_list.h **** #endif
 357:/opt/toolchains/arm-none-eabi/bin/../lib/gcc/arm-none-eabi/4.5.2/../../../../arm-none-eabi/include/c++/4.5.2/bits/stl_list.h **** 
 358:/opt/toolchains/arm-none-eabi/bin/../lib/gcc/arm-none-eabi/4.5.2/../../../../arm-none-eabi/include/c++/4.5.2/bits/stl_list.h ****       // This is what actually destroys the list.
 359:/opt/toolchains/arm-none-eabi/bin/../lib/gcc/arm-none-eabi/4.5.2/../../../../arm-none-eabi/include/c++/4.5.2/bits/stl_list.h ****       ~_List_base()
 360:/opt/toolchains/arm-none-eabi/bin/../lib/gcc/arm-none-eabi/4.5.2/../../../../arm-none-eabi/include/c++/4.5.2/bits/stl_list.h ****       { _M_clear(); }
 361:/opt/toolchains/arm-none-eabi/bin/../lib/gcc/arm-none-eabi/4.5.2/../../../../arm-none-eabi/include/c++/4.5.2/bits/stl_list.h **** 
 362:/opt/toolchains/arm-none-eabi/bin/../lib/gcc/arm-none-eabi/4.5.2/../../../../arm-none-eabi/include/c++/4.5.2/bits/stl_list.h ****       void
 363:/opt/toolchains/arm-none-eabi/bin/../lib/gcc/arm-none-eabi/4.5.2/../../../../arm-none-eabi/include/c++/4.5.2/bits/stl_list.h ****       _M_clear();
 364:/opt/toolchains/arm-none-eabi/bin/../lib/gcc/arm-none-eabi/4.5.2/../../../../arm-none-eabi/include/c++/4.5.2/bits/stl_list.h **** 
 365:/opt/toolchains/arm-none-eabi/bin/../lib/gcc/arm-none-eabi/4.5.2/../../../../arm-none-eabi/include/c++/4.5.2/bits/stl_list.h ****       void
 366:/opt/toolchains/arm-none-eabi/bin/../lib/gcc/arm-none-eabi/4.5.2/../../../../arm-none-eabi/include/c++/4.5.2/bits/stl_list.h ****       _M_init()
 367:/opt/toolchains/arm-none-eabi/bin/../lib/gcc/arm-none-eabi/4.5.2/../../../../arm-none-eabi/include/c++/4.5.2/bits/stl_list.h ****       {
 368:/opt/toolchains/arm-none-eabi/bin/../lib/gcc/arm-none-eabi/4.5.2/../../../../arm-none-eabi/include/c++/4.5.2/bits/stl_list.h ****         this->_M_impl._M_node._M_next = &this->_M_impl._M_node;
 369:/opt/toolchains/arm-none-eabi/bin/../lib/gcc/arm-none-eabi/4.5.2/../../../../arm-none-eabi/include/c++/4.5.2/bits/stl_list.h ****         this->_M_impl._M_node._M_prev = &this->_M_impl._M_node;
 370:/opt/toolchains/arm-none-eabi/bin/../lib/gcc/arm-none-eabi/4.5.2/../../../../arm-none-eabi/include/c++/4.5.2/bits/stl_list.h ****       }
 371:/opt/toolchains/arm-none-eabi/bin/../lib/gcc/arm-none-eabi/4.5.2/../../../../arm-none-eabi/include/c++/4.5.2/bits/stl_list.h ****     };
 372:/opt/toolchains/arm-none-eabi/bin/../lib/gcc/arm-none-eabi/4.5.2/../../../../arm-none-eabi/include/c++/4.5.2/bits/stl_list.h **** 
 373:/opt/toolchains/arm-none-eabi/bin/../lib/gcc/arm-none-eabi/4.5.2/../../../../arm-none-eabi/include/c++/4.5.2/bits/stl_list.h ****   /**
 374:/opt/toolchains/arm-none-eabi/bin/../lib/gcc/arm-none-eabi/4.5.2/../../../../arm-none-eabi/include/c++/4.5.2/bits/stl_list.h ****    *  @brief A standard container with linear time access to elements,
 375:/opt/toolchains/arm-none-eabi/bin/../lib/gcc/arm-none-eabi/4.5.2/../../../../arm-none-eabi/include/c++/4.5.2/bits/stl_list.h ****    *  and fixed time insertion/deletion at any point in the sequence.
 376:/opt/toolchains/arm-none-eabi/bin/../lib/gcc/arm-none-eabi/4.5.2/../../../../arm-none-eabi/include/c++/4.5.2/bits/stl_list.h ****    *
 377:/opt/toolchains/arm-none-eabi/bin/../lib/gcc/arm-none-eabi/4.5.2/../../../../arm-none-eabi/include/c++/4.5.2/bits/stl_list.h ****    *  @ingroup sequences
 378:/opt/toolchains/arm-none-eabi/bin/../lib/gcc/arm-none-eabi/4.5.2/../../../../arm-none-eabi/include/c++/4.5.2/bits/stl_list.h ****    *
 379:/opt/toolchains/arm-none-eabi/bin/../lib/gcc/arm-none-eabi/4.5.2/../../../../arm-none-eabi/include/c++/4.5.2/bits/stl_list.h ****    *  Meets the requirements of a <a href="tables.html#65">container</a>, a
 380:/opt/toolchains/arm-none-eabi/bin/../lib/gcc/arm-none-eabi/4.5.2/../../../../arm-none-eabi/include/c++/4.5.2/bits/stl_list.h ****    *  <a href="tables.html#66">reversible container</a>, and a
 381:/opt/toolchains/arm-none-eabi/bin/../lib/gcc/arm-none-eabi/4.5.2/../../../../arm-none-eabi/include/c++/4.5.2/bits/stl_list.h ****    *  <a href="tables.html#67">sequence</a>, including the
 382:/opt/toolchains/arm-none-eabi/bin/../lib/gcc/arm-none-eabi/4.5.2/../../../../arm-none-eabi/include/c++/4.5.2/bits/stl_list.h ****    *  <a href="tables.html#68">optional sequence requirements</a> with the
 383:/opt/toolchains/arm-none-eabi/bin/../lib/gcc/arm-none-eabi/4.5.2/../../../../arm-none-eabi/include/c++/4.5.2/bits/stl_list.h ****    *  %exception of @c at and @c operator[].
 384:/opt/toolchains/arm-none-eabi/bin/../lib/gcc/arm-none-eabi/4.5.2/../../../../arm-none-eabi/include/c++/4.5.2/bits/stl_list.h ****    *
 385:/opt/toolchains/arm-none-eabi/bin/../lib/gcc/arm-none-eabi/4.5.2/../../../../arm-none-eabi/include/c++/4.5.2/bits/stl_list.h ****    *  This is a @e doubly @e linked %list.  Traversal up and down the
 386:/opt/toolchains/arm-none-eabi/bin/../lib/gcc/arm-none-eabi/4.5.2/../../../../arm-none-eabi/include/c++/4.5.2/bits/stl_list.h ****    *  %list requires linear time, but adding and removing elements (or
 387:/opt/toolchains/arm-none-eabi/bin/../lib/gcc/arm-none-eabi/4.5.2/../../../../arm-none-eabi/include/c++/4.5.2/bits/stl_list.h ****    *  @e nodes) is done in constant time, regardless of where the
 388:/opt/toolchains/arm-none-eabi/bin/../lib/gcc/arm-none-eabi/4.5.2/../../../../arm-none-eabi/include/c++/4.5.2/bits/stl_list.h ****    *  change takes place.  Unlike std::vector and std::deque,
 389:/opt/toolchains/arm-none-eabi/bin/../lib/gcc/arm-none-eabi/4.5.2/../../../../arm-none-eabi/include/c++/4.5.2/bits/stl_list.h ****    *  random-access iterators are not provided, so subscripting ( @c
 390:/opt/toolchains/arm-none-eabi/bin/../lib/gcc/arm-none-eabi/4.5.2/../../../../arm-none-eabi/include/c++/4.5.2/bits/stl_list.h ****    *  [] ) access is not allowed.  For algorithms which only need
 391:/opt/toolchains/arm-none-eabi/bin/../lib/gcc/arm-none-eabi/4.5.2/../../../../arm-none-eabi/include/c++/4.5.2/bits/stl_list.h ****    *  sequential access, this lack makes no difference.
 392:/opt/toolchains/arm-none-eabi/bin/../lib/gcc/arm-none-eabi/4.5.2/../../../../arm-none-eabi/include/c++/4.5.2/bits/stl_list.h ****    *
 393:/opt/toolchains/arm-none-eabi/bin/../lib/gcc/arm-none-eabi/4.5.2/../../../../arm-none-eabi/include/c++/4.5.2/bits/stl_list.h ****    *  Also unlike the other standard containers, std::list provides
 394:/opt/toolchains/arm-none-eabi/bin/../lib/gcc/arm-none-eabi/4.5.2/../../../../arm-none-eabi/include/c++/4.5.2/bits/stl_list.h ****    *  specialized algorithms %unique to linked lists, such as
 395:/opt/toolchains/arm-none-eabi/bin/../lib/gcc/arm-none-eabi/4.5.2/../../../../arm-none-eabi/include/c++/4.5.2/bits/stl_list.h ****    *  splicing, sorting, and in-place reversal.
 396:/opt/toolchains/arm-none-eabi/bin/../lib/gcc/arm-none-eabi/4.5.2/../../../../arm-none-eabi/include/c++/4.5.2/bits/stl_list.h ****    *
 397:/opt/toolchains/arm-none-eabi/bin/../lib/gcc/arm-none-eabi/4.5.2/../../../../arm-none-eabi/include/c++/4.5.2/bits/stl_list.h ****    *  A couple points on memory allocation for list<Tp>:
 398:/opt/toolchains/arm-none-eabi/bin/../lib/gcc/arm-none-eabi/4.5.2/../../../../arm-none-eabi/include/c++/4.5.2/bits/stl_list.h ****    *
 399:/opt/toolchains/arm-none-eabi/bin/../lib/gcc/arm-none-eabi/4.5.2/../../../../arm-none-eabi/include/c++/4.5.2/bits/stl_list.h ****    *  First, we never actually allocate a Tp, we allocate
 400:/opt/toolchains/arm-none-eabi/bin/../lib/gcc/arm-none-eabi/4.5.2/../../../../arm-none-eabi/include/c++/4.5.2/bits/stl_list.h ****    *  List_node<Tp>'s and trust [20.1.5]/4 to DTRT.  This is to ensure
 401:/opt/toolchains/arm-none-eabi/bin/../lib/gcc/arm-none-eabi/4.5.2/../../../../arm-none-eabi/include/c++/4.5.2/bits/stl_list.h ****    *  that after elements from %list<X,Alloc1> are spliced into
 402:/opt/toolchains/arm-none-eabi/bin/../lib/gcc/arm-none-eabi/4.5.2/../../../../arm-none-eabi/include/c++/4.5.2/bits/stl_list.h ****    *  %list<X,Alloc2>, destroying the memory of the second %list is a
 403:/opt/toolchains/arm-none-eabi/bin/../lib/gcc/arm-none-eabi/4.5.2/../../../../arm-none-eabi/include/c++/4.5.2/bits/stl_list.h ****    *  valid operation, i.e., Alloc1 giveth and Alloc2 taketh away.
 404:/opt/toolchains/arm-none-eabi/bin/../lib/gcc/arm-none-eabi/4.5.2/../../../../arm-none-eabi/include/c++/4.5.2/bits/stl_list.h ****    *
 405:/opt/toolchains/arm-none-eabi/bin/../lib/gcc/arm-none-eabi/4.5.2/../../../../arm-none-eabi/include/c++/4.5.2/bits/stl_list.h ****    *  Second, a %list conceptually represented as
 406:/opt/toolchains/arm-none-eabi/bin/../lib/gcc/arm-none-eabi/4.5.2/../../../../arm-none-eabi/include/c++/4.5.2/bits/stl_list.h ****    *  @code
 407:/opt/toolchains/arm-none-eabi/bin/../lib/gcc/arm-none-eabi/4.5.2/../../../../arm-none-eabi/include/c++/4.5.2/bits/stl_list.h ****    *    A <---> B <---> C <---> D
 408:/opt/toolchains/arm-none-eabi/bin/../lib/gcc/arm-none-eabi/4.5.2/../../../../arm-none-eabi/include/c++/4.5.2/bits/stl_list.h ****    *  @endcode
 409:/opt/toolchains/arm-none-eabi/bin/../lib/gcc/arm-none-eabi/4.5.2/../../../../arm-none-eabi/include/c++/4.5.2/bits/stl_list.h ****    *  is actually circular; a link exists between A and D.  The %list
 410:/opt/toolchains/arm-none-eabi/bin/../lib/gcc/arm-none-eabi/4.5.2/../../../../arm-none-eabi/include/c++/4.5.2/bits/stl_list.h ****    *  class holds (as its only data member) a private list::iterator
 411:/opt/toolchains/arm-none-eabi/bin/../lib/gcc/arm-none-eabi/4.5.2/../../../../arm-none-eabi/include/c++/4.5.2/bits/stl_list.h ****    *  pointing to @e D, not to @e A!  To get to the head of the %list,
 412:/opt/toolchains/arm-none-eabi/bin/../lib/gcc/arm-none-eabi/4.5.2/../../../../arm-none-eabi/include/c++/4.5.2/bits/stl_list.h ****    *  we start at the tail and move forward by one.  When this member
 413:/opt/toolchains/arm-none-eabi/bin/../lib/gcc/arm-none-eabi/4.5.2/../../../../arm-none-eabi/include/c++/4.5.2/bits/stl_list.h ****    *  iterator's next/previous pointers refer to itself, the %list is
 414:/opt/toolchains/arm-none-eabi/bin/../lib/gcc/arm-none-eabi/4.5.2/../../../../arm-none-eabi/include/c++/4.5.2/bits/stl_list.h ****    *  %empty. 
 415:/opt/toolchains/arm-none-eabi/bin/../lib/gcc/arm-none-eabi/4.5.2/../../../../arm-none-eabi/include/c++/4.5.2/bits/stl_list.h ****   */
 416:/opt/toolchains/arm-none-eabi/bin/../lib/gcc/arm-none-eabi/4.5.2/../../../../arm-none-eabi/include/c++/4.5.2/bits/stl_list.h ****   template<typename _Tp, typename _Alloc = std::allocator<_Tp> >
 417:/opt/toolchains/arm-none-eabi/bin/../lib/gcc/arm-none-eabi/4.5.2/../../../../arm-none-eabi/include/c++/4.5.2/bits/stl_list.h ****     class list : protected _List_base<_Tp, _Alloc>
 418:/opt/toolchains/arm-none-eabi/bin/../lib/gcc/arm-none-eabi/4.5.2/../../../../arm-none-eabi/include/c++/4.5.2/bits/stl_list.h ****     {
 4028              		.loc 28 418 0
 4029              		.cfi_startproc
 4030              		@ args = 0, pretend = 0, frame = 8
 4031              		@ frame_needed = 1, uses_anonymous_args = 0
 4032 0000 80B5     		push	{r7, lr}
 4033              	.LCFI6:
 4034              		.cfi_def_cfa_offset 8
 4035 0002 82B0     		sub	sp, sp, #8
 4036              	.LCFI7:
 4037              		.cfi_def_cfa_offset 16
 4038 0004 00AF     		add	r7, sp, #0
 4039              		.cfi_offset 14, -4
 4040              		.cfi_offset 7, -8
 4041              	.LCFI8:
 4042              		.cfi_def_cfa_register 7
 4043 0006 7860     		str	r0, [r7, #4]
 4044              	.LBB2:
 4045              		.loc 28 418 0
 4046 0008 7B68     		ldr	r3, [r7, #4]
 4047 000a 1846     		mov	r0, r3
 4048 000c FFF7FEFF 		bl	_ZNSt10_List_baseIPN5Air3T5IViewESaIS2_EED2Ev
 4049              	.LBE2:
 4050 0010 7B68     		ldr	r3, [r7, #4]
 4051 0012 1846     		mov	r0, r3
 4052 0014 07F10807 		add	r7, r7, #8
 4053 0018 BD46     		mov	sp, r7
 4054 001a 80BD     		pop	{r7, pc}
 4055              		.cfi_endproc
 4056              	.LFE888:
 4058              		.weak	_ZNSt4listIPN5Air3T5IViewESaIS2_EED1Ev
 4059              		.thumb_set _ZNSt4listIPN5Air3T5IViewESaIS2_EED1Ev,_ZNSt4listIPN5Air3T5IViewESaIS2_EED2Ev
 4060              		.section	.text._ZNSt4listIN5Air3T6PlayerESaIS1_EED2Ev,"axG",%progbits,_ZNSt4listIN5Air3T6PlayerESa
 4061              		.align	2
 4062              		.weak	_ZNSt4listIN5Air3T6PlayerESaIS1_EED2Ev
 4063              		.thumb
 4064              		.thumb_func
 4066              	_ZNSt4listIN5Air3T6PlayerESaIS1_EED2Ev:
 4067              	.LFB891:
 4068              		.loc 28 418 0
 4069              		.cfi_startproc
 4070              		@ args = 0, pretend = 0, frame = 8
 4071              		@ frame_needed = 1, uses_anonymous_args = 0
 4072 0000 80B5     		push	{r7, lr}
 4073              	.LCFI9:
 4074              		.cfi_def_cfa_offset 8
 4075 0002 82B0     		sub	sp, sp, #8
 4076              	.LCFI10:
 4077              		.cfi_def_cfa_offset 16
 4078 0004 00AF     		add	r7, sp, #0
 4079              		.cfi_offset 14, -4
 4080              		.cfi_offset 7, -8
 4081              	.LCFI11:
 4082              		.cfi_def_cfa_register 7
 4083 0006 7860     		str	r0, [r7, #4]
 4084              	.LBB3:
 4085              		.loc 28 418 0
 4086 0008 7B68     		ldr	r3, [r7, #4]
 4087 000a 1846     		mov	r0, r3
 4088 000c FFF7FEFF 		bl	_ZNSt10_List_baseIN5Air3T6PlayerESaIS1_EED2Ev
 4089              	.LBE3:
 4090 0010 7B68     		ldr	r3, [r7, #4]
 4091 0012 1846     		mov	r0, r3
 4092 0014 07F10807 		add	r7, r7, #8
 4093 0018 BD46     		mov	sp, r7
 4094 001a 80BD     		pop	{r7, pc}
 4095              		.cfi_endproc
 4096              	.LFE891:
 4098              		.weak	_ZNSt4listIN5Air3T6PlayerESaIS1_EED1Ev
 4099              		.thumb_set _ZNSt4listIN5Air3T6PlayerESaIS1_EED1Ev,_ZNSt4listIN5Air3T6PlayerESaIS1_EED2Ev
 4100              		.section	.text._ZN5Air3T5ModelC2Ev,"ax",%progbits
 4101              		.align	2
 4102              		.global	_ZN5Air3T5ModelC2Ev
 4103              		.thumb
 4104              		.thumb_func
 4106              	_ZN5Air3T5ModelC2Ev:
 4107              	.LFB893:
   1:../air3t/data/model.cpp **** #include "Model"
   2:../air3t/data/model.cpp **** #include <assert.h>
   3:../air3t/data/model.cpp **** #include "../ui/IView"
   4:../air3t/data/model.cpp **** 
   5:../air3t/data/model.cpp **** namespace Air3T
   6:../air3t/data/model.cpp **** {
   7:../air3t/data/model.cpp **** 	Model::Model() : _gamefield( *this ) , _statistics( *this )
 4108              		.loc 1 7 0
 4109              		.cfi_startproc
 4110              		@ args = 0, pretend = 0, frame = 8
 4111              		@ frame_needed = 1, uses_anonymous_args = 0
 4112 0000 80B5     		push	{r7, lr}
 4113              	.LCFI12:
 4114              		.cfi_def_cfa_offset 8
 4115 0002 82B0     		sub	sp, sp, #8
 4116              	.LCFI13:
 4117              		.cfi_def_cfa_offset 16
 4118 0004 00AF     		add	r7, sp, #0
 4119              		.cfi_offset 14, -4
 4120              		.cfi_offset 7, -8
 4121              	.LCFI14:
 4122              		.cfi_def_cfa_register 7
 4123 0006 7860     		str	r0, [r7, #4]
 4124              	.LBB4:
 4125              		.loc 1 7 0
 4126 0008 7B68     		ldr	r3, [r7, #4]
 4127 000a 114A     		ldr	r2, .L9
 4128 000c 1A60     		str	r2, [r3, #0]
 4129 000e 7B68     		ldr	r3, [r7, #4]
 4130 0010 03F10403 		add	r3, r3, #4
 4131 0014 1846     		mov	r0, r3
 4132 0016 FFF7FEFF 		bl	_ZNSt4listIPN5Air3T5IViewESaIS2_EEC1Ev
 4133 001a 7B68     		ldr	r3, [r7, #4]
 4134 001c 03F10C03 		add	r3, r3, #12
 4135 0020 1846     		mov	r0, r3
 4136 0022 FFF7FEFF 		bl	_ZNSt4listIN5Air3T6PlayerESaIS1_EEC1Ev
 4137 0026 7B68     		ldr	r3, [r7, #4]
 4138 0028 03F11403 		add	r3, r3, #20
 4139 002c 1846     		mov	r0, r3
 4140 002e 7968     		ldr	r1, [r7, #4]
 4141 0030 FFF7FEFF 		bl	_ZN5Air3T9GameFieldC1ERNS_5ModelE
 4142 0034 7B68     		ldr	r3, [r7, #4]
 4143 0036 03F12403 		add	r3, r3, #36
 4144 003a 1846     		mov	r0, r3
 4145 003c 7968     		ldr	r1, [r7, #4]
 4146 003e FFF7FEFF 		bl	_ZN5Air3T10StatisticsC1ERNS_5ModelE
 4147              	.LBE4:
   8:../air3t/data/model.cpp **** 	{}
 4148              		.loc 1 8 0
 4149 0042 7B68     		ldr	r3, [r7, #4]
 4150 0044 1846     		mov	r0, r3
 4151 0046 07F10807 		add	r7, r7, #8
 4152 004a BD46     		mov	sp, r7
 4153 004c 80BD     		pop	{r7, pc}
 4154              	.L10:
 4155 004e 00BF     		.align	2
 4156              	.L9:
 4157 0050 08000000 		.word	_ZTVN5Air3T5ModelE+8
 4158              		.cfi_endproc
 4159              	.LFE893:
 4161              		.global	_ZN5Air3T5ModelC1Ev
 4162              		.thumb_set _ZN5Air3T5ModelC1Ev,_ZN5Air3T5ModelC2Ev
 4163              		.section	.text._ZN5Air3T5ModelD2Ev,"ax",%progbits
 4164              		.align	2
 4165              		.global	_ZN5Air3T5ModelD2Ev
 4166              		.thumb
 4167              		.thumb_func
 4169              	_ZN5Air3T5ModelD2Ev:
 4170              	.LFB896:
   9:../air3t/data/model.cpp **** 
  10:../air3t/data/model.cpp **** 	Model::~Model()
 4171              		.loc 1 10 0
 4172              		.cfi_startproc
 4173              		@ args = 0, pretend = 0, frame = 8
 4174              		@ frame_needed = 1, uses_anonymous_args = 0
 4175 0000 80B5     		push	{r7, lr}
 4176              	.LCFI15:
 4177              		.cfi_def_cfa_offset 8
 4178 0002 82B0     		sub	sp, sp, #8
 4179              	.LCFI16:
 4180              		.cfi_def_cfa_offset 16
 4181 0004 00AF     		add	r7, sp, #0
 4182              		.cfi_offset 14, -4
 4183              		.cfi_offset 7, -8
 4184              	.LCFI17:
 4185              		.cfi_def_cfa_register 7
 4186 0006 7860     		str	r0, [r7, #4]
 4187              	.LBB5:
 4188              		.loc 1 10 0
 4189 0008 7B68     		ldr	r3, [r7, #4]
 4190 000a 124A     		ldr	r2, .L14
 4191 000c 1A60     		str	r2, [r3, #0]
 4192 000e 7B68     		ldr	r3, [r7, #4]
 4193 0010 03F12403 		add	r3, r3, #36
  11:../air3t/data/model.cpp **** 	{}
 4194              		.loc 1 11 0
 4195 0014 1846     		mov	r0, r3
 4196 0016 FFF7FEFF 		bl	_ZN5Air3T10StatisticsD1Ev
  10:../air3t/data/model.cpp **** 	Model::~Model()
 4197              		.loc 1 10 0
 4198 001a 7B68     		ldr	r3, [r7, #4]
 4199 001c 03F10C03 		add	r3, r3, #12
 4200              		.loc 1 11 0
 4201 0020 1846     		mov	r0, r3
 4202 0022 FFF7FEFF 		bl	_ZNSt4listIN5Air3T6PlayerESaIS1_EED1Ev
  10:../air3t/data/model.cpp **** 	Model::~Model()
 4203              		.loc 1 10 0
 4204 0026 7B68     		ldr	r3, [r7, #4]
 4205 0028 03F10403 		add	r3, r3, #4
 4206              		.loc 1 11 0
 4207 002c 1846     		mov	r0, r3
 4208 002e FFF7FEFF 		bl	_ZNSt4listIPN5Air3T5IViewESaIS2_EED1Ev
 4209              	.LBE5:
 4210 0032 4FF00003 		mov	r3, #0
 4211 0036 03F00103 		and	r3, r3, #1
 4212 003a DBB2     		uxtb	r3, r3
 4213 003c 002B     		cmp	r3, #0
 4214 003e 02D0     		beq	.L13
 4215              		.loc 1 11 0 is_stmt 0 discriminator 2
 4216 0040 7868     		ldr	r0, [r7, #4]
 4217 0042 FFF7FEFF 		bl	_ZdlPv
 4218              	.L13:
 4219              		.loc 1 11 0 discriminator 3
 4220 0046 7B68     		ldr	r3, [r7, #4]
 4221 0048 1846     		mov	r0, r3
 4222 004a 07F10807 		add	r7, r7, #8
 4223 004e BD46     		mov	sp, r7
 4224 0050 80BD     		pop	{r7, pc}
 4225              	.L15:
 4226 0052 00BF     		.align	2
 4227              	.L14:
 4228 0054 08000000 		.word	_ZTVN5Air3T5ModelE+8
 4229              		.cfi_endproc
 4230              	.LFE896:
 4232              		.global	_ZN5Air3T5ModelD1Ev
 4233              		.thumb_set _ZN5Air3T5ModelD1Ev,_ZN5Air3T5ModelD2Ev
 4234              		.section	.text._ZN5Air3T5ModelD0Ev,"ax",%progbits
 4235              		.align	2
 4236              		.global	_ZN5Air3T5ModelD0Ev
 4237              		.thumb
 4238              		.thumb_func
 4240              	_ZN5Air3T5ModelD0Ev:
 4241              	.LFB898:
  10:../air3t/data/model.cpp **** 	Model::~Model()
 4242              		.loc 1 10 0 is_stmt 1
 4243              		.cfi_startproc
 4244              		@ args = 0, pretend = 0, frame = 8
 4245              		@ frame_needed = 1, uses_anonymous_args = 0
 4246 0000 80B5     		push	{r7, lr}
 4247              	.LCFI18:
 4248              		.cfi_def_cfa_offset 8
 4249 0002 82B0     		sub	sp, sp, #8
 4250              	.LCFI19:
 4251              		.cfi_def_cfa_offset 16
 4252 0004 00AF     		add	r7, sp, #0
 4253              		.cfi_offset 14, -4
 4254              		.cfi_offset 7, -8
 4255              	.LCFI20:
 4256              		.cfi_def_cfa_register 7
 4257 0006 7860     		str	r0, [r7, #4]
 4258              		.loc 1 11 0
 4259 0008 7868     		ldr	r0, [r7, #4]
 4260 000a FFF7FEFF 		bl	_ZN5Air3T5ModelD1Ev
 4261 000e 7868     		ldr	r0, [r7, #4]
 4262 0010 FFF7FEFF 		bl	_ZdlPv
 4263 0014 7B68     		ldr	r3, [r7, #4]
 4264 0016 1846     		mov	r0, r3
 4265 0018 07F10807 		add	r7, r7, #8
 4266 001c BD46     		mov	sp, r7
 4267 001e 80BD     		pop	{r7, pc}
 4268              		.cfi_endproc
 4269              	.LFE898:
 4271              		.section	.rodata
 4272              		.align	2
 4273              	.LC0:
 4274 0000 2E2E2F61 		.ascii	"../air3t/data/model.cpp\000"
 4274      69723374 
 4274      2F646174 
 4274      612F6D6F 
 4274      64656C2E 
 4275              		.align	2
 4276              	.LC1:
 4277 0018 76696577 		.ascii	"view\000"
 4277      00
 4278 001d 000000   		.section	.text._ZN5Air3T5Model12registerViewEPNS_5IViewE,"ax",%progbits
 4279              		.align	2
 4280              		.global	_ZN5Air3T5Model12registerViewEPNS_5IViewE
 4281              		.thumb
 4282              		.thumb_func
 4284              	_ZN5Air3T5Model12registerViewEPNS_5IViewE:
 4285              	.LFB899:
  12:../air3t/data/model.cpp **** 
  13:../air3t/data/model.cpp **** 	void Model::registerView( Air3T::IView * view )
  14:../air3t/data/model.cpp **** 	{
 4286              		.loc 1 14 0
 4287              		.cfi_startproc
 4288              		@ args = 0, pretend = 0, frame = 8
 4289              		@ frame_needed = 1, uses_anonymous_args = 0
 4290 0000 80B5     		push	{r7, lr}
 4291              	.LCFI21:
 4292              		.cfi_def_cfa_offset 8
 4293 0002 82B0     		sub	sp, sp, #8
 4294              	.LCFI22:
 4295              		.cfi_def_cfa_offset 16
 4296 0004 00AF     		add	r7, sp, #0
 4297              		.cfi_offset 14, -4
 4298              		.cfi_offset 7, -8
 4299              	.LCFI23:
 4300              		.cfi_def_cfa_register 7
 4301 0006 7860     		str	r0, [r7, #4]
 4302 0008 3960     		str	r1, [r7, #0]
 4303              	.LBB6:
  15:../air3t/data/model.cpp **** 		assert( view );
 4304              		.loc 1 15 0
 4305 000a 3B68     		ldr	r3, [r7, #0]
 4306 000c 002B     		cmp	r3, #0
 4307 000e 0FD1     		bne	.L19
 4308              		.loc 1 15 0 is_stmt 0 discriminator 1
 4309 0010 40F20000 		movw	r0, #:lower16:.LC0
 4310 0014 C0F20000 		movt	r0, #:upper16:.LC0
 4311 0018 4FF00F01 		mov	r1, #15
 4312 001c 40F20002 		movw	r2, #:lower16:_ZZN5Air3T5Model12registerViewEPNS_5IViewEE19__PRETTY_FUNCTION__
 4313 0020 C0F20002 		movt	r2, #:upper16:_ZZN5Air3T5Model12registerViewEPNS_5IViewEE19__PRETTY_FUNCTION__
 4314 0024 40F20003 		movw	r3, #:lower16:.LC1
 4315 0028 C0F20003 		movt	r3, #:upper16:.LC1
 4316 002c FFF7FEFF 		bl	__assert_func
 4317              	.L19:
  16:../air3t/data/model.cpp **** 		if ( view )
 4318              		.loc 1 16 0 is_stmt 1
 4319 0030 3B68     		ldr	r3, [r7, #0]
 4320 0032 002B     		cmp	r3, #0
 4321 0034 07D0     		beq	.L18
  17:../air3t/data/model.cpp **** 			_views.push_back( view );
 4322              		.loc 1 17 0
 4323 0036 7B68     		ldr	r3, [r7, #4]
 4324 0038 03F10402 		add	r2, r3, #4
 4325 003c 3B46     		mov	r3, r7
 4326 003e 1046     		mov	r0, r2
 4327 0040 1946     		mov	r1, r3
 4328 0042 FFF7FEFF 		bl	_ZNSt4listIPN5Air3T5IViewESaIS2_EE9push_backERKS2_
 4329              	.L18:
 4330              	.LBE6:
  18:../air3t/data/model.cpp **** 	}
 4331              		.loc 1 18 0
 4332 0046 07F10807 		add	r7, r7, #8
 4333 004a BD46     		mov	sp, r7
 4334 004c 80BD     		pop	{r7, pc}
 4335              		.cfi_endproc
 4336              	.LFE899:
 4338 004e 00BF     		.section	.text._ZN5Air3T5Model14unregisterViewEPNS_5IViewE,"ax",%progbits
 4339              		.align	2
 4340              		.global	_ZN5Air3T5Model14unregisterViewEPNS_5IViewE
 4341              		.thumb
 4342              		.thumb_func
 4344              	_ZN5Air3T5Model14unregisterViewEPNS_5IViewE:
 4345              	.LFB900:
  19:../air3t/data/model.cpp **** 
  20:../air3t/data/model.cpp **** 	void Model::unregisterView( Air3T::IView * view )
  21:../air3t/data/model.cpp **** 	{
 4346              		.loc 1 21 0
 4347              		.cfi_startproc
 4348              		@ args = 0, pretend = 0, frame = 8
 4349              		@ frame_needed = 1, uses_anonymous_args = 0
 4350 0000 80B5     		push	{r7, lr}
 4351              	.LCFI24:
 4352              		.cfi_def_cfa_offset 8
 4353 0002 82B0     		sub	sp, sp, #8
 4354              	.LCFI25:
 4355              		.cfi_def_cfa_offset 16
 4356 0004 00AF     		add	r7, sp, #0
 4357              		.cfi_offset 14, -4
 4358              		.cfi_offset 7, -8
 4359              	.LCFI26:
 4360              		.cfi_def_cfa_register 7
 4361 0006 7860     		str	r0, [r7, #4]
 4362 0008 3960     		str	r1, [r7, #0]
 4363              	.LBB7:
  22:../air3t/data/model.cpp **** 		assert( view );
 4364              		.loc 1 22 0
 4365 000a 3B68     		ldr	r3, [r7, #0]
 4366 000c 002B     		cmp	r3, #0
 4367 000e 0FD1     		bne	.L22
 4368              		.loc 1 22 0 is_stmt 0 discriminator 1
 4369 0010 40F20000 		movw	r0, #:lower16:.LC0
 4370 0014 C0F20000 		movt	r0, #:upper16:.LC0
 4371 0018 4FF01601 		mov	r1, #22
 4372 001c 40F20002 		movw	r2, #:lower16:_ZZN5Air3T5Model14unregisterViewEPNS_5IViewEE19__PRETTY_FUNCTION__
 4373 0020 C0F20002 		movt	r2, #:upper16:_ZZN5Air3T5Model14unregisterViewEPNS_5IViewEE19__PRETTY_FUNCTION__
 4374 0024 40F20003 		movw	r3, #:lower16:.LC1
 4375 0028 C0F20003 		movt	r3, #:upper16:.LC1
 4376 002c FFF7FEFF 		bl	__assert_func
 4377              	.L22:
  23:../air3t/data/model.cpp **** 		_views.remove( view );
 4378              		.loc 1 23 0 is_stmt 1
 4379 0030 7B68     		ldr	r3, [r7, #4]
 4380 0032 03F10402 		add	r2, r3, #4
 4381 0036 3B46     		mov	r3, r7
 4382 0038 1046     		mov	r0, r2
 4383 003a 1946     		mov	r1, r3
 4384 003c FFF7FEFF 		bl	_ZNSt4listIPN5Air3T5IViewESaIS2_EE6removeERKS2_
 4385              	.LBE7:
  24:../air3t/data/model.cpp **** 	}
 4386              		.loc 1 24 0
 4387 0040 07F10807 		add	r7, r7, #8
 4388 0044 BD46     		mov	sp, r7
 4389 0046 80BD     		pop	{r7, pc}
 4390              		.cfi_endproc
 4391              	.LFE900:
 4393              		.section	.text._ZNK5Air3T5Model16availablePlayersEv,"ax",%progbits
 4394              		.align	2
 4395              		.global	_ZNK5Air3T5Model16availablePlayersEv
 4396              		.thumb
 4397              		.thumb_func
 4399              	_ZNK5Air3T5Model16availablePlayersEv:
 4400              	.LFB901:
  25:../air3t/data/model.cpp **** 
  26:../air3t/data/model.cpp **** 	const std::list<Player> & Model::availablePlayers() const
  27:../air3t/data/model.cpp **** 	{
 4401              		.loc 1 27 0
 4402              		.cfi_startproc
 4403              		@ args = 0, pretend = 0, frame = 8
 4404              		@ frame_needed = 1, uses_anonymous_args = 0
 4405              		@ link register save eliminated.
 4406 0000 80B4     		push	{r7}
 4407              	.LCFI27:
 4408              		.cfi_def_cfa_offset 4
 4409 0002 83B0     		sub	sp, sp, #12
 4410              	.LCFI28:
 4411              		.cfi_def_cfa_offset 16
 4412 0004 00AF     		add	r7, sp, #0
 4413              		.cfi_offset 7, -4
 4414              	.LCFI29:
 4415              		.cfi_def_cfa_register 7
 4416 0006 7860     		str	r0, [r7, #4]
  28:../air3t/data/model.cpp **** 		return _players;
 4417              		.loc 1 28 0
 4418 0008 7B68     		ldr	r3, [r7, #4]
 4419 000a 03F10C03 		add	r3, r3, #12
  29:../air3t/data/model.cpp **** 	}
 4420              		.loc 1 29 0
 4421 000e 1846     		mov	r0, r3
 4422 0010 07F10C07 		add	r7, r7, #12
 4423 0014 BD46     		mov	sp, r7
 4424 0016 80BC     		pop	{r7}
 4425 0018 7047     		bx	lr
 4426              		.cfi_endproc
 4427              	.LFE901:
 4429 001a 00BF     		.section	.text._ZN5Air3T5Model18addAvailablePlayerERKNS_6PlayerE,"ax",%progbits
 4430              		.align	2
 4431              		.global	_ZN5Air3T5Model18addAvailablePlayerERKNS_6PlayerE
 4432              		.thumb
 4433              		.thumb_func
 4435              	_ZN5Air3T5Model18addAvailablePlayerERKNS_6PlayerE:
 4436              	.LFB902:
  30:../air3t/data/model.cpp **** 
  31:../air3t/data/model.cpp **** 	void Model::addAvailablePlayer( const Player & player )
  32:../air3t/data/model.cpp **** 	{
 4437              		.loc 1 32 0
 4438              		.cfi_startproc
 4439              		@ args = 0, pretend = 0, frame = 8
 4440              		@ frame_needed = 1, uses_anonymous_args = 0
 4441 0000 80B5     		push	{r7, lr}
 4442              	.LCFI30:
 4443              		.cfi_def_cfa_offset 8
 4444 0002 82B0     		sub	sp, sp, #8
 4445              	.LCFI31:
 4446              		.cfi_def_cfa_offset 16
 4447 0004 00AF     		add	r7, sp, #0
 4448              		.cfi_offset 14, -4
 4449              		.cfi_offset 7, -8
 4450              	.LCFI32:
 4451              		.cfi_def_cfa_register 7
 4452 0006 7860     		str	r0, [r7, #4]
 4453 0008 3960     		str	r1, [r7, #0]
  33:../air3t/data/model.cpp **** 		_players.push_back( player );
 4454              		.loc 1 33 0
 4455 000a 7B68     		ldr	r3, [r7, #4]
 4456 000c 03F10C03 		add	r3, r3, #12
 4457 0010 1846     		mov	r0, r3
 4458 0012 3968     		ldr	r1, [r7, #0]
 4459 0014 FFF7FEFF 		bl	_ZNSt4listIN5Air3T6PlayerESaIS1_EE9push_backERKS1_
  34:../air3t/data/model.cpp **** 
  35:../air3t/data/model.cpp **** 		_update( AvailablePlayerSection );
 4460              		.loc 1 35 0
 4461 0018 7868     		ldr	r0, [r7, #4]
 4462 001a 4FF00101 		mov	r1, #1
 4463 001e FFF7FEFF 		bl	_ZN5Air3T5Model7_updateEi
  36:../air3t/data/model.cpp **** 	}
 4464              		.loc 1 36 0
 4465 0022 07F10807 		add	r7, r7, #8
 4466 0026 BD46     		mov	sp, r7
 4467 0028 80BD     		pop	{r7, pc}
 4468              		.cfi_endproc
 4469              	.LFE902:
 4471 002a 00BF     		.section	.text._ZN5Air3T5Model21removeAvailablePlayerERKNS_6PlayerE,"ax",%progbits
 4472              		.align	2
 4473              		.global	_ZN5Air3T5Model21removeAvailablePlayerERKNS_6PlayerE
 4474              		.thumb
 4475              		.thumb_func
 4477              	_ZN5Air3T5Model21removeAvailablePlayerERKNS_6PlayerE:
 4478              	.LFB903:
  37:../air3t/data/model.cpp **** 
  38:../air3t/data/model.cpp **** 	void Model::removeAvailablePlayer( const Player & player )
  39:../air3t/data/model.cpp **** 	{
 4479              		.loc 1 39 0
 4480              		.cfi_startproc
 4481              		@ args = 0, pretend = 0, frame = 16
 4482              		@ frame_needed = 1, uses_anonymous_args = 0
 4483 0000 90B5     		push	{r4, r7, lr}
 4484              	.LCFI33:
 4485              		.cfi_def_cfa_offset 12
 4486 0002 85B0     		sub	sp, sp, #20
 4487              	.LCFI34:
 4488              		.cfi_def_cfa_offset 32
 4489 0004 00AF     		add	r7, sp, #0
 4490              		.cfi_offset 14, -4
 4491              		.cfi_offset 7, -8
 4492              		.cfi_offset 4, -12
 4493              	.LCFI35:
 4494              		.cfi_def_cfa_register 7
 4495 0006 7860     		str	r0, [r7, #4]
 4496 0008 3960     		str	r1, [r7, #0]
 4497              	.LBB8:
 4498              	.LBB9:
  40:../air3t/data/model.cpp **** 		for ( std::list<Player>::iterator i = _players.begin() ;
 4499              		.loc 1 40 0
 4500 000a 7B68     		ldr	r3, [r7, #4]
 4501 000c 03F10C03 		add	r3, r3, #12
 4502 0010 1846     		mov	r0, r3
 4503 0012 FFF7FEFF 		bl	_ZNSt4listIN5Air3T6PlayerESaIS1_EE5beginEv
 4504 0016 0346     		mov	r3, r0
 4505 0018 BB60     		str	r3, [r7, #8]
 4506 001a 23E0     		b	.L26
 4507              	.L29:
  41:../air3t/data/model.cpp **** 			  i != _players.end() ; ++i )
  42:../air3t/data/model.cpp **** 		if ( i->id() == player.id() )
 4508              		.loc 1 42 0
 4509 001c 07F10803 		add	r3, r7, #8
 4510 0020 1846     		mov	r0, r3
 4511 0022 FFF7FEFF 		bl	_ZNKSt14_List_iteratorIN5Air3T6PlayerEEptEv
 4512 0026 0346     		mov	r3, r0
 4513 0028 1846     		mov	r0, r3
 4514 002a FFF7FEFF 		bl	_ZNK5Air3T6Player2idEv
 4515 002e 0446     		mov	r4, r0
 4516 0030 3868     		ldr	r0, [r7, #0]
 4517 0032 FFF7FEFF 		bl	_ZNK5Air3T6Player2idEv
 4518 0036 0346     		mov	r3, r0
 4519 0038 2046     		mov	r0, r4
 4520 003a 1946     		mov	r1, r3
 4521 003c FFF7FEFF 		bl	_ZNK7AddressILj6EEeqERKS0_
 4522 0040 0346     		mov	r3, r0
 4523 0042 002B     		cmp	r3, #0
 4524 0044 09D0     		beq	.L27
  43:../air3t/data/model.cpp **** 		{
  44:../air3t/data/model.cpp **** 			i = _players.erase( i );
 4525              		.loc 1 44 0
 4526 0046 7B68     		ldr	r3, [r7, #4]
 4527 0048 03F10C03 		add	r3, r3, #12
 4528 004c 1846     		mov	r0, r3
 4529 004e B968     		ldr	r1, [r7, #8]
 4530 0050 FFF7FEFF 		bl	_ZNSt4listIN5Air3T6PlayerESaIS1_EE5eraseESt14_List_iteratorIS1_E
 4531 0054 0346     		mov	r3, r0
 4532 0056 BB60     		str	r3, [r7, #8]
  45:../air3t/data/model.cpp **** 			break;
 4533              		.loc 1 45 0
 4534 0058 17E0     		b	.L28
 4535              	.L27:
  41:../air3t/data/model.cpp **** 			  i != _players.end() ; ++i )
 4536              		.loc 1 41 0
 4537 005a 07F10803 		add	r3, r7, #8
  40:../air3t/data/model.cpp **** 		for ( std::list<Player>::iterator i = _players.begin() ;
 4538              		.loc 1 40 0
 4539 005e 1846     		mov	r0, r3
 4540 0060 FFF7FEFF 		bl	_ZNSt14_List_iteratorIN5Air3T6PlayerEEppEv
 4541              	.L26:
  41:../air3t/data/model.cpp **** 			  i != _players.end() ; ++i )
 4542              		.loc 1 41 0 discriminator 1
 4543 0064 7B68     		ldr	r3, [r7, #4]
 4544 0066 03F10C03 		add	r3, r3, #12
 4545 006a 1846     		mov	r0, r3
 4546 006c FFF7FEFF 		bl	_ZNSt4listIN5Air3T6PlayerESaIS1_EE3endEv
 4547 0070 0346     		mov	r3, r0
 4548 0072 FB60     		str	r3, [r7, #12]
 4549 0074 07F10802 		add	r2, r7, #8
  40:../air3t/data/model.cpp **** 		for ( std::list<Player>::iterator i = _players.begin() ;
 4550              		.loc 1 40 0 discriminator 1
 4551 0078 07F10C03 		add	r3, r7, #12
 4552 007c 1046     		mov	r0, r2
 4553 007e 1946     		mov	r1, r3
 4554 0080 FFF7FEFF 		bl	_ZNKSt14_List_iteratorIN5Air3T6PlayerEEneERKS2_
 4555 0084 0346     		mov	r3, r0
 4556 0086 002B     		cmp	r3, #0
 4557 0088 C8D1     		bne	.L29
 4558              	.L28:
 4559              	.LBE9:
  46:../air3t/data/model.cpp **** 		}
  47:../air3t/data/model.cpp **** 
  48:../air3t/data/model.cpp **** 		_update( AvailablePlayerSection );
 4560              		.loc 1 48 0
 4561 008a 7868     		ldr	r0, [r7, #4]
 4562 008c 4FF00101 		mov	r1, #1
 4563 0090 FFF7FEFF 		bl	_ZN5Air3T5Model7_updateEi
 4564              	.LBE8:
  49:../air3t/data/model.cpp **** 	}
 4565              		.loc 1 49 0
 4566 0094 07F11407 		add	r7, r7, #20
 4567 0098 BD46     		mov	sp, r7
 4568 009a 90BD     		pop	{r4, r7, pc}
 4569              		.cfi_endproc
 4570              	.LFE903:
 4572              		.section	.text._ZN5Air3T5Model21clearAvailablePlayersEv,"ax",%progbits
 4573              		.align	2
 4574              		.global	_ZN5Air3T5Model21clearAvailablePlayersEv
 4575              		.thumb
 4576              		.thumb_func
 4578              	_ZN5Air3T5Model21clearAvailablePlayersEv:
 4579              	.LFB904:
  50:../air3t/data/model.cpp **** 
  51:../air3t/data/model.cpp **** 	void Model::clearAvailablePlayers()
  52:../air3t/data/model.cpp **** 	{
 4580              		.loc 1 52 0
 4581              		.cfi_startproc
 4582              		@ args = 0, pretend = 0, frame = 8
 4583              		@ frame_needed = 1, uses_anonymous_args = 0
 4584 0000 80B5     		push	{r7, lr}
 4585              	.LCFI36:
 4586              		.cfi_def_cfa_offset 8
 4587 0002 82B0     		sub	sp, sp, #8
 4588              	.LCFI37:
 4589              		.cfi_def_cfa_offset 16
 4590 0004 00AF     		add	r7, sp, #0
 4591              		.cfi_offset 14, -4
 4592              		.cfi_offset 7, -8
 4593              	.LCFI38:
 4594              		.cfi_def_cfa_register 7
 4595 0006 7860     		str	r0, [r7, #4]
  53:../air3t/data/model.cpp **** 		_players.clear();
 4596              		.loc 1 53 0
 4597 0008 7B68     		ldr	r3, [r7, #4]
 4598 000a 03F10C03 		add	r3, r3, #12
 4599 000e 1846     		mov	r0, r3
 4600 0010 FFF7FEFF 		bl	_ZNSt4listIN5Air3T6PlayerESaIS1_EE5clearEv
  54:../air3t/data/model.cpp **** 
  55:../air3t/data/model.cpp **** 		_update( AvailablePlayerSection );
 4601              		.loc 1 55 0
 4602 0014 7868     		ldr	r0, [r7, #4]
 4603 0016 4FF00101 		mov	r1, #1
 4604 001a FFF7FEFF 		bl	_ZN5Air3T5Model7_updateEi
  56:../air3t/data/model.cpp **** 	}
 4605              		.loc 1 56 0
 4606 001e 07F10807 		add	r7, r7, #8
 4607 0022 BD46     		mov	sp, r7
 4608 0024 80BD     		pop	{r7, pc}
 4609              		.cfi_endproc
 4610              	.LFE904:
 4612 0026 00BF     		.section	.text._ZNK5Air3T5Model9gamefieldEv,"ax",%progbits
 4613              		.align	2
 4614              		.global	_ZNK5Air3T5Model9gamefieldEv
 4615              		.thumb
 4616              		.thumb_func
 4618              	_ZNK5Air3T5Model9gamefieldEv:
 4619              	.LFB905:
  57:../air3t/data/model.cpp **** 
  58:../air3t/data/model.cpp **** 	const GameField & Model::gamefield() const
  59:../air3t/data/model.cpp **** 	{
 4620              		.loc 1 59 0
 4621              		.cfi_startproc
 4622              		@ args = 0, pretend = 0, frame = 8
 4623              		@ frame_needed = 1, uses_anonymous_args = 0
 4624              		@ link register save eliminated.
 4625 0000 80B4     		push	{r7}
 4626              	.LCFI39:
 4627              		.cfi_def_cfa_offset 4
 4628 0002 83B0     		sub	sp, sp, #12
 4629              	.LCFI40:
 4630              		.cfi_def_cfa_offset 16
 4631 0004 00AF     		add	r7, sp, #0
 4632              		.cfi_offset 7, -4
 4633              	.LCFI41:
 4634              		.cfi_def_cfa_register 7
 4635 0006 7860     		str	r0, [r7, #4]
  60:../air3t/data/model.cpp **** 		return _gamefield;
 4636              		.loc 1 60 0
 4637 0008 7B68     		ldr	r3, [r7, #4]
 4638 000a 03F11403 		add	r3, r3, #20
  61:../air3t/data/model.cpp **** 	}
 4639              		.loc 1 61 0
 4640 000e 1846     		mov	r0, r3
 4641 0010 07F10C07 		add	r7, r7, #12
 4642 0014 BD46     		mov	sp, r7
 4643 0016 80BC     		pop	{r7}
 4644 0018 7047     		bx	lr
 4645              		.cfi_endproc
 4646              	.LFE905:
 4648 001a 00BF     		.section	.text._ZN5Air3T5Model9gamefieldEv,"ax",%progbits
 4649              		.align	2
 4650              		.global	_ZN5Air3T5Model9gamefieldEv
 4651              		.thumb
 4652              		.thumb_func
 4654              	_ZN5Air3T5Model9gamefieldEv:
 4655              	.LFB906:
  62:../air3t/data/model.cpp **** 
  63:../air3t/data/model.cpp **** 	GameField & Model::gamefield()
  64:../air3t/data/model.cpp **** 	{
 4656              		.loc 1 64 0
 4657              		.cfi_startproc
 4658              		@ args = 0, pretend = 0, frame = 8
 4659              		@ frame_needed = 1, uses_anonymous_args = 0
 4660              		@ link register save eliminated.
 4661 0000 80B4     		push	{r7}
 4662              	.LCFI42:
 4663              		.cfi_def_cfa_offset 4
 4664 0002 83B0     		sub	sp, sp, #12
 4665              	.LCFI43:
 4666              		.cfi_def_cfa_offset 16
 4667 0004 00AF     		add	r7, sp, #0
 4668              		.cfi_offset 7, -4
 4669              	.LCFI44:
 4670              		.cfi_def_cfa_register 7
 4671 0006 7860     		str	r0, [r7, #4]
  65:../air3t/data/model.cpp **** 		return _gamefield;
 4672              		.loc 1 65 0
 4673 0008 7B68     		ldr	r3, [r7, #4]
 4674 000a 03F11403 		add	r3, r3, #20
  66:../air3t/data/model.cpp **** 	}
 4675              		.loc 1 66 0
 4676 000e 1846     		mov	r0, r3
 4677 0010 07F10C07 		add	r7, r7, #12
 4678 0014 BD46     		mov	sp, r7
 4679 0016 80BC     		pop	{r7}
 4680 0018 7047     		bx	lr
 4681              		.cfi_endproc
 4682              	.LFE906:
 4684 001a 00BF     		.section	.text._ZNK5Air3T5Model10statisticsEv,"ax",%progbits
 4685              		.align	2
 4686              		.global	_ZNK5Air3T5Model10statisticsEv
 4687              		.thumb
 4688              		.thumb_func
 4690              	_ZNK5Air3T5Model10statisticsEv:
 4691              	.LFB907:
  67:../air3t/data/model.cpp **** 
  68:../air3t/data/model.cpp **** 	const Statistics & Model::statistics() const
  69:../air3t/data/model.cpp **** 	{
 4692              		.loc 1 69 0
 4693              		.cfi_startproc
 4694              		@ args = 0, pretend = 0, frame = 8
 4695              		@ frame_needed = 1, uses_anonymous_args = 0
 4696              		@ link register save eliminated.
 4697 0000 80B4     		push	{r7}
 4698              	.LCFI45:
 4699              		.cfi_def_cfa_offset 4
 4700 0002 83B0     		sub	sp, sp, #12
 4701              	.LCFI46:
 4702              		.cfi_def_cfa_offset 16
 4703 0004 00AF     		add	r7, sp, #0
 4704              		.cfi_offset 7, -4
 4705              	.LCFI47:
 4706              		.cfi_def_cfa_register 7
 4707 0006 7860     		str	r0, [r7, #4]
  70:../air3t/data/model.cpp **** 		return _statistics;
 4708              		.loc 1 70 0
 4709 0008 7B68     		ldr	r3, [r7, #4]
 4710 000a 03F12403 		add	r3, r3, #36
  71:../air3t/data/model.cpp **** 	}
 4711              		.loc 1 71 0
 4712 000e 1846     		mov	r0, r3
 4713 0010 07F10C07 		add	r7, r7, #12
 4714 0014 BD46     		mov	sp, r7
 4715 0016 80BC     		pop	{r7}
 4716 0018 7047     		bx	lr
 4717              		.cfi_endproc
 4718              	.LFE907:
 4720 001a 00BF     		.section	.text._ZN5Air3T5Model10statisticsEv,"ax",%progbits
 4721              		.align	2
 4722              		.global	_ZN5Air3T5Model10statisticsEv
 4723              		.thumb
 4724              		.thumb_func
 4726              	_ZN5Air3T5Model10statisticsEv:
 4727              	.LFB908:
  72:../air3t/data/model.cpp **** 
  73:../air3t/data/model.cpp **** 	Statistics & Model::statistics()
  74:../air3t/data/model.cpp **** 	{
 4728              		.loc 1 74 0
 4729              		.cfi_startproc
 4730              		@ args = 0, pretend = 0, frame = 8
 4731              		@ frame_needed = 1, uses_anonymous_args = 0
 4732              		@ link register save eliminated.
 4733 0000 80B4     		push	{r7}
 4734              	.LCFI48:
 4735              		.cfi_def_cfa_offset 4
 4736 0002 83B0     		sub	sp, sp, #12
 4737              	.LCFI49:
 4738              		.cfi_def_cfa_offset 16
 4739 0004 00AF     		add	r7, sp, #0
 4740              		.cfi_offset 7, -4
 4741              	.LCFI50:
 4742              		.cfi_def_cfa_register 7
 4743 0006 7860     		str	r0, [r7, #4]
  75:../air3t/data/model.cpp **** 		return _statistics;
 4744              		.loc 1 75 0
 4745 0008 7B68     		ldr	r3, [r7, #4]
 4746 000a 03F12403 		add	r3, r3, #36
  76:../air3t/data/model.cpp **** 	}
 4747              		.loc 1 76 0
 4748 000e 1846     		mov	r0, r3
 4749 0010 07F10C07 		add	r7, r7, #12
 4750 0014 BD46     		mov	sp, r7
 4751 0016 80BC     		pop	{r7}
 4752 0018 7047     		bx	lr
 4753              		.cfi_endproc
 4754              	.LFE908:
 4756 001a 00BF     		.section	.text._ZN5Air3T5Model7_updateEi,"ax",%progbits
 4757              		.align	2
 4758              		.global	_ZN5Air3T5Model7_updateEi
 4759              		.thumb
 4760              		.thumb_func
 4762              	_ZN5Air3T5Model7_updateEi:
 4763              	.LFB909:
  77:../air3t/data/model.cpp **** 
  78:../air3t/data/model.cpp **** 	void Model::_update( int section )
  79:../air3t/data/model.cpp **** 	{
 4764              		.loc 1 79 0
 4765              		.cfi_startproc
 4766              		@ args = 0, pretend = 0, frame = 24
 4767              		@ frame_needed = 1, uses_anonymous_args = 0
 4768 0000 80B5     		push	{r7, lr}
 4769              	.LCFI51:
 4770              		.cfi_def_cfa_offset 8
 4771 0002 86B0     		sub	sp, sp, #24
 4772              	.LCFI52:
 4773              		.cfi_def_cfa_offset 32
 4774 0004 00AF     		add	r7, sp, #0
 4775              		.cfi_offset 14, -4
 4776              		.cfi_offset 7, -8
 4777              	.LCFI53:
 4778              		.cfi_def_cfa_register 7
 4779 0006 7860     		str	r0, [r7, #4]
 4780 0008 3960     		str	r1, [r7, #0]
 4781              	.LBB10:
 4782              	.LBB11:
  80:../air3t/data/model.cpp **** 		for ( std::list<IView *>::const_iterator i = _views.begin() ; i != _views.end() ; ++i )
 4783              		.loc 1 80 0
 4784 000a 7B68     		ldr	r3, [r7, #4]
 4785 000c 03F10403 		add	r3, r3, #4
 4786 0010 1846     		mov	r0, r3
 4787 0012 FFF7FEFF 		bl	_ZNSt4listIPN5Air3T5IViewESaIS2_EE5beginEv
 4788 0016 0346     		mov	r3, r0
 4789 0018 FB60     		str	r3, [r7, #12]
 4790 001a 07F10802 		add	r2, r7, #8
 4791 001e 07F10C03 		add	r3, r7, #12
 4792 0022 1046     		mov	r0, r2
 4793 0024 1946     		mov	r1, r3
 4794 0026 FFF7FEFF 		bl	_ZNSt20_List_const_iteratorIPN5Air3T5IViewEEC1ERKSt14_List_iteratorIS2_E
 4795 002a 12E0     		b	.L36
 4796              	.L37:
  81:../air3t/data/model.cpp **** 			(*i)->update( section );
 4797              		.loc 1 81 0 discriminator 2
 4798 002c 07F10803 		add	r3, r7, #8
 4799 0030 1846     		mov	r0, r3
 4800 0032 FFF7FEFF 		bl	_ZNKSt20_List_const_iteratorIPN5Air3T5IViewEEdeEv
 4801 0036 0346     		mov	r3, r0
 4802 0038 1B68     		ldr	r3, [r3, #0]
 4803 003a 1A68     		ldr	r2, [r3, #0]
 4804 003c 02F10C02 		add	r2, r2, #12
 4805 0040 1268     		ldr	r2, [r2, #0]
 4806 0042 1846     		mov	r0, r3
 4807 0044 3968     		ldr	r1, [r7, #0]
 4808 0046 9047     		blx	r2
  80:../air3t/data/model.cpp **** 		for ( std::list<IView *>::const_iterator i = _views.begin() ; i != _views.end() ; ++i )
 4809              		.loc 1 80 0 discriminator 2
 4810 0048 07F10803 		add	r3, r7, #8
 4811 004c 1846     		mov	r0, r3
 4812 004e FFF7FEFF 		bl	_ZNSt20_List_const_iteratorIPN5Air3T5IViewEEppEv
 4813              	.L36:
  80:../air3t/data/model.cpp **** 		for ( std::list<IView *>::const_iterator i = _views.begin() ; i != _views.end() ; ++i )
 4814              		.loc 1 80 0 is_stmt 0 discriminator 1
 4815 0052 7B68     		ldr	r3, [r7, #4]
 4816 0054 03F10403 		add	r3, r3, #4
 4817 0058 1846     		mov	r0, r3
 4818 005a FFF7FEFF 		bl	_ZNSt4listIPN5Air3T5IViewESaIS2_EE3endEv
 4819 005e 0346     		mov	r3, r0
 4820 0060 7B61     		str	r3, [r7, #20]
 4821 0062 07F11002 		add	r2, r7, #16
 4822 0066 07F11403 		add	r3, r7, #20
 4823 006a 1046     		mov	r0, r2
 4824 006c 1946     		mov	r1, r3
 4825 006e FFF7FEFF 		bl	_ZNSt20_List_const_iteratorIPN5Air3T5IViewEEC1ERKSt14_List_iteratorIS2_E
 4826 0072 07F10802 		add	r2, r7, #8
 4827 0076 07F11003 		add	r3, r7, #16
 4828 007a 1046     		mov	r0, r2
 4829 007c 1946     		mov	r1, r3
 4830 007e FFF7FEFF 		bl	_ZNKSt20_List_const_iteratorIPN5Air3T5IViewEEneERKS3_
 4831 0082 0346     		mov	r3, r0
 4832 0084 002B     		cmp	r3, #0
 4833 0086 D1D1     		bne	.L37
 4834              	.LBE11:
 4835              	.LBE10:
  82:../air3t/data/model.cpp **** 	}
 4836              		.loc 1 82 0 is_stmt 1
 4837 0088 07F11807 		add	r7, r7, #24
 4838 008c BD46     		mov	sp, r7
 4839 008e 80BD     		pop	{r7, pc}
 4840              		.cfi_endproc
 4841              	.LFE909:
 4843              		.section	.text._ZNSt4listIPN5Air3T5IViewESaIS2_EEC2Ev,"axG",%progbits,_ZNSt4listIPN5Air3T5IViewESa
 4844              		.align	2
 4845              		.weak	_ZNSt4listIPN5Air3T5IViewESaIS2_EEC2Ev
 4846              		.thumb
 4847              		.thumb_func
 4849              	_ZNSt4listIPN5Air3T5IViewESaIS2_EEC2Ev:
 4850              	.LFB911:
 419:/opt/toolchains/arm-none-eabi/bin/../lib/gcc/arm-none-eabi/4.5.2/../../../../arm-none-eabi/include/c++/4.5.2/bits/stl_list.h ****       // concept requirements
 420:/opt/toolchains/arm-none-eabi/bin/../lib/gcc/arm-none-eabi/4.5.2/../../../../arm-none-eabi/include/c++/4.5.2/bits/stl_list.h ****       typedef typename _Alloc::value_type                _Alloc_value_type;
 421:/opt/toolchains/arm-none-eabi/bin/../lib/gcc/arm-none-eabi/4.5.2/../../../../arm-none-eabi/include/c++/4.5.2/bits/stl_list.h ****       __glibcxx_class_requires(_Tp, _SGIAssignableConcept)
 422:/opt/toolchains/arm-none-eabi/bin/../lib/gcc/arm-none-eabi/4.5.2/../../../../arm-none-eabi/include/c++/4.5.2/bits/stl_list.h ****       __glibcxx_class_requires2(_Tp, _Alloc_value_type, _SameTypeConcept)
 423:/opt/toolchains/arm-none-eabi/bin/../lib/gcc/arm-none-eabi/4.5.2/../../../../arm-none-eabi/include/c++/4.5.2/bits/stl_list.h **** 
 424:/opt/toolchains/arm-none-eabi/bin/../lib/gcc/arm-none-eabi/4.5.2/../../../../arm-none-eabi/include/c++/4.5.2/bits/stl_list.h ****       typedef _List_base<_Tp, _Alloc>                    _Base;
 425:/opt/toolchains/arm-none-eabi/bin/../lib/gcc/arm-none-eabi/4.5.2/../../../../arm-none-eabi/include/c++/4.5.2/bits/stl_list.h ****       typedef typename _Base::_Tp_alloc_type		 _Tp_alloc_type;
 426:/opt/toolchains/arm-none-eabi/bin/../lib/gcc/arm-none-eabi/4.5.2/../../../../arm-none-eabi/include/c++/4.5.2/bits/stl_list.h **** 
 427:/opt/toolchains/arm-none-eabi/bin/../lib/gcc/arm-none-eabi/4.5.2/../../../../arm-none-eabi/include/c++/4.5.2/bits/stl_list.h ****     public:
 428:/opt/toolchains/arm-none-eabi/bin/../lib/gcc/arm-none-eabi/4.5.2/../../../../arm-none-eabi/include/c++/4.5.2/bits/stl_list.h ****       typedef _Tp                                        value_type;
 429:/opt/toolchains/arm-none-eabi/bin/../lib/gcc/arm-none-eabi/4.5.2/../../../../arm-none-eabi/include/c++/4.5.2/bits/stl_list.h ****       typedef typename _Tp_alloc_type::pointer           pointer;
 430:/opt/toolchains/arm-none-eabi/bin/../lib/gcc/arm-none-eabi/4.5.2/../../../../arm-none-eabi/include/c++/4.5.2/bits/stl_list.h ****       typedef typename _Tp_alloc_type::const_pointer     const_pointer;
 431:/opt/toolchains/arm-none-eabi/bin/../lib/gcc/arm-none-eabi/4.5.2/../../../../arm-none-eabi/include/c++/4.5.2/bits/stl_list.h ****       typedef typename _Tp_alloc_type::reference         reference;
 432:/opt/toolchains/arm-none-eabi/bin/../lib/gcc/arm-none-eabi/4.5.2/../../../../arm-none-eabi/include/c++/4.5.2/bits/stl_list.h ****       typedef typename _Tp_alloc_type::const_reference   const_reference;
 433:/opt/toolchains/arm-none-eabi/bin/../lib/gcc/arm-none-eabi/4.5.2/../../../../arm-none-eabi/include/c++/4.5.2/bits/stl_list.h ****       typedef _List_iterator<_Tp>                        iterator;
 434:/opt/toolchains/arm-none-eabi/bin/../lib/gcc/arm-none-eabi/4.5.2/../../../../arm-none-eabi/include/c++/4.5.2/bits/stl_list.h ****       typedef _List_const_iterator<_Tp>                  const_iterator;
 435:/opt/toolchains/arm-none-eabi/bin/../lib/gcc/arm-none-eabi/4.5.2/../../../../arm-none-eabi/include/c++/4.5.2/bits/stl_list.h ****       typedef std::reverse_iterator<const_iterator>      const_reverse_iterator;
 436:/opt/toolchains/arm-none-eabi/bin/../lib/gcc/arm-none-eabi/4.5.2/../../../../arm-none-eabi/include/c++/4.5.2/bits/stl_list.h ****       typedef std::reverse_iterator<iterator>            reverse_iterator;
 437:/opt/toolchains/arm-none-eabi/bin/../lib/gcc/arm-none-eabi/4.5.2/../../../../arm-none-eabi/include/c++/4.5.2/bits/stl_list.h ****       typedef size_t                                     size_type;
 438:/opt/toolchains/arm-none-eabi/bin/../lib/gcc/arm-none-eabi/4.5.2/../../../../arm-none-eabi/include/c++/4.5.2/bits/stl_list.h ****       typedef ptrdiff_t                                  difference_type;
 439:/opt/toolchains/arm-none-eabi/bin/../lib/gcc/arm-none-eabi/4.5.2/../../../../arm-none-eabi/include/c++/4.5.2/bits/stl_list.h ****       typedef _Alloc                                     allocator_type;
 440:/opt/toolchains/arm-none-eabi/bin/../lib/gcc/arm-none-eabi/4.5.2/../../../../arm-none-eabi/include/c++/4.5.2/bits/stl_list.h **** 
 441:/opt/toolchains/arm-none-eabi/bin/../lib/gcc/arm-none-eabi/4.5.2/../../../../arm-none-eabi/include/c++/4.5.2/bits/stl_list.h ****     protected:
 442:/opt/toolchains/arm-none-eabi/bin/../lib/gcc/arm-none-eabi/4.5.2/../../../../arm-none-eabi/include/c++/4.5.2/bits/stl_list.h ****       // Note that pointers-to-_Node's can be ctor-converted to
 443:/opt/toolchains/arm-none-eabi/bin/../lib/gcc/arm-none-eabi/4.5.2/../../../../arm-none-eabi/include/c++/4.5.2/bits/stl_list.h ****       // iterator types.
 444:/opt/toolchains/arm-none-eabi/bin/../lib/gcc/arm-none-eabi/4.5.2/../../../../arm-none-eabi/include/c++/4.5.2/bits/stl_list.h ****       typedef _List_node<_Tp>				 _Node;
 445:/opt/toolchains/arm-none-eabi/bin/../lib/gcc/arm-none-eabi/4.5.2/../../../../arm-none-eabi/include/c++/4.5.2/bits/stl_list.h **** 
 446:/opt/toolchains/arm-none-eabi/bin/../lib/gcc/arm-none-eabi/4.5.2/../../../../arm-none-eabi/include/c++/4.5.2/bits/stl_list.h ****       using _Base::_M_impl;
 447:/opt/toolchains/arm-none-eabi/bin/../lib/gcc/arm-none-eabi/4.5.2/../../../../arm-none-eabi/include/c++/4.5.2/bits/stl_list.h ****       using _Base::_M_put_node;
 448:/opt/toolchains/arm-none-eabi/bin/../lib/gcc/arm-none-eabi/4.5.2/../../../../arm-none-eabi/include/c++/4.5.2/bits/stl_list.h ****       using _Base::_M_get_node;
 449:/opt/toolchains/arm-none-eabi/bin/../lib/gcc/arm-none-eabi/4.5.2/../../../../arm-none-eabi/include/c++/4.5.2/bits/stl_list.h ****       using _Base::_M_get_Tp_allocator;
 450:/opt/toolchains/arm-none-eabi/bin/../lib/gcc/arm-none-eabi/4.5.2/../../../../arm-none-eabi/include/c++/4.5.2/bits/stl_list.h ****       using _Base::_M_get_Node_allocator;
 451:/opt/toolchains/arm-none-eabi/bin/../lib/gcc/arm-none-eabi/4.5.2/../../../../arm-none-eabi/include/c++/4.5.2/bits/stl_list.h **** 
 452:/opt/toolchains/arm-none-eabi/bin/../lib/gcc/arm-none-eabi/4.5.2/../../../../arm-none-eabi/include/c++/4.5.2/bits/stl_list.h ****       /**
 453:/opt/toolchains/arm-none-eabi/bin/../lib/gcc/arm-none-eabi/4.5.2/../../../../arm-none-eabi/include/c++/4.5.2/bits/stl_list.h ****        *  @param  x  An instance of user data.
 454:/opt/toolchains/arm-none-eabi/bin/../lib/gcc/arm-none-eabi/4.5.2/../../../../arm-none-eabi/include/c++/4.5.2/bits/stl_list.h ****        *
 455:/opt/toolchains/arm-none-eabi/bin/../lib/gcc/arm-none-eabi/4.5.2/../../../../arm-none-eabi/include/c++/4.5.2/bits/stl_list.h ****        *  Allocates space for a new node and constructs a copy of @a x in it.
 456:/opt/toolchains/arm-none-eabi/bin/../lib/gcc/arm-none-eabi/4.5.2/../../../../arm-none-eabi/include/c++/4.5.2/bits/stl_list.h ****        */
 457:/opt/toolchains/arm-none-eabi/bin/../lib/gcc/arm-none-eabi/4.5.2/../../../../arm-none-eabi/include/c++/4.5.2/bits/stl_list.h **** #ifndef __GXX_EXPERIMENTAL_CXX0X__
 458:/opt/toolchains/arm-none-eabi/bin/../lib/gcc/arm-none-eabi/4.5.2/../../../../arm-none-eabi/include/c++/4.5.2/bits/stl_list.h ****       _Node*
 459:/opt/toolchains/arm-none-eabi/bin/../lib/gcc/arm-none-eabi/4.5.2/../../../../arm-none-eabi/include/c++/4.5.2/bits/stl_list.h ****       _M_create_node(const value_type& __x)
 460:/opt/toolchains/arm-none-eabi/bin/../lib/gcc/arm-none-eabi/4.5.2/../../../../arm-none-eabi/include/c++/4.5.2/bits/stl_list.h ****       {
 461:/opt/toolchains/arm-none-eabi/bin/../lib/gcc/arm-none-eabi/4.5.2/../../../../arm-none-eabi/include/c++/4.5.2/bits/stl_list.h **** 	_Node* __p = this->_M_get_node();
 462:/opt/toolchains/arm-none-eabi/bin/../lib/gcc/arm-none-eabi/4.5.2/../../../../arm-none-eabi/include/c++/4.5.2/bits/stl_list.h **** 	__try
 463:/opt/toolchains/arm-none-eabi/bin/../lib/gcc/arm-none-eabi/4.5.2/../../../../arm-none-eabi/include/c++/4.5.2/bits/stl_list.h **** 	  {
 464:/opt/toolchains/arm-none-eabi/bin/../lib/gcc/arm-none-eabi/4.5.2/../../../../arm-none-eabi/include/c++/4.5.2/bits/stl_list.h **** 	    _M_get_Tp_allocator().construct(&__p->_M_data, __x);
 465:/opt/toolchains/arm-none-eabi/bin/../lib/gcc/arm-none-eabi/4.5.2/../../../../arm-none-eabi/include/c++/4.5.2/bits/stl_list.h **** 	  }
 466:/opt/toolchains/arm-none-eabi/bin/../lib/gcc/arm-none-eabi/4.5.2/../../../../arm-none-eabi/include/c++/4.5.2/bits/stl_list.h **** 	__catch(...)
 467:/opt/toolchains/arm-none-eabi/bin/../lib/gcc/arm-none-eabi/4.5.2/../../../../arm-none-eabi/include/c++/4.5.2/bits/stl_list.h **** 	  {
 468:/opt/toolchains/arm-none-eabi/bin/../lib/gcc/arm-none-eabi/4.5.2/../../../../arm-none-eabi/include/c++/4.5.2/bits/stl_list.h **** 	    _M_put_node(__p);
 469:/opt/toolchains/arm-none-eabi/bin/../lib/gcc/arm-none-eabi/4.5.2/../../../../arm-none-eabi/include/c++/4.5.2/bits/stl_list.h **** 	    __throw_exception_again;
 470:/opt/toolchains/arm-none-eabi/bin/../lib/gcc/arm-none-eabi/4.5.2/../../../../arm-none-eabi/include/c++/4.5.2/bits/stl_list.h **** 	  }
 471:/opt/toolchains/arm-none-eabi/bin/../lib/gcc/arm-none-eabi/4.5.2/../../../../arm-none-eabi/include/c++/4.5.2/bits/stl_list.h **** 	return __p;
 472:/opt/toolchains/arm-none-eabi/bin/../lib/gcc/arm-none-eabi/4.5.2/../../../../arm-none-eabi/include/c++/4.5.2/bits/stl_list.h ****       }
 473:/opt/toolchains/arm-none-eabi/bin/../lib/gcc/arm-none-eabi/4.5.2/../../../../arm-none-eabi/include/c++/4.5.2/bits/stl_list.h **** #else
 474:/opt/toolchains/arm-none-eabi/bin/../lib/gcc/arm-none-eabi/4.5.2/../../../../arm-none-eabi/include/c++/4.5.2/bits/stl_list.h ****       template<typename... _Args>
 475:/opt/toolchains/arm-none-eabi/bin/../lib/gcc/arm-none-eabi/4.5.2/../../../../arm-none-eabi/include/c++/4.5.2/bits/stl_list.h ****         _Node*
 476:/opt/toolchains/arm-none-eabi/bin/../lib/gcc/arm-none-eabi/4.5.2/../../../../arm-none-eabi/include/c++/4.5.2/bits/stl_list.h ****         _M_create_node(_Args&&... __args)
 477:/opt/toolchains/arm-none-eabi/bin/../lib/gcc/arm-none-eabi/4.5.2/../../../../arm-none-eabi/include/c++/4.5.2/bits/stl_list.h **** 	{
 478:/opt/toolchains/arm-none-eabi/bin/../lib/gcc/arm-none-eabi/4.5.2/../../../../arm-none-eabi/include/c++/4.5.2/bits/stl_list.h **** 	  _Node* __p = this->_M_get_node();
 479:/opt/toolchains/arm-none-eabi/bin/../lib/gcc/arm-none-eabi/4.5.2/../../../../arm-none-eabi/include/c++/4.5.2/bits/stl_list.h **** 	  __try
 480:/opt/toolchains/arm-none-eabi/bin/../lib/gcc/arm-none-eabi/4.5.2/../../../../arm-none-eabi/include/c++/4.5.2/bits/stl_list.h **** 	    {
 481:/opt/toolchains/arm-none-eabi/bin/../lib/gcc/arm-none-eabi/4.5.2/../../../../arm-none-eabi/include/c++/4.5.2/bits/stl_list.h **** 	      _M_get_Node_allocator().construct(__p,
 482:/opt/toolchains/arm-none-eabi/bin/../lib/gcc/arm-none-eabi/4.5.2/../../../../arm-none-eabi/include/c++/4.5.2/bits/stl_list.h **** 						std::forward<_Args>(__args)...);
 483:/opt/toolchains/arm-none-eabi/bin/../lib/gcc/arm-none-eabi/4.5.2/../../../../arm-none-eabi/include/c++/4.5.2/bits/stl_list.h **** 	    }
 484:/opt/toolchains/arm-none-eabi/bin/../lib/gcc/arm-none-eabi/4.5.2/../../../../arm-none-eabi/include/c++/4.5.2/bits/stl_list.h **** 	  __catch(...)
 485:/opt/toolchains/arm-none-eabi/bin/../lib/gcc/arm-none-eabi/4.5.2/../../../../arm-none-eabi/include/c++/4.5.2/bits/stl_list.h **** 	    {
 486:/opt/toolchains/arm-none-eabi/bin/../lib/gcc/arm-none-eabi/4.5.2/../../../../arm-none-eabi/include/c++/4.5.2/bits/stl_list.h **** 	      _M_put_node(__p);
 487:/opt/toolchains/arm-none-eabi/bin/../lib/gcc/arm-none-eabi/4.5.2/../../../../arm-none-eabi/include/c++/4.5.2/bits/stl_list.h **** 	      __throw_exception_again;
 488:/opt/toolchains/arm-none-eabi/bin/../lib/gcc/arm-none-eabi/4.5.2/../../../../arm-none-eabi/include/c++/4.5.2/bits/stl_list.h **** 	    }
 489:/opt/toolchains/arm-none-eabi/bin/../lib/gcc/arm-none-eabi/4.5.2/../../../../arm-none-eabi/include/c++/4.5.2/bits/stl_list.h **** 	  return __p;
 490:/opt/toolchains/arm-none-eabi/bin/../lib/gcc/arm-none-eabi/4.5.2/../../../../arm-none-eabi/include/c++/4.5.2/bits/stl_list.h **** 	}
 491:/opt/toolchains/arm-none-eabi/bin/../lib/gcc/arm-none-eabi/4.5.2/../../../../arm-none-eabi/include/c++/4.5.2/bits/stl_list.h **** #endif
 492:/opt/toolchains/arm-none-eabi/bin/../lib/gcc/arm-none-eabi/4.5.2/../../../../arm-none-eabi/include/c++/4.5.2/bits/stl_list.h **** 
 493:/opt/toolchains/arm-none-eabi/bin/../lib/gcc/arm-none-eabi/4.5.2/../../../../arm-none-eabi/include/c++/4.5.2/bits/stl_list.h ****     public:
 494:/opt/toolchains/arm-none-eabi/bin/../lib/gcc/arm-none-eabi/4.5.2/../../../../arm-none-eabi/include/c++/4.5.2/bits/stl_list.h ****       // [23.2.2.1] construct/copy/destroy
 495:/opt/toolchains/arm-none-eabi/bin/../lib/gcc/arm-none-eabi/4.5.2/../../../../arm-none-eabi/include/c++/4.5.2/bits/stl_list.h ****       // (assign() and get_allocator() are also listed in this section)
 496:/opt/toolchains/arm-none-eabi/bin/../lib/gcc/arm-none-eabi/4.5.2/../../../../arm-none-eabi/include/c++/4.5.2/bits/stl_list.h ****       /**
 497:/opt/toolchains/arm-none-eabi/bin/../lib/gcc/arm-none-eabi/4.5.2/../../../../arm-none-eabi/include/c++/4.5.2/bits/stl_list.h ****        *  @brief  Default constructor creates no elements.
 498:/opt/toolchains/arm-none-eabi/bin/../lib/gcc/arm-none-eabi/4.5.2/../../../../arm-none-eabi/include/c++/4.5.2/bits/stl_list.h ****        */
 499:/opt/toolchains/arm-none-eabi/bin/../lib/gcc/arm-none-eabi/4.5.2/../../../../arm-none-eabi/include/c++/4.5.2/bits/stl_list.h ****       list()
 4851              		.loc 28 499 0
 4852              		.cfi_startproc
 4853              		@ args = 0, pretend = 0, frame = 8
 4854              		@ frame_needed = 1, uses_anonymous_args = 0
 4855 0000 80B5     		push	{r7, lr}
 4856              	.LCFI54:
 4857              		.cfi_def_cfa_offset 8
 4858 0002 82B0     		sub	sp, sp, #8
 4859              	.LCFI55:
 4860              		.cfi_def_cfa_offset 16
 4861 0004 00AF     		add	r7, sp, #0
 4862              		.cfi_offset 14, -4
 4863              		.cfi_offset 7, -8
 4864              	.LCFI56:
 4865              		.cfi_def_cfa_register 7
 4866 0006 7860     		str	r0, [r7, #4]
 4867              	.LBB12:
 500:/opt/toolchains/arm-none-eabi/bin/../lib/gcc/arm-none-eabi/4.5.2/../../../../arm-none-eabi/include/c++/4.5.2/bits/stl_list.h ****       : _Base() { }
 4868              		.loc 28 500 0
 4869 0008 7B68     		ldr	r3, [r7, #4]
 4870 000a 1846     		mov	r0, r3
 4871 000c FFF7FEFF 		bl	_ZNSt10_List_baseIPN5Air3T5IViewESaIS2_EEC2Ev
 4872              	.LBE12:
 4873 0010 7B68     		ldr	r3, [r7, #4]
 4874 0012 1846     		mov	r0, r3
 4875 0014 07F10807 		add	r7, r7, #8
 4876 0018 BD46     		mov	sp, r7
 4877 001a 80BD     		pop	{r7, pc}
 4878              		.cfi_endproc
 4879              	.LFE911:
 4881              		.weak	_ZNSt4listIPN5Air3T5IViewESaIS2_EEC1Ev
 4882              		.thumb_set _ZNSt4listIPN5Air3T5IViewESaIS2_EEC1Ev,_ZNSt4listIPN5Air3T5IViewESaIS2_EEC2Ev
 4883              		.section	.text._ZNSt10_List_baseIPN5Air3T5IViewESaIS2_EE10_List_implD2Ev,"axG",%progbits,_ZNSt10_L
 4884              		.align	2
 4885              		.weak	_ZNSt10_List_baseIPN5Air3T5IViewESaIS2_EE10_List_implD2Ev
 4886              		.thumb
 4887              		.thumb_func
 4889              	_ZNSt10_List_baseIPN5Air3T5IViewESaIS2_EE10_List_implD2Ev:
 4890              	.LFB915:
 300:/opt/toolchains/arm-none-eabi/bin/../lib/gcc/arm-none-eabi/4.5.2/../../../../arm-none-eabi/include/c++/4.5.2/bits/stl_list.h ****       {
 4891              		.loc 28 300 0
 4892              		.cfi_startproc
 4893              		@ args = 0, pretend = 0, frame = 8
 4894              		@ frame_needed = 1, uses_anonymous_args = 0
 4895 0000 80B5     		push	{r7, lr}
 4896              	.LCFI57:
 4897              		.cfi_def_cfa_offset 8
 4898 0002 82B0     		sub	sp, sp, #8
 4899              	.LCFI58:
 4900              		.cfi_def_cfa_offset 16
 4901 0004 00AF     		add	r7, sp, #0
 4902              		.cfi_offset 14, -4
 4903              		.cfi_offset 7, -8
 4904              	.LCFI59:
 4905              		.cfi_def_cfa_register 7
 4906 0006 7860     		str	r0, [r7, #4]
 4907              	.LBB13:
 300:/opt/toolchains/arm-none-eabi/bin/../lib/gcc/arm-none-eabi/4.5.2/../../../../arm-none-eabi/include/c++/4.5.2/bits/stl_list.h ****       {
 4908              		.loc 28 300 0
 4909 0008 7B68     		ldr	r3, [r7, #4]
 4910 000a 1846     		mov	r0, r3
 4911 000c FFF7FEFF 		bl	_ZNSaISt10_List_nodeIPN5Air3T5IViewEEED2Ev
 4912              	.LBE13:
 4913 0010 7B68     		ldr	r3, [r7, #4]
 4914 0012 1846     		mov	r0, r3
 4915 0014 07F10807 		add	r7, r7, #8
 4916 0018 BD46     		mov	sp, r7
 4917 001a 80BD     		pop	{r7, pc}
 4918              		.cfi_endproc
 4919              	.LFE915:
 4921              		.weak	_ZNSt10_List_baseIPN5Air3T5IViewESaIS2_EE10_List_implD1Ev
 4922              		.thumb_set _ZNSt10_List_baseIPN5Air3T5IViewESaIS2_EE10_List_implD1Ev,_ZNSt10_List_baseIPN5Air3T5IV
 4923              		.section	.text._ZNSt10_List_baseIPN5Air3T5IViewESaIS2_EED2Ev,"axG",%progbits,_ZNSt10_List_baseIPN5
 4924              		.align	2
 4925              		.weak	_ZNSt10_List_baseIPN5Air3T5IViewESaIS2_EED2Ev
 4926              		.thumb
 4927              		.thumb_func
 4929              	_ZNSt10_List_baseIPN5Air3T5IViewESaIS2_EED2Ev:
 4930              	.LFB917:
 359:/opt/toolchains/arm-none-eabi/bin/../lib/gcc/arm-none-eabi/4.5.2/../../../../arm-none-eabi/include/c++/4.5.2/bits/stl_list.h ****       ~_List_base()
 4931              		.loc 28 359 0
 4932              		.cfi_startproc
 4933              		@ args = 0, pretend = 0, frame = 8
 4934              		@ frame_needed = 1, uses_anonymous_args = 0
 4935 0000 80B5     		push	{r7, lr}
 4936              	.LCFI60:
 4937              		.cfi_def_cfa_offset 8
 4938 0002 82B0     		sub	sp, sp, #8
 4939              	.LCFI61:
 4940              		.cfi_def_cfa_offset 16
 4941 0004 00AF     		add	r7, sp, #0
 4942              		.cfi_offset 14, -4
 4943              		.cfi_offset 7, -8
 4944              	.LCFI62:
 4945              		.cfi_def_cfa_register 7
 4946 0006 7860     		str	r0, [r7, #4]
 4947              	.LBB14:
 360:/opt/toolchains/arm-none-eabi/bin/../lib/gcc/arm-none-eabi/4.5.2/../../../../arm-none-eabi/include/c++/4.5.2/bits/stl_list.h ****       { _M_clear(); }
 4948              		.loc 28 360 0
 4949 0008 7868     		ldr	r0, [r7, #4]
 4950 000a FFF7FEFF 		bl	_ZNSt10_List_baseIPN5Air3T5IViewESaIS2_EE8_M_clearEv
 4951 000e 7B68     		ldr	r3, [r7, #4]
 4952 0010 1846     		mov	r0, r3
 4953 0012 FFF7FEFF 		bl	_ZNSt10_List_baseIPN5Air3T5IViewESaIS2_EE10_List_implD1Ev
 4954              	.LBE14:
 4955 0016 7B68     		ldr	r3, [r7, #4]
 4956 0018 1846     		mov	r0, r3
 4957 001a 07F10807 		add	r7, r7, #8
 4958 001e BD46     		mov	sp, r7
 4959 0020 80BD     		pop	{r7, pc}
 4960              		.cfi_endproc
 4961              	.LFE917:
 4963              		.weak	_ZNSt10_List_baseIPN5Air3T5IViewESaIS2_EED1Ev
 4964              		.thumb_set _ZNSt10_List_baseIPN5Air3T5IViewESaIS2_EED1Ev,_ZNSt10_List_baseIPN5Air3T5IViewESaIS2_EE
 4965 0022 00BF     		.section	.text._ZNSt4listIN5Air3T6PlayerESaIS1_EEC2Ev,"axG",%progbits,_ZNSt4listIN5Air3T6PlayerESa
 4966              		.align	2
 4967              		.weak	_ZNSt4listIN5Air3T6PlayerESaIS1_EEC2Ev
 4968              		.thumb
 4969              		.thumb_func
 4971              	_ZNSt4listIN5Air3T6PlayerESaIS1_EEC2Ev:
 4972              	.LFB920:
 499:/opt/toolchains/arm-none-eabi/bin/../lib/gcc/arm-none-eabi/4.5.2/../../../../arm-none-eabi/include/c++/4.5.2/bits/stl_list.h ****       list()
 4973              		.loc 28 499 0
 4974              		.cfi_startproc
 4975              		@ args = 0, pretend = 0, frame = 8
 4976              		@ frame_needed = 1, uses_anonymous_args = 0
 4977 0000 80B5     		push	{r7, lr}
 4978              	.LCFI63:
 4979              		.cfi_def_cfa_offset 8
 4980 0002 82B0     		sub	sp, sp, #8
 4981              	.LCFI64:
 4982              		.cfi_def_cfa_offset 16
 4983 0004 00AF     		add	r7, sp, #0
 4984              		.cfi_offset 14, -4
 4985              		.cfi_offset 7, -8
 4986              	.LCFI65:
 4987              		.cfi_def_cfa_register 7
 4988 0006 7860     		str	r0, [r7, #4]
 4989              	.LBB15:
 4990              		.loc 28 500 0
 4991 0008 7B68     		ldr	r3, [r7, #4]
 4992 000a 1846     		mov	r0, r3
 4993 000c FFF7FEFF 		bl	_ZNSt10_List_baseIN5Air3T6PlayerESaIS1_EEC2Ev
 4994              	.LBE15:
 4995 0010 7B68     		ldr	r3, [r7, #4]
 4996 0012 1846     		mov	r0, r3
 4997 0014 07F10807 		add	r7, r7, #8
 4998 0018 BD46     		mov	sp, r7
 4999 001a 80BD     		pop	{r7, pc}
 5000              		.cfi_endproc
 5001              	.LFE920:
 5003              		.weak	_ZNSt4listIN5Air3T6PlayerESaIS1_EEC1Ev
 5004              		.thumb_set _ZNSt4listIN5Air3T6PlayerESaIS1_EEC1Ev,_ZNSt4listIN5Air3T6PlayerESaIS1_EEC2Ev
 5005              		.section	.text._ZNSt10_List_baseIN5Air3T6PlayerESaIS1_EE10_List_implD2Ev,"axG",%progbits,_ZNSt10_L
 5006              		.align	2
 5007              		.weak	_ZNSt10_List_baseIN5Air3T6PlayerESaIS1_EE10_List_implD2Ev
 5008              		.thumb
 5009              		.thumb_func
 5011              	_ZNSt10_List_baseIN5Air3T6PlayerESaIS1_EE10_List_implD2Ev:
 5012              	.LFB924:
 300:/opt/toolchains/arm-none-eabi/bin/../lib/gcc/arm-none-eabi/4.5.2/../../../../arm-none-eabi/include/c++/4.5.2/bits/stl_list.h ****       {
 5013              		.loc 28 300 0
 5014              		.cfi_startproc
 5015              		@ args = 0, pretend = 0, frame = 8
 5016              		@ frame_needed = 1, uses_anonymous_args = 0
 5017 0000 80B5     		push	{r7, lr}
 5018              	.LCFI66:
 5019              		.cfi_def_cfa_offset 8
 5020 0002 82B0     		sub	sp, sp, #8
 5021              	.LCFI67:
 5022              		.cfi_def_cfa_offset 16
 5023 0004 00AF     		add	r7, sp, #0
 5024              		.cfi_offset 14, -4
 5025              		.cfi_offset 7, -8
 5026              	.LCFI68:
 5027              		.cfi_def_cfa_register 7
 5028 0006 7860     		str	r0, [r7, #4]
 5029              	.LBB16:
 300:/opt/toolchains/arm-none-eabi/bin/../lib/gcc/arm-none-eabi/4.5.2/../../../../arm-none-eabi/include/c++/4.5.2/bits/stl_list.h ****       {
 5030              		.loc 28 300 0
 5031 0008 7B68     		ldr	r3, [r7, #4]
 5032 000a 1846     		mov	r0, r3
 5033 000c FFF7FEFF 		bl	_ZNSaISt10_List_nodeIN5Air3T6PlayerEEED2Ev
 5034              	.LBE16:
 5035 0010 7B68     		ldr	r3, [r7, #4]
 5036 0012 1846     		mov	r0, r3
 5037 0014 07F10807 		add	r7, r7, #8
 5038 0018 BD46     		mov	sp, r7
 5039 001a 80BD     		pop	{r7, pc}
 5040              		.cfi_endproc
 5041              	.LFE924:
 5043              		.weak	_ZNSt10_List_baseIN5Air3T6PlayerESaIS1_EE10_List_implD1Ev
 5044              		.thumb_set _ZNSt10_List_baseIN5Air3T6PlayerESaIS1_EE10_List_implD1Ev,_ZNSt10_List_baseIN5Air3T6Pla
 5045              		.section	.text._ZNSt10_List_baseIN5Air3T6PlayerESaIS1_EED2Ev,"axG",%progbits,_ZNSt10_List_baseIN5A
 5046              		.align	2
 5047              		.weak	_ZNSt10_List_baseIN5Air3T6PlayerESaIS1_EED2Ev
 5048              		.thumb
 5049              		.thumb_func
 5051              	_ZNSt10_List_baseIN5Air3T6PlayerESaIS1_EED2Ev:
 5052              	.LFB926:
 359:/opt/toolchains/arm-none-eabi/bin/../lib/gcc/arm-none-eabi/4.5.2/../../../../arm-none-eabi/include/c++/4.5.2/bits/stl_list.h ****       ~_List_base()
 5053              		.loc 28 359 0
 5054              		.cfi_startproc
 5055              		@ args = 0, pretend = 0, frame = 8
 5056              		@ frame_needed = 1, uses_anonymous_args = 0
 5057 0000 80B5     		push	{r7, lr}
 5058              	.LCFI69:
 5059              		.cfi_def_cfa_offset 8
 5060 0002 82B0     		sub	sp, sp, #8
 5061              	.LCFI70:
 5062              		.cfi_def_cfa_offset 16
 5063 0004 00AF     		add	r7, sp, #0
 5064              		.cfi_offset 14, -4
 5065              		.cfi_offset 7, -8
 5066              	.LCFI71:
 5067              		.cfi_def_cfa_register 7
 5068 0006 7860     		str	r0, [r7, #4]
 5069              	.LBB17:
 360:/opt/toolchains/arm-none-eabi/bin/../lib/gcc/arm-none-eabi/4.5.2/../../../../arm-none-eabi/include/c++/4.5.2/bits/stl_list.h ****       { _M_clear(); }
 5070              		.loc 28 360 0
 5071 0008 7868     		ldr	r0, [r7, #4]
 5072 000a FFF7FEFF 		bl	_ZNSt10_List_baseIN5Air3T6PlayerESaIS1_EE8_M_clearEv
 5073 000e 7B68     		ldr	r3, [r7, #4]
 5074 0010 1846     		mov	r0, r3
 5075 0012 FFF7FEFF 		bl	_ZNSt10_List_baseIN5Air3T6PlayerESaIS1_EE10_List_implD1Ev
 5076              	.LBE17:
 5077 0016 7B68     		ldr	r3, [r7, #4]
 5078 0018 1846     		mov	r0, r3
 5079 001a 07F10807 		add	r7, r7, #8
 5080 001e BD46     		mov	sp, r7
 5081 0020 80BD     		pop	{r7, pc}
 5082              		.cfi_endproc
 5083              	.LFE926:
 5085              		.weak	_ZNSt10_List_baseIN5Air3T6PlayerESaIS1_EED1Ev
 5086              		.thumb_set _ZNSt10_List_baseIN5Air3T6PlayerESaIS1_EED1Ev,_ZNSt10_List_baseIN5Air3T6PlayerESaIS1_EE
 5087 0022 00BF     		.section	.text._ZNSt4listIPN5Air3T5IViewESaIS2_EE9push_backERKS2_,"axG",%progbits,_ZNSt4listIPN5Ai
 5088              		.align	2
 5089              		.weak	_ZNSt4listIPN5Air3T5IViewESaIS2_EE9push_backERKS2_
 5090              		.thumb
 5091              		.thumb_func
 5093              	_ZNSt4listIPN5Air3T5IViewESaIS2_EE9push_backERKS2_:
 5094              	.LFB928:
 501:/opt/toolchains/arm-none-eabi/bin/../lib/gcc/arm-none-eabi/4.5.2/../../../../arm-none-eabi/include/c++/4.5.2/bits/stl_list.h **** 
 502:/opt/toolchains/arm-none-eabi/bin/../lib/gcc/arm-none-eabi/4.5.2/../../../../arm-none-eabi/include/c++/4.5.2/bits/stl_list.h ****       /**
 503:/opt/toolchains/arm-none-eabi/bin/../lib/gcc/arm-none-eabi/4.5.2/../../../../arm-none-eabi/include/c++/4.5.2/bits/stl_list.h ****        *  @brief  Creates a %list with no elements.
 504:/opt/toolchains/arm-none-eabi/bin/../lib/gcc/arm-none-eabi/4.5.2/../../../../arm-none-eabi/include/c++/4.5.2/bits/stl_list.h ****        *  @param  a  An allocator object.
 505:/opt/toolchains/arm-none-eabi/bin/../lib/gcc/arm-none-eabi/4.5.2/../../../../arm-none-eabi/include/c++/4.5.2/bits/stl_list.h ****        */
 506:/opt/toolchains/arm-none-eabi/bin/../lib/gcc/arm-none-eabi/4.5.2/../../../../arm-none-eabi/include/c++/4.5.2/bits/stl_list.h ****       explicit
 507:/opt/toolchains/arm-none-eabi/bin/../lib/gcc/arm-none-eabi/4.5.2/../../../../arm-none-eabi/include/c++/4.5.2/bits/stl_list.h ****       list(const allocator_type& __a)
 508:/opt/toolchains/arm-none-eabi/bin/../lib/gcc/arm-none-eabi/4.5.2/../../../../arm-none-eabi/include/c++/4.5.2/bits/stl_list.h ****       : _Base(__a) { }
 509:/opt/toolchains/arm-none-eabi/bin/../lib/gcc/arm-none-eabi/4.5.2/../../../../arm-none-eabi/include/c++/4.5.2/bits/stl_list.h **** 
 510:/opt/toolchains/arm-none-eabi/bin/../lib/gcc/arm-none-eabi/4.5.2/../../../../arm-none-eabi/include/c++/4.5.2/bits/stl_list.h ****       /**
 511:/opt/toolchains/arm-none-eabi/bin/../lib/gcc/arm-none-eabi/4.5.2/../../../../arm-none-eabi/include/c++/4.5.2/bits/stl_list.h ****        *  @brief  Creates a %list with copies of an exemplar element.
 512:/opt/toolchains/arm-none-eabi/bin/../lib/gcc/arm-none-eabi/4.5.2/../../../../arm-none-eabi/include/c++/4.5.2/bits/stl_list.h ****        *  @param  n  The number of elements to initially create.
 513:/opt/toolchains/arm-none-eabi/bin/../lib/gcc/arm-none-eabi/4.5.2/../../../../arm-none-eabi/include/c++/4.5.2/bits/stl_list.h ****        *  @param  value  An element to copy.
 514:/opt/toolchains/arm-none-eabi/bin/../lib/gcc/arm-none-eabi/4.5.2/../../../../arm-none-eabi/include/c++/4.5.2/bits/stl_list.h ****        *  @param  a  An allocator object.
 515:/opt/toolchains/arm-none-eabi/bin/../lib/gcc/arm-none-eabi/4.5.2/../../../../arm-none-eabi/include/c++/4.5.2/bits/stl_list.h ****        *
 516:/opt/toolchains/arm-none-eabi/bin/../lib/gcc/arm-none-eabi/4.5.2/../../../../arm-none-eabi/include/c++/4.5.2/bits/stl_list.h ****        *  This constructor fills the %list with @a n copies of @a value.
 517:/opt/toolchains/arm-none-eabi/bin/../lib/gcc/arm-none-eabi/4.5.2/../../../../arm-none-eabi/include/c++/4.5.2/bits/stl_list.h ****        */
 518:/opt/toolchains/arm-none-eabi/bin/../lib/gcc/arm-none-eabi/4.5.2/../../../../arm-none-eabi/include/c++/4.5.2/bits/stl_list.h ****       explicit
 519:/opt/toolchains/arm-none-eabi/bin/../lib/gcc/arm-none-eabi/4.5.2/../../../../arm-none-eabi/include/c++/4.5.2/bits/stl_list.h ****       list(size_type __n, const value_type& __value = value_type(),
 520:/opt/toolchains/arm-none-eabi/bin/../lib/gcc/arm-none-eabi/4.5.2/../../../../arm-none-eabi/include/c++/4.5.2/bits/stl_list.h **** 	   const allocator_type& __a = allocator_type())
 521:/opt/toolchains/arm-none-eabi/bin/../lib/gcc/arm-none-eabi/4.5.2/../../../../arm-none-eabi/include/c++/4.5.2/bits/stl_list.h ****       : _Base(__a)
 522:/opt/toolchains/arm-none-eabi/bin/../lib/gcc/arm-none-eabi/4.5.2/../../../../arm-none-eabi/include/c++/4.5.2/bits/stl_list.h ****       { _M_fill_initialize(__n, __value); }
 523:/opt/toolchains/arm-none-eabi/bin/../lib/gcc/arm-none-eabi/4.5.2/../../../../arm-none-eabi/include/c++/4.5.2/bits/stl_list.h **** 
 524:/opt/toolchains/arm-none-eabi/bin/../lib/gcc/arm-none-eabi/4.5.2/../../../../arm-none-eabi/include/c++/4.5.2/bits/stl_list.h ****       /**
 525:/opt/toolchains/arm-none-eabi/bin/../lib/gcc/arm-none-eabi/4.5.2/../../../../arm-none-eabi/include/c++/4.5.2/bits/stl_list.h ****        *  @brief  %List copy constructor.
 526:/opt/toolchains/arm-none-eabi/bin/../lib/gcc/arm-none-eabi/4.5.2/../../../../arm-none-eabi/include/c++/4.5.2/bits/stl_list.h ****        *  @param  x  A %list of identical element and allocator types.
 527:/opt/toolchains/arm-none-eabi/bin/../lib/gcc/arm-none-eabi/4.5.2/../../../../arm-none-eabi/include/c++/4.5.2/bits/stl_list.h ****        *
 528:/opt/toolchains/arm-none-eabi/bin/../lib/gcc/arm-none-eabi/4.5.2/../../../../arm-none-eabi/include/c++/4.5.2/bits/stl_list.h ****        *  The newly-created %list uses a copy of the allocation object used
 529:/opt/toolchains/arm-none-eabi/bin/../lib/gcc/arm-none-eabi/4.5.2/../../../../arm-none-eabi/include/c++/4.5.2/bits/stl_list.h ****        *  by @a x.
 530:/opt/toolchains/arm-none-eabi/bin/../lib/gcc/arm-none-eabi/4.5.2/../../../../arm-none-eabi/include/c++/4.5.2/bits/stl_list.h ****        */
 531:/opt/toolchains/arm-none-eabi/bin/../lib/gcc/arm-none-eabi/4.5.2/../../../../arm-none-eabi/include/c++/4.5.2/bits/stl_list.h ****       list(const list& __x)
 532:/opt/toolchains/arm-none-eabi/bin/../lib/gcc/arm-none-eabi/4.5.2/../../../../arm-none-eabi/include/c++/4.5.2/bits/stl_list.h ****       : _Base(__x._M_get_Node_allocator())
 533:/opt/toolchains/arm-none-eabi/bin/../lib/gcc/arm-none-eabi/4.5.2/../../../../arm-none-eabi/include/c++/4.5.2/bits/stl_list.h ****       { _M_initialize_dispatch(__x.begin(), __x.end(), __false_type()); }
 534:/opt/toolchains/arm-none-eabi/bin/../lib/gcc/arm-none-eabi/4.5.2/../../../../arm-none-eabi/include/c++/4.5.2/bits/stl_list.h **** 
 535:/opt/toolchains/arm-none-eabi/bin/../lib/gcc/arm-none-eabi/4.5.2/../../../../arm-none-eabi/include/c++/4.5.2/bits/stl_list.h **** #ifdef __GXX_EXPERIMENTAL_CXX0X__
 536:/opt/toolchains/arm-none-eabi/bin/../lib/gcc/arm-none-eabi/4.5.2/../../../../arm-none-eabi/include/c++/4.5.2/bits/stl_list.h ****       /**
 537:/opt/toolchains/arm-none-eabi/bin/../lib/gcc/arm-none-eabi/4.5.2/../../../../arm-none-eabi/include/c++/4.5.2/bits/stl_list.h ****        *  @brief  %List move constructor.
 538:/opt/toolchains/arm-none-eabi/bin/../lib/gcc/arm-none-eabi/4.5.2/../../../../arm-none-eabi/include/c++/4.5.2/bits/stl_list.h ****        *  @param  x  A %list of identical element and allocator types.
 539:/opt/toolchains/arm-none-eabi/bin/../lib/gcc/arm-none-eabi/4.5.2/../../../../arm-none-eabi/include/c++/4.5.2/bits/stl_list.h ****        *
 540:/opt/toolchains/arm-none-eabi/bin/../lib/gcc/arm-none-eabi/4.5.2/../../../../arm-none-eabi/include/c++/4.5.2/bits/stl_list.h ****        *  The newly-created %list contains the exact contents of @a x.
 541:/opt/toolchains/arm-none-eabi/bin/../lib/gcc/arm-none-eabi/4.5.2/../../../../arm-none-eabi/include/c++/4.5.2/bits/stl_list.h ****        *  The contents of @a x are a valid, but unspecified %list.
 542:/opt/toolchains/arm-none-eabi/bin/../lib/gcc/arm-none-eabi/4.5.2/../../../../arm-none-eabi/include/c++/4.5.2/bits/stl_list.h ****        */
 543:/opt/toolchains/arm-none-eabi/bin/../lib/gcc/arm-none-eabi/4.5.2/../../../../arm-none-eabi/include/c++/4.5.2/bits/stl_list.h ****       list(list&& __x)
 544:/opt/toolchains/arm-none-eabi/bin/../lib/gcc/arm-none-eabi/4.5.2/../../../../arm-none-eabi/include/c++/4.5.2/bits/stl_list.h ****       : _Base(std::forward<_Base>(__x)) { }
 545:/opt/toolchains/arm-none-eabi/bin/../lib/gcc/arm-none-eabi/4.5.2/../../../../arm-none-eabi/include/c++/4.5.2/bits/stl_list.h **** 
 546:/opt/toolchains/arm-none-eabi/bin/../lib/gcc/arm-none-eabi/4.5.2/../../../../arm-none-eabi/include/c++/4.5.2/bits/stl_list.h ****       /**
 547:/opt/toolchains/arm-none-eabi/bin/../lib/gcc/arm-none-eabi/4.5.2/../../../../arm-none-eabi/include/c++/4.5.2/bits/stl_list.h ****        *  @brief  Builds a %list from an initializer_list
 548:/opt/toolchains/arm-none-eabi/bin/../lib/gcc/arm-none-eabi/4.5.2/../../../../arm-none-eabi/include/c++/4.5.2/bits/stl_list.h ****        *  @param  l  An initializer_list of value_type.
 549:/opt/toolchains/arm-none-eabi/bin/../lib/gcc/arm-none-eabi/4.5.2/../../../../arm-none-eabi/include/c++/4.5.2/bits/stl_list.h ****        *  @param  a  An allocator object.
 550:/opt/toolchains/arm-none-eabi/bin/../lib/gcc/arm-none-eabi/4.5.2/../../../../arm-none-eabi/include/c++/4.5.2/bits/stl_list.h ****        *
 551:/opt/toolchains/arm-none-eabi/bin/../lib/gcc/arm-none-eabi/4.5.2/../../../../arm-none-eabi/include/c++/4.5.2/bits/stl_list.h ****        *  Create a %list consisting of copies of the elements in the
 552:/opt/toolchains/arm-none-eabi/bin/../lib/gcc/arm-none-eabi/4.5.2/../../../../arm-none-eabi/include/c++/4.5.2/bits/stl_list.h ****        *  initializer_list @a l.  This is linear in l.size().
 553:/opt/toolchains/arm-none-eabi/bin/../lib/gcc/arm-none-eabi/4.5.2/../../../../arm-none-eabi/include/c++/4.5.2/bits/stl_list.h ****        */
 554:/opt/toolchains/arm-none-eabi/bin/../lib/gcc/arm-none-eabi/4.5.2/../../../../arm-none-eabi/include/c++/4.5.2/bits/stl_list.h ****       list(initializer_list<value_type> __l,
 555:/opt/toolchains/arm-none-eabi/bin/../lib/gcc/arm-none-eabi/4.5.2/../../../../arm-none-eabi/include/c++/4.5.2/bits/stl_list.h ****            const allocator_type& __a = allocator_type())
 556:/opt/toolchains/arm-none-eabi/bin/../lib/gcc/arm-none-eabi/4.5.2/../../../../arm-none-eabi/include/c++/4.5.2/bits/stl_list.h ****       : _Base(__a)
 557:/opt/toolchains/arm-none-eabi/bin/../lib/gcc/arm-none-eabi/4.5.2/../../../../arm-none-eabi/include/c++/4.5.2/bits/stl_list.h ****       { _M_initialize_dispatch(__l.begin(), __l.end(), __false_type()); }
 558:/opt/toolchains/arm-none-eabi/bin/../lib/gcc/arm-none-eabi/4.5.2/../../../../arm-none-eabi/include/c++/4.5.2/bits/stl_list.h **** #endif
 559:/opt/toolchains/arm-none-eabi/bin/../lib/gcc/arm-none-eabi/4.5.2/../../../../arm-none-eabi/include/c++/4.5.2/bits/stl_list.h **** 
 560:/opt/toolchains/arm-none-eabi/bin/../lib/gcc/arm-none-eabi/4.5.2/../../../../arm-none-eabi/include/c++/4.5.2/bits/stl_list.h ****       /**
 561:/opt/toolchains/arm-none-eabi/bin/../lib/gcc/arm-none-eabi/4.5.2/../../../../arm-none-eabi/include/c++/4.5.2/bits/stl_list.h ****        *  @brief  Builds a %list from a range.
 562:/opt/toolchains/arm-none-eabi/bin/../lib/gcc/arm-none-eabi/4.5.2/../../../../arm-none-eabi/include/c++/4.5.2/bits/stl_list.h ****        *  @param  first  An input iterator.
 563:/opt/toolchains/arm-none-eabi/bin/../lib/gcc/arm-none-eabi/4.5.2/../../../../arm-none-eabi/include/c++/4.5.2/bits/stl_list.h ****        *  @param  last  An input iterator.
 564:/opt/toolchains/arm-none-eabi/bin/../lib/gcc/arm-none-eabi/4.5.2/../../../../arm-none-eabi/include/c++/4.5.2/bits/stl_list.h ****        *  @param  a  An allocator object.
 565:/opt/toolchains/arm-none-eabi/bin/../lib/gcc/arm-none-eabi/4.5.2/../../../../arm-none-eabi/include/c++/4.5.2/bits/stl_list.h ****        *
 566:/opt/toolchains/arm-none-eabi/bin/../lib/gcc/arm-none-eabi/4.5.2/../../../../arm-none-eabi/include/c++/4.5.2/bits/stl_list.h ****        *  Create a %list consisting of copies of the elements from
 567:/opt/toolchains/arm-none-eabi/bin/../lib/gcc/arm-none-eabi/4.5.2/../../../../arm-none-eabi/include/c++/4.5.2/bits/stl_list.h ****        *  [@a first,@a last).  This is linear in N (where N is
 568:/opt/toolchains/arm-none-eabi/bin/../lib/gcc/arm-none-eabi/4.5.2/../../../../arm-none-eabi/include/c++/4.5.2/bits/stl_list.h ****        *  distance(@a first,@a last)).
 569:/opt/toolchains/arm-none-eabi/bin/../lib/gcc/arm-none-eabi/4.5.2/../../../../arm-none-eabi/include/c++/4.5.2/bits/stl_list.h ****        */
 570:/opt/toolchains/arm-none-eabi/bin/../lib/gcc/arm-none-eabi/4.5.2/../../../../arm-none-eabi/include/c++/4.5.2/bits/stl_list.h ****       template<typename _InputIterator>
 571:/opt/toolchains/arm-none-eabi/bin/../lib/gcc/arm-none-eabi/4.5.2/../../../../arm-none-eabi/include/c++/4.5.2/bits/stl_list.h ****         list(_InputIterator __first, _InputIterator __last,
 572:/opt/toolchains/arm-none-eabi/bin/../lib/gcc/arm-none-eabi/4.5.2/../../../../arm-none-eabi/include/c++/4.5.2/bits/stl_list.h **** 	     const allocator_type& __a = allocator_type())
 573:/opt/toolchains/arm-none-eabi/bin/../lib/gcc/arm-none-eabi/4.5.2/../../../../arm-none-eabi/include/c++/4.5.2/bits/stl_list.h ****         : _Base(__a)
 574:/opt/toolchains/arm-none-eabi/bin/../lib/gcc/arm-none-eabi/4.5.2/../../../../arm-none-eabi/include/c++/4.5.2/bits/stl_list.h ****         { 
 575:/opt/toolchains/arm-none-eabi/bin/../lib/gcc/arm-none-eabi/4.5.2/../../../../arm-none-eabi/include/c++/4.5.2/bits/stl_list.h **** 	  // Check whether it's an integral type.  If so, it's not an iterator.
 576:/opt/toolchains/arm-none-eabi/bin/../lib/gcc/arm-none-eabi/4.5.2/../../../../arm-none-eabi/include/c++/4.5.2/bits/stl_list.h **** 	  typedef typename std::__is_integer<_InputIterator>::__type _Integral;
 577:/opt/toolchains/arm-none-eabi/bin/../lib/gcc/arm-none-eabi/4.5.2/../../../../arm-none-eabi/include/c++/4.5.2/bits/stl_list.h **** 	  _M_initialize_dispatch(__first, __last, _Integral());
 578:/opt/toolchains/arm-none-eabi/bin/../lib/gcc/arm-none-eabi/4.5.2/../../../../arm-none-eabi/include/c++/4.5.2/bits/stl_list.h **** 	}
 579:/opt/toolchains/arm-none-eabi/bin/../lib/gcc/arm-none-eabi/4.5.2/../../../../arm-none-eabi/include/c++/4.5.2/bits/stl_list.h **** 
 580:/opt/toolchains/arm-none-eabi/bin/../lib/gcc/arm-none-eabi/4.5.2/../../../../arm-none-eabi/include/c++/4.5.2/bits/stl_list.h ****       /**
 581:/opt/toolchains/arm-none-eabi/bin/../lib/gcc/arm-none-eabi/4.5.2/../../../../arm-none-eabi/include/c++/4.5.2/bits/stl_list.h ****        *  No explicit dtor needed as the _Base dtor takes care of
 582:/opt/toolchains/arm-none-eabi/bin/../lib/gcc/arm-none-eabi/4.5.2/../../../../arm-none-eabi/include/c++/4.5.2/bits/stl_list.h ****        *  things.  The _Base dtor only erases the elements, and note
 583:/opt/toolchains/arm-none-eabi/bin/../lib/gcc/arm-none-eabi/4.5.2/../../../../arm-none-eabi/include/c++/4.5.2/bits/stl_list.h ****        *  that if the elements themselves are pointers, the pointed-to
 584:/opt/toolchains/arm-none-eabi/bin/../lib/gcc/arm-none-eabi/4.5.2/../../../../arm-none-eabi/include/c++/4.5.2/bits/stl_list.h ****        *  memory is not touched in any way.  Managing the pointer is
 585:/opt/toolchains/arm-none-eabi/bin/../lib/gcc/arm-none-eabi/4.5.2/../../../../arm-none-eabi/include/c++/4.5.2/bits/stl_list.h ****        *  the user's responsibility.
 586:/opt/toolchains/arm-none-eabi/bin/../lib/gcc/arm-none-eabi/4.5.2/../../../../arm-none-eabi/include/c++/4.5.2/bits/stl_list.h ****        */
 587:/opt/toolchains/arm-none-eabi/bin/../lib/gcc/arm-none-eabi/4.5.2/../../../../arm-none-eabi/include/c++/4.5.2/bits/stl_list.h **** 
 588:/opt/toolchains/arm-none-eabi/bin/../lib/gcc/arm-none-eabi/4.5.2/../../../../arm-none-eabi/include/c++/4.5.2/bits/stl_list.h ****       /**
 589:/opt/toolchains/arm-none-eabi/bin/../lib/gcc/arm-none-eabi/4.5.2/../../../../arm-none-eabi/include/c++/4.5.2/bits/stl_list.h ****        *  @brief  %List assignment operator.
 590:/opt/toolchains/arm-none-eabi/bin/../lib/gcc/arm-none-eabi/4.5.2/../../../../arm-none-eabi/include/c++/4.5.2/bits/stl_list.h ****        *  @param  x  A %list of identical element and allocator types.
 591:/opt/toolchains/arm-none-eabi/bin/../lib/gcc/arm-none-eabi/4.5.2/../../../../arm-none-eabi/include/c++/4.5.2/bits/stl_list.h ****        *
 592:/opt/toolchains/arm-none-eabi/bin/../lib/gcc/arm-none-eabi/4.5.2/../../../../arm-none-eabi/include/c++/4.5.2/bits/stl_list.h ****        *  All the elements of @a x are copied, but unlike the copy
 593:/opt/toolchains/arm-none-eabi/bin/../lib/gcc/arm-none-eabi/4.5.2/../../../../arm-none-eabi/include/c++/4.5.2/bits/stl_list.h ****        *  constructor, the allocator object is not copied.
 594:/opt/toolchains/arm-none-eabi/bin/../lib/gcc/arm-none-eabi/4.5.2/../../../../arm-none-eabi/include/c++/4.5.2/bits/stl_list.h ****        */
 595:/opt/toolchains/arm-none-eabi/bin/../lib/gcc/arm-none-eabi/4.5.2/../../../../arm-none-eabi/include/c++/4.5.2/bits/stl_list.h ****       list&
 596:/opt/toolchains/arm-none-eabi/bin/../lib/gcc/arm-none-eabi/4.5.2/../../../../arm-none-eabi/include/c++/4.5.2/bits/stl_list.h ****       operator=(const list& __x);
 597:/opt/toolchains/arm-none-eabi/bin/../lib/gcc/arm-none-eabi/4.5.2/../../../../arm-none-eabi/include/c++/4.5.2/bits/stl_list.h **** 
 598:/opt/toolchains/arm-none-eabi/bin/../lib/gcc/arm-none-eabi/4.5.2/../../../../arm-none-eabi/include/c++/4.5.2/bits/stl_list.h **** #ifdef __GXX_EXPERIMENTAL_CXX0X__
 599:/opt/toolchains/arm-none-eabi/bin/../lib/gcc/arm-none-eabi/4.5.2/../../../../arm-none-eabi/include/c++/4.5.2/bits/stl_list.h ****       /**
 600:/opt/toolchains/arm-none-eabi/bin/../lib/gcc/arm-none-eabi/4.5.2/../../../../arm-none-eabi/include/c++/4.5.2/bits/stl_list.h ****        *  @brief  %List move assignment operator.
 601:/opt/toolchains/arm-none-eabi/bin/../lib/gcc/arm-none-eabi/4.5.2/../../../../arm-none-eabi/include/c++/4.5.2/bits/stl_list.h ****        *  @param  x  A %list of identical element and allocator types.
 602:/opt/toolchains/arm-none-eabi/bin/../lib/gcc/arm-none-eabi/4.5.2/../../../../arm-none-eabi/include/c++/4.5.2/bits/stl_list.h ****        *
 603:/opt/toolchains/arm-none-eabi/bin/../lib/gcc/arm-none-eabi/4.5.2/../../../../arm-none-eabi/include/c++/4.5.2/bits/stl_list.h ****        *  The contents of @a x are moved into this %list (without copying).
 604:/opt/toolchains/arm-none-eabi/bin/../lib/gcc/arm-none-eabi/4.5.2/../../../../arm-none-eabi/include/c++/4.5.2/bits/stl_list.h ****        *  @a x is a valid, but unspecified %list
 605:/opt/toolchains/arm-none-eabi/bin/../lib/gcc/arm-none-eabi/4.5.2/../../../../arm-none-eabi/include/c++/4.5.2/bits/stl_list.h ****        */
 606:/opt/toolchains/arm-none-eabi/bin/../lib/gcc/arm-none-eabi/4.5.2/../../../../arm-none-eabi/include/c++/4.5.2/bits/stl_list.h ****       list&
 607:/opt/toolchains/arm-none-eabi/bin/../lib/gcc/arm-none-eabi/4.5.2/../../../../arm-none-eabi/include/c++/4.5.2/bits/stl_list.h ****       operator=(list&& __x)
 608:/opt/toolchains/arm-none-eabi/bin/../lib/gcc/arm-none-eabi/4.5.2/../../../../arm-none-eabi/include/c++/4.5.2/bits/stl_list.h ****       {
 609:/opt/toolchains/arm-none-eabi/bin/../lib/gcc/arm-none-eabi/4.5.2/../../../../arm-none-eabi/include/c++/4.5.2/bits/stl_list.h **** 	// NB: DR 1204.
 610:/opt/toolchains/arm-none-eabi/bin/../lib/gcc/arm-none-eabi/4.5.2/../../../../arm-none-eabi/include/c++/4.5.2/bits/stl_list.h **** 	// NB: DR 675.
 611:/opt/toolchains/arm-none-eabi/bin/../lib/gcc/arm-none-eabi/4.5.2/../../../../arm-none-eabi/include/c++/4.5.2/bits/stl_list.h **** 	this->clear();
 612:/opt/toolchains/arm-none-eabi/bin/../lib/gcc/arm-none-eabi/4.5.2/../../../../arm-none-eabi/include/c++/4.5.2/bits/stl_list.h **** 	this->swap(__x);
 613:/opt/toolchains/arm-none-eabi/bin/../lib/gcc/arm-none-eabi/4.5.2/../../../../arm-none-eabi/include/c++/4.5.2/bits/stl_list.h **** 	return *this;
 614:/opt/toolchains/arm-none-eabi/bin/../lib/gcc/arm-none-eabi/4.5.2/../../../../arm-none-eabi/include/c++/4.5.2/bits/stl_list.h ****       }
 615:/opt/toolchains/arm-none-eabi/bin/../lib/gcc/arm-none-eabi/4.5.2/../../../../arm-none-eabi/include/c++/4.5.2/bits/stl_list.h **** 
 616:/opt/toolchains/arm-none-eabi/bin/../lib/gcc/arm-none-eabi/4.5.2/../../../../arm-none-eabi/include/c++/4.5.2/bits/stl_list.h ****       /**
 617:/opt/toolchains/arm-none-eabi/bin/../lib/gcc/arm-none-eabi/4.5.2/../../../../arm-none-eabi/include/c++/4.5.2/bits/stl_list.h ****        *  @brief  %List initializer list assignment operator.
 618:/opt/toolchains/arm-none-eabi/bin/../lib/gcc/arm-none-eabi/4.5.2/../../../../arm-none-eabi/include/c++/4.5.2/bits/stl_list.h ****        *  @param  l  An initializer_list of value_type.
 619:/opt/toolchains/arm-none-eabi/bin/../lib/gcc/arm-none-eabi/4.5.2/../../../../arm-none-eabi/include/c++/4.5.2/bits/stl_list.h ****        *
 620:/opt/toolchains/arm-none-eabi/bin/../lib/gcc/arm-none-eabi/4.5.2/../../../../arm-none-eabi/include/c++/4.5.2/bits/stl_list.h ****        *  Replace the contents of the %list with copies of the elements
 621:/opt/toolchains/arm-none-eabi/bin/../lib/gcc/arm-none-eabi/4.5.2/../../../../arm-none-eabi/include/c++/4.5.2/bits/stl_list.h ****        *  in the initializer_list @a l.  This is linear in l.size().
 622:/opt/toolchains/arm-none-eabi/bin/../lib/gcc/arm-none-eabi/4.5.2/../../../../arm-none-eabi/include/c++/4.5.2/bits/stl_list.h ****        */
 623:/opt/toolchains/arm-none-eabi/bin/../lib/gcc/arm-none-eabi/4.5.2/../../../../arm-none-eabi/include/c++/4.5.2/bits/stl_list.h ****       list&
 624:/opt/toolchains/arm-none-eabi/bin/../lib/gcc/arm-none-eabi/4.5.2/../../../../arm-none-eabi/include/c++/4.5.2/bits/stl_list.h ****       operator=(initializer_list<value_type> __l)
 625:/opt/toolchains/arm-none-eabi/bin/../lib/gcc/arm-none-eabi/4.5.2/../../../../arm-none-eabi/include/c++/4.5.2/bits/stl_list.h ****       {
 626:/opt/toolchains/arm-none-eabi/bin/../lib/gcc/arm-none-eabi/4.5.2/../../../../arm-none-eabi/include/c++/4.5.2/bits/stl_list.h **** 	this->assign(__l.begin(), __l.end());
 627:/opt/toolchains/arm-none-eabi/bin/../lib/gcc/arm-none-eabi/4.5.2/../../../../arm-none-eabi/include/c++/4.5.2/bits/stl_list.h **** 	return *this;
 628:/opt/toolchains/arm-none-eabi/bin/../lib/gcc/arm-none-eabi/4.5.2/../../../../arm-none-eabi/include/c++/4.5.2/bits/stl_list.h ****       }
 629:/opt/toolchains/arm-none-eabi/bin/../lib/gcc/arm-none-eabi/4.5.2/../../../../arm-none-eabi/include/c++/4.5.2/bits/stl_list.h **** #endif
 630:/opt/toolchains/arm-none-eabi/bin/../lib/gcc/arm-none-eabi/4.5.2/../../../../arm-none-eabi/include/c++/4.5.2/bits/stl_list.h **** 
 631:/opt/toolchains/arm-none-eabi/bin/../lib/gcc/arm-none-eabi/4.5.2/../../../../arm-none-eabi/include/c++/4.5.2/bits/stl_list.h ****       /**
 632:/opt/toolchains/arm-none-eabi/bin/../lib/gcc/arm-none-eabi/4.5.2/../../../../arm-none-eabi/include/c++/4.5.2/bits/stl_list.h ****        *  @brief  Assigns a given value to a %list.
 633:/opt/toolchains/arm-none-eabi/bin/../lib/gcc/arm-none-eabi/4.5.2/../../../../arm-none-eabi/include/c++/4.5.2/bits/stl_list.h ****        *  @param  n  Number of elements to be assigned.
 634:/opt/toolchains/arm-none-eabi/bin/../lib/gcc/arm-none-eabi/4.5.2/../../../../arm-none-eabi/include/c++/4.5.2/bits/stl_list.h ****        *  @param  val  Value to be assigned.
 635:/opt/toolchains/arm-none-eabi/bin/../lib/gcc/arm-none-eabi/4.5.2/../../../../arm-none-eabi/include/c++/4.5.2/bits/stl_list.h ****        *
 636:/opt/toolchains/arm-none-eabi/bin/../lib/gcc/arm-none-eabi/4.5.2/../../../../arm-none-eabi/include/c++/4.5.2/bits/stl_list.h ****        *  This function fills a %list with @a n copies of the given
 637:/opt/toolchains/arm-none-eabi/bin/../lib/gcc/arm-none-eabi/4.5.2/../../../../arm-none-eabi/include/c++/4.5.2/bits/stl_list.h ****        *  value.  Note that the assignment completely changes the %list
 638:/opt/toolchains/arm-none-eabi/bin/../lib/gcc/arm-none-eabi/4.5.2/../../../../arm-none-eabi/include/c++/4.5.2/bits/stl_list.h ****        *  and that the resulting %list's size is the same as the number
 639:/opt/toolchains/arm-none-eabi/bin/../lib/gcc/arm-none-eabi/4.5.2/../../../../arm-none-eabi/include/c++/4.5.2/bits/stl_list.h ****        *  of elements assigned.  Old data may be lost.
 640:/opt/toolchains/arm-none-eabi/bin/../lib/gcc/arm-none-eabi/4.5.2/../../../../arm-none-eabi/include/c++/4.5.2/bits/stl_list.h ****        */
 641:/opt/toolchains/arm-none-eabi/bin/../lib/gcc/arm-none-eabi/4.5.2/../../../../arm-none-eabi/include/c++/4.5.2/bits/stl_list.h ****       void
 642:/opt/toolchains/arm-none-eabi/bin/../lib/gcc/arm-none-eabi/4.5.2/../../../../arm-none-eabi/include/c++/4.5.2/bits/stl_list.h ****       assign(size_type __n, const value_type& __val)
 643:/opt/toolchains/arm-none-eabi/bin/../lib/gcc/arm-none-eabi/4.5.2/../../../../arm-none-eabi/include/c++/4.5.2/bits/stl_list.h ****       { _M_fill_assign(__n, __val); }
 644:/opt/toolchains/arm-none-eabi/bin/../lib/gcc/arm-none-eabi/4.5.2/../../../../arm-none-eabi/include/c++/4.5.2/bits/stl_list.h **** 
 645:/opt/toolchains/arm-none-eabi/bin/../lib/gcc/arm-none-eabi/4.5.2/../../../../arm-none-eabi/include/c++/4.5.2/bits/stl_list.h ****       /**
 646:/opt/toolchains/arm-none-eabi/bin/../lib/gcc/arm-none-eabi/4.5.2/../../../../arm-none-eabi/include/c++/4.5.2/bits/stl_list.h ****        *  @brief  Assigns a range to a %list.
 647:/opt/toolchains/arm-none-eabi/bin/../lib/gcc/arm-none-eabi/4.5.2/../../../../arm-none-eabi/include/c++/4.5.2/bits/stl_list.h ****        *  @param  first  An input iterator.
 648:/opt/toolchains/arm-none-eabi/bin/../lib/gcc/arm-none-eabi/4.5.2/../../../../arm-none-eabi/include/c++/4.5.2/bits/stl_list.h ****        *  @param  last   An input iterator.
 649:/opt/toolchains/arm-none-eabi/bin/../lib/gcc/arm-none-eabi/4.5.2/../../../../arm-none-eabi/include/c++/4.5.2/bits/stl_list.h ****        *
 650:/opt/toolchains/arm-none-eabi/bin/../lib/gcc/arm-none-eabi/4.5.2/../../../../arm-none-eabi/include/c++/4.5.2/bits/stl_list.h ****        *  This function fills a %list with copies of the elements in the
 651:/opt/toolchains/arm-none-eabi/bin/../lib/gcc/arm-none-eabi/4.5.2/../../../../arm-none-eabi/include/c++/4.5.2/bits/stl_list.h ****        *  range [@a first,@a last).
 652:/opt/toolchains/arm-none-eabi/bin/../lib/gcc/arm-none-eabi/4.5.2/../../../../arm-none-eabi/include/c++/4.5.2/bits/stl_list.h ****        *
 653:/opt/toolchains/arm-none-eabi/bin/../lib/gcc/arm-none-eabi/4.5.2/../../../../arm-none-eabi/include/c++/4.5.2/bits/stl_list.h ****        *  Note that the assignment completely changes the %list and
 654:/opt/toolchains/arm-none-eabi/bin/../lib/gcc/arm-none-eabi/4.5.2/../../../../arm-none-eabi/include/c++/4.5.2/bits/stl_list.h ****        *  that the resulting %list's size is the same as the number of
 655:/opt/toolchains/arm-none-eabi/bin/../lib/gcc/arm-none-eabi/4.5.2/../../../../arm-none-eabi/include/c++/4.5.2/bits/stl_list.h ****        *  elements assigned.  Old data may be lost.
 656:/opt/toolchains/arm-none-eabi/bin/../lib/gcc/arm-none-eabi/4.5.2/../../../../arm-none-eabi/include/c++/4.5.2/bits/stl_list.h ****        */
 657:/opt/toolchains/arm-none-eabi/bin/../lib/gcc/arm-none-eabi/4.5.2/../../../../arm-none-eabi/include/c++/4.5.2/bits/stl_list.h ****       template<typename _InputIterator>
 658:/opt/toolchains/arm-none-eabi/bin/../lib/gcc/arm-none-eabi/4.5.2/../../../../arm-none-eabi/include/c++/4.5.2/bits/stl_list.h ****         void
 659:/opt/toolchains/arm-none-eabi/bin/../lib/gcc/arm-none-eabi/4.5.2/../../../../arm-none-eabi/include/c++/4.5.2/bits/stl_list.h ****         assign(_InputIterator __first, _InputIterator __last)
 660:/opt/toolchains/arm-none-eabi/bin/../lib/gcc/arm-none-eabi/4.5.2/../../../../arm-none-eabi/include/c++/4.5.2/bits/stl_list.h ****         {
 661:/opt/toolchains/arm-none-eabi/bin/../lib/gcc/arm-none-eabi/4.5.2/../../../../arm-none-eabi/include/c++/4.5.2/bits/stl_list.h **** 	  // Check whether it's an integral type.  If so, it's not an iterator.
 662:/opt/toolchains/arm-none-eabi/bin/../lib/gcc/arm-none-eabi/4.5.2/../../../../arm-none-eabi/include/c++/4.5.2/bits/stl_list.h **** 	  typedef typename std::__is_integer<_InputIterator>::__type _Integral;
 663:/opt/toolchains/arm-none-eabi/bin/../lib/gcc/arm-none-eabi/4.5.2/../../../../arm-none-eabi/include/c++/4.5.2/bits/stl_list.h **** 	  _M_assign_dispatch(__first, __last, _Integral());
 664:/opt/toolchains/arm-none-eabi/bin/../lib/gcc/arm-none-eabi/4.5.2/../../../../arm-none-eabi/include/c++/4.5.2/bits/stl_list.h **** 	}
 665:/opt/toolchains/arm-none-eabi/bin/../lib/gcc/arm-none-eabi/4.5.2/../../../../arm-none-eabi/include/c++/4.5.2/bits/stl_list.h **** 
 666:/opt/toolchains/arm-none-eabi/bin/../lib/gcc/arm-none-eabi/4.5.2/../../../../arm-none-eabi/include/c++/4.5.2/bits/stl_list.h **** #ifdef __GXX_EXPERIMENTAL_CXX0X__
 667:/opt/toolchains/arm-none-eabi/bin/../lib/gcc/arm-none-eabi/4.5.2/../../../../arm-none-eabi/include/c++/4.5.2/bits/stl_list.h ****       /**
 668:/opt/toolchains/arm-none-eabi/bin/../lib/gcc/arm-none-eabi/4.5.2/../../../../arm-none-eabi/include/c++/4.5.2/bits/stl_list.h ****        *  @brief  Assigns an initializer_list to a %list.
 669:/opt/toolchains/arm-none-eabi/bin/../lib/gcc/arm-none-eabi/4.5.2/../../../../arm-none-eabi/include/c++/4.5.2/bits/stl_list.h ****        *  @param  l  An initializer_list of value_type.
 670:/opt/toolchains/arm-none-eabi/bin/../lib/gcc/arm-none-eabi/4.5.2/../../../../arm-none-eabi/include/c++/4.5.2/bits/stl_list.h ****        *
 671:/opt/toolchains/arm-none-eabi/bin/../lib/gcc/arm-none-eabi/4.5.2/../../../../arm-none-eabi/include/c++/4.5.2/bits/stl_list.h ****        *  Replace the contents of the %list with copies of the elements
 672:/opt/toolchains/arm-none-eabi/bin/../lib/gcc/arm-none-eabi/4.5.2/../../../../arm-none-eabi/include/c++/4.5.2/bits/stl_list.h ****        *  in the initializer_list @a l.  This is linear in l.size().
 673:/opt/toolchains/arm-none-eabi/bin/../lib/gcc/arm-none-eabi/4.5.2/../../../../arm-none-eabi/include/c++/4.5.2/bits/stl_list.h ****        */
 674:/opt/toolchains/arm-none-eabi/bin/../lib/gcc/arm-none-eabi/4.5.2/../../../../arm-none-eabi/include/c++/4.5.2/bits/stl_list.h ****       void
 675:/opt/toolchains/arm-none-eabi/bin/../lib/gcc/arm-none-eabi/4.5.2/../../../../arm-none-eabi/include/c++/4.5.2/bits/stl_list.h ****       assign(initializer_list<value_type> __l)
 676:/opt/toolchains/arm-none-eabi/bin/../lib/gcc/arm-none-eabi/4.5.2/../../../../arm-none-eabi/include/c++/4.5.2/bits/stl_list.h ****       { this->assign(__l.begin(), __l.end()); }
 677:/opt/toolchains/arm-none-eabi/bin/../lib/gcc/arm-none-eabi/4.5.2/../../../../arm-none-eabi/include/c++/4.5.2/bits/stl_list.h **** #endif
 678:/opt/toolchains/arm-none-eabi/bin/../lib/gcc/arm-none-eabi/4.5.2/../../../../arm-none-eabi/include/c++/4.5.2/bits/stl_list.h **** 
 679:/opt/toolchains/arm-none-eabi/bin/../lib/gcc/arm-none-eabi/4.5.2/../../../../arm-none-eabi/include/c++/4.5.2/bits/stl_list.h ****       /// Get a copy of the memory allocation object.
 680:/opt/toolchains/arm-none-eabi/bin/../lib/gcc/arm-none-eabi/4.5.2/../../../../arm-none-eabi/include/c++/4.5.2/bits/stl_list.h ****       allocator_type
 681:/opt/toolchains/arm-none-eabi/bin/../lib/gcc/arm-none-eabi/4.5.2/../../../../arm-none-eabi/include/c++/4.5.2/bits/stl_list.h ****       get_allocator() const
 682:/opt/toolchains/arm-none-eabi/bin/../lib/gcc/arm-none-eabi/4.5.2/../../../../arm-none-eabi/include/c++/4.5.2/bits/stl_list.h ****       { return _Base::get_allocator(); }
 683:/opt/toolchains/arm-none-eabi/bin/../lib/gcc/arm-none-eabi/4.5.2/../../../../arm-none-eabi/include/c++/4.5.2/bits/stl_list.h **** 
 684:/opt/toolchains/arm-none-eabi/bin/../lib/gcc/arm-none-eabi/4.5.2/../../../../arm-none-eabi/include/c++/4.5.2/bits/stl_list.h ****       // iterators
 685:/opt/toolchains/arm-none-eabi/bin/../lib/gcc/arm-none-eabi/4.5.2/../../../../arm-none-eabi/include/c++/4.5.2/bits/stl_list.h ****       /**
 686:/opt/toolchains/arm-none-eabi/bin/../lib/gcc/arm-none-eabi/4.5.2/../../../../arm-none-eabi/include/c++/4.5.2/bits/stl_list.h ****        *  Returns a read/write iterator that points to the first element in the
 687:/opt/toolchains/arm-none-eabi/bin/../lib/gcc/arm-none-eabi/4.5.2/../../../../arm-none-eabi/include/c++/4.5.2/bits/stl_list.h ****        *  %list.  Iteration is done in ordinary element order.
 688:/opt/toolchains/arm-none-eabi/bin/../lib/gcc/arm-none-eabi/4.5.2/../../../../arm-none-eabi/include/c++/4.5.2/bits/stl_list.h ****        */
 689:/opt/toolchains/arm-none-eabi/bin/../lib/gcc/arm-none-eabi/4.5.2/../../../../arm-none-eabi/include/c++/4.5.2/bits/stl_list.h ****       iterator
 690:/opt/toolchains/arm-none-eabi/bin/../lib/gcc/arm-none-eabi/4.5.2/../../../../arm-none-eabi/include/c++/4.5.2/bits/stl_list.h ****       begin()
 691:/opt/toolchains/arm-none-eabi/bin/../lib/gcc/arm-none-eabi/4.5.2/../../../../arm-none-eabi/include/c++/4.5.2/bits/stl_list.h ****       { return iterator(this->_M_impl._M_node._M_next); }
 692:/opt/toolchains/arm-none-eabi/bin/../lib/gcc/arm-none-eabi/4.5.2/../../../../arm-none-eabi/include/c++/4.5.2/bits/stl_list.h **** 
 693:/opt/toolchains/arm-none-eabi/bin/../lib/gcc/arm-none-eabi/4.5.2/../../../../arm-none-eabi/include/c++/4.5.2/bits/stl_list.h ****       /**
 694:/opt/toolchains/arm-none-eabi/bin/../lib/gcc/arm-none-eabi/4.5.2/../../../../arm-none-eabi/include/c++/4.5.2/bits/stl_list.h ****        *  Returns a read-only (constant) iterator that points to the
 695:/opt/toolchains/arm-none-eabi/bin/../lib/gcc/arm-none-eabi/4.5.2/../../../../arm-none-eabi/include/c++/4.5.2/bits/stl_list.h ****        *  first element in the %list.  Iteration is done in ordinary
 696:/opt/toolchains/arm-none-eabi/bin/../lib/gcc/arm-none-eabi/4.5.2/../../../../arm-none-eabi/include/c++/4.5.2/bits/stl_list.h ****        *  element order.
 697:/opt/toolchains/arm-none-eabi/bin/../lib/gcc/arm-none-eabi/4.5.2/../../../../arm-none-eabi/include/c++/4.5.2/bits/stl_list.h ****        */
 698:/opt/toolchains/arm-none-eabi/bin/../lib/gcc/arm-none-eabi/4.5.2/../../../../arm-none-eabi/include/c++/4.5.2/bits/stl_list.h ****       const_iterator
 699:/opt/toolchains/arm-none-eabi/bin/../lib/gcc/arm-none-eabi/4.5.2/../../../../arm-none-eabi/include/c++/4.5.2/bits/stl_list.h ****       begin() const
 700:/opt/toolchains/arm-none-eabi/bin/../lib/gcc/arm-none-eabi/4.5.2/../../../../arm-none-eabi/include/c++/4.5.2/bits/stl_list.h ****       { return const_iterator(this->_M_impl._M_node._M_next); }
 701:/opt/toolchains/arm-none-eabi/bin/../lib/gcc/arm-none-eabi/4.5.2/../../../../arm-none-eabi/include/c++/4.5.2/bits/stl_list.h **** 
 702:/opt/toolchains/arm-none-eabi/bin/../lib/gcc/arm-none-eabi/4.5.2/../../../../arm-none-eabi/include/c++/4.5.2/bits/stl_list.h ****       /**
 703:/opt/toolchains/arm-none-eabi/bin/../lib/gcc/arm-none-eabi/4.5.2/../../../../arm-none-eabi/include/c++/4.5.2/bits/stl_list.h ****        *  Returns a read/write iterator that points one past the last
 704:/opt/toolchains/arm-none-eabi/bin/../lib/gcc/arm-none-eabi/4.5.2/../../../../arm-none-eabi/include/c++/4.5.2/bits/stl_list.h ****        *  element in the %list.  Iteration is done in ordinary element
 705:/opt/toolchains/arm-none-eabi/bin/../lib/gcc/arm-none-eabi/4.5.2/../../../../arm-none-eabi/include/c++/4.5.2/bits/stl_list.h ****        *  order.
 706:/opt/toolchains/arm-none-eabi/bin/../lib/gcc/arm-none-eabi/4.5.2/../../../../arm-none-eabi/include/c++/4.5.2/bits/stl_list.h ****        */
 707:/opt/toolchains/arm-none-eabi/bin/../lib/gcc/arm-none-eabi/4.5.2/../../../../arm-none-eabi/include/c++/4.5.2/bits/stl_list.h ****       iterator
 708:/opt/toolchains/arm-none-eabi/bin/../lib/gcc/arm-none-eabi/4.5.2/../../../../arm-none-eabi/include/c++/4.5.2/bits/stl_list.h ****       end()
 709:/opt/toolchains/arm-none-eabi/bin/../lib/gcc/arm-none-eabi/4.5.2/../../../../arm-none-eabi/include/c++/4.5.2/bits/stl_list.h ****       { return iterator(&this->_M_impl._M_node); }
 710:/opt/toolchains/arm-none-eabi/bin/../lib/gcc/arm-none-eabi/4.5.2/../../../../arm-none-eabi/include/c++/4.5.2/bits/stl_list.h **** 
 711:/opt/toolchains/arm-none-eabi/bin/../lib/gcc/arm-none-eabi/4.5.2/../../../../arm-none-eabi/include/c++/4.5.2/bits/stl_list.h ****       /**
 712:/opt/toolchains/arm-none-eabi/bin/../lib/gcc/arm-none-eabi/4.5.2/../../../../arm-none-eabi/include/c++/4.5.2/bits/stl_list.h ****        *  Returns a read-only (constant) iterator that points one past
 713:/opt/toolchains/arm-none-eabi/bin/../lib/gcc/arm-none-eabi/4.5.2/../../../../arm-none-eabi/include/c++/4.5.2/bits/stl_list.h ****        *  the last element in the %list.  Iteration is done in ordinary
 714:/opt/toolchains/arm-none-eabi/bin/../lib/gcc/arm-none-eabi/4.5.2/../../../../arm-none-eabi/include/c++/4.5.2/bits/stl_list.h ****        *  element order.
 715:/opt/toolchains/arm-none-eabi/bin/../lib/gcc/arm-none-eabi/4.5.2/../../../../arm-none-eabi/include/c++/4.5.2/bits/stl_list.h ****        */
 716:/opt/toolchains/arm-none-eabi/bin/../lib/gcc/arm-none-eabi/4.5.2/../../../../arm-none-eabi/include/c++/4.5.2/bits/stl_list.h ****       const_iterator
 717:/opt/toolchains/arm-none-eabi/bin/../lib/gcc/arm-none-eabi/4.5.2/../../../../arm-none-eabi/include/c++/4.5.2/bits/stl_list.h ****       end() const
 718:/opt/toolchains/arm-none-eabi/bin/../lib/gcc/arm-none-eabi/4.5.2/../../../../arm-none-eabi/include/c++/4.5.2/bits/stl_list.h ****       { return const_iterator(&this->_M_impl._M_node); }
 719:/opt/toolchains/arm-none-eabi/bin/../lib/gcc/arm-none-eabi/4.5.2/../../../../arm-none-eabi/include/c++/4.5.2/bits/stl_list.h **** 
 720:/opt/toolchains/arm-none-eabi/bin/../lib/gcc/arm-none-eabi/4.5.2/../../../../arm-none-eabi/include/c++/4.5.2/bits/stl_list.h ****       /**
 721:/opt/toolchains/arm-none-eabi/bin/../lib/gcc/arm-none-eabi/4.5.2/../../../../arm-none-eabi/include/c++/4.5.2/bits/stl_list.h ****        *  Returns a read/write reverse iterator that points to the last
 722:/opt/toolchains/arm-none-eabi/bin/../lib/gcc/arm-none-eabi/4.5.2/../../../../arm-none-eabi/include/c++/4.5.2/bits/stl_list.h ****        *  element in the %list.  Iteration is done in reverse element
 723:/opt/toolchains/arm-none-eabi/bin/../lib/gcc/arm-none-eabi/4.5.2/../../../../arm-none-eabi/include/c++/4.5.2/bits/stl_list.h ****        *  order.
 724:/opt/toolchains/arm-none-eabi/bin/../lib/gcc/arm-none-eabi/4.5.2/../../../../arm-none-eabi/include/c++/4.5.2/bits/stl_list.h ****        */
 725:/opt/toolchains/arm-none-eabi/bin/../lib/gcc/arm-none-eabi/4.5.2/../../../../arm-none-eabi/include/c++/4.5.2/bits/stl_list.h ****       reverse_iterator
 726:/opt/toolchains/arm-none-eabi/bin/../lib/gcc/arm-none-eabi/4.5.2/../../../../arm-none-eabi/include/c++/4.5.2/bits/stl_list.h ****       rbegin()
 727:/opt/toolchains/arm-none-eabi/bin/../lib/gcc/arm-none-eabi/4.5.2/../../../../arm-none-eabi/include/c++/4.5.2/bits/stl_list.h ****       { return reverse_iterator(end()); }
 728:/opt/toolchains/arm-none-eabi/bin/../lib/gcc/arm-none-eabi/4.5.2/../../../../arm-none-eabi/include/c++/4.5.2/bits/stl_list.h **** 
 729:/opt/toolchains/arm-none-eabi/bin/../lib/gcc/arm-none-eabi/4.5.2/../../../../arm-none-eabi/include/c++/4.5.2/bits/stl_list.h ****       /**
 730:/opt/toolchains/arm-none-eabi/bin/../lib/gcc/arm-none-eabi/4.5.2/../../../../arm-none-eabi/include/c++/4.5.2/bits/stl_list.h ****        *  Returns a read-only (constant) reverse iterator that points to
 731:/opt/toolchains/arm-none-eabi/bin/../lib/gcc/arm-none-eabi/4.5.2/../../../../arm-none-eabi/include/c++/4.5.2/bits/stl_list.h ****        *  the last element in the %list.  Iteration is done in reverse
 732:/opt/toolchains/arm-none-eabi/bin/../lib/gcc/arm-none-eabi/4.5.2/../../../../arm-none-eabi/include/c++/4.5.2/bits/stl_list.h ****        *  element order.
 733:/opt/toolchains/arm-none-eabi/bin/../lib/gcc/arm-none-eabi/4.5.2/../../../../arm-none-eabi/include/c++/4.5.2/bits/stl_list.h ****        */
 734:/opt/toolchains/arm-none-eabi/bin/../lib/gcc/arm-none-eabi/4.5.2/../../../../arm-none-eabi/include/c++/4.5.2/bits/stl_list.h ****       const_reverse_iterator
 735:/opt/toolchains/arm-none-eabi/bin/../lib/gcc/arm-none-eabi/4.5.2/../../../../arm-none-eabi/include/c++/4.5.2/bits/stl_list.h ****       rbegin() const
 736:/opt/toolchains/arm-none-eabi/bin/../lib/gcc/arm-none-eabi/4.5.2/../../../../arm-none-eabi/include/c++/4.5.2/bits/stl_list.h ****       { return const_reverse_iterator(end()); }
 737:/opt/toolchains/arm-none-eabi/bin/../lib/gcc/arm-none-eabi/4.5.2/../../../../arm-none-eabi/include/c++/4.5.2/bits/stl_list.h **** 
 738:/opt/toolchains/arm-none-eabi/bin/../lib/gcc/arm-none-eabi/4.5.2/../../../../arm-none-eabi/include/c++/4.5.2/bits/stl_list.h ****       /**
 739:/opt/toolchains/arm-none-eabi/bin/../lib/gcc/arm-none-eabi/4.5.2/../../../../arm-none-eabi/include/c++/4.5.2/bits/stl_list.h ****        *  Returns a read/write reverse iterator that points to one
 740:/opt/toolchains/arm-none-eabi/bin/../lib/gcc/arm-none-eabi/4.5.2/../../../../arm-none-eabi/include/c++/4.5.2/bits/stl_list.h ****        *  before the first element in the %list.  Iteration is done in
 741:/opt/toolchains/arm-none-eabi/bin/../lib/gcc/arm-none-eabi/4.5.2/../../../../arm-none-eabi/include/c++/4.5.2/bits/stl_list.h ****        *  reverse element order.
 742:/opt/toolchains/arm-none-eabi/bin/../lib/gcc/arm-none-eabi/4.5.2/../../../../arm-none-eabi/include/c++/4.5.2/bits/stl_list.h ****        */
 743:/opt/toolchains/arm-none-eabi/bin/../lib/gcc/arm-none-eabi/4.5.2/../../../../arm-none-eabi/include/c++/4.5.2/bits/stl_list.h ****       reverse_iterator
 744:/opt/toolchains/arm-none-eabi/bin/../lib/gcc/arm-none-eabi/4.5.2/../../../../arm-none-eabi/include/c++/4.5.2/bits/stl_list.h ****       rend()
 745:/opt/toolchains/arm-none-eabi/bin/../lib/gcc/arm-none-eabi/4.5.2/../../../../arm-none-eabi/include/c++/4.5.2/bits/stl_list.h ****       { return reverse_iterator(begin()); }
 746:/opt/toolchains/arm-none-eabi/bin/../lib/gcc/arm-none-eabi/4.5.2/../../../../arm-none-eabi/include/c++/4.5.2/bits/stl_list.h **** 
 747:/opt/toolchains/arm-none-eabi/bin/../lib/gcc/arm-none-eabi/4.5.2/../../../../arm-none-eabi/include/c++/4.5.2/bits/stl_list.h ****       /**
 748:/opt/toolchains/arm-none-eabi/bin/../lib/gcc/arm-none-eabi/4.5.2/../../../../arm-none-eabi/include/c++/4.5.2/bits/stl_list.h ****        *  Returns a read-only (constant) reverse iterator that points to one
 749:/opt/toolchains/arm-none-eabi/bin/../lib/gcc/arm-none-eabi/4.5.2/../../../../arm-none-eabi/include/c++/4.5.2/bits/stl_list.h ****        *  before the first element in the %list.  Iteration is done in reverse
 750:/opt/toolchains/arm-none-eabi/bin/../lib/gcc/arm-none-eabi/4.5.2/../../../../arm-none-eabi/include/c++/4.5.2/bits/stl_list.h ****        *  element order.
 751:/opt/toolchains/arm-none-eabi/bin/../lib/gcc/arm-none-eabi/4.5.2/../../../../arm-none-eabi/include/c++/4.5.2/bits/stl_list.h ****        */
 752:/opt/toolchains/arm-none-eabi/bin/../lib/gcc/arm-none-eabi/4.5.2/../../../../arm-none-eabi/include/c++/4.5.2/bits/stl_list.h ****       const_reverse_iterator
 753:/opt/toolchains/arm-none-eabi/bin/../lib/gcc/arm-none-eabi/4.5.2/../../../../arm-none-eabi/include/c++/4.5.2/bits/stl_list.h ****       rend() const
 754:/opt/toolchains/arm-none-eabi/bin/../lib/gcc/arm-none-eabi/4.5.2/../../../../arm-none-eabi/include/c++/4.5.2/bits/stl_list.h ****       { return const_reverse_iterator(begin()); }
 755:/opt/toolchains/arm-none-eabi/bin/../lib/gcc/arm-none-eabi/4.5.2/../../../../arm-none-eabi/include/c++/4.5.2/bits/stl_list.h **** 
 756:/opt/toolchains/arm-none-eabi/bin/../lib/gcc/arm-none-eabi/4.5.2/../../../../arm-none-eabi/include/c++/4.5.2/bits/stl_list.h **** #ifdef __GXX_EXPERIMENTAL_CXX0X__
 757:/opt/toolchains/arm-none-eabi/bin/../lib/gcc/arm-none-eabi/4.5.2/../../../../arm-none-eabi/include/c++/4.5.2/bits/stl_list.h ****       /**
 758:/opt/toolchains/arm-none-eabi/bin/../lib/gcc/arm-none-eabi/4.5.2/../../../../arm-none-eabi/include/c++/4.5.2/bits/stl_list.h ****        *  Returns a read-only (constant) iterator that points to the
 759:/opt/toolchains/arm-none-eabi/bin/../lib/gcc/arm-none-eabi/4.5.2/../../../../arm-none-eabi/include/c++/4.5.2/bits/stl_list.h ****        *  first element in the %list.  Iteration is done in ordinary
 760:/opt/toolchains/arm-none-eabi/bin/../lib/gcc/arm-none-eabi/4.5.2/../../../../arm-none-eabi/include/c++/4.5.2/bits/stl_list.h ****        *  element order.
 761:/opt/toolchains/arm-none-eabi/bin/../lib/gcc/arm-none-eabi/4.5.2/../../../../arm-none-eabi/include/c++/4.5.2/bits/stl_list.h ****        */
 762:/opt/toolchains/arm-none-eabi/bin/../lib/gcc/arm-none-eabi/4.5.2/../../../../arm-none-eabi/include/c++/4.5.2/bits/stl_list.h ****       const_iterator
 763:/opt/toolchains/arm-none-eabi/bin/../lib/gcc/arm-none-eabi/4.5.2/../../../../arm-none-eabi/include/c++/4.5.2/bits/stl_list.h ****       cbegin() const
 764:/opt/toolchains/arm-none-eabi/bin/../lib/gcc/arm-none-eabi/4.5.2/../../../../arm-none-eabi/include/c++/4.5.2/bits/stl_list.h ****       { return const_iterator(this->_M_impl._M_node._M_next); }
 765:/opt/toolchains/arm-none-eabi/bin/../lib/gcc/arm-none-eabi/4.5.2/../../../../arm-none-eabi/include/c++/4.5.2/bits/stl_list.h **** 
 766:/opt/toolchains/arm-none-eabi/bin/../lib/gcc/arm-none-eabi/4.5.2/../../../../arm-none-eabi/include/c++/4.5.2/bits/stl_list.h ****       /**
 767:/opt/toolchains/arm-none-eabi/bin/../lib/gcc/arm-none-eabi/4.5.2/../../../../arm-none-eabi/include/c++/4.5.2/bits/stl_list.h ****        *  Returns a read-only (constant) iterator that points one past
 768:/opt/toolchains/arm-none-eabi/bin/../lib/gcc/arm-none-eabi/4.5.2/../../../../arm-none-eabi/include/c++/4.5.2/bits/stl_list.h ****        *  the last element in the %list.  Iteration is done in ordinary
 769:/opt/toolchains/arm-none-eabi/bin/../lib/gcc/arm-none-eabi/4.5.2/../../../../arm-none-eabi/include/c++/4.5.2/bits/stl_list.h ****        *  element order.
 770:/opt/toolchains/arm-none-eabi/bin/../lib/gcc/arm-none-eabi/4.5.2/../../../../arm-none-eabi/include/c++/4.5.2/bits/stl_list.h ****        */
 771:/opt/toolchains/arm-none-eabi/bin/../lib/gcc/arm-none-eabi/4.5.2/../../../../arm-none-eabi/include/c++/4.5.2/bits/stl_list.h ****       const_iterator
 772:/opt/toolchains/arm-none-eabi/bin/../lib/gcc/arm-none-eabi/4.5.2/../../../../arm-none-eabi/include/c++/4.5.2/bits/stl_list.h ****       cend() const
 773:/opt/toolchains/arm-none-eabi/bin/../lib/gcc/arm-none-eabi/4.5.2/../../../../arm-none-eabi/include/c++/4.5.2/bits/stl_list.h ****       { return const_iterator(&this->_M_impl._M_node); }
 774:/opt/toolchains/arm-none-eabi/bin/../lib/gcc/arm-none-eabi/4.5.2/../../../../arm-none-eabi/include/c++/4.5.2/bits/stl_list.h **** 
 775:/opt/toolchains/arm-none-eabi/bin/../lib/gcc/arm-none-eabi/4.5.2/../../../../arm-none-eabi/include/c++/4.5.2/bits/stl_list.h ****       /**
 776:/opt/toolchains/arm-none-eabi/bin/../lib/gcc/arm-none-eabi/4.5.2/../../../../arm-none-eabi/include/c++/4.5.2/bits/stl_list.h ****        *  Returns a read-only (constant) reverse iterator that points to
 777:/opt/toolchains/arm-none-eabi/bin/../lib/gcc/arm-none-eabi/4.5.2/../../../../arm-none-eabi/include/c++/4.5.2/bits/stl_list.h ****        *  the last element in the %list.  Iteration is done in reverse
 778:/opt/toolchains/arm-none-eabi/bin/../lib/gcc/arm-none-eabi/4.5.2/../../../../arm-none-eabi/include/c++/4.5.2/bits/stl_list.h ****        *  element order.
 779:/opt/toolchains/arm-none-eabi/bin/../lib/gcc/arm-none-eabi/4.5.2/../../../../arm-none-eabi/include/c++/4.5.2/bits/stl_list.h ****        */
 780:/opt/toolchains/arm-none-eabi/bin/../lib/gcc/arm-none-eabi/4.5.2/../../../../arm-none-eabi/include/c++/4.5.2/bits/stl_list.h ****       const_reverse_iterator
 781:/opt/toolchains/arm-none-eabi/bin/../lib/gcc/arm-none-eabi/4.5.2/../../../../arm-none-eabi/include/c++/4.5.2/bits/stl_list.h ****       crbegin() const
 782:/opt/toolchains/arm-none-eabi/bin/../lib/gcc/arm-none-eabi/4.5.2/../../../../arm-none-eabi/include/c++/4.5.2/bits/stl_list.h ****       { return const_reverse_iterator(end()); }
 783:/opt/toolchains/arm-none-eabi/bin/../lib/gcc/arm-none-eabi/4.5.2/../../../../arm-none-eabi/include/c++/4.5.2/bits/stl_list.h **** 
 784:/opt/toolchains/arm-none-eabi/bin/../lib/gcc/arm-none-eabi/4.5.2/../../../../arm-none-eabi/include/c++/4.5.2/bits/stl_list.h ****       /**
 785:/opt/toolchains/arm-none-eabi/bin/../lib/gcc/arm-none-eabi/4.5.2/../../../../arm-none-eabi/include/c++/4.5.2/bits/stl_list.h ****        *  Returns a read-only (constant) reverse iterator that points to one
 786:/opt/toolchains/arm-none-eabi/bin/../lib/gcc/arm-none-eabi/4.5.2/../../../../arm-none-eabi/include/c++/4.5.2/bits/stl_list.h ****        *  before the first element in the %list.  Iteration is done in reverse
 787:/opt/toolchains/arm-none-eabi/bin/../lib/gcc/arm-none-eabi/4.5.2/../../../../arm-none-eabi/include/c++/4.5.2/bits/stl_list.h ****        *  element order.
 788:/opt/toolchains/arm-none-eabi/bin/../lib/gcc/arm-none-eabi/4.5.2/../../../../arm-none-eabi/include/c++/4.5.2/bits/stl_list.h ****        */
 789:/opt/toolchains/arm-none-eabi/bin/../lib/gcc/arm-none-eabi/4.5.2/../../../../arm-none-eabi/include/c++/4.5.2/bits/stl_list.h ****       const_reverse_iterator
 790:/opt/toolchains/arm-none-eabi/bin/../lib/gcc/arm-none-eabi/4.5.2/../../../../arm-none-eabi/include/c++/4.5.2/bits/stl_list.h ****       crend() const
 791:/opt/toolchains/arm-none-eabi/bin/../lib/gcc/arm-none-eabi/4.5.2/../../../../arm-none-eabi/include/c++/4.5.2/bits/stl_list.h ****       { return const_reverse_iterator(begin()); }
 792:/opt/toolchains/arm-none-eabi/bin/../lib/gcc/arm-none-eabi/4.5.2/../../../../arm-none-eabi/include/c++/4.5.2/bits/stl_list.h **** #endif
 793:/opt/toolchains/arm-none-eabi/bin/../lib/gcc/arm-none-eabi/4.5.2/../../../../arm-none-eabi/include/c++/4.5.2/bits/stl_list.h **** 
 794:/opt/toolchains/arm-none-eabi/bin/../lib/gcc/arm-none-eabi/4.5.2/../../../../arm-none-eabi/include/c++/4.5.2/bits/stl_list.h ****       // [23.2.2.2] capacity
 795:/opt/toolchains/arm-none-eabi/bin/../lib/gcc/arm-none-eabi/4.5.2/../../../../arm-none-eabi/include/c++/4.5.2/bits/stl_list.h ****       /**
 796:/opt/toolchains/arm-none-eabi/bin/../lib/gcc/arm-none-eabi/4.5.2/../../../../arm-none-eabi/include/c++/4.5.2/bits/stl_list.h ****        *  Returns true if the %list is empty.  (Thus begin() would equal
 797:/opt/toolchains/arm-none-eabi/bin/../lib/gcc/arm-none-eabi/4.5.2/../../../../arm-none-eabi/include/c++/4.5.2/bits/stl_list.h ****        *  end().)
 798:/opt/toolchains/arm-none-eabi/bin/../lib/gcc/arm-none-eabi/4.5.2/../../../../arm-none-eabi/include/c++/4.5.2/bits/stl_list.h ****        */
 799:/opt/toolchains/arm-none-eabi/bin/../lib/gcc/arm-none-eabi/4.5.2/../../../../arm-none-eabi/include/c++/4.5.2/bits/stl_list.h ****       bool
 800:/opt/toolchains/arm-none-eabi/bin/../lib/gcc/arm-none-eabi/4.5.2/../../../../arm-none-eabi/include/c++/4.5.2/bits/stl_list.h ****       empty() const
 801:/opt/toolchains/arm-none-eabi/bin/../lib/gcc/arm-none-eabi/4.5.2/../../../../arm-none-eabi/include/c++/4.5.2/bits/stl_list.h ****       { return this->_M_impl._M_node._M_next == &this->_M_impl._M_node; }
 802:/opt/toolchains/arm-none-eabi/bin/../lib/gcc/arm-none-eabi/4.5.2/../../../../arm-none-eabi/include/c++/4.5.2/bits/stl_list.h **** 
 803:/opt/toolchains/arm-none-eabi/bin/../lib/gcc/arm-none-eabi/4.5.2/../../../../arm-none-eabi/include/c++/4.5.2/bits/stl_list.h ****       /**  Returns the number of elements in the %list.  */
 804:/opt/toolchains/arm-none-eabi/bin/../lib/gcc/arm-none-eabi/4.5.2/../../../../arm-none-eabi/include/c++/4.5.2/bits/stl_list.h ****       size_type
 805:/opt/toolchains/arm-none-eabi/bin/../lib/gcc/arm-none-eabi/4.5.2/../../../../arm-none-eabi/include/c++/4.5.2/bits/stl_list.h ****       size() const
 806:/opt/toolchains/arm-none-eabi/bin/../lib/gcc/arm-none-eabi/4.5.2/../../../../arm-none-eabi/include/c++/4.5.2/bits/stl_list.h ****       { return std::distance(begin(), end()); }
 807:/opt/toolchains/arm-none-eabi/bin/../lib/gcc/arm-none-eabi/4.5.2/../../../../arm-none-eabi/include/c++/4.5.2/bits/stl_list.h **** 
 808:/opt/toolchains/arm-none-eabi/bin/../lib/gcc/arm-none-eabi/4.5.2/../../../../arm-none-eabi/include/c++/4.5.2/bits/stl_list.h ****       /**  Returns the size() of the largest possible %list.  */
 809:/opt/toolchains/arm-none-eabi/bin/../lib/gcc/arm-none-eabi/4.5.2/../../../../arm-none-eabi/include/c++/4.5.2/bits/stl_list.h ****       size_type
 810:/opt/toolchains/arm-none-eabi/bin/../lib/gcc/arm-none-eabi/4.5.2/../../../../arm-none-eabi/include/c++/4.5.2/bits/stl_list.h ****       max_size() const
 811:/opt/toolchains/arm-none-eabi/bin/../lib/gcc/arm-none-eabi/4.5.2/../../../../arm-none-eabi/include/c++/4.5.2/bits/stl_list.h ****       { return _M_get_Node_allocator().max_size(); }
 812:/opt/toolchains/arm-none-eabi/bin/../lib/gcc/arm-none-eabi/4.5.2/../../../../arm-none-eabi/include/c++/4.5.2/bits/stl_list.h **** 
 813:/opt/toolchains/arm-none-eabi/bin/../lib/gcc/arm-none-eabi/4.5.2/../../../../arm-none-eabi/include/c++/4.5.2/bits/stl_list.h ****       /**
 814:/opt/toolchains/arm-none-eabi/bin/../lib/gcc/arm-none-eabi/4.5.2/../../../../arm-none-eabi/include/c++/4.5.2/bits/stl_list.h ****        *  @brief Resizes the %list to the specified number of elements.
 815:/opt/toolchains/arm-none-eabi/bin/../lib/gcc/arm-none-eabi/4.5.2/../../../../arm-none-eabi/include/c++/4.5.2/bits/stl_list.h ****        *  @param new_size Number of elements the %list should contain.
 816:/opt/toolchains/arm-none-eabi/bin/../lib/gcc/arm-none-eabi/4.5.2/../../../../arm-none-eabi/include/c++/4.5.2/bits/stl_list.h ****        *  @param x Data with which new elements should be populated.
 817:/opt/toolchains/arm-none-eabi/bin/../lib/gcc/arm-none-eabi/4.5.2/../../../../arm-none-eabi/include/c++/4.5.2/bits/stl_list.h ****        *
 818:/opt/toolchains/arm-none-eabi/bin/../lib/gcc/arm-none-eabi/4.5.2/../../../../arm-none-eabi/include/c++/4.5.2/bits/stl_list.h ****        *  This function will %resize the %list to the specified number
 819:/opt/toolchains/arm-none-eabi/bin/../lib/gcc/arm-none-eabi/4.5.2/../../../../arm-none-eabi/include/c++/4.5.2/bits/stl_list.h ****        *  of elements.  If the number is smaller than the %list's
 820:/opt/toolchains/arm-none-eabi/bin/../lib/gcc/arm-none-eabi/4.5.2/../../../../arm-none-eabi/include/c++/4.5.2/bits/stl_list.h ****        *  current size the %list is truncated, otherwise the %list is
 821:/opt/toolchains/arm-none-eabi/bin/../lib/gcc/arm-none-eabi/4.5.2/../../../../arm-none-eabi/include/c++/4.5.2/bits/stl_list.h ****        *  extended and new elements are populated with given data.
 822:/opt/toolchains/arm-none-eabi/bin/../lib/gcc/arm-none-eabi/4.5.2/../../../../arm-none-eabi/include/c++/4.5.2/bits/stl_list.h ****        */
 823:/opt/toolchains/arm-none-eabi/bin/../lib/gcc/arm-none-eabi/4.5.2/../../../../arm-none-eabi/include/c++/4.5.2/bits/stl_list.h ****       void
 824:/opt/toolchains/arm-none-eabi/bin/../lib/gcc/arm-none-eabi/4.5.2/../../../../arm-none-eabi/include/c++/4.5.2/bits/stl_list.h ****       resize(size_type __new_size, value_type __x = value_type());
 825:/opt/toolchains/arm-none-eabi/bin/../lib/gcc/arm-none-eabi/4.5.2/../../../../arm-none-eabi/include/c++/4.5.2/bits/stl_list.h **** 
 826:/opt/toolchains/arm-none-eabi/bin/../lib/gcc/arm-none-eabi/4.5.2/../../../../arm-none-eabi/include/c++/4.5.2/bits/stl_list.h ****       // element access
 827:/opt/toolchains/arm-none-eabi/bin/../lib/gcc/arm-none-eabi/4.5.2/../../../../arm-none-eabi/include/c++/4.5.2/bits/stl_list.h ****       /**
 828:/opt/toolchains/arm-none-eabi/bin/../lib/gcc/arm-none-eabi/4.5.2/../../../../arm-none-eabi/include/c++/4.5.2/bits/stl_list.h ****        *  Returns a read/write reference to the data at the first
 829:/opt/toolchains/arm-none-eabi/bin/../lib/gcc/arm-none-eabi/4.5.2/../../../../arm-none-eabi/include/c++/4.5.2/bits/stl_list.h ****        *  element of the %list.
 830:/opt/toolchains/arm-none-eabi/bin/../lib/gcc/arm-none-eabi/4.5.2/../../../../arm-none-eabi/include/c++/4.5.2/bits/stl_list.h ****        */
 831:/opt/toolchains/arm-none-eabi/bin/../lib/gcc/arm-none-eabi/4.5.2/../../../../arm-none-eabi/include/c++/4.5.2/bits/stl_list.h ****       reference
 832:/opt/toolchains/arm-none-eabi/bin/../lib/gcc/arm-none-eabi/4.5.2/../../../../arm-none-eabi/include/c++/4.5.2/bits/stl_list.h ****       front()
 833:/opt/toolchains/arm-none-eabi/bin/../lib/gcc/arm-none-eabi/4.5.2/../../../../arm-none-eabi/include/c++/4.5.2/bits/stl_list.h ****       { return *begin(); }
 834:/opt/toolchains/arm-none-eabi/bin/../lib/gcc/arm-none-eabi/4.5.2/../../../../arm-none-eabi/include/c++/4.5.2/bits/stl_list.h **** 
 835:/opt/toolchains/arm-none-eabi/bin/../lib/gcc/arm-none-eabi/4.5.2/../../../../arm-none-eabi/include/c++/4.5.2/bits/stl_list.h ****       /**
 836:/opt/toolchains/arm-none-eabi/bin/../lib/gcc/arm-none-eabi/4.5.2/../../../../arm-none-eabi/include/c++/4.5.2/bits/stl_list.h ****        *  Returns a read-only (constant) reference to the data at the first
 837:/opt/toolchains/arm-none-eabi/bin/../lib/gcc/arm-none-eabi/4.5.2/../../../../arm-none-eabi/include/c++/4.5.2/bits/stl_list.h ****        *  element of the %list.
 838:/opt/toolchains/arm-none-eabi/bin/../lib/gcc/arm-none-eabi/4.5.2/../../../../arm-none-eabi/include/c++/4.5.2/bits/stl_list.h ****        */
 839:/opt/toolchains/arm-none-eabi/bin/../lib/gcc/arm-none-eabi/4.5.2/../../../../arm-none-eabi/include/c++/4.5.2/bits/stl_list.h ****       const_reference
 840:/opt/toolchains/arm-none-eabi/bin/../lib/gcc/arm-none-eabi/4.5.2/../../../../arm-none-eabi/include/c++/4.5.2/bits/stl_list.h ****       front() const
 841:/opt/toolchains/arm-none-eabi/bin/../lib/gcc/arm-none-eabi/4.5.2/../../../../arm-none-eabi/include/c++/4.5.2/bits/stl_list.h ****       { return *begin(); }
 842:/opt/toolchains/arm-none-eabi/bin/../lib/gcc/arm-none-eabi/4.5.2/../../../../arm-none-eabi/include/c++/4.5.2/bits/stl_list.h **** 
 843:/opt/toolchains/arm-none-eabi/bin/../lib/gcc/arm-none-eabi/4.5.2/../../../../arm-none-eabi/include/c++/4.5.2/bits/stl_list.h ****       /**
 844:/opt/toolchains/arm-none-eabi/bin/../lib/gcc/arm-none-eabi/4.5.2/../../../../arm-none-eabi/include/c++/4.5.2/bits/stl_list.h ****        *  Returns a read/write reference to the data at the last element
 845:/opt/toolchains/arm-none-eabi/bin/../lib/gcc/arm-none-eabi/4.5.2/../../../../arm-none-eabi/include/c++/4.5.2/bits/stl_list.h ****        *  of the %list.
 846:/opt/toolchains/arm-none-eabi/bin/../lib/gcc/arm-none-eabi/4.5.2/../../../../arm-none-eabi/include/c++/4.5.2/bits/stl_list.h ****        */
 847:/opt/toolchains/arm-none-eabi/bin/../lib/gcc/arm-none-eabi/4.5.2/../../../../arm-none-eabi/include/c++/4.5.2/bits/stl_list.h ****       reference
 848:/opt/toolchains/arm-none-eabi/bin/../lib/gcc/arm-none-eabi/4.5.2/../../../../arm-none-eabi/include/c++/4.5.2/bits/stl_list.h ****       back()
 849:/opt/toolchains/arm-none-eabi/bin/../lib/gcc/arm-none-eabi/4.5.2/../../../../arm-none-eabi/include/c++/4.5.2/bits/stl_list.h ****       { 
 850:/opt/toolchains/arm-none-eabi/bin/../lib/gcc/arm-none-eabi/4.5.2/../../../../arm-none-eabi/include/c++/4.5.2/bits/stl_list.h **** 	iterator __tmp = end();
 851:/opt/toolchains/arm-none-eabi/bin/../lib/gcc/arm-none-eabi/4.5.2/../../../../arm-none-eabi/include/c++/4.5.2/bits/stl_list.h **** 	--__tmp;
 852:/opt/toolchains/arm-none-eabi/bin/../lib/gcc/arm-none-eabi/4.5.2/../../../../arm-none-eabi/include/c++/4.5.2/bits/stl_list.h **** 	return *__tmp;
 853:/opt/toolchains/arm-none-eabi/bin/../lib/gcc/arm-none-eabi/4.5.2/../../../../arm-none-eabi/include/c++/4.5.2/bits/stl_list.h ****       }
 854:/opt/toolchains/arm-none-eabi/bin/../lib/gcc/arm-none-eabi/4.5.2/../../../../arm-none-eabi/include/c++/4.5.2/bits/stl_list.h **** 
 855:/opt/toolchains/arm-none-eabi/bin/../lib/gcc/arm-none-eabi/4.5.2/../../../../arm-none-eabi/include/c++/4.5.2/bits/stl_list.h ****       /**
 856:/opt/toolchains/arm-none-eabi/bin/../lib/gcc/arm-none-eabi/4.5.2/../../../../arm-none-eabi/include/c++/4.5.2/bits/stl_list.h ****        *  Returns a read-only (constant) reference to the data at the last
 857:/opt/toolchains/arm-none-eabi/bin/../lib/gcc/arm-none-eabi/4.5.2/../../../../arm-none-eabi/include/c++/4.5.2/bits/stl_list.h ****        *  element of the %list.
 858:/opt/toolchains/arm-none-eabi/bin/../lib/gcc/arm-none-eabi/4.5.2/../../../../arm-none-eabi/include/c++/4.5.2/bits/stl_list.h ****        */
 859:/opt/toolchains/arm-none-eabi/bin/../lib/gcc/arm-none-eabi/4.5.2/../../../../arm-none-eabi/include/c++/4.5.2/bits/stl_list.h ****       const_reference
 860:/opt/toolchains/arm-none-eabi/bin/../lib/gcc/arm-none-eabi/4.5.2/../../../../arm-none-eabi/include/c++/4.5.2/bits/stl_list.h ****       back() const
 861:/opt/toolchains/arm-none-eabi/bin/../lib/gcc/arm-none-eabi/4.5.2/../../../../arm-none-eabi/include/c++/4.5.2/bits/stl_list.h ****       { 
 862:/opt/toolchains/arm-none-eabi/bin/../lib/gcc/arm-none-eabi/4.5.2/../../../../arm-none-eabi/include/c++/4.5.2/bits/stl_list.h **** 	const_iterator __tmp = end();
 863:/opt/toolchains/arm-none-eabi/bin/../lib/gcc/arm-none-eabi/4.5.2/../../../../arm-none-eabi/include/c++/4.5.2/bits/stl_list.h **** 	--__tmp;
 864:/opt/toolchains/arm-none-eabi/bin/../lib/gcc/arm-none-eabi/4.5.2/../../../../arm-none-eabi/include/c++/4.5.2/bits/stl_list.h **** 	return *__tmp;
 865:/opt/toolchains/arm-none-eabi/bin/../lib/gcc/arm-none-eabi/4.5.2/../../../../arm-none-eabi/include/c++/4.5.2/bits/stl_list.h ****       }
 866:/opt/toolchains/arm-none-eabi/bin/../lib/gcc/arm-none-eabi/4.5.2/../../../../arm-none-eabi/include/c++/4.5.2/bits/stl_list.h **** 
 867:/opt/toolchains/arm-none-eabi/bin/../lib/gcc/arm-none-eabi/4.5.2/../../../../arm-none-eabi/include/c++/4.5.2/bits/stl_list.h ****       // [23.2.2.3] modifiers
 868:/opt/toolchains/arm-none-eabi/bin/../lib/gcc/arm-none-eabi/4.5.2/../../../../arm-none-eabi/include/c++/4.5.2/bits/stl_list.h ****       /**
 869:/opt/toolchains/arm-none-eabi/bin/../lib/gcc/arm-none-eabi/4.5.2/../../../../arm-none-eabi/include/c++/4.5.2/bits/stl_list.h ****        *  @brief  Add data to the front of the %list.
 870:/opt/toolchains/arm-none-eabi/bin/../lib/gcc/arm-none-eabi/4.5.2/../../../../arm-none-eabi/include/c++/4.5.2/bits/stl_list.h ****        *  @param  x  Data to be added.
 871:/opt/toolchains/arm-none-eabi/bin/../lib/gcc/arm-none-eabi/4.5.2/../../../../arm-none-eabi/include/c++/4.5.2/bits/stl_list.h ****        *
 872:/opt/toolchains/arm-none-eabi/bin/../lib/gcc/arm-none-eabi/4.5.2/../../../../arm-none-eabi/include/c++/4.5.2/bits/stl_list.h ****        *  This is a typical stack operation.  The function creates an
 873:/opt/toolchains/arm-none-eabi/bin/../lib/gcc/arm-none-eabi/4.5.2/../../../../arm-none-eabi/include/c++/4.5.2/bits/stl_list.h ****        *  element at the front of the %list and assigns the given data
 874:/opt/toolchains/arm-none-eabi/bin/../lib/gcc/arm-none-eabi/4.5.2/../../../../arm-none-eabi/include/c++/4.5.2/bits/stl_list.h ****        *  to it.  Due to the nature of a %list this operation can be
 875:/opt/toolchains/arm-none-eabi/bin/../lib/gcc/arm-none-eabi/4.5.2/../../../../arm-none-eabi/include/c++/4.5.2/bits/stl_list.h ****        *  done in constant time, and does not invalidate iterators and
 876:/opt/toolchains/arm-none-eabi/bin/../lib/gcc/arm-none-eabi/4.5.2/../../../../arm-none-eabi/include/c++/4.5.2/bits/stl_list.h ****        *  references.
 877:/opt/toolchains/arm-none-eabi/bin/../lib/gcc/arm-none-eabi/4.5.2/../../../../arm-none-eabi/include/c++/4.5.2/bits/stl_list.h ****        */
 878:/opt/toolchains/arm-none-eabi/bin/../lib/gcc/arm-none-eabi/4.5.2/../../../../arm-none-eabi/include/c++/4.5.2/bits/stl_list.h ****       void
 879:/opt/toolchains/arm-none-eabi/bin/../lib/gcc/arm-none-eabi/4.5.2/../../../../arm-none-eabi/include/c++/4.5.2/bits/stl_list.h ****       push_front(const value_type& __x)
 880:/opt/toolchains/arm-none-eabi/bin/../lib/gcc/arm-none-eabi/4.5.2/../../../../arm-none-eabi/include/c++/4.5.2/bits/stl_list.h ****       { this->_M_insert(begin(), __x); }
 881:/opt/toolchains/arm-none-eabi/bin/../lib/gcc/arm-none-eabi/4.5.2/../../../../arm-none-eabi/include/c++/4.5.2/bits/stl_list.h **** 
 882:/opt/toolchains/arm-none-eabi/bin/../lib/gcc/arm-none-eabi/4.5.2/../../../../arm-none-eabi/include/c++/4.5.2/bits/stl_list.h **** #ifdef __GXX_EXPERIMENTAL_CXX0X__
 883:/opt/toolchains/arm-none-eabi/bin/../lib/gcc/arm-none-eabi/4.5.2/../../../../arm-none-eabi/include/c++/4.5.2/bits/stl_list.h ****       void
 884:/opt/toolchains/arm-none-eabi/bin/../lib/gcc/arm-none-eabi/4.5.2/../../../../arm-none-eabi/include/c++/4.5.2/bits/stl_list.h ****       push_front(value_type&& __x)
 885:/opt/toolchains/arm-none-eabi/bin/../lib/gcc/arm-none-eabi/4.5.2/../../../../arm-none-eabi/include/c++/4.5.2/bits/stl_list.h ****       { this->_M_insert(begin(), std::move(__x)); }
 886:/opt/toolchains/arm-none-eabi/bin/../lib/gcc/arm-none-eabi/4.5.2/../../../../arm-none-eabi/include/c++/4.5.2/bits/stl_list.h **** 
 887:/opt/toolchains/arm-none-eabi/bin/../lib/gcc/arm-none-eabi/4.5.2/../../../../arm-none-eabi/include/c++/4.5.2/bits/stl_list.h ****       template<typename... _Args>
 888:/opt/toolchains/arm-none-eabi/bin/../lib/gcc/arm-none-eabi/4.5.2/../../../../arm-none-eabi/include/c++/4.5.2/bits/stl_list.h ****         void
 889:/opt/toolchains/arm-none-eabi/bin/../lib/gcc/arm-none-eabi/4.5.2/../../../../arm-none-eabi/include/c++/4.5.2/bits/stl_list.h ****         emplace_front(_Args&&... __args)
 890:/opt/toolchains/arm-none-eabi/bin/../lib/gcc/arm-none-eabi/4.5.2/../../../../arm-none-eabi/include/c++/4.5.2/bits/stl_list.h ****         { this->_M_insert(begin(), std::forward<_Args>(__args)...); }
 891:/opt/toolchains/arm-none-eabi/bin/../lib/gcc/arm-none-eabi/4.5.2/../../../../arm-none-eabi/include/c++/4.5.2/bits/stl_list.h **** #endif
 892:/opt/toolchains/arm-none-eabi/bin/../lib/gcc/arm-none-eabi/4.5.2/../../../../arm-none-eabi/include/c++/4.5.2/bits/stl_list.h **** 
 893:/opt/toolchains/arm-none-eabi/bin/../lib/gcc/arm-none-eabi/4.5.2/../../../../arm-none-eabi/include/c++/4.5.2/bits/stl_list.h ****       /**
 894:/opt/toolchains/arm-none-eabi/bin/../lib/gcc/arm-none-eabi/4.5.2/../../../../arm-none-eabi/include/c++/4.5.2/bits/stl_list.h ****        *  @brief  Removes first element.
 895:/opt/toolchains/arm-none-eabi/bin/../lib/gcc/arm-none-eabi/4.5.2/../../../../arm-none-eabi/include/c++/4.5.2/bits/stl_list.h ****        *
 896:/opt/toolchains/arm-none-eabi/bin/../lib/gcc/arm-none-eabi/4.5.2/../../../../arm-none-eabi/include/c++/4.5.2/bits/stl_list.h ****        *  This is a typical stack operation.  It shrinks the %list by
 897:/opt/toolchains/arm-none-eabi/bin/../lib/gcc/arm-none-eabi/4.5.2/../../../../arm-none-eabi/include/c++/4.5.2/bits/stl_list.h ****        *  one.  Due to the nature of a %list this operation can be done
 898:/opt/toolchains/arm-none-eabi/bin/../lib/gcc/arm-none-eabi/4.5.2/../../../../arm-none-eabi/include/c++/4.5.2/bits/stl_list.h ****        *  in constant time, and only invalidates iterators/references to
 899:/opt/toolchains/arm-none-eabi/bin/../lib/gcc/arm-none-eabi/4.5.2/../../../../arm-none-eabi/include/c++/4.5.2/bits/stl_list.h ****        *  the element being removed.
 900:/opt/toolchains/arm-none-eabi/bin/../lib/gcc/arm-none-eabi/4.5.2/../../../../arm-none-eabi/include/c++/4.5.2/bits/stl_list.h ****        *
 901:/opt/toolchains/arm-none-eabi/bin/../lib/gcc/arm-none-eabi/4.5.2/../../../../arm-none-eabi/include/c++/4.5.2/bits/stl_list.h ****        *  Note that no data is returned, and if the first element's data
 902:/opt/toolchains/arm-none-eabi/bin/../lib/gcc/arm-none-eabi/4.5.2/../../../../arm-none-eabi/include/c++/4.5.2/bits/stl_list.h ****        *  is needed, it should be retrieved before pop_front() is
 903:/opt/toolchains/arm-none-eabi/bin/../lib/gcc/arm-none-eabi/4.5.2/../../../../arm-none-eabi/include/c++/4.5.2/bits/stl_list.h ****        *  called.
 904:/opt/toolchains/arm-none-eabi/bin/../lib/gcc/arm-none-eabi/4.5.2/../../../../arm-none-eabi/include/c++/4.5.2/bits/stl_list.h ****        */
 905:/opt/toolchains/arm-none-eabi/bin/../lib/gcc/arm-none-eabi/4.5.2/../../../../arm-none-eabi/include/c++/4.5.2/bits/stl_list.h ****       void
 906:/opt/toolchains/arm-none-eabi/bin/../lib/gcc/arm-none-eabi/4.5.2/../../../../arm-none-eabi/include/c++/4.5.2/bits/stl_list.h ****       pop_front()
 907:/opt/toolchains/arm-none-eabi/bin/../lib/gcc/arm-none-eabi/4.5.2/../../../../arm-none-eabi/include/c++/4.5.2/bits/stl_list.h ****       { this->_M_erase(begin()); }
 908:/opt/toolchains/arm-none-eabi/bin/../lib/gcc/arm-none-eabi/4.5.2/../../../../arm-none-eabi/include/c++/4.5.2/bits/stl_list.h **** 
 909:/opt/toolchains/arm-none-eabi/bin/../lib/gcc/arm-none-eabi/4.5.2/../../../../arm-none-eabi/include/c++/4.5.2/bits/stl_list.h ****       /**
 910:/opt/toolchains/arm-none-eabi/bin/../lib/gcc/arm-none-eabi/4.5.2/../../../../arm-none-eabi/include/c++/4.5.2/bits/stl_list.h ****        *  @brief  Add data to the end of the %list.
 911:/opt/toolchains/arm-none-eabi/bin/../lib/gcc/arm-none-eabi/4.5.2/../../../../arm-none-eabi/include/c++/4.5.2/bits/stl_list.h ****        *  @param  x  Data to be added.
 912:/opt/toolchains/arm-none-eabi/bin/../lib/gcc/arm-none-eabi/4.5.2/../../../../arm-none-eabi/include/c++/4.5.2/bits/stl_list.h ****        *
 913:/opt/toolchains/arm-none-eabi/bin/../lib/gcc/arm-none-eabi/4.5.2/../../../../arm-none-eabi/include/c++/4.5.2/bits/stl_list.h ****        *  This is a typical stack operation.  The function creates an
 914:/opt/toolchains/arm-none-eabi/bin/../lib/gcc/arm-none-eabi/4.5.2/../../../../arm-none-eabi/include/c++/4.5.2/bits/stl_list.h ****        *  element at the end of the %list and assigns the given data to
 915:/opt/toolchains/arm-none-eabi/bin/../lib/gcc/arm-none-eabi/4.5.2/../../../../arm-none-eabi/include/c++/4.5.2/bits/stl_list.h ****        *  it.  Due to the nature of a %list this operation can be done
 916:/opt/toolchains/arm-none-eabi/bin/../lib/gcc/arm-none-eabi/4.5.2/../../../../arm-none-eabi/include/c++/4.5.2/bits/stl_list.h ****        *  in constant time, and does not invalidate iterators and
 917:/opt/toolchains/arm-none-eabi/bin/../lib/gcc/arm-none-eabi/4.5.2/../../../../arm-none-eabi/include/c++/4.5.2/bits/stl_list.h ****        *  references.
 918:/opt/toolchains/arm-none-eabi/bin/../lib/gcc/arm-none-eabi/4.5.2/../../../../arm-none-eabi/include/c++/4.5.2/bits/stl_list.h ****        */
 919:/opt/toolchains/arm-none-eabi/bin/../lib/gcc/arm-none-eabi/4.5.2/../../../../arm-none-eabi/include/c++/4.5.2/bits/stl_list.h ****       void
 920:/opt/toolchains/arm-none-eabi/bin/../lib/gcc/arm-none-eabi/4.5.2/../../../../arm-none-eabi/include/c++/4.5.2/bits/stl_list.h ****       push_back(const value_type& __x)
 5095              		.loc 28 920 0
 5096              		.cfi_startproc
 5097              		@ args = 0, pretend = 0, frame = 8
 5098              		@ frame_needed = 1, uses_anonymous_args = 0
 5099 0000 80B5     		push	{r7, lr}
 5100              	.LCFI72:
 5101              		.cfi_def_cfa_offset 8
 5102 0002 82B0     		sub	sp, sp, #8
 5103              	.LCFI73:
 5104              		.cfi_def_cfa_offset 16
 5105 0004 00AF     		add	r7, sp, #0
 5106              		.cfi_offset 14, -4
 5107              		.cfi_offset 7, -8
 5108              	.LCFI74:
 5109              		.cfi_def_cfa_register 7
 5110 0006 7860     		str	r0, [r7, #4]
 5111 0008 3960     		str	r1, [r7, #0]
 921:/opt/toolchains/arm-none-eabi/bin/../lib/gcc/arm-none-eabi/4.5.2/../../../../arm-none-eabi/include/c++/4.5.2/bits/stl_list.h ****       { this->_M_insert(end(), __x); }
 5112              		.loc 28 921 0
 5113 000a 7868     		ldr	r0, [r7, #4]
 5114 000c FFF7FEFF 		bl	_ZNSt4listIPN5Air3T5IViewESaIS2_EE3endEv
 5115 0010 0346     		mov	r3, r0
 5116 0012 7868     		ldr	r0, [r7, #4]
 5117 0014 1946     		mov	r1, r3
 5118 0016 3A68     		ldr	r2, [r7, #0]
 5119 0018 FFF7FEFF 		bl	_ZNSt4listIPN5Air3T5IViewESaIS2_EE9_M_insertESt14_List_iteratorIS2_ERKS2_
 5120 001c 07F10807 		add	r7, r7, #8
 5121 0020 BD46     		mov	sp, r7
 5122 0022 80BD     		pop	{r7, pc}
 5123              		.cfi_endproc
 5124              	.LFE928:
 5126              		.section	.text._ZNSt4listIPN5Air3T5IViewESaIS2_EE6removeERKS2_,"axG",%progbits,_ZNSt4listIPN5Air3T
 5127              		.align	2
 5128              		.weak	_ZNSt4listIPN5Air3T5IViewESaIS2_EE6removeERKS2_
 5129              		.thumb
 5130              		.thumb_func
 5132              	_ZNSt4listIPN5Air3T5IViewESaIS2_EE6removeERKS2_:
 5133              	.LFB929:
   1:/opt/toolchains/arm-none-eabi/bin/../lib/gcc/arm-none-eabi/4.5.2/../../../../arm-none-eabi/include/c++/4.5.2/bits/list.tcc **** // List implementation (out of line) -*- C++ -*-
   2:/opt/toolchains/arm-none-eabi/bin/../lib/gcc/arm-none-eabi/4.5.2/../../../../arm-none-eabi/include/c++/4.5.2/bits/list.tcc **** 
   3:/opt/toolchains/arm-none-eabi/bin/../lib/gcc/arm-none-eabi/4.5.2/../../../../arm-none-eabi/include/c++/4.5.2/bits/list.tcc **** // Copyright (C) 2001, 2002, 2003, 2004, 2005, 2006, 2007, 2008, 2009, 2010
   4:/opt/toolchains/arm-none-eabi/bin/../lib/gcc/arm-none-eabi/4.5.2/../../../../arm-none-eabi/include/c++/4.5.2/bits/list.tcc **** // Free Software Foundation, Inc.
   5:/opt/toolchains/arm-none-eabi/bin/../lib/gcc/arm-none-eabi/4.5.2/../../../../arm-none-eabi/include/c++/4.5.2/bits/list.tcc **** //
   6:/opt/toolchains/arm-none-eabi/bin/../lib/gcc/arm-none-eabi/4.5.2/../../../../arm-none-eabi/include/c++/4.5.2/bits/list.tcc **** // This file is part of the GNU ISO C++ Library.  This library is free
   7:/opt/toolchains/arm-none-eabi/bin/../lib/gcc/arm-none-eabi/4.5.2/../../../../arm-none-eabi/include/c++/4.5.2/bits/list.tcc **** // software; you can redistribute it and/or modify it under the
   8:/opt/toolchains/arm-none-eabi/bin/../lib/gcc/arm-none-eabi/4.5.2/../../../../arm-none-eabi/include/c++/4.5.2/bits/list.tcc **** // terms of the GNU General Public License as published by the
   9:/opt/toolchains/arm-none-eabi/bin/../lib/gcc/arm-none-eabi/4.5.2/../../../../arm-none-eabi/include/c++/4.5.2/bits/list.tcc **** // Free Software Foundation; either version 3, or (at your option)
  10:/opt/toolchains/arm-none-eabi/bin/../lib/gcc/arm-none-eabi/4.5.2/../../../../arm-none-eabi/include/c++/4.5.2/bits/list.tcc **** // any later version.
  11:/opt/toolchains/arm-none-eabi/bin/../lib/gcc/arm-none-eabi/4.5.2/../../../../arm-none-eabi/include/c++/4.5.2/bits/list.tcc **** 
  12:/opt/toolchains/arm-none-eabi/bin/../lib/gcc/arm-none-eabi/4.5.2/../../../../arm-none-eabi/include/c++/4.5.2/bits/list.tcc **** // This library is distributed in the hope that it will be useful,
  13:/opt/toolchains/arm-none-eabi/bin/../lib/gcc/arm-none-eabi/4.5.2/../../../../arm-none-eabi/include/c++/4.5.2/bits/list.tcc **** // but WITHOUT ANY WARRANTY; without even the implied warranty of
  14:/opt/toolchains/arm-none-eabi/bin/../lib/gcc/arm-none-eabi/4.5.2/../../../../arm-none-eabi/include/c++/4.5.2/bits/list.tcc **** // MERCHANTABILITY or FITNESS FOR A PARTICULAR PURPOSE.  See the
  15:/opt/toolchains/arm-none-eabi/bin/../lib/gcc/arm-none-eabi/4.5.2/../../../../arm-none-eabi/include/c++/4.5.2/bits/list.tcc **** // GNU General Public License for more details.
  16:/opt/toolchains/arm-none-eabi/bin/../lib/gcc/arm-none-eabi/4.5.2/../../../../arm-none-eabi/include/c++/4.5.2/bits/list.tcc **** 
  17:/opt/toolchains/arm-none-eabi/bin/../lib/gcc/arm-none-eabi/4.5.2/../../../../arm-none-eabi/include/c++/4.5.2/bits/list.tcc **** // Under Section 7 of GPL version 3, you are granted additional
  18:/opt/toolchains/arm-none-eabi/bin/../lib/gcc/arm-none-eabi/4.5.2/../../../../arm-none-eabi/include/c++/4.5.2/bits/list.tcc **** // permissions described in the GCC Runtime Library Exception, version
  19:/opt/toolchains/arm-none-eabi/bin/../lib/gcc/arm-none-eabi/4.5.2/../../../../arm-none-eabi/include/c++/4.5.2/bits/list.tcc **** // 3.1, as published by the Free Software Foundation.
  20:/opt/toolchains/arm-none-eabi/bin/../lib/gcc/arm-none-eabi/4.5.2/../../../../arm-none-eabi/include/c++/4.5.2/bits/list.tcc **** 
  21:/opt/toolchains/arm-none-eabi/bin/../lib/gcc/arm-none-eabi/4.5.2/../../../../arm-none-eabi/include/c++/4.5.2/bits/list.tcc **** // You should have received a copy of the GNU General Public License and
  22:/opt/toolchains/arm-none-eabi/bin/../lib/gcc/arm-none-eabi/4.5.2/../../../../arm-none-eabi/include/c++/4.5.2/bits/list.tcc **** // a copy of the GCC Runtime Library Exception along with this program;
  23:/opt/toolchains/arm-none-eabi/bin/../lib/gcc/arm-none-eabi/4.5.2/../../../../arm-none-eabi/include/c++/4.5.2/bits/list.tcc **** // see the files COPYING3 and COPYING.RUNTIME respectively.  If not, see
  24:/opt/toolchains/arm-none-eabi/bin/../lib/gcc/arm-none-eabi/4.5.2/../../../../arm-none-eabi/include/c++/4.5.2/bits/list.tcc **** // <http://www.gnu.org/licenses/>.
  25:/opt/toolchains/arm-none-eabi/bin/../lib/gcc/arm-none-eabi/4.5.2/../../../../arm-none-eabi/include/c++/4.5.2/bits/list.tcc **** 
  26:/opt/toolchains/arm-none-eabi/bin/../lib/gcc/arm-none-eabi/4.5.2/../../../../arm-none-eabi/include/c++/4.5.2/bits/list.tcc **** /*
  27:/opt/toolchains/arm-none-eabi/bin/../lib/gcc/arm-none-eabi/4.5.2/../../../../arm-none-eabi/include/c++/4.5.2/bits/list.tcc ****  *
  28:/opt/toolchains/arm-none-eabi/bin/../lib/gcc/arm-none-eabi/4.5.2/../../../../arm-none-eabi/include/c++/4.5.2/bits/list.tcc ****  * Copyright (c) 1994
  29:/opt/toolchains/arm-none-eabi/bin/../lib/gcc/arm-none-eabi/4.5.2/../../../../arm-none-eabi/include/c++/4.5.2/bits/list.tcc ****  * Hewlett-Packard Company
  30:/opt/toolchains/arm-none-eabi/bin/../lib/gcc/arm-none-eabi/4.5.2/../../../../arm-none-eabi/include/c++/4.5.2/bits/list.tcc ****  *
  31:/opt/toolchains/arm-none-eabi/bin/../lib/gcc/arm-none-eabi/4.5.2/../../../../arm-none-eabi/include/c++/4.5.2/bits/list.tcc ****  * Permission to use, copy, modify, distribute and sell this software
  32:/opt/toolchains/arm-none-eabi/bin/../lib/gcc/arm-none-eabi/4.5.2/../../../../arm-none-eabi/include/c++/4.5.2/bits/list.tcc ****  * and its documentation for any purpose is hereby granted without fee,
  33:/opt/toolchains/arm-none-eabi/bin/../lib/gcc/arm-none-eabi/4.5.2/../../../../arm-none-eabi/include/c++/4.5.2/bits/list.tcc ****  * provided that the above copyright notice appear in all copies and
  34:/opt/toolchains/arm-none-eabi/bin/../lib/gcc/arm-none-eabi/4.5.2/../../../../arm-none-eabi/include/c++/4.5.2/bits/list.tcc ****  * that both that copyright notice and this permission notice appear
  35:/opt/toolchains/arm-none-eabi/bin/../lib/gcc/arm-none-eabi/4.5.2/../../../../arm-none-eabi/include/c++/4.5.2/bits/list.tcc ****  * in supporting documentation.  Hewlett-Packard Company makes no
  36:/opt/toolchains/arm-none-eabi/bin/../lib/gcc/arm-none-eabi/4.5.2/../../../../arm-none-eabi/include/c++/4.5.2/bits/list.tcc ****  * representations about the suitability of this software for any
  37:/opt/toolchains/arm-none-eabi/bin/../lib/gcc/arm-none-eabi/4.5.2/../../../../arm-none-eabi/include/c++/4.5.2/bits/list.tcc ****  * purpose.  It is provided "as is" without express or implied warranty.
  38:/opt/toolchains/arm-none-eabi/bin/../lib/gcc/arm-none-eabi/4.5.2/../../../../arm-none-eabi/include/c++/4.5.2/bits/list.tcc ****  *
  39:/opt/toolchains/arm-none-eabi/bin/../lib/gcc/arm-none-eabi/4.5.2/../../../../arm-none-eabi/include/c++/4.5.2/bits/list.tcc ****  *
  40:/opt/toolchains/arm-none-eabi/bin/../lib/gcc/arm-none-eabi/4.5.2/../../../../arm-none-eabi/include/c++/4.5.2/bits/list.tcc ****  * Copyright (c) 1996,1997
  41:/opt/toolchains/arm-none-eabi/bin/../lib/gcc/arm-none-eabi/4.5.2/../../../../arm-none-eabi/include/c++/4.5.2/bits/list.tcc ****  * Silicon Graphics Computer Systems, Inc.
  42:/opt/toolchains/arm-none-eabi/bin/../lib/gcc/arm-none-eabi/4.5.2/../../../../arm-none-eabi/include/c++/4.5.2/bits/list.tcc ****  *
  43:/opt/toolchains/arm-none-eabi/bin/../lib/gcc/arm-none-eabi/4.5.2/../../../../arm-none-eabi/include/c++/4.5.2/bits/list.tcc ****  * Permission to use, copy, modify, distribute and sell this software
  44:/opt/toolchains/arm-none-eabi/bin/../lib/gcc/arm-none-eabi/4.5.2/../../../../arm-none-eabi/include/c++/4.5.2/bits/list.tcc ****  * and its documentation for any purpose is hereby granted without fee,
  45:/opt/toolchains/arm-none-eabi/bin/../lib/gcc/arm-none-eabi/4.5.2/../../../../arm-none-eabi/include/c++/4.5.2/bits/list.tcc ****  * provided that the above copyright notice appear in all copies and
  46:/opt/toolchains/arm-none-eabi/bin/../lib/gcc/arm-none-eabi/4.5.2/../../../../arm-none-eabi/include/c++/4.5.2/bits/list.tcc ****  * that both that copyright notice and this permission notice appear
  47:/opt/toolchains/arm-none-eabi/bin/../lib/gcc/arm-none-eabi/4.5.2/../../../../arm-none-eabi/include/c++/4.5.2/bits/list.tcc ****  * in supporting documentation.  Silicon Graphics makes no
  48:/opt/toolchains/arm-none-eabi/bin/../lib/gcc/arm-none-eabi/4.5.2/../../../../arm-none-eabi/include/c++/4.5.2/bits/list.tcc ****  * representations about the suitability of this software for any
  49:/opt/toolchains/arm-none-eabi/bin/../lib/gcc/arm-none-eabi/4.5.2/../../../../arm-none-eabi/include/c++/4.5.2/bits/list.tcc ****  * purpose.  It is provided "as is" without express or implied warranty.
  50:/opt/toolchains/arm-none-eabi/bin/../lib/gcc/arm-none-eabi/4.5.2/../../../../arm-none-eabi/include/c++/4.5.2/bits/list.tcc ****  */
  51:/opt/toolchains/arm-none-eabi/bin/../lib/gcc/arm-none-eabi/4.5.2/../../../../arm-none-eabi/include/c++/4.5.2/bits/list.tcc **** 
  52:/opt/toolchains/arm-none-eabi/bin/../lib/gcc/arm-none-eabi/4.5.2/../../../../arm-none-eabi/include/c++/4.5.2/bits/list.tcc **** /** @file list.tcc
  53:/opt/toolchains/arm-none-eabi/bin/../lib/gcc/arm-none-eabi/4.5.2/../../../../arm-none-eabi/include/c++/4.5.2/bits/list.tcc ****  *  This is an internal header file, included by other library headers.
  54:/opt/toolchains/arm-none-eabi/bin/../lib/gcc/arm-none-eabi/4.5.2/../../../../arm-none-eabi/include/c++/4.5.2/bits/list.tcc ****  *  You should not attempt to use it directly.
  55:/opt/toolchains/arm-none-eabi/bin/../lib/gcc/arm-none-eabi/4.5.2/../../../../arm-none-eabi/include/c++/4.5.2/bits/list.tcc ****  */
  56:/opt/toolchains/arm-none-eabi/bin/../lib/gcc/arm-none-eabi/4.5.2/../../../../arm-none-eabi/include/c++/4.5.2/bits/list.tcc **** 
  57:/opt/toolchains/arm-none-eabi/bin/../lib/gcc/arm-none-eabi/4.5.2/../../../../arm-none-eabi/include/c++/4.5.2/bits/list.tcc **** #ifndef _LIST_TCC
  58:/opt/toolchains/arm-none-eabi/bin/../lib/gcc/arm-none-eabi/4.5.2/../../../../arm-none-eabi/include/c++/4.5.2/bits/list.tcc **** #define _LIST_TCC 1
  59:/opt/toolchains/arm-none-eabi/bin/../lib/gcc/arm-none-eabi/4.5.2/../../../../arm-none-eabi/include/c++/4.5.2/bits/list.tcc **** 
  60:/opt/toolchains/arm-none-eabi/bin/../lib/gcc/arm-none-eabi/4.5.2/../../../../arm-none-eabi/include/c++/4.5.2/bits/list.tcc **** _GLIBCXX_BEGIN_NESTED_NAMESPACE(std, _GLIBCXX_STD_D)
  61:/opt/toolchains/arm-none-eabi/bin/../lib/gcc/arm-none-eabi/4.5.2/../../../../arm-none-eabi/include/c++/4.5.2/bits/list.tcc **** 
  62:/opt/toolchains/arm-none-eabi/bin/../lib/gcc/arm-none-eabi/4.5.2/../../../../arm-none-eabi/include/c++/4.5.2/bits/list.tcc ****   template<typename _Tp, typename _Alloc>
  63:/opt/toolchains/arm-none-eabi/bin/../lib/gcc/arm-none-eabi/4.5.2/../../../../arm-none-eabi/include/c++/4.5.2/bits/list.tcc ****     void
  64:/opt/toolchains/arm-none-eabi/bin/../lib/gcc/arm-none-eabi/4.5.2/../../../../arm-none-eabi/include/c++/4.5.2/bits/list.tcc ****     _List_base<_Tp, _Alloc>::
  65:/opt/toolchains/arm-none-eabi/bin/../lib/gcc/arm-none-eabi/4.5.2/../../../../arm-none-eabi/include/c++/4.5.2/bits/list.tcc ****     _M_clear()
  66:/opt/toolchains/arm-none-eabi/bin/../lib/gcc/arm-none-eabi/4.5.2/../../../../arm-none-eabi/include/c++/4.5.2/bits/list.tcc ****     {
  67:/opt/toolchains/arm-none-eabi/bin/../lib/gcc/arm-none-eabi/4.5.2/../../../../arm-none-eabi/include/c++/4.5.2/bits/list.tcc ****       typedef _List_node<_Tp>  _Node;
  68:/opt/toolchains/arm-none-eabi/bin/../lib/gcc/arm-none-eabi/4.5.2/../../../../arm-none-eabi/include/c++/4.5.2/bits/list.tcc ****       _Node* __cur = static_cast<_Node*>(this->_M_impl._M_node._M_next);
  69:/opt/toolchains/arm-none-eabi/bin/../lib/gcc/arm-none-eabi/4.5.2/../../../../arm-none-eabi/include/c++/4.5.2/bits/list.tcc ****       while (__cur != &this->_M_impl._M_node)
  70:/opt/toolchains/arm-none-eabi/bin/../lib/gcc/arm-none-eabi/4.5.2/../../../../arm-none-eabi/include/c++/4.5.2/bits/list.tcc **** 	{
  71:/opt/toolchains/arm-none-eabi/bin/../lib/gcc/arm-none-eabi/4.5.2/../../../../arm-none-eabi/include/c++/4.5.2/bits/list.tcc **** 	  _Node* __tmp = __cur;
  72:/opt/toolchains/arm-none-eabi/bin/../lib/gcc/arm-none-eabi/4.5.2/../../../../arm-none-eabi/include/c++/4.5.2/bits/list.tcc **** 	  __cur = static_cast<_Node*>(__cur->_M_next);
  73:/opt/toolchains/arm-none-eabi/bin/../lib/gcc/arm-none-eabi/4.5.2/../../../../arm-none-eabi/include/c++/4.5.2/bits/list.tcc **** #ifdef __GXX_EXPERIMENTAL_CXX0X__
  74:/opt/toolchains/arm-none-eabi/bin/../lib/gcc/arm-none-eabi/4.5.2/../../../../arm-none-eabi/include/c++/4.5.2/bits/list.tcc **** 	  _M_get_Node_allocator().destroy(__tmp);
  75:/opt/toolchains/arm-none-eabi/bin/../lib/gcc/arm-none-eabi/4.5.2/../../../../arm-none-eabi/include/c++/4.5.2/bits/list.tcc **** #else
  76:/opt/toolchains/arm-none-eabi/bin/../lib/gcc/arm-none-eabi/4.5.2/../../../../arm-none-eabi/include/c++/4.5.2/bits/list.tcc **** 	  _M_get_Tp_allocator().destroy(&__tmp->_M_data);
  77:/opt/toolchains/arm-none-eabi/bin/../lib/gcc/arm-none-eabi/4.5.2/../../../../arm-none-eabi/include/c++/4.5.2/bits/list.tcc **** #endif
  78:/opt/toolchains/arm-none-eabi/bin/../lib/gcc/arm-none-eabi/4.5.2/../../../../arm-none-eabi/include/c++/4.5.2/bits/list.tcc **** 	  _M_put_node(__tmp);
  79:/opt/toolchains/arm-none-eabi/bin/../lib/gcc/arm-none-eabi/4.5.2/../../../../arm-none-eabi/include/c++/4.5.2/bits/list.tcc **** 	}
  80:/opt/toolchains/arm-none-eabi/bin/../lib/gcc/arm-none-eabi/4.5.2/../../../../arm-none-eabi/include/c++/4.5.2/bits/list.tcc ****     }
  81:/opt/toolchains/arm-none-eabi/bin/../lib/gcc/arm-none-eabi/4.5.2/../../../../arm-none-eabi/include/c++/4.5.2/bits/list.tcc **** 
  82:/opt/toolchains/arm-none-eabi/bin/../lib/gcc/arm-none-eabi/4.5.2/../../../../arm-none-eabi/include/c++/4.5.2/bits/list.tcc **** #ifdef __GXX_EXPERIMENTAL_CXX0X__
  83:/opt/toolchains/arm-none-eabi/bin/../lib/gcc/arm-none-eabi/4.5.2/../../../../arm-none-eabi/include/c++/4.5.2/bits/list.tcc ****   template<typename _Tp, typename _Alloc>
  84:/opt/toolchains/arm-none-eabi/bin/../lib/gcc/arm-none-eabi/4.5.2/../../../../arm-none-eabi/include/c++/4.5.2/bits/list.tcc ****     template<typename... _Args>
  85:/opt/toolchains/arm-none-eabi/bin/../lib/gcc/arm-none-eabi/4.5.2/../../../../arm-none-eabi/include/c++/4.5.2/bits/list.tcc ****       typename list<_Tp, _Alloc>::iterator
  86:/opt/toolchains/arm-none-eabi/bin/../lib/gcc/arm-none-eabi/4.5.2/../../../../arm-none-eabi/include/c++/4.5.2/bits/list.tcc ****       list<_Tp, _Alloc>::
  87:/opt/toolchains/arm-none-eabi/bin/../lib/gcc/arm-none-eabi/4.5.2/../../../../arm-none-eabi/include/c++/4.5.2/bits/list.tcc ****       emplace(iterator __position, _Args&&... __args)
  88:/opt/toolchains/arm-none-eabi/bin/../lib/gcc/arm-none-eabi/4.5.2/../../../../arm-none-eabi/include/c++/4.5.2/bits/list.tcc ****       {
  89:/opt/toolchains/arm-none-eabi/bin/../lib/gcc/arm-none-eabi/4.5.2/../../../../arm-none-eabi/include/c++/4.5.2/bits/list.tcc **** 	_Node* __tmp = _M_create_node(std::forward<_Args>(__args)...);
  90:/opt/toolchains/arm-none-eabi/bin/../lib/gcc/arm-none-eabi/4.5.2/../../../../arm-none-eabi/include/c++/4.5.2/bits/list.tcc **** 	__tmp->_M_hook(__position._M_node);
  91:/opt/toolchains/arm-none-eabi/bin/../lib/gcc/arm-none-eabi/4.5.2/../../../../arm-none-eabi/include/c++/4.5.2/bits/list.tcc **** 	return iterator(__tmp);
  92:/opt/toolchains/arm-none-eabi/bin/../lib/gcc/arm-none-eabi/4.5.2/../../../../arm-none-eabi/include/c++/4.5.2/bits/list.tcc ****       }
  93:/opt/toolchains/arm-none-eabi/bin/../lib/gcc/arm-none-eabi/4.5.2/../../../../arm-none-eabi/include/c++/4.5.2/bits/list.tcc **** #endif
  94:/opt/toolchains/arm-none-eabi/bin/../lib/gcc/arm-none-eabi/4.5.2/../../../../arm-none-eabi/include/c++/4.5.2/bits/list.tcc **** 
  95:/opt/toolchains/arm-none-eabi/bin/../lib/gcc/arm-none-eabi/4.5.2/../../../../arm-none-eabi/include/c++/4.5.2/bits/list.tcc ****   template<typename _Tp, typename _Alloc>
  96:/opt/toolchains/arm-none-eabi/bin/../lib/gcc/arm-none-eabi/4.5.2/../../../../arm-none-eabi/include/c++/4.5.2/bits/list.tcc ****     typename list<_Tp, _Alloc>::iterator
  97:/opt/toolchains/arm-none-eabi/bin/../lib/gcc/arm-none-eabi/4.5.2/../../../../arm-none-eabi/include/c++/4.5.2/bits/list.tcc ****     list<_Tp, _Alloc>::
  98:/opt/toolchains/arm-none-eabi/bin/../lib/gcc/arm-none-eabi/4.5.2/../../../../arm-none-eabi/include/c++/4.5.2/bits/list.tcc ****     insert(iterator __position, const value_type& __x)
  99:/opt/toolchains/arm-none-eabi/bin/../lib/gcc/arm-none-eabi/4.5.2/../../../../arm-none-eabi/include/c++/4.5.2/bits/list.tcc ****     {
 100:/opt/toolchains/arm-none-eabi/bin/../lib/gcc/arm-none-eabi/4.5.2/../../../../arm-none-eabi/include/c++/4.5.2/bits/list.tcc ****       _Node* __tmp = _M_create_node(__x);
 101:/opt/toolchains/arm-none-eabi/bin/../lib/gcc/arm-none-eabi/4.5.2/../../../../arm-none-eabi/include/c++/4.5.2/bits/list.tcc ****       __tmp->_M_hook(__position._M_node);
 102:/opt/toolchains/arm-none-eabi/bin/../lib/gcc/arm-none-eabi/4.5.2/../../../../arm-none-eabi/include/c++/4.5.2/bits/list.tcc ****       return iterator(__tmp);
 103:/opt/toolchains/arm-none-eabi/bin/../lib/gcc/arm-none-eabi/4.5.2/../../../../arm-none-eabi/include/c++/4.5.2/bits/list.tcc ****     }
 104:/opt/toolchains/arm-none-eabi/bin/../lib/gcc/arm-none-eabi/4.5.2/../../../../arm-none-eabi/include/c++/4.5.2/bits/list.tcc **** 
 105:/opt/toolchains/arm-none-eabi/bin/../lib/gcc/arm-none-eabi/4.5.2/../../../../arm-none-eabi/include/c++/4.5.2/bits/list.tcc ****   template<typename _Tp, typename _Alloc>
 106:/opt/toolchains/arm-none-eabi/bin/../lib/gcc/arm-none-eabi/4.5.2/../../../../arm-none-eabi/include/c++/4.5.2/bits/list.tcc ****     typename list<_Tp, _Alloc>::iterator
 107:/opt/toolchains/arm-none-eabi/bin/../lib/gcc/arm-none-eabi/4.5.2/../../../../arm-none-eabi/include/c++/4.5.2/bits/list.tcc ****     list<_Tp, _Alloc>::
 108:/opt/toolchains/arm-none-eabi/bin/../lib/gcc/arm-none-eabi/4.5.2/../../../../arm-none-eabi/include/c++/4.5.2/bits/list.tcc ****     erase(iterator __position)
 109:/opt/toolchains/arm-none-eabi/bin/../lib/gcc/arm-none-eabi/4.5.2/../../../../arm-none-eabi/include/c++/4.5.2/bits/list.tcc ****     {
 110:/opt/toolchains/arm-none-eabi/bin/../lib/gcc/arm-none-eabi/4.5.2/../../../../arm-none-eabi/include/c++/4.5.2/bits/list.tcc ****       iterator __ret = iterator(__position._M_node->_M_next);
 111:/opt/toolchains/arm-none-eabi/bin/../lib/gcc/arm-none-eabi/4.5.2/../../../../arm-none-eabi/include/c++/4.5.2/bits/list.tcc ****       _M_erase(__position);
 112:/opt/toolchains/arm-none-eabi/bin/../lib/gcc/arm-none-eabi/4.5.2/../../../../arm-none-eabi/include/c++/4.5.2/bits/list.tcc ****       return __ret;
 113:/opt/toolchains/arm-none-eabi/bin/../lib/gcc/arm-none-eabi/4.5.2/../../../../arm-none-eabi/include/c++/4.5.2/bits/list.tcc ****     }
 114:/opt/toolchains/arm-none-eabi/bin/../lib/gcc/arm-none-eabi/4.5.2/../../../../arm-none-eabi/include/c++/4.5.2/bits/list.tcc **** 
 115:/opt/toolchains/arm-none-eabi/bin/../lib/gcc/arm-none-eabi/4.5.2/../../../../arm-none-eabi/include/c++/4.5.2/bits/list.tcc ****   template<typename _Tp, typename _Alloc>
 116:/opt/toolchains/arm-none-eabi/bin/../lib/gcc/arm-none-eabi/4.5.2/../../../../arm-none-eabi/include/c++/4.5.2/bits/list.tcc ****     void
 117:/opt/toolchains/arm-none-eabi/bin/../lib/gcc/arm-none-eabi/4.5.2/../../../../arm-none-eabi/include/c++/4.5.2/bits/list.tcc ****     list<_Tp, _Alloc>::
 118:/opt/toolchains/arm-none-eabi/bin/../lib/gcc/arm-none-eabi/4.5.2/../../../../arm-none-eabi/include/c++/4.5.2/bits/list.tcc ****     resize(size_type __new_size, value_type __x)
 119:/opt/toolchains/arm-none-eabi/bin/../lib/gcc/arm-none-eabi/4.5.2/../../../../arm-none-eabi/include/c++/4.5.2/bits/list.tcc ****     {
 120:/opt/toolchains/arm-none-eabi/bin/../lib/gcc/arm-none-eabi/4.5.2/../../../../arm-none-eabi/include/c++/4.5.2/bits/list.tcc ****       iterator __i = begin();
 121:/opt/toolchains/arm-none-eabi/bin/../lib/gcc/arm-none-eabi/4.5.2/../../../../arm-none-eabi/include/c++/4.5.2/bits/list.tcc ****       size_type __len = 0;
 122:/opt/toolchains/arm-none-eabi/bin/../lib/gcc/arm-none-eabi/4.5.2/../../../../arm-none-eabi/include/c++/4.5.2/bits/list.tcc ****       for (; __i != end() && __len < __new_size; ++__i, ++__len)
 123:/opt/toolchains/arm-none-eabi/bin/../lib/gcc/arm-none-eabi/4.5.2/../../../../arm-none-eabi/include/c++/4.5.2/bits/list.tcc ****         ;
 124:/opt/toolchains/arm-none-eabi/bin/../lib/gcc/arm-none-eabi/4.5.2/../../../../arm-none-eabi/include/c++/4.5.2/bits/list.tcc ****       if (__len == __new_size)
 125:/opt/toolchains/arm-none-eabi/bin/../lib/gcc/arm-none-eabi/4.5.2/../../../../arm-none-eabi/include/c++/4.5.2/bits/list.tcc ****         erase(__i, end());
 126:/opt/toolchains/arm-none-eabi/bin/../lib/gcc/arm-none-eabi/4.5.2/../../../../arm-none-eabi/include/c++/4.5.2/bits/list.tcc ****       else                          // __i == end()
 127:/opt/toolchains/arm-none-eabi/bin/../lib/gcc/arm-none-eabi/4.5.2/../../../../arm-none-eabi/include/c++/4.5.2/bits/list.tcc ****         insert(end(), __new_size - __len, __x);
 128:/opt/toolchains/arm-none-eabi/bin/../lib/gcc/arm-none-eabi/4.5.2/../../../../arm-none-eabi/include/c++/4.5.2/bits/list.tcc ****     }
 129:/opt/toolchains/arm-none-eabi/bin/../lib/gcc/arm-none-eabi/4.5.2/../../../../arm-none-eabi/include/c++/4.5.2/bits/list.tcc **** 
 130:/opt/toolchains/arm-none-eabi/bin/../lib/gcc/arm-none-eabi/4.5.2/../../../../arm-none-eabi/include/c++/4.5.2/bits/list.tcc ****   template<typename _Tp, typename _Alloc>
 131:/opt/toolchains/arm-none-eabi/bin/../lib/gcc/arm-none-eabi/4.5.2/../../../../arm-none-eabi/include/c++/4.5.2/bits/list.tcc ****     list<_Tp, _Alloc>&
 132:/opt/toolchains/arm-none-eabi/bin/../lib/gcc/arm-none-eabi/4.5.2/../../../../arm-none-eabi/include/c++/4.5.2/bits/list.tcc ****     list<_Tp, _Alloc>::
 133:/opt/toolchains/arm-none-eabi/bin/../lib/gcc/arm-none-eabi/4.5.2/../../../../arm-none-eabi/include/c++/4.5.2/bits/list.tcc ****     operator=(const list& __x)
 134:/opt/toolchains/arm-none-eabi/bin/../lib/gcc/arm-none-eabi/4.5.2/../../../../arm-none-eabi/include/c++/4.5.2/bits/list.tcc ****     {
 135:/opt/toolchains/arm-none-eabi/bin/../lib/gcc/arm-none-eabi/4.5.2/../../../../arm-none-eabi/include/c++/4.5.2/bits/list.tcc ****       if (this != &__x)
 136:/opt/toolchains/arm-none-eabi/bin/../lib/gcc/arm-none-eabi/4.5.2/../../../../arm-none-eabi/include/c++/4.5.2/bits/list.tcc **** 	{
 137:/opt/toolchains/arm-none-eabi/bin/../lib/gcc/arm-none-eabi/4.5.2/../../../../arm-none-eabi/include/c++/4.5.2/bits/list.tcc **** 	  iterator __first1 = begin();
 138:/opt/toolchains/arm-none-eabi/bin/../lib/gcc/arm-none-eabi/4.5.2/../../../../arm-none-eabi/include/c++/4.5.2/bits/list.tcc **** 	  iterator __last1 = end();
 139:/opt/toolchains/arm-none-eabi/bin/../lib/gcc/arm-none-eabi/4.5.2/../../../../arm-none-eabi/include/c++/4.5.2/bits/list.tcc **** 	  const_iterator __first2 = __x.begin();
 140:/opt/toolchains/arm-none-eabi/bin/../lib/gcc/arm-none-eabi/4.5.2/../../../../arm-none-eabi/include/c++/4.5.2/bits/list.tcc **** 	  const_iterator __last2 = __x.end();
 141:/opt/toolchains/arm-none-eabi/bin/../lib/gcc/arm-none-eabi/4.5.2/../../../../arm-none-eabi/include/c++/4.5.2/bits/list.tcc **** 	  for (; __first1 != __last1 && __first2 != __last2;
 142:/opt/toolchains/arm-none-eabi/bin/../lib/gcc/arm-none-eabi/4.5.2/../../../../arm-none-eabi/include/c++/4.5.2/bits/list.tcc **** 	       ++__first1, ++__first2)
 143:/opt/toolchains/arm-none-eabi/bin/../lib/gcc/arm-none-eabi/4.5.2/../../../../arm-none-eabi/include/c++/4.5.2/bits/list.tcc **** 	    *__first1 = *__first2;
 144:/opt/toolchains/arm-none-eabi/bin/../lib/gcc/arm-none-eabi/4.5.2/../../../../arm-none-eabi/include/c++/4.5.2/bits/list.tcc **** 	  if (__first2 == __last2)
 145:/opt/toolchains/arm-none-eabi/bin/../lib/gcc/arm-none-eabi/4.5.2/../../../../arm-none-eabi/include/c++/4.5.2/bits/list.tcc **** 	    erase(__first1, __last1);
 146:/opt/toolchains/arm-none-eabi/bin/../lib/gcc/arm-none-eabi/4.5.2/../../../../arm-none-eabi/include/c++/4.5.2/bits/list.tcc **** 	  else
 147:/opt/toolchains/arm-none-eabi/bin/../lib/gcc/arm-none-eabi/4.5.2/../../../../arm-none-eabi/include/c++/4.5.2/bits/list.tcc **** 	    insert(__last1, __first2, __last2);
 148:/opt/toolchains/arm-none-eabi/bin/../lib/gcc/arm-none-eabi/4.5.2/../../../../arm-none-eabi/include/c++/4.5.2/bits/list.tcc **** 	}
 149:/opt/toolchains/arm-none-eabi/bin/../lib/gcc/arm-none-eabi/4.5.2/../../../../arm-none-eabi/include/c++/4.5.2/bits/list.tcc ****       return *this;
 150:/opt/toolchains/arm-none-eabi/bin/../lib/gcc/arm-none-eabi/4.5.2/../../../../arm-none-eabi/include/c++/4.5.2/bits/list.tcc ****     }
 151:/opt/toolchains/arm-none-eabi/bin/../lib/gcc/arm-none-eabi/4.5.2/../../../../arm-none-eabi/include/c++/4.5.2/bits/list.tcc **** 
 152:/opt/toolchains/arm-none-eabi/bin/../lib/gcc/arm-none-eabi/4.5.2/../../../../arm-none-eabi/include/c++/4.5.2/bits/list.tcc ****   template<typename _Tp, typename _Alloc>
 153:/opt/toolchains/arm-none-eabi/bin/../lib/gcc/arm-none-eabi/4.5.2/../../../../arm-none-eabi/include/c++/4.5.2/bits/list.tcc ****     void
 154:/opt/toolchains/arm-none-eabi/bin/../lib/gcc/arm-none-eabi/4.5.2/../../../../arm-none-eabi/include/c++/4.5.2/bits/list.tcc ****     list<_Tp, _Alloc>::
 155:/opt/toolchains/arm-none-eabi/bin/../lib/gcc/arm-none-eabi/4.5.2/../../../../arm-none-eabi/include/c++/4.5.2/bits/list.tcc ****     _M_fill_assign(size_type __n, const value_type& __val)
 156:/opt/toolchains/arm-none-eabi/bin/../lib/gcc/arm-none-eabi/4.5.2/../../../../arm-none-eabi/include/c++/4.5.2/bits/list.tcc ****     {
 157:/opt/toolchains/arm-none-eabi/bin/../lib/gcc/arm-none-eabi/4.5.2/../../../../arm-none-eabi/include/c++/4.5.2/bits/list.tcc ****       iterator __i = begin();
 158:/opt/toolchains/arm-none-eabi/bin/../lib/gcc/arm-none-eabi/4.5.2/../../../../arm-none-eabi/include/c++/4.5.2/bits/list.tcc ****       for (; __i != end() && __n > 0; ++__i, --__n)
 159:/opt/toolchains/arm-none-eabi/bin/../lib/gcc/arm-none-eabi/4.5.2/../../../../arm-none-eabi/include/c++/4.5.2/bits/list.tcc ****         *__i = __val;
 160:/opt/toolchains/arm-none-eabi/bin/../lib/gcc/arm-none-eabi/4.5.2/../../../../arm-none-eabi/include/c++/4.5.2/bits/list.tcc ****       if (__n > 0)
 161:/opt/toolchains/arm-none-eabi/bin/../lib/gcc/arm-none-eabi/4.5.2/../../../../arm-none-eabi/include/c++/4.5.2/bits/list.tcc ****         insert(end(), __n, __val);
 162:/opt/toolchains/arm-none-eabi/bin/../lib/gcc/arm-none-eabi/4.5.2/../../../../arm-none-eabi/include/c++/4.5.2/bits/list.tcc ****       else
 163:/opt/toolchains/arm-none-eabi/bin/../lib/gcc/arm-none-eabi/4.5.2/../../../../arm-none-eabi/include/c++/4.5.2/bits/list.tcc ****         erase(__i, end());
 164:/opt/toolchains/arm-none-eabi/bin/../lib/gcc/arm-none-eabi/4.5.2/../../../../arm-none-eabi/include/c++/4.5.2/bits/list.tcc ****     }
 165:/opt/toolchains/arm-none-eabi/bin/../lib/gcc/arm-none-eabi/4.5.2/../../../../arm-none-eabi/include/c++/4.5.2/bits/list.tcc **** 
 166:/opt/toolchains/arm-none-eabi/bin/../lib/gcc/arm-none-eabi/4.5.2/../../../../arm-none-eabi/include/c++/4.5.2/bits/list.tcc ****   template<typename _Tp, typename _Alloc>
 167:/opt/toolchains/arm-none-eabi/bin/../lib/gcc/arm-none-eabi/4.5.2/../../../../arm-none-eabi/include/c++/4.5.2/bits/list.tcc ****     template <typename _InputIterator>
 168:/opt/toolchains/arm-none-eabi/bin/../lib/gcc/arm-none-eabi/4.5.2/../../../../arm-none-eabi/include/c++/4.5.2/bits/list.tcc ****       void
 169:/opt/toolchains/arm-none-eabi/bin/../lib/gcc/arm-none-eabi/4.5.2/../../../../arm-none-eabi/include/c++/4.5.2/bits/list.tcc ****       list<_Tp, _Alloc>::
 170:/opt/toolchains/arm-none-eabi/bin/../lib/gcc/arm-none-eabi/4.5.2/../../../../arm-none-eabi/include/c++/4.5.2/bits/list.tcc ****       _M_assign_dispatch(_InputIterator __first2, _InputIterator __last2,
 171:/opt/toolchains/arm-none-eabi/bin/../lib/gcc/arm-none-eabi/4.5.2/../../../../arm-none-eabi/include/c++/4.5.2/bits/list.tcc **** 			 __false_type)
 172:/opt/toolchains/arm-none-eabi/bin/../lib/gcc/arm-none-eabi/4.5.2/../../../../arm-none-eabi/include/c++/4.5.2/bits/list.tcc ****       {
 173:/opt/toolchains/arm-none-eabi/bin/../lib/gcc/arm-none-eabi/4.5.2/../../../../arm-none-eabi/include/c++/4.5.2/bits/list.tcc ****         iterator __first1 = begin();
 174:/opt/toolchains/arm-none-eabi/bin/../lib/gcc/arm-none-eabi/4.5.2/../../../../arm-none-eabi/include/c++/4.5.2/bits/list.tcc ****         iterator __last1 = end();
 175:/opt/toolchains/arm-none-eabi/bin/../lib/gcc/arm-none-eabi/4.5.2/../../../../arm-none-eabi/include/c++/4.5.2/bits/list.tcc ****         for (; __first1 != __last1 && __first2 != __last2;
 176:/opt/toolchains/arm-none-eabi/bin/../lib/gcc/arm-none-eabi/4.5.2/../../../../arm-none-eabi/include/c++/4.5.2/bits/list.tcc **** 	     ++__first1, ++__first2)
 177:/opt/toolchains/arm-none-eabi/bin/../lib/gcc/arm-none-eabi/4.5.2/../../../../arm-none-eabi/include/c++/4.5.2/bits/list.tcc ****           *__first1 = *__first2;
 178:/opt/toolchains/arm-none-eabi/bin/../lib/gcc/arm-none-eabi/4.5.2/../../../../arm-none-eabi/include/c++/4.5.2/bits/list.tcc ****         if (__first2 == __last2)
 179:/opt/toolchains/arm-none-eabi/bin/../lib/gcc/arm-none-eabi/4.5.2/../../../../arm-none-eabi/include/c++/4.5.2/bits/list.tcc ****           erase(__first1, __last1);
 180:/opt/toolchains/arm-none-eabi/bin/../lib/gcc/arm-none-eabi/4.5.2/../../../../arm-none-eabi/include/c++/4.5.2/bits/list.tcc ****         else
 181:/opt/toolchains/arm-none-eabi/bin/../lib/gcc/arm-none-eabi/4.5.2/../../../../arm-none-eabi/include/c++/4.5.2/bits/list.tcc ****           insert(__last1, __first2, __last2);
 182:/opt/toolchains/arm-none-eabi/bin/../lib/gcc/arm-none-eabi/4.5.2/../../../../arm-none-eabi/include/c++/4.5.2/bits/list.tcc ****       }
 183:/opt/toolchains/arm-none-eabi/bin/../lib/gcc/arm-none-eabi/4.5.2/../../../../arm-none-eabi/include/c++/4.5.2/bits/list.tcc **** 
 184:/opt/toolchains/arm-none-eabi/bin/../lib/gcc/arm-none-eabi/4.5.2/../../../../arm-none-eabi/include/c++/4.5.2/bits/list.tcc ****   template<typename _Tp, typename _Alloc>
 185:/opt/toolchains/arm-none-eabi/bin/../lib/gcc/arm-none-eabi/4.5.2/../../../../arm-none-eabi/include/c++/4.5.2/bits/list.tcc ****     void
 186:/opt/toolchains/arm-none-eabi/bin/../lib/gcc/arm-none-eabi/4.5.2/../../../../arm-none-eabi/include/c++/4.5.2/bits/list.tcc ****     list<_Tp, _Alloc>::
 5134              		.loc 30 186 0
 5135              		.cfi_startproc
 5136              		@ args = 0, pretend = 0, frame = 24
 5137              		@ frame_needed = 1, uses_anonymous_args = 0
 5138 0000 80B5     		push	{r7, lr}
 5139              	.LCFI75:
 5140              		.cfi_def_cfa_offset 8
 5141 0002 86B0     		sub	sp, sp, #24
 5142              	.LCFI76:
 5143              		.cfi_def_cfa_offset 32
 5144 0004 00AF     		add	r7, sp, #0
 5145              		.cfi_offset 14, -4
 5146              		.cfi_offset 7, -8
 5147              	.LCFI77:
 5148              		.cfi_def_cfa_register 7
 5149 0006 7860     		str	r0, [r7, #4]
 5150 0008 3960     		str	r1, [r7, #0]
 5151              	.LBB18:
 187:/opt/toolchains/arm-none-eabi/bin/../lib/gcc/arm-none-eabi/4.5.2/../../../../arm-none-eabi/include/c++/4.5.2/bits/list.tcc ****     remove(const value_type& __value)
 188:/opt/toolchains/arm-none-eabi/bin/../lib/gcc/arm-none-eabi/4.5.2/../../../../arm-none-eabi/include/c++/4.5.2/bits/list.tcc ****     {
 189:/opt/toolchains/arm-none-eabi/bin/../lib/gcc/arm-none-eabi/4.5.2/../../../../arm-none-eabi/include/c++/4.5.2/bits/list.tcc ****       iterator __first = begin();
 5152              		.loc 30 189 0
 5153 000a 7868     		ldr	r0, [r7, #4]
 5154 000c FFF7FEFF 		bl	_ZNSt4listIPN5Air3T5IViewESaIS2_EE5beginEv
 5155 0010 0346     		mov	r3, r0
 5156 0012 7B61     		str	r3, [r7, #20]
 190:/opt/toolchains/arm-none-eabi/bin/../lib/gcc/arm-none-eabi/4.5.2/../../../../arm-none-eabi/include/c++/4.5.2/bits/list.tcc ****       iterator __last = end();
 5157              		.loc 30 190 0
 5158 0014 7868     		ldr	r0, [r7, #4]
 5159 0016 FFF7FEFF 		bl	_ZNSt4listIPN5Air3T5IViewESaIS2_EE3endEv
 5160 001a 0346     		mov	r3, r0
 5161 001c 3B61     		str	r3, [r7, #16]
 191:/opt/toolchains/arm-none-eabi/bin/../lib/gcc/arm-none-eabi/4.5.2/../../../../arm-none-eabi/include/c++/4.5.2/bits/list.tcc ****       iterator __extra = __last;
 5162              		.loc 30 191 0
 5163 001e 3B69     		ldr	r3, [r7, #16]
 5164 0020 FB60     		str	r3, [r7, #12]
 192:/opt/toolchains/arm-none-eabi/bin/../lib/gcc/arm-none-eabi/4.5.2/../../../../arm-none-eabi/include/c++/4.5.2/bits/list.tcc ****       while (__first != __last)
 5165              		.loc 30 192 0
 5166 0022 2DE0     		b	.L52
 5167              	.L55:
 5168              	.LBB19:
 193:/opt/toolchains/arm-none-eabi/bin/../lib/gcc/arm-none-eabi/4.5.2/../../../../arm-none-eabi/include/c++/4.5.2/bits/list.tcc **** 	{
 194:/opt/toolchains/arm-none-eabi/bin/../lib/gcc/arm-none-eabi/4.5.2/../../../../arm-none-eabi/include/c++/4.5.2/bits/list.tcc **** 	  iterator __next = __first;
 5169              		.loc 30 194 0
 5170 0024 7B69     		ldr	r3, [r7, #20]
 5171 0026 BB60     		str	r3, [r7, #8]
 195:/opt/toolchains/arm-none-eabi/bin/../lib/gcc/arm-none-eabi/4.5.2/../../../../arm-none-eabi/include/c++/4.5.2/bits/list.tcc **** 	  ++__next;
 5172              		.loc 30 195 0
 5173 0028 07F10803 		add	r3, r7, #8
 5174 002c 1846     		mov	r0, r3
 5175 002e FFF7FEFF 		bl	_ZNSt14_List_iteratorIPN5Air3T5IViewEEppEv
 196:/opt/toolchains/arm-none-eabi/bin/../lib/gcc/arm-none-eabi/4.5.2/../../../../arm-none-eabi/include/c++/4.5.2/bits/list.tcc **** 	  if (*__first == __value)
 5176              		.loc 30 196 0
 5177 0032 07F11403 		add	r3, r7, #20
 5178 0036 1846     		mov	r0, r3
 5179 0038 FFF7FEFF 		bl	_ZNKSt14_List_iteratorIPN5Air3T5IViewEEdeEv
 5180 003c 0346     		mov	r3, r0
 5181 003e 1A68     		ldr	r2, [r3, #0]
 5182 0040 3B68     		ldr	r3, [r7, #0]
 5183 0042 1B68     		ldr	r3, [r3, #0]
 5184 0044 9A42     		cmp	r2, r3
 5185 0046 14BF     		ite	ne
 5186 0048 0023     		movne	r3, #0
 5187 004a 0123     		moveq	r3, #1
 5188 004c DBB2     		uxtb	r3, r3
 5189 004e 002B     		cmp	r3, #0
 5190 0050 14D0     		beq	.L53
 197:/opt/toolchains/arm-none-eabi/bin/../lib/gcc/arm-none-eabi/4.5.2/../../../../arm-none-eabi/include/c++/4.5.2/bits/list.tcc **** 	    {
 198:/opt/toolchains/arm-none-eabi/bin/../lib/gcc/arm-none-eabi/4.5.2/../../../../arm-none-eabi/include/c++/4.5.2/bits/list.tcc **** 	      // _GLIBCXX_RESOLVE_LIB_DEFECTS
 199:/opt/toolchains/arm-none-eabi/bin/../lib/gcc/arm-none-eabi/4.5.2/../../../../arm-none-eabi/include/c++/4.5.2/bits/list.tcc **** 	      // 526. Is it undefined if a function in the standard changes
 200:/opt/toolchains/arm-none-eabi/bin/../lib/gcc/arm-none-eabi/4.5.2/../../../../arm-none-eabi/include/c++/4.5.2/bits/list.tcc **** 	      // in parameters?
 201:/opt/toolchains/arm-none-eabi/bin/../lib/gcc/arm-none-eabi/4.5.2/../../../../arm-none-eabi/include/c++/4.5.2/bits/list.tcc **** 	      if (&*__first != &__value)
 5191              		.loc 30 201 0
 5192 0052 07F11403 		add	r3, r7, #20
 5193 0056 1846     		mov	r0, r3
 5194 0058 FFF7FEFF 		bl	_ZNKSt14_List_iteratorIPN5Air3T5IViewEEdeEv
 5195 005c 0246     		mov	r2, r0
 5196 005e 3B68     		ldr	r3, [r7, #0]
 5197 0060 9A42     		cmp	r2, r3
 5198 0062 0CBF     		ite	eq
 5199 0064 0023     		moveq	r3, #0
 5200 0066 0123     		movne	r3, #1
 5201 0068 DBB2     		uxtb	r3, r3
 5202 006a 002B     		cmp	r3, #0
 5203 006c 04D0     		beq	.L54
 202:/opt/toolchains/arm-none-eabi/bin/../lib/gcc/arm-none-eabi/4.5.2/../../../../arm-none-eabi/include/c++/4.5.2/bits/list.tcc **** 		_M_erase(__first);
 5204              		.loc 30 202 0
 5205 006e 7868     		ldr	r0, [r7, #4]
 5206 0070 7969     		ldr	r1, [r7, #20]
 5207 0072 FFF7FEFF 		bl	_ZNSt4listIPN5Air3T5IViewESaIS2_EE8_M_eraseESt14_List_iteratorIS2_E
 5208 0076 01E0     		b	.L53
 5209              	.L54:
 203:/opt/toolchains/arm-none-eabi/bin/../lib/gcc/arm-none-eabi/4.5.2/../../../../arm-none-eabi/include/c++/4.5.2/bits/list.tcc **** 	      else
 204:/opt/toolchains/arm-none-eabi/bin/../lib/gcc/arm-none-eabi/4.5.2/../../../../arm-none-eabi/include/c++/4.5.2/bits/list.tcc **** 		__extra = __first;
 5210              		.loc 30 204 0
 5211 0078 7B69     		ldr	r3, [r7, #20]
 5212 007a FB60     		str	r3, [r7, #12]
 5213              	.L53:
 205:/opt/toolchains/arm-none-eabi/bin/../lib/gcc/arm-none-eabi/4.5.2/../../../../arm-none-eabi/include/c++/4.5.2/bits/list.tcc **** 	    }
 206:/opt/toolchains/arm-none-eabi/bin/../lib/gcc/arm-none-eabi/4.5.2/../../../../arm-none-eabi/include/c++/4.5.2/bits/list.tcc **** 	  __first = __next;
 5214              		.loc 30 206 0
 5215 007c BB68     		ldr	r3, [r7, #8]
 5216 007e 7B61     		str	r3, [r7, #20]
 5217              	.L52:
 5218              	.LBE19:
 192:/opt/toolchains/arm-none-eabi/bin/../lib/gcc/arm-none-eabi/4.5.2/../../../../arm-none-eabi/include/c++/4.5.2/bits/list.tcc ****       while (__first != __last)
 5219              		.loc 30 192 0 discriminator 1
 5220 0080 07F11402 		add	r2, r7, #20
 5221 0084 07F11003 		add	r3, r7, #16
 5222 0088 1046     		mov	r0, r2
 5223 008a 1946     		mov	r1, r3
 5224 008c FFF7FEFF 		bl	_ZNKSt14_List_iteratorIPN5Air3T5IViewEEneERKS3_
 5225 0090 0346     		mov	r3, r0
 5226 0092 002B     		cmp	r3, #0
 5227 0094 C6D1     		bne	.L55
 207:/opt/toolchains/arm-none-eabi/bin/../lib/gcc/arm-none-eabi/4.5.2/../../../../arm-none-eabi/include/c++/4.5.2/bits/list.tcc **** 	}
 208:/opt/toolchains/arm-none-eabi/bin/../lib/gcc/arm-none-eabi/4.5.2/../../../../arm-none-eabi/include/c++/4.5.2/bits/list.tcc ****       if (__extra != __last)
 5228              		.loc 30 208 0
 5229 0096 07F10C02 		add	r2, r7, #12
 5230 009a 07F11003 		add	r3, r7, #16
 5231 009e 1046     		mov	r0, r2
 5232 00a0 1946     		mov	r1, r3
 5233 00a2 FFF7FEFF 		bl	_ZNKSt14_List_iteratorIPN5Air3T5IViewEEneERKS3_
 5234 00a6 0346     		mov	r3, r0
 5235 00a8 002B     		cmp	r3, #0
 5236 00aa 03D0     		beq	.L51
 209:/opt/toolchains/arm-none-eabi/bin/../lib/gcc/arm-none-eabi/4.5.2/../../../../arm-none-eabi/include/c++/4.5.2/bits/list.tcc **** 	_M_erase(__extra);
 5237              		.loc 30 209 0
 5238 00ac 7868     		ldr	r0, [r7, #4]
 5239 00ae F968     		ldr	r1, [r7, #12]
 5240 00b0 FFF7FEFF 		bl	_ZNSt4listIPN5Air3T5IViewESaIS2_EE8_M_eraseESt14_List_iteratorIS2_E
 5241              	.L51:
 5242              	.LBE18:
 210:/opt/toolchains/arm-none-eabi/bin/../lib/gcc/arm-none-eabi/4.5.2/../../../../arm-none-eabi/include/c++/4.5.2/bits/list.tcc ****     }
 5243              		.loc 30 210 0
 5244 00b4 07F11807 		add	r7, r7, #24
 5245 00b8 BD46     		mov	sp, r7
 5246 00ba 80BD     		pop	{r7, pc}
 5247              		.cfi_endproc
 5248              	.LFE929:
 5250              		.section	.text._ZNSt4listIN5Air3T6PlayerESaIS1_EE9push_backERKS1_,"axG",%progbits,_ZNSt4listIN5Air
 5251              		.align	2
 5252              		.weak	_ZNSt4listIN5Air3T6PlayerESaIS1_EE9push_backERKS1_
 5253              		.thumb
 5254              		.thumb_func
 5256              	_ZNSt4listIN5Air3T6PlayerESaIS1_EE9push_backERKS1_:
 5257              	.LFB930:
 920:/opt/toolchains/arm-none-eabi/bin/../lib/gcc/arm-none-eabi/4.5.2/../../../../arm-none-eabi/include/c++/4.5.2/bits/stl_list.h ****       push_back(const value_type& __x)
 5258              		.loc 28 920 0
 5259              		.cfi_startproc
 5260              		@ args = 0, pretend = 0, frame = 8
 5261              		@ frame_needed = 1, uses_anonymous_args = 0
 5262 0000 80B5     		push	{r7, lr}
 5263              	.LCFI78:
 5264              		.cfi_def_cfa_offset 8
 5265 0002 82B0     		sub	sp, sp, #8
 5266              	.LCFI79:
 5267              		.cfi_def_cfa_offset 16
 5268 0004 00AF     		add	r7, sp, #0
 5269              		.cfi_offset 14, -4
 5270              		.cfi_offset 7, -8
 5271              	.LCFI80:
 5272              		.cfi_def_cfa_register 7
 5273 0006 7860     		str	r0, [r7, #4]
 5274 0008 3960     		str	r1, [r7, #0]
 5275              		.loc 28 921 0
 5276 000a 7868     		ldr	r0, [r7, #4]
 5277 000c FFF7FEFF 		bl	_ZNSt4listIN5Air3T6PlayerESaIS1_EE3endEv
 5278 0010 0346     		mov	r3, r0
 5279 0012 7868     		ldr	r0, [r7, #4]
 5280 0014 1946     		mov	r1, r3
 5281 0016 3A68     		ldr	r2, [r7, #0]
 5282 0018 FFF7FEFF 		bl	_ZNSt4listIN5Air3T6PlayerESaIS1_EE9_M_insertESt14_List_iteratorIS1_ERKS1_
 5283 001c 07F10807 		add	r7, r7, #8
 5284 0020 BD46     		mov	sp, r7
 5285 0022 80BD     		pop	{r7, pc}
 5286              		.cfi_endproc
 5287              	.LFE930:
 5289              		.section	.text._ZNSt4listIN5Air3T6PlayerESaIS1_EE5beginEv,"axG",%progbits,_ZNSt4listIN5Air3T6Playe
 5290              		.align	2
 5291              		.weak	_ZNSt4listIN5Air3T6PlayerESaIS1_EE5beginEv
 5292              		.thumb
 5293              		.thumb_func
 5295              	_ZNSt4listIN5Air3T6PlayerESaIS1_EE5beginEv:
 5296              	.LFB931:
 690:/opt/toolchains/arm-none-eabi/bin/../lib/gcc/arm-none-eabi/4.5.2/../../../../arm-none-eabi/include/c++/4.5.2/bits/stl_list.h ****       begin()
 5297              		.loc 28 690 0
 5298              		.cfi_startproc
 5299              		@ args = 0, pretend = 0, frame = 16
 5300              		@ frame_needed = 1, uses_anonymous_args = 0
 5301 0000 80B5     		push	{r7, lr}
 5302              	.LCFI81:
 5303              		.cfi_def_cfa_offset 8
 5304 0002 84B0     		sub	sp, sp, #16
 5305              	.LCFI82:
 5306              		.cfi_def_cfa_offset 24
 5307 0004 00AF     		add	r7, sp, #0
 5308              		.cfi_offset 14, -4
 5309              		.cfi_offset 7, -8
 5310              	.LCFI83:
 5311              		.cfi_def_cfa_register 7
 5312 0006 7860     		str	r0, [r7, #4]
 691:/opt/toolchains/arm-none-eabi/bin/../lib/gcc/arm-none-eabi/4.5.2/../../../../arm-none-eabi/include/c++/4.5.2/bits/stl_list.h ****       { return iterator(this->_M_impl._M_node._M_next); }
 5313              		.loc 28 691 0
 5314 0008 7B68     		ldr	r3, [r7, #4]
 5315 000a 1B68     		ldr	r3, [r3, #0]
 5316 000c 07F10C02 		add	r2, r7, #12
 5317 0010 1046     		mov	r0, r2
 5318 0012 1946     		mov	r1, r3
 5319 0014 FFF7FEFF 		bl	_ZNSt14_List_iteratorIN5Air3T6PlayerEEC1EPSt15_List_node_base
 5320 0018 FB68     		ldr	r3, [r7, #12]
 5321 001a 1846     		mov	r0, r3
 5322 001c 07F11007 		add	r7, r7, #16
 5323 0020 BD46     		mov	sp, r7
 5324 0022 80BD     		pop	{r7, pc}
 5325              		.cfi_endproc
 5326              	.LFE931:
 5328              		.section	.text._ZNSt4listIN5Air3T6PlayerESaIS1_EE3endEv,"axG",%progbits,_ZNSt4listIN5Air3T6PlayerE
 5329              		.align	2
 5330              		.weak	_ZNSt4listIN5Air3T6PlayerESaIS1_EE3endEv
 5331              		.thumb
 5332              		.thumb_func
 5334              	_ZNSt4listIN5Air3T6PlayerESaIS1_EE3endEv:
 5335              	.LFB932:
 708:/opt/toolchains/arm-none-eabi/bin/../lib/gcc/arm-none-eabi/4.5.2/../../../../arm-none-eabi/include/c++/4.5.2/bits/stl_list.h ****       end()
 5336              		.loc 28 708 0
 5337              		.cfi_startproc
 5338              		@ args = 0, pretend = 0, frame = 16
 5339              		@ frame_needed = 1, uses_anonymous_args = 0
 5340 0000 80B5     		push	{r7, lr}
 5341              	.LCFI84:
 5342              		.cfi_def_cfa_offset 8
 5343 0002 84B0     		sub	sp, sp, #16
 5344              	.LCFI85:
 5345              		.cfi_def_cfa_offset 24
 5346 0004 00AF     		add	r7, sp, #0
 5347              		.cfi_offset 14, -4
 5348              		.cfi_offset 7, -8
 5349              	.LCFI86:
 5350              		.cfi_def_cfa_register 7
 5351 0006 7860     		str	r0, [r7, #4]
 709:/opt/toolchains/arm-none-eabi/bin/../lib/gcc/arm-none-eabi/4.5.2/../../../../arm-none-eabi/include/c++/4.5.2/bits/stl_list.h ****       { return iterator(&this->_M_impl._M_node); }
 5352              		.loc 28 709 0
 5353 0008 7B68     		ldr	r3, [r7, #4]
 5354 000a 07F10C02 		add	r2, r7, #12
 5355 000e 1046     		mov	r0, r2
 5356 0010 1946     		mov	r1, r3
 5357 0012 FFF7FEFF 		bl	_ZNSt14_List_iteratorIN5Air3T6PlayerEEC1EPSt15_List_node_base
 5358 0016 FB68     		ldr	r3, [r7, #12]
 5359 0018 1846     		mov	r0, r3
 5360 001a 07F11007 		add	r7, r7, #16
 5361 001e BD46     		mov	sp, r7
 5362 0020 80BD     		pop	{r7, pc}
 5363              		.cfi_endproc
 5364              	.LFE932:
 5366 0022 00BF     		.section	.text._ZNKSt14_List_iteratorIN5Air3T6PlayerEEneERKS2_,"axG",%progbits,_ZNKSt14_List_itera
 5367              		.align	2
 5368              		.weak	_ZNKSt14_List_iteratorIN5Air3T6PlayerEEneERKS2_
 5369              		.thumb
 5370              		.thumb_func
 5372              	_ZNKSt14_List_iteratorIN5Air3T6PlayerEEneERKS2_:
 5373              	.LFB933:
 175:/opt/toolchains/arm-none-eabi/bin/../lib/gcc/arm-none-eabi/4.5.2/../../../../arm-none-eabi/include/c++/4.5.2/bits/stl_list.h ****       operator!=(const _Self& __x) const
 5374              		.loc 28 175 0
 5375              		.cfi_startproc
 5376              		@ args = 0, pretend = 0, frame = 8
 5377              		@ frame_needed = 1, uses_anonymous_args = 0
 5378              		@ link register save eliminated.
 5379 0000 80B4     		push	{r7}
 5380              	.LCFI87:
 5381              		.cfi_def_cfa_offset 4
 5382 0002 83B0     		sub	sp, sp, #12
 5383              	.LCFI88:
 5384              		.cfi_def_cfa_offset 16
 5385 0004 00AF     		add	r7, sp, #0
 5386              		.cfi_offset 7, -4
 5387              	.LCFI89:
 5388              		.cfi_def_cfa_register 7
 5389 0006 7860     		str	r0, [r7, #4]
 5390 0008 3960     		str	r1, [r7, #0]
 176:/opt/toolchains/arm-none-eabi/bin/../lib/gcc/arm-none-eabi/4.5.2/../../../../arm-none-eabi/include/c++/4.5.2/bits/stl_list.h ****       { return _M_node != __x._M_node; }
 5391              		.loc 28 176 0
 5392 000a 7B68     		ldr	r3, [r7, #4]
 5393 000c 1A68     		ldr	r2, [r3, #0]
 5394 000e 3B68     		ldr	r3, [r7, #0]
 5395 0010 1B68     		ldr	r3, [r3, #0]
 5396 0012 9A42     		cmp	r2, r3
 5397 0014 0CBF     		ite	eq
 5398 0016 0023     		moveq	r3, #0
 5399 0018 0123     		movne	r3, #1
 5400 001a DBB2     		uxtb	r3, r3
 5401 001c 1846     		mov	r0, r3
 5402 001e 07F10C07 		add	r7, r7, #12
 5403 0022 BD46     		mov	sp, r7
 5404 0024 80BC     		pop	{r7}
 5405 0026 7047     		bx	lr
 5406              		.cfi_endproc
 5407              	.LFE933:
 5409              		.section	.text._ZNSt14_List_iteratorIN5Air3T6PlayerEEppEv,"axG",%progbits,_ZNSt14_List_iteratorIN5
 5410              		.align	2
 5411              		.weak	_ZNSt14_List_iteratorIN5Air3T6PlayerEEppEv
 5412              		.thumb
 5413              		.thumb_func
 5415              	_ZNSt14_List_iteratorIN5Air3T6PlayerEEppEv:
 5416              	.LFB934:
 141:/opt/toolchains/arm-none-eabi/bin/../lib/gcc/arm-none-eabi/4.5.2/../../../../arm-none-eabi/include/c++/4.5.2/bits/stl_list.h ****       operator++()
 5417              		.loc 28 141 0
 5418              		.cfi_startproc
 5419              		@ args = 0, pretend = 0, frame = 8
 5420              		@ frame_needed = 1, uses_anonymous_args = 0
 5421              		@ link register save eliminated.
 5422 0000 80B4     		push	{r7}
 5423              	.LCFI90:
 5424              		.cfi_def_cfa_offset 4
 5425 0002 83B0     		sub	sp, sp, #12
 5426              	.LCFI91:
 5427              		.cfi_def_cfa_offset 16
 5428 0004 00AF     		add	r7, sp, #0
 5429              		.cfi_offset 7, -4
 5430              	.LCFI92:
 5431              		.cfi_def_cfa_register 7
 5432 0006 7860     		str	r0, [r7, #4]
 143:/opt/toolchains/arm-none-eabi/bin/../lib/gcc/arm-none-eabi/4.5.2/../../../../arm-none-eabi/include/c++/4.5.2/bits/stl_list.h **** 	_M_node = _M_node->_M_next;
 5433              		.loc 28 143 0
 5434 0008 7B68     		ldr	r3, [r7, #4]
 5435 000a 1B68     		ldr	r3, [r3, #0]
 5436 000c 1A68     		ldr	r2, [r3, #0]
 5437 000e 7B68     		ldr	r3, [r7, #4]
 5438 0010 1A60     		str	r2, [r3, #0]
 144:/opt/toolchains/arm-none-eabi/bin/../lib/gcc/arm-none-eabi/4.5.2/../../../../arm-none-eabi/include/c++/4.5.2/bits/stl_list.h **** 	return *this;
 5439              		.loc 28 144 0
 5440 0012 7B68     		ldr	r3, [r7, #4]
 145:/opt/toolchains/arm-none-eabi/bin/../lib/gcc/arm-none-eabi/4.5.2/../../../../arm-none-eabi/include/c++/4.5.2/bits/stl_list.h ****       }
 5441              		.loc 28 145 0
 5442 0014 1846     		mov	r0, r3
 5443 0016 07F10C07 		add	r7, r7, #12
 5444 001a BD46     		mov	sp, r7
 5445 001c 80BC     		pop	{r7}
 5446 001e 7047     		bx	lr
 5447              		.cfi_endproc
 5448              	.LFE934:
 5450              		.section	.text._ZNKSt14_List_iteratorIN5Air3T6PlayerEEptEv,"axG",%progbits,_ZNKSt14_List_iteratorI
 5451              		.align	2
 5452              		.weak	_ZNKSt14_List_iteratorIN5Air3T6PlayerEEptEv
 5453              		.thumb
 5454              		.thumb_func
 5456              	_ZNKSt14_List_iteratorIN5Air3T6PlayerEEptEv:
 5457              	.LFB935:
 137:/opt/toolchains/arm-none-eabi/bin/../lib/gcc/arm-none-eabi/4.5.2/../../../../arm-none-eabi/include/c++/4.5.2/bits/stl_list.h ****       operator->() const
 5458              		.loc 28 137 0
 5459              		.cfi_startproc
 5460              		@ args = 0, pretend = 0, frame = 8
 5461              		@ frame_needed = 1, uses_anonymous_args = 0
 5462              		@ link register save eliminated.
 5463 0000 80B4     		push	{r7}
 5464              	.LCFI93:
 5465              		.cfi_def_cfa_offset 4
 5466 0002 83B0     		sub	sp, sp, #12
 5467              	.LCFI94:
 5468              		.cfi_def_cfa_offset 16
 5469 0004 00AF     		add	r7, sp, #0
 5470              		.cfi_offset 7, -4
 5471              	.LCFI95:
 5472              		.cfi_def_cfa_register 7
 5473 0006 7860     		str	r0, [r7, #4]
 138:/opt/toolchains/arm-none-eabi/bin/../lib/gcc/arm-none-eabi/4.5.2/../../../../arm-none-eabi/include/c++/4.5.2/bits/stl_list.h ****       { return &static_cast<_Node*>(_M_node)->_M_data; }
 5474              		.loc 28 138 0
 5475 0008 7B68     		ldr	r3, [r7, #4]
 5476 000a 1B68     		ldr	r3, [r3, #0]
 5477 000c 03F10803 		add	r3, r3, #8
 5478 0010 1846     		mov	r0, r3
 5479 0012 07F10C07 		add	r7, r7, #12
 5480 0016 BD46     		mov	sp, r7
 5481 0018 80BC     		pop	{r7}
 5482 001a 7047     		bx	lr
 5483              		.cfi_endproc
 5484              	.LFE935:
 5486              		.section	.text._ZNK7AddressILj6EEeqERKS0_,"axG",%progbits,_ZNK7AddressILj6EEeqERKS0_,comdat
 5487              		.align	2
 5488              		.weak	_ZNK7AddressILj6EEeqERKS0_
 5489              		.thumb
 5490              		.thumb_func
 5492              	_ZNK7AddressILj6EEeqERKS0_:
 5493              	.LFB936:
   1:/home/desem/workspace/desenet/utils/address.hpp **** #pragma once
   2:/home/desem/workspace/desenet/utils/address.hpp **** #include <cstring>
   3:/home/desem/workspace/desenet/utils/address.hpp **** #include <stdint.h>
   4:/home/desem/workspace/desenet/utils/address.hpp **** #include <algorithm>
   5:/home/desem/workspace/desenet/utils/address.hpp **** #include <string>
   6:/home/desem/workspace/desenet/utils/address.hpp **** #include <assert.h>
   7:/home/desem/workspace/desenet/utils/address.hpp **** #include <cstdio>
   8:/home/desem/workspace/desenet/utils/address.hpp **** #include <trace/Trace>
   9:/home/desem/workspace/desenet/utils/address.hpp **** 
  10:/home/desem/workspace/desenet/utils/address.hpp **** /**
  11:/home/desem/workspace/desenet/utils/address.hpp ****  * @defgroup utils Utils
  12:/home/desem/workspace/desenet/utils/address.hpp ****  * @brief Utility classes.
  13:/home/desem/workspace/desenet/utils/address.hpp ****  * @{
  14:/home/desem/workspace/desenet/utils/address.hpp ****  *
  15:/home/desem/workspace/desenet/utils/address.hpp ****  * @section utils_cd Class Diagram
  16:/home/desem/workspace/desenet/utils/address.hpp ****  * The Utils package contains classes that do not fit into other packages, so the classes inside th
  17:/home/desem/workspace/desenet/utils/address.hpp ****  * coupled that hard.
  18:/home/desem/workspace/desenet/utils/address.hpp ****  * @image html Utils.png
  19:/home/desem/workspace/desenet/utils/address.hpp ****  * The template class Address is a storage for any kind of address or id with a fixed size.
  20:/home/desem/workspace/desenet/utils/address.hpp ****  *
  21:/home/desem/workspace/desenet/utils/address.hpp ****  * The ObjectPool template offers a simple way to get objects of ANYkind from a pre-allocated poo
  22:/home/desem/workspace/desenet/utils/address.hpp ****  *
  23:/home/desem/workspace/desenet/utils/address.hpp ****  * The MonochromeDisplayPainter class enables transparent painting into monochrome displays, whatev
  24:/home/desem/workspace/desenet/utils/address.hpp ****  * drawing methods the display offers. This is handy to decoupe high-level code from the low-level 
  25:/home/desem/workspace/desenet/utils/address.hpp ****  * and offers the reuse of existing code.
  26:/home/desem/workspace/desenet/utils/address.hpp ****  */
  27:/home/desem/workspace/desenet/utils/address.hpp **** 
  28:/home/desem/workspace/desenet/utils/address.hpp **** 
  29:/home/desem/workspace/desenet/utils/address.hpp **** /**
  30:/home/desem/workspace/desenet/utils/address.hpp ****  * @brief Template class to use as a base for PHY/MAC/Network addresses or any other multi-byte ide
  31:/home/desem/workspace/desenet/utils/address.hpp ****  */
  32:/home/desem/workspace/desenet/utils/address.hpp **** template<size_t size>
  33:/home/desem/workspace/desenet/utils/address.hpp **** class Address
  34:/home/desem/workspace/desenet/utils/address.hpp **** {
  35:/home/desem/workspace/desenet/utils/address.hpp **** public:
  36:/home/desem/workspace/desenet/utils/address.hpp **** 	/**
  37:/home/desem/workspace/desenet/utils/address.hpp **** 	 * @brief Creates an invalid (all bytes to 0 is considered invalid) address.
  38:/home/desem/workspace/desenet/utils/address.hpp **** 	 */
  39:/home/desem/workspace/desenet/utils/address.hpp **** 	explicit Address()
  40:/home/desem/workspace/desenet/utils/address.hpp **** 	{
  41:/home/desem/workspace/desenet/utils/address.hpp **** 		// Initialize address to default value of all bytes equal 0.
  42:/home/desem/workspace/desenet/utils/address.hpp **** 		memset( _address , 0 , size );
  43:/home/desem/workspace/desenet/utils/address.hpp **** 	}
  44:/home/desem/workspace/desenet/utils/address.hpp **** 
  45:/home/desem/workspace/desenet/utils/address.hpp **** 	/**
  46:/home/desem/workspace/desenet/utils/address.hpp **** 	 * @brief Creates an address with the data taken from the memory region pointed by from.
  47:/home/desem/workspace/desenet/utils/address.hpp **** 	 *
  48:/home/desem/workspace/desenet/utils/address.hpp **** 	 * Note that it is your responsibility to ensure that there are enough bytes for the address size.
  49:/home/desem/workspace/desenet/utils/address.hpp **** 	 *
  50:/home/desem/workspace/desenet/utils/address.hpp **** 	 * @param from Pointer to the memory region holding the address.
  51:/home/desem/workspace/desenet/utils/address.hpp **** 	 */
  52:/home/desem/workspace/desenet/utils/address.hpp **** 	explicit Address( const uint8_t * const from )
  53:/home/desem/workspace/desenet/utils/address.hpp **** 	{
  54:/home/desem/workspace/desenet/utils/address.hpp **** 		copyFrom( from );
  55:/home/desem/workspace/desenet/utils/address.hpp **** 	}
  56:/home/desem/workspace/desenet/utils/address.hpp **** 
  57:/home/desem/workspace/desenet/utils/address.hpp **** 	/**
  58:/home/desem/workspace/desenet/utils/address.hpp **** 	 * @brief Destructor, actually it does nothing @ all.
  59:/home/desem/workspace/desenet/utils/address.hpp **** 	 */
  60:/home/desem/workspace/desenet/utils/address.hpp **** 	virtual ~Address()
  61:/home/desem/workspace/desenet/utils/address.hpp **** 	{}
  62:/home/desem/workspace/desenet/utils/address.hpp **** 
  63:/home/desem/workspace/desenet/utils/address.hpp **** 	/**
  64:/home/desem/workspace/desenet/utils/address.hpp **** 	 * @brief Returns true if the address is considered as valid (An address is invalid if all bytes a
  65:/home/desem/workspace/desenet/utils/address.hpp **** 	 *
  66:/home/desem/workspace/desenet/utils/address.hpp **** 	 * @return True if the address is valid, false otherwise.
  67:/home/desem/workspace/desenet/utils/address.hpp **** 	 */
  68:/home/desem/workspace/desenet/utils/address.hpp **** 	bool isValid() const
  69:/home/desem/workspace/desenet/utils/address.hpp **** 	{
  70:/home/desem/workspace/desenet/utils/address.hpp **** 		//An address is considered valid, if it is not the equal the default address.
  71:/home/desem/workspace/desenet/utils/address.hpp **** 		for ( size_t i = 0 ; i < size ; ++i )
  72:/home/desem/workspace/desenet/utils/address.hpp **** 			if ( _address[i] )
  73:/home/desem/workspace/desenet/utils/address.hpp **** 				return true;
  74:/home/desem/workspace/desenet/utils/address.hpp **** 
  75:/home/desem/workspace/desenet/utils/address.hpp **** 		return false;
  76:/home/desem/workspace/desenet/utils/address.hpp **** 	}
  77:/home/desem/workspace/desenet/utils/address.hpp **** 
  78:/home/desem/workspace/desenet/utils/address.hpp **** 	/**
  79:/home/desem/workspace/desenet/utils/address.hpp **** 	 * @brief Returns actual with of address in byte (default ist 4).
  80:/home/desem/workspace/desenet/utils/address.hpp **** 	 *
  81:/home/desem/workspace/desenet/utils/address.hpp **** 	 * @return Address size in byte
  82:/home/desem/workspace/desenet/utils/address.hpp **** 	 */
  83:/home/desem/workspace/desenet/utils/address.hpp **** 	static size_t addressSize()
  84:/home/desem/workspace/desenet/utils/address.hpp **** 	{
  85:/home/desem/workspace/desenet/utils/address.hpp **** 		return size;
  86:/home/desem/workspace/desenet/utils/address.hpp **** 	}
  87:/home/desem/workspace/desenet/utils/address.hpp **** 
  88:/home/desem/workspace/desenet/utils/address.hpp **** 	/**
  89:/home/desem/workspace/desenet/utils/address.hpp **** 	 * @brief Index operator to access the different bytes of the address.
  90:/home/desem/workspace/desenet/utils/address.hpp **** 	 *
  91:/home/desem/workspace/desenet/utils/address.hpp **** 	 * @param index 	Index of the byte to get the reference to.
  92:/home/desem/workspace/desenet/utils/address.hpp **** 	 * @return 			Reference to the byte of the address at the given index.
  93:/home/desem/workspace/desenet/utils/address.hpp **** 	 */
  94:/home/desem/workspace/desenet/utils/address.hpp **** 	uint8_t & operator[]( size_t index )
  95:/home/desem/workspace/desenet/utils/address.hpp **** 	{
  96:/home/desem/workspace/desenet/utils/address.hpp **** 		assert( index < size );
  97:/home/desem/workspace/desenet/utils/address.hpp **** 		return _address[std::min( index , size - 1 )];
  98:/home/desem/workspace/desenet/utils/address.hpp **** 	}
  99:/home/desem/workspace/desenet/utils/address.hpp **** 
 100:/home/desem/workspace/desenet/utils/address.hpp **** 	/**
 101:/home/desem/workspace/desenet/utils/address.hpp **** 	 * @brief Index operator to access the different bytes of the address as constants.
 102:/home/desem/workspace/desenet/utils/address.hpp **** 	 *
 103:/home/desem/workspace/desenet/utils/address.hpp **** 	 * @param index 	Index of the byte to get the reference to.
 104:/home/desem/workspace/desenet/utils/address.hpp **** 	 * @return 			Read only reference to the byte of the address at the given index.
 105:/home/desem/workspace/desenet/utils/address.hpp **** 	 */
 106:/home/desem/workspace/desenet/utils/address.hpp **** 	const uint8_t & operator[]( size_t index ) const
 107:/home/desem/workspace/desenet/utils/address.hpp **** 	{
 108:/home/desem/workspace/desenet/utils/address.hpp **** 		assert( index < size );
 109:/home/desem/workspace/desenet/utils/address.hpp **** 		return _address[std::min( index , size - 1 )];
 110:/home/desem/workspace/desenet/utils/address.hpp **** 	}
 111:/home/desem/workspace/desenet/utils/address.hpp **** 
 112:/home/desem/workspace/desenet/utils/address.hpp **** 	/**
 113:/home/desem/workspace/desenet/utils/address.hpp **** 	 * @brief Copies the different bytes of the address from the given memory region pointed by from.
 114:/home/desem/workspace/desenet/utils/address.hpp **** 	 *
 115:/home/desem/workspace/desenet/utils/address.hpp **** 	 * Note that you are responsible to ensure that the memory region is big enough for the address.
 116:/home/desem/workspace/desenet/utils/address.hpp **** 	 *
 117:/home/desem/workspace/desenet/utils/address.hpp **** 	 * @param from Pointer to the memory location to copy the address from.
 118:/home/desem/workspace/desenet/utils/address.hpp **** 	 */
 119:/home/desem/workspace/desenet/utils/address.hpp **** 	void copyFrom( const uint8_t * const from )
 120:/home/desem/workspace/desenet/utils/address.hpp **** 	{
 121:/home/desem/workspace/desenet/utils/address.hpp **** 		assert( from );
 122:/home/desem/workspace/desenet/utils/address.hpp **** 		if ( from )
 123:/home/desem/workspace/desenet/utils/address.hpp **** 			memcpy( _address , from , size );
 124:/home/desem/workspace/desenet/utils/address.hpp **** 	}
 125:/home/desem/workspace/desenet/utils/address.hpp **** 
 126:/home/desem/workspace/desenet/utils/address.hpp **** 	/**
 127:/home/desem/workspace/desenet/utils/address.hpp **** 	 * @brief Copies the different bytes of the address to the given memory region pointed by from.
 128:/home/desem/workspace/desenet/utils/address.hpp **** 	 *
 129:/home/desem/workspace/desenet/utils/address.hpp **** 	 * Note that you are responsible to ensure that the memory region is big enough to hold the addres
 130:/home/desem/workspace/desenet/utils/address.hpp **** 	 *
 131:/home/desem/workspace/desenet/utils/address.hpp **** 	 * @param to Pointer to the memory location to copy the address to.
 132:/home/desem/workspace/desenet/utils/address.hpp **** 	 */
 133:/home/desem/workspace/desenet/utils/address.hpp **** 	void copyTo( uint8_t * const to ) const
 134:/home/desem/workspace/desenet/utils/address.hpp **** 	{
 135:/home/desem/workspace/desenet/utils/address.hpp **** 		assert( to );
 136:/home/desem/workspace/desenet/utils/address.hpp **** 		if ( to )
 137:/home/desem/workspace/desenet/utils/address.hpp **** 			memcpy( reinterpret_cast<void *>( to ) ,
 138:/home/desem/workspace/desenet/utils/address.hpp **** 					reinterpret_cast<const void *>( _address ) , size );
 139:/home/desem/workspace/desenet/utils/address.hpp **** 	}
 140:/home/desem/workspace/desenet/utils/address.hpp **** 
 141:/home/desem/workspace/desenet/utils/address.hpp **** 	/**
 142:/home/desem/workspace/desenet/utils/address.hpp **** 	 * @brief Compares the given address with him self and returns true, if they are equal.
 143:/home/desem/workspace/desenet/utils/address.hpp **** 	 *
 144:/home/desem/workspace/desenet/utils/address.hpp **** 	 * @param other 	Reference to the address to compare with.
 145:/home/desem/workspace/desenet/utils/address.hpp **** 	 * @return 			True if the addresses are equal, false otherwise.
 146:/home/desem/workspace/desenet/utils/address.hpp **** 	 */
 147:/home/desem/workspace/desenet/utils/address.hpp **** 	bool operator==( const Address & other ) const
 5494              		.loc 72 147 0
 5495              		.cfi_startproc
 5496              		@ args = 0, pretend = 0, frame = 8
 5497              		@ frame_needed = 1, uses_anonymous_args = 0
 5498 0000 80B5     		push	{r7, lr}
 5499              	.LCFI96:
 5500              		.cfi_def_cfa_offset 8
 5501 0002 82B0     		sub	sp, sp, #8
 5502              	.LCFI97:
 5503              		.cfi_def_cfa_offset 16
 5504 0004 00AF     		add	r7, sp, #0
 5505              		.cfi_offset 14, -4
 5506              		.cfi_offset 7, -8
 5507              	.LCFI98:
 5508              		.cfi_def_cfa_register 7
 5509 0006 7860     		str	r0, [r7, #4]
 5510 0008 3960     		str	r1, [r7, #0]
 148:/home/desem/workspace/desenet/utils/address.hpp **** 	{
 149:/home/desem/workspace/desenet/utils/address.hpp **** 		return memcmp( _address , other._address , size ) == 0;
 5511              		.loc 72 149 0
 5512 000a 7B68     		ldr	r3, [r7, #4]
 5513 000c 03F10402 		add	r2, r3, #4
 5514 0010 3B68     		ldr	r3, [r7, #0]
 5515 0012 03F10403 		add	r3, r3, #4
 5516 0016 1046     		mov	r0, r2
 5517 0018 1946     		mov	r1, r3
 5518 001a 4FF00602 		mov	r2, #6
 5519 001e FFF7FEFF 		bl	memcmp
 5520 0022 0346     		mov	r3, r0
 5521 0024 002B     		cmp	r3, #0
 5522 0026 14BF     		ite	ne
 5523 0028 0023     		movne	r3, #0
 5524 002a 0123     		moveq	r3, #1
 5525 002c DBB2     		uxtb	r3, r3
 150:/home/desem/workspace/desenet/utils/address.hpp **** 	}
 5526              		.loc 72 150 0
 5527 002e 1846     		mov	r0, r3
 5528 0030 07F10807 		add	r7, r7, #8
 5529 0034 BD46     		mov	sp, r7
 5530 0036 80BD     		pop	{r7, pc}
 5531              		.cfi_endproc
 5532              	.LFE936:
 5534              		.section	.text._ZNSt4listIN5Air3T6PlayerESaIS1_EE5eraseESt14_List_iteratorIS1_E,"axG",%progbits,_Z
 5535              		.align	2
 5536              		.weak	_ZNSt4listIN5Air3T6PlayerESaIS1_EE5eraseESt14_List_iteratorIS1_E
 5537              		.thumb
 5538              		.thumb_func
 5540              	_ZNSt4listIN5Air3T6PlayerESaIS1_EE5eraseESt14_List_iteratorIS1_E:
 5541              	.LFB937:
 107:/opt/toolchains/arm-none-eabi/bin/../lib/gcc/arm-none-eabi/4.5.2/../../../../arm-none-eabi/include/c++/4.5.2/bits/list.tcc ****     list<_Tp, _Alloc>::
 5542              		.loc 30 107 0
 5543              		.cfi_startproc
 5544              		@ args = 0, pretend = 0, frame = 16
 5545              		@ frame_needed = 1, uses_anonymous_args = 0
 5546 0000 80B5     		push	{r7, lr}
 5547              	.LCFI99:
 5548              		.cfi_def_cfa_offset 8
 5549 0002 84B0     		sub	sp, sp, #16
 5550              	.LCFI100:
 5551              		.cfi_def_cfa_offset 24
 5552 0004 00AF     		add	r7, sp, #0
 5553              		.cfi_offset 14, -4
 5554              		.cfi_offset 7, -8
 5555              	.LCFI101:
 5556              		.cfi_def_cfa_register 7
 5557 0006 7860     		str	r0, [r7, #4]
 5558 0008 3960     		str	r1, [r7, #0]
 5559              	.LBB20:
 110:/opt/toolchains/arm-none-eabi/bin/../lib/gcc/arm-none-eabi/4.5.2/../../../../arm-none-eabi/include/c++/4.5.2/bits/list.tcc ****       iterator __ret = iterator(__position._M_node->_M_next);
 5560              		.loc 30 110 0
 5561 000a 3B68     		ldr	r3, [r7, #0]
 5562 000c 1B68     		ldr	r3, [r3, #0]
 5563 000e 07F10C02 		add	r2, r7, #12
 5564 0012 1046     		mov	r0, r2
 5565 0014 1946     		mov	r1, r3
 5566 0016 FFF7FEFF 		bl	_ZNSt14_List_iteratorIN5Air3T6PlayerEEC1EPSt15_List_node_base
 111:/opt/toolchains/arm-none-eabi/bin/../lib/gcc/arm-none-eabi/4.5.2/../../../../arm-none-eabi/include/c++/4.5.2/bits/list.tcc ****       _M_erase(__position);
 5567              		.loc 30 111 0
 5568 001a 7868     		ldr	r0, [r7, #4]
 5569 001c 3968     		ldr	r1, [r7, #0]
 5570 001e FFF7FEFF 		bl	_ZNSt4listIN5Air3T6PlayerESaIS1_EE8_M_eraseESt14_List_iteratorIS1_E
 112:/opt/toolchains/arm-none-eabi/bin/../lib/gcc/arm-none-eabi/4.5.2/../../../../arm-none-eabi/include/c++/4.5.2/bits/list.tcc ****       return __ret;
 5571              		.loc 30 112 0
 5572 0022 FB68     		ldr	r3, [r7, #12]
 5573              	.LBE20:
 113:/opt/toolchains/arm-none-eabi/bin/../lib/gcc/arm-none-eabi/4.5.2/../../../../arm-none-eabi/include/c++/4.5.2/bits/list.tcc ****     }
 5574              		.loc 30 113 0
 5575 0024 1846     		mov	r0, r3
 5576 0026 07F11007 		add	r7, r7, #16
 5577 002a BD46     		mov	sp, r7
 5578 002c 80BD     		pop	{r7, pc}
 5579              		.cfi_endproc
 5580              	.LFE937:
 5582 002e 00BF     		.section	.text._ZNSt4listIN5Air3T6PlayerESaIS1_EE5clearEv,"axG",%progbits,_ZNSt4listIN5Air3T6Playe
 5583              		.align	2
 5584              		.weak	_ZNSt4listIN5Air3T6PlayerESaIS1_EE5clearEv
 5585              		.thumb
 5586              		.thumb_func
 5588              	_ZNSt4listIN5Air3T6PlayerESaIS1_EE5clearEv:
 5589              	.LFB938:
 922:/opt/toolchains/arm-none-eabi/bin/../lib/gcc/arm-none-eabi/4.5.2/../../../../arm-none-eabi/include/c++/4.5.2/bits/stl_list.h **** 
 923:/opt/toolchains/arm-none-eabi/bin/../lib/gcc/arm-none-eabi/4.5.2/../../../../arm-none-eabi/include/c++/4.5.2/bits/stl_list.h **** #ifdef __GXX_EXPERIMENTAL_CXX0X__
 924:/opt/toolchains/arm-none-eabi/bin/../lib/gcc/arm-none-eabi/4.5.2/../../../../arm-none-eabi/include/c++/4.5.2/bits/stl_list.h ****       void
 925:/opt/toolchains/arm-none-eabi/bin/../lib/gcc/arm-none-eabi/4.5.2/../../../../arm-none-eabi/include/c++/4.5.2/bits/stl_list.h ****       push_back(value_type&& __x)
 926:/opt/toolchains/arm-none-eabi/bin/../lib/gcc/arm-none-eabi/4.5.2/../../../../arm-none-eabi/include/c++/4.5.2/bits/stl_list.h ****       { this->_M_insert(end(), std::move(__x)); }
 927:/opt/toolchains/arm-none-eabi/bin/../lib/gcc/arm-none-eabi/4.5.2/../../../../arm-none-eabi/include/c++/4.5.2/bits/stl_list.h **** 
 928:/opt/toolchains/arm-none-eabi/bin/../lib/gcc/arm-none-eabi/4.5.2/../../../../arm-none-eabi/include/c++/4.5.2/bits/stl_list.h ****       template<typename... _Args>
 929:/opt/toolchains/arm-none-eabi/bin/../lib/gcc/arm-none-eabi/4.5.2/../../../../arm-none-eabi/include/c++/4.5.2/bits/stl_list.h ****         void
 930:/opt/toolchains/arm-none-eabi/bin/../lib/gcc/arm-none-eabi/4.5.2/../../../../arm-none-eabi/include/c++/4.5.2/bits/stl_list.h ****         emplace_back(_Args&&... __args)
 931:/opt/toolchains/arm-none-eabi/bin/../lib/gcc/arm-none-eabi/4.5.2/../../../../arm-none-eabi/include/c++/4.5.2/bits/stl_list.h ****         { this->_M_insert(end(), std::forward<_Args>(__args)...); }
 932:/opt/toolchains/arm-none-eabi/bin/../lib/gcc/arm-none-eabi/4.5.2/../../../../arm-none-eabi/include/c++/4.5.2/bits/stl_list.h **** #endif
 933:/opt/toolchains/arm-none-eabi/bin/../lib/gcc/arm-none-eabi/4.5.2/../../../../arm-none-eabi/include/c++/4.5.2/bits/stl_list.h **** 
 934:/opt/toolchains/arm-none-eabi/bin/../lib/gcc/arm-none-eabi/4.5.2/../../../../arm-none-eabi/include/c++/4.5.2/bits/stl_list.h ****       /**
 935:/opt/toolchains/arm-none-eabi/bin/../lib/gcc/arm-none-eabi/4.5.2/../../../../arm-none-eabi/include/c++/4.5.2/bits/stl_list.h ****        *  @brief  Removes last element.
 936:/opt/toolchains/arm-none-eabi/bin/../lib/gcc/arm-none-eabi/4.5.2/../../../../arm-none-eabi/include/c++/4.5.2/bits/stl_list.h ****        *
 937:/opt/toolchains/arm-none-eabi/bin/../lib/gcc/arm-none-eabi/4.5.2/../../../../arm-none-eabi/include/c++/4.5.2/bits/stl_list.h ****        *  This is a typical stack operation.  It shrinks the %list by
 938:/opt/toolchains/arm-none-eabi/bin/../lib/gcc/arm-none-eabi/4.5.2/../../../../arm-none-eabi/include/c++/4.5.2/bits/stl_list.h ****        *  one.  Due to the nature of a %list this operation can be done
 939:/opt/toolchains/arm-none-eabi/bin/../lib/gcc/arm-none-eabi/4.5.2/../../../../arm-none-eabi/include/c++/4.5.2/bits/stl_list.h ****        *  in constant time, and only invalidates iterators/references to
 940:/opt/toolchains/arm-none-eabi/bin/../lib/gcc/arm-none-eabi/4.5.2/../../../../arm-none-eabi/include/c++/4.5.2/bits/stl_list.h ****        *  the element being removed.
 941:/opt/toolchains/arm-none-eabi/bin/../lib/gcc/arm-none-eabi/4.5.2/../../../../arm-none-eabi/include/c++/4.5.2/bits/stl_list.h ****        *
 942:/opt/toolchains/arm-none-eabi/bin/../lib/gcc/arm-none-eabi/4.5.2/../../../../arm-none-eabi/include/c++/4.5.2/bits/stl_list.h ****        *  Note that no data is returned, and if the last element's data
 943:/opt/toolchains/arm-none-eabi/bin/../lib/gcc/arm-none-eabi/4.5.2/../../../../arm-none-eabi/include/c++/4.5.2/bits/stl_list.h ****        *  is needed, it should be retrieved before pop_back() is called.
 944:/opt/toolchains/arm-none-eabi/bin/../lib/gcc/arm-none-eabi/4.5.2/../../../../arm-none-eabi/include/c++/4.5.2/bits/stl_list.h ****        */
 945:/opt/toolchains/arm-none-eabi/bin/../lib/gcc/arm-none-eabi/4.5.2/../../../../arm-none-eabi/include/c++/4.5.2/bits/stl_list.h ****       void
 946:/opt/toolchains/arm-none-eabi/bin/../lib/gcc/arm-none-eabi/4.5.2/../../../../arm-none-eabi/include/c++/4.5.2/bits/stl_list.h ****       pop_back()
 947:/opt/toolchains/arm-none-eabi/bin/../lib/gcc/arm-none-eabi/4.5.2/../../../../arm-none-eabi/include/c++/4.5.2/bits/stl_list.h ****       { this->_M_erase(iterator(this->_M_impl._M_node._M_prev)); }
 948:/opt/toolchains/arm-none-eabi/bin/../lib/gcc/arm-none-eabi/4.5.2/../../../../arm-none-eabi/include/c++/4.5.2/bits/stl_list.h **** 
 949:/opt/toolchains/arm-none-eabi/bin/../lib/gcc/arm-none-eabi/4.5.2/../../../../arm-none-eabi/include/c++/4.5.2/bits/stl_list.h **** #ifdef __GXX_EXPERIMENTAL_CXX0X__
 950:/opt/toolchains/arm-none-eabi/bin/../lib/gcc/arm-none-eabi/4.5.2/../../../../arm-none-eabi/include/c++/4.5.2/bits/stl_list.h ****       /**
 951:/opt/toolchains/arm-none-eabi/bin/../lib/gcc/arm-none-eabi/4.5.2/../../../../arm-none-eabi/include/c++/4.5.2/bits/stl_list.h ****        *  @brief  Constructs object in %list before specified iterator.
 952:/opt/toolchains/arm-none-eabi/bin/../lib/gcc/arm-none-eabi/4.5.2/../../../../arm-none-eabi/include/c++/4.5.2/bits/stl_list.h ****        *  @param  position  A const_iterator into the %list.
 953:/opt/toolchains/arm-none-eabi/bin/../lib/gcc/arm-none-eabi/4.5.2/../../../../arm-none-eabi/include/c++/4.5.2/bits/stl_list.h ****        *  @param  args  Arguments.
 954:/opt/toolchains/arm-none-eabi/bin/../lib/gcc/arm-none-eabi/4.5.2/../../../../arm-none-eabi/include/c++/4.5.2/bits/stl_list.h ****        *  @return  An iterator that points to the inserted data.
 955:/opt/toolchains/arm-none-eabi/bin/../lib/gcc/arm-none-eabi/4.5.2/../../../../arm-none-eabi/include/c++/4.5.2/bits/stl_list.h ****        *
 956:/opt/toolchains/arm-none-eabi/bin/../lib/gcc/arm-none-eabi/4.5.2/../../../../arm-none-eabi/include/c++/4.5.2/bits/stl_list.h ****        *  This function will insert an object of type T constructed
 957:/opt/toolchains/arm-none-eabi/bin/../lib/gcc/arm-none-eabi/4.5.2/../../../../arm-none-eabi/include/c++/4.5.2/bits/stl_list.h ****        *  with T(std::forward<Args>(args)...) before the specified
 958:/opt/toolchains/arm-none-eabi/bin/../lib/gcc/arm-none-eabi/4.5.2/../../../../arm-none-eabi/include/c++/4.5.2/bits/stl_list.h ****        *  location.  Due to the nature of a %list this operation can
 959:/opt/toolchains/arm-none-eabi/bin/../lib/gcc/arm-none-eabi/4.5.2/../../../../arm-none-eabi/include/c++/4.5.2/bits/stl_list.h ****        *  be done in constant time, and does not invalidate iterators
 960:/opt/toolchains/arm-none-eabi/bin/../lib/gcc/arm-none-eabi/4.5.2/../../../../arm-none-eabi/include/c++/4.5.2/bits/stl_list.h ****        *  and references.
 961:/opt/toolchains/arm-none-eabi/bin/../lib/gcc/arm-none-eabi/4.5.2/../../../../arm-none-eabi/include/c++/4.5.2/bits/stl_list.h ****        */
 962:/opt/toolchains/arm-none-eabi/bin/../lib/gcc/arm-none-eabi/4.5.2/../../../../arm-none-eabi/include/c++/4.5.2/bits/stl_list.h ****       template<typename... _Args>
 963:/opt/toolchains/arm-none-eabi/bin/../lib/gcc/arm-none-eabi/4.5.2/../../../../arm-none-eabi/include/c++/4.5.2/bits/stl_list.h ****         iterator
 964:/opt/toolchains/arm-none-eabi/bin/../lib/gcc/arm-none-eabi/4.5.2/../../../../arm-none-eabi/include/c++/4.5.2/bits/stl_list.h ****         emplace(iterator __position, _Args&&... __args);
 965:/opt/toolchains/arm-none-eabi/bin/../lib/gcc/arm-none-eabi/4.5.2/../../../../arm-none-eabi/include/c++/4.5.2/bits/stl_list.h **** #endif
 966:/opt/toolchains/arm-none-eabi/bin/../lib/gcc/arm-none-eabi/4.5.2/../../../../arm-none-eabi/include/c++/4.5.2/bits/stl_list.h **** 
 967:/opt/toolchains/arm-none-eabi/bin/../lib/gcc/arm-none-eabi/4.5.2/../../../../arm-none-eabi/include/c++/4.5.2/bits/stl_list.h ****       /**
 968:/opt/toolchains/arm-none-eabi/bin/../lib/gcc/arm-none-eabi/4.5.2/../../../../arm-none-eabi/include/c++/4.5.2/bits/stl_list.h ****        *  @brief  Inserts given value into %list before specified iterator.
 969:/opt/toolchains/arm-none-eabi/bin/../lib/gcc/arm-none-eabi/4.5.2/../../../../arm-none-eabi/include/c++/4.5.2/bits/stl_list.h ****        *  @param  position  An iterator into the %list.
 970:/opt/toolchains/arm-none-eabi/bin/../lib/gcc/arm-none-eabi/4.5.2/../../../../arm-none-eabi/include/c++/4.5.2/bits/stl_list.h ****        *  @param  x  Data to be inserted.
 971:/opt/toolchains/arm-none-eabi/bin/../lib/gcc/arm-none-eabi/4.5.2/../../../../arm-none-eabi/include/c++/4.5.2/bits/stl_list.h ****        *  @return  An iterator that points to the inserted data.
 972:/opt/toolchains/arm-none-eabi/bin/../lib/gcc/arm-none-eabi/4.5.2/../../../../arm-none-eabi/include/c++/4.5.2/bits/stl_list.h ****        *
 973:/opt/toolchains/arm-none-eabi/bin/../lib/gcc/arm-none-eabi/4.5.2/../../../../arm-none-eabi/include/c++/4.5.2/bits/stl_list.h ****        *  This function will insert a copy of the given value before
 974:/opt/toolchains/arm-none-eabi/bin/../lib/gcc/arm-none-eabi/4.5.2/../../../../arm-none-eabi/include/c++/4.5.2/bits/stl_list.h ****        *  the specified location.  Due to the nature of a %list this
 975:/opt/toolchains/arm-none-eabi/bin/../lib/gcc/arm-none-eabi/4.5.2/../../../../arm-none-eabi/include/c++/4.5.2/bits/stl_list.h ****        *  operation can be done in constant time, and does not
 976:/opt/toolchains/arm-none-eabi/bin/../lib/gcc/arm-none-eabi/4.5.2/../../../../arm-none-eabi/include/c++/4.5.2/bits/stl_list.h ****        *  invalidate iterators and references.
 977:/opt/toolchains/arm-none-eabi/bin/../lib/gcc/arm-none-eabi/4.5.2/../../../../arm-none-eabi/include/c++/4.5.2/bits/stl_list.h ****        */
 978:/opt/toolchains/arm-none-eabi/bin/../lib/gcc/arm-none-eabi/4.5.2/../../../../arm-none-eabi/include/c++/4.5.2/bits/stl_list.h ****       iterator
 979:/opt/toolchains/arm-none-eabi/bin/../lib/gcc/arm-none-eabi/4.5.2/../../../../arm-none-eabi/include/c++/4.5.2/bits/stl_list.h ****       insert(iterator __position, const value_type& __x);
 980:/opt/toolchains/arm-none-eabi/bin/../lib/gcc/arm-none-eabi/4.5.2/../../../../arm-none-eabi/include/c++/4.5.2/bits/stl_list.h **** 
 981:/opt/toolchains/arm-none-eabi/bin/../lib/gcc/arm-none-eabi/4.5.2/../../../../arm-none-eabi/include/c++/4.5.2/bits/stl_list.h **** #ifdef __GXX_EXPERIMENTAL_CXX0X__
 982:/opt/toolchains/arm-none-eabi/bin/../lib/gcc/arm-none-eabi/4.5.2/../../../../arm-none-eabi/include/c++/4.5.2/bits/stl_list.h ****       /**
 983:/opt/toolchains/arm-none-eabi/bin/../lib/gcc/arm-none-eabi/4.5.2/../../../../arm-none-eabi/include/c++/4.5.2/bits/stl_list.h ****        *  @brief  Inserts given rvalue into %list before specified iterator.
 984:/opt/toolchains/arm-none-eabi/bin/../lib/gcc/arm-none-eabi/4.5.2/../../../../arm-none-eabi/include/c++/4.5.2/bits/stl_list.h ****        *  @param  position  An iterator into the %list.
 985:/opt/toolchains/arm-none-eabi/bin/../lib/gcc/arm-none-eabi/4.5.2/../../../../arm-none-eabi/include/c++/4.5.2/bits/stl_list.h ****        *  @param  x  Data to be inserted.
 986:/opt/toolchains/arm-none-eabi/bin/../lib/gcc/arm-none-eabi/4.5.2/../../../../arm-none-eabi/include/c++/4.5.2/bits/stl_list.h ****        *  @return  An iterator that points to the inserted data.
 987:/opt/toolchains/arm-none-eabi/bin/../lib/gcc/arm-none-eabi/4.5.2/../../../../arm-none-eabi/include/c++/4.5.2/bits/stl_list.h ****        *
 988:/opt/toolchains/arm-none-eabi/bin/../lib/gcc/arm-none-eabi/4.5.2/../../../../arm-none-eabi/include/c++/4.5.2/bits/stl_list.h ****        *  This function will insert a copy of the given rvalue before
 989:/opt/toolchains/arm-none-eabi/bin/../lib/gcc/arm-none-eabi/4.5.2/../../../../arm-none-eabi/include/c++/4.5.2/bits/stl_list.h ****        *  the specified location.  Due to the nature of a %list this
 990:/opt/toolchains/arm-none-eabi/bin/../lib/gcc/arm-none-eabi/4.5.2/../../../../arm-none-eabi/include/c++/4.5.2/bits/stl_list.h ****        *  operation can be done in constant time, and does not
 991:/opt/toolchains/arm-none-eabi/bin/../lib/gcc/arm-none-eabi/4.5.2/../../../../arm-none-eabi/include/c++/4.5.2/bits/stl_list.h ****        *  invalidate iterators and references.
 992:/opt/toolchains/arm-none-eabi/bin/../lib/gcc/arm-none-eabi/4.5.2/../../../../arm-none-eabi/include/c++/4.5.2/bits/stl_list.h ****         */
 993:/opt/toolchains/arm-none-eabi/bin/../lib/gcc/arm-none-eabi/4.5.2/../../../../arm-none-eabi/include/c++/4.5.2/bits/stl_list.h ****       iterator
 994:/opt/toolchains/arm-none-eabi/bin/../lib/gcc/arm-none-eabi/4.5.2/../../../../arm-none-eabi/include/c++/4.5.2/bits/stl_list.h ****       insert(iterator __position, value_type&& __x)
 995:/opt/toolchains/arm-none-eabi/bin/../lib/gcc/arm-none-eabi/4.5.2/../../../../arm-none-eabi/include/c++/4.5.2/bits/stl_list.h ****       { return emplace(__position, std::move(__x)); }
 996:/opt/toolchains/arm-none-eabi/bin/../lib/gcc/arm-none-eabi/4.5.2/../../../../arm-none-eabi/include/c++/4.5.2/bits/stl_list.h **** 
 997:/opt/toolchains/arm-none-eabi/bin/../lib/gcc/arm-none-eabi/4.5.2/../../../../arm-none-eabi/include/c++/4.5.2/bits/stl_list.h ****       /**
 998:/opt/toolchains/arm-none-eabi/bin/../lib/gcc/arm-none-eabi/4.5.2/../../../../arm-none-eabi/include/c++/4.5.2/bits/stl_list.h ****        *  @brief  Inserts the contents of an initializer_list into %list
 999:/opt/toolchains/arm-none-eabi/bin/../lib/gcc/arm-none-eabi/4.5.2/../../../../arm-none-eabi/include/c++/4.5.2/bits/stl_list.h ****        *          before specified iterator.
1000:/opt/toolchains/arm-none-eabi/bin/../lib/gcc/arm-none-eabi/4.5.2/../../../../arm-none-eabi/include/c++/4.5.2/bits/stl_list.h ****        *  @param  p  An iterator into the %list.
1001:/opt/toolchains/arm-none-eabi/bin/../lib/gcc/arm-none-eabi/4.5.2/../../../../arm-none-eabi/include/c++/4.5.2/bits/stl_list.h ****        *  @param  l  An initializer_list of value_type.
1002:/opt/toolchains/arm-none-eabi/bin/../lib/gcc/arm-none-eabi/4.5.2/../../../../arm-none-eabi/include/c++/4.5.2/bits/stl_list.h ****        *
1003:/opt/toolchains/arm-none-eabi/bin/../lib/gcc/arm-none-eabi/4.5.2/../../../../arm-none-eabi/include/c++/4.5.2/bits/stl_list.h ****        *  This function will insert copies of the data in the
1004:/opt/toolchains/arm-none-eabi/bin/../lib/gcc/arm-none-eabi/4.5.2/../../../../arm-none-eabi/include/c++/4.5.2/bits/stl_list.h ****        *  initializer_list @a l into the %list before the location
1005:/opt/toolchains/arm-none-eabi/bin/../lib/gcc/arm-none-eabi/4.5.2/../../../../arm-none-eabi/include/c++/4.5.2/bits/stl_list.h ****        *  specified by @a p.
1006:/opt/toolchains/arm-none-eabi/bin/../lib/gcc/arm-none-eabi/4.5.2/../../../../arm-none-eabi/include/c++/4.5.2/bits/stl_list.h ****        *
1007:/opt/toolchains/arm-none-eabi/bin/../lib/gcc/arm-none-eabi/4.5.2/../../../../arm-none-eabi/include/c++/4.5.2/bits/stl_list.h ****        *  This operation is linear in the number of elements inserted and
1008:/opt/toolchains/arm-none-eabi/bin/../lib/gcc/arm-none-eabi/4.5.2/../../../../arm-none-eabi/include/c++/4.5.2/bits/stl_list.h ****        *  does not invalidate iterators and references.
1009:/opt/toolchains/arm-none-eabi/bin/../lib/gcc/arm-none-eabi/4.5.2/../../../../arm-none-eabi/include/c++/4.5.2/bits/stl_list.h ****        */
1010:/opt/toolchains/arm-none-eabi/bin/../lib/gcc/arm-none-eabi/4.5.2/../../../../arm-none-eabi/include/c++/4.5.2/bits/stl_list.h ****       void
1011:/opt/toolchains/arm-none-eabi/bin/../lib/gcc/arm-none-eabi/4.5.2/../../../../arm-none-eabi/include/c++/4.5.2/bits/stl_list.h ****       insert(iterator __p, initializer_list<value_type> __l)
1012:/opt/toolchains/arm-none-eabi/bin/../lib/gcc/arm-none-eabi/4.5.2/../../../../arm-none-eabi/include/c++/4.5.2/bits/stl_list.h ****       { this->insert(__p, __l.begin(), __l.end()); }
1013:/opt/toolchains/arm-none-eabi/bin/../lib/gcc/arm-none-eabi/4.5.2/../../../../arm-none-eabi/include/c++/4.5.2/bits/stl_list.h **** #endif
1014:/opt/toolchains/arm-none-eabi/bin/../lib/gcc/arm-none-eabi/4.5.2/../../../../arm-none-eabi/include/c++/4.5.2/bits/stl_list.h **** 
1015:/opt/toolchains/arm-none-eabi/bin/../lib/gcc/arm-none-eabi/4.5.2/../../../../arm-none-eabi/include/c++/4.5.2/bits/stl_list.h ****       /**
1016:/opt/toolchains/arm-none-eabi/bin/../lib/gcc/arm-none-eabi/4.5.2/../../../../arm-none-eabi/include/c++/4.5.2/bits/stl_list.h ****        *  @brief  Inserts a number of copies of given data into the %list.
1017:/opt/toolchains/arm-none-eabi/bin/../lib/gcc/arm-none-eabi/4.5.2/../../../../arm-none-eabi/include/c++/4.5.2/bits/stl_list.h ****        *  @param  position  An iterator into the %list.
1018:/opt/toolchains/arm-none-eabi/bin/../lib/gcc/arm-none-eabi/4.5.2/../../../../arm-none-eabi/include/c++/4.5.2/bits/stl_list.h ****        *  @param  n  Number of elements to be inserted.
1019:/opt/toolchains/arm-none-eabi/bin/../lib/gcc/arm-none-eabi/4.5.2/../../../../arm-none-eabi/include/c++/4.5.2/bits/stl_list.h ****        *  @param  x  Data to be inserted.
1020:/opt/toolchains/arm-none-eabi/bin/../lib/gcc/arm-none-eabi/4.5.2/../../../../arm-none-eabi/include/c++/4.5.2/bits/stl_list.h ****        *
1021:/opt/toolchains/arm-none-eabi/bin/../lib/gcc/arm-none-eabi/4.5.2/../../../../arm-none-eabi/include/c++/4.5.2/bits/stl_list.h ****        *  This function will insert a specified number of copies of the
1022:/opt/toolchains/arm-none-eabi/bin/../lib/gcc/arm-none-eabi/4.5.2/../../../../arm-none-eabi/include/c++/4.5.2/bits/stl_list.h ****        *  given data before the location specified by @a position.
1023:/opt/toolchains/arm-none-eabi/bin/../lib/gcc/arm-none-eabi/4.5.2/../../../../arm-none-eabi/include/c++/4.5.2/bits/stl_list.h ****        *
1024:/opt/toolchains/arm-none-eabi/bin/../lib/gcc/arm-none-eabi/4.5.2/../../../../arm-none-eabi/include/c++/4.5.2/bits/stl_list.h ****        *  This operation is linear in the number of elements inserted and
1025:/opt/toolchains/arm-none-eabi/bin/../lib/gcc/arm-none-eabi/4.5.2/../../../../arm-none-eabi/include/c++/4.5.2/bits/stl_list.h ****        *  does not invalidate iterators and references.
1026:/opt/toolchains/arm-none-eabi/bin/../lib/gcc/arm-none-eabi/4.5.2/../../../../arm-none-eabi/include/c++/4.5.2/bits/stl_list.h ****        */
1027:/opt/toolchains/arm-none-eabi/bin/../lib/gcc/arm-none-eabi/4.5.2/../../../../arm-none-eabi/include/c++/4.5.2/bits/stl_list.h ****       void
1028:/opt/toolchains/arm-none-eabi/bin/../lib/gcc/arm-none-eabi/4.5.2/../../../../arm-none-eabi/include/c++/4.5.2/bits/stl_list.h ****       insert(iterator __position, size_type __n, const value_type& __x)
1029:/opt/toolchains/arm-none-eabi/bin/../lib/gcc/arm-none-eabi/4.5.2/../../../../arm-none-eabi/include/c++/4.5.2/bits/stl_list.h ****       {  
1030:/opt/toolchains/arm-none-eabi/bin/../lib/gcc/arm-none-eabi/4.5.2/../../../../arm-none-eabi/include/c++/4.5.2/bits/stl_list.h **** 	list __tmp(__n, __x, _M_get_Node_allocator());
1031:/opt/toolchains/arm-none-eabi/bin/../lib/gcc/arm-none-eabi/4.5.2/../../../../arm-none-eabi/include/c++/4.5.2/bits/stl_list.h **** 	splice(__position, __tmp);
1032:/opt/toolchains/arm-none-eabi/bin/../lib/gcc/arm-none-eabi/4.5.2/../../../../arm-none-eabi/include/c++/4.5.2/bits/stl_list.h ****       }
1033:/opt/toolchains/arm-none-eabi/bin/../lib/gcc/arm-none-eabi/4.5.2/../../../../arm-none-eabi/include/c++/4.5.2/bits/stl_list.h **** 
1034:/opt/toolchains/arm-none-eabi/bin/../lib/gcc/arm-none-eabi/4.5.2/../../../../arm-none-eabi/include/c++/4.5.2/bits/stl_list.h ****       /**
1035:/opt/toolchains/arm-none-eabi/bin/../lib/gcc/arm-none-eabi/4.5.2/../../../../arm-none-eabi/include/c++/4.5.2/bits/stl_list.h ****        *  @brief  Inserts a range into the %list.
1036:/opt/toolchains/arm-none-eabi/bin/../lib/gcc/arm-none-eabi/4.5.2/../../../../arm-none-eabi/include/c++/4.5.2/bits/stl_list.h ****        *  @param  position  An iterator into the %list.
1037:/opt/toolchains/arm-none-eabi/bin/../lib/gcc/arm-none-eabi/4.5.2/../../../../arm-none-eabi/include/c++/4.5.2/bits/stl_list.h ****        *  @param  first  An input iterator.
1038:/opt/toolchains/arm-none-eabi/bin/../lib/gcc/arm-none-eabi/4.5.2/../../../../arm-none-eabi/include/c++/4.5.2/bits/stl_list.h ****        *  @param  last   An input iterator.
1039:/opt/toolchains/arm-none-eabi/bin/../lib/gcc/arm-none-eabi/4.5.2/../../../../arm-none-eabi/include/c++/4.5.2/bits/stl_list.h ****        *
1040:/opt/toolchains/arm-none-eabi/bin/../lib/gcc/arm-none-eabi/4.5.2/../../../../arm-none-eabi/include/c++/4.5.2/bits/stl_list.h ****        *  This function will insert copies of the data in the range [@a
1041:/opt/toolchains/arm-none-eabi/bin/../lib/gcc/arm-none-eabi/4.5.2/../../../../arm-none-eabi/include/c++/4.5.2/bits/stl_list.h ****        *  first,@a last) into the %list before the location specified by
1042:/opt/toolchains/arm-none-eabi/bin/../lib/gcc/arm-none-eabi/4.5.2/../../../../arm-none-eabi/include/c++/4.5.2/bits/stl_list.h ****        *  @a position.
1043:/opt/toolchains/arm-none-eabi/bin/../lib/gcc/arm-none-eabi/4.5.2/../../../../arm-none-eabi/include/c++/4.5.2/bits/stl_list.h ****        *
1044:/opt/toolchains/arm-none-eabi/bin/../lib/gcc/arm-none-eabi/4.5.2/../../../../arm-none-eabi/include/c++/4.5.2/bits/stl_list.h ****        *  This operation is linear in the number of elements inserted and
1045:/opt/toolchains/arm-none-eabi/bin/../lib/gcc/arm-none-eabi/4.5.2/../../../../arm-none-eabi/include/c++/4.5.2/bits/stl_list.h ****        *  does not invalidate iterators and references.
1046:/opt/toolchains/arm-none-eabi/bin/../lib/gcc/arm-none-eabi/4.5.2/../../../../arm-none-eabi/include/c++/4.5.2/bits/stl_list.h ****        */
1047:/opt/toolchains/arm-none-eabi/bin/../lib/gcc/arm-none-eabi/4.5.2/../../../../arm-none-eabi/include/c++/4.5.2/bits/stl_list.h ****       template<typename _InputIterator>
1048:/opt/toolchains/arm-none-eabi/bin/../lib/gcc/arm-none-eabi/4.5.2/../../../../arm-none-eabi/include/c++/4.5.2/bits/stl_list.h ****         void
1049:/opt/toolchains/arm-none-eabi/bin/../lib/gcc/arm-none-eabi/4.5.2/../../../../arm-none-eabi/include/c++/4.5.2/bits/stl_list.h ****         insert(iterator __position, _InputIterator __first,
1050:/opt/toolchains/arm-none-eabi/bin/../lib/gcc/arm-none-eabi/4.5.2/../../../../arm-none-eabi/include/c++/4.5.2/bits/stl_list.h **** 	       _InputIterator __last)
1051:/opt/toolchains/arm-none-eabi/bin/../lib/gcc/arm-none-eabi/4.5.2/../../../../arm-none-eabi/include/c++/4.5.2/bits/stl_list.h ****         {
1052:/opt/toolchains/arm-none-eabi/bin/../lib/gcc/arm-none-eabi/4.5.2/../../../../arm-none-eabi/include/c++/4.5.2/bits/stl_list.h **** 	  list __tmp(__first, __last, _M_get_Node_allocator());
1053:/opt/toolchains/arm-none-eabi/bin/../lib/gcc/arm-none-eabi/4.5.2/../../../../arm-none-eabi/include/c++/4.5.2/bits/stl_list.h **** 	  splice(__position, __tmp);
1054:/opt/toolchains/arm-none-eabi/bin/../lib/gcc/arm-none-eabi/4.5.2/../../../../arm-none-eabi/include/c++/4.5.2/bits/stl_list.h **** 	}
1055:/opt/toolchains/arm-none-eabi/bin/../lib/gcc/arm-none-eabi/4.5.2/../../../../arm-none-eabi/include/c++/4.5.2/bits/stl_list.h **** 
1056:/opt/toolchains/arm-none-eabi/bin/../lib/gcc/arm-none-eabi/4.5.2/../../../../arm-none-eabi/include/c++/4.5.2/bits/stl_list.h ****       /**
1057:/opt/toolchains/arm-none-eabi/bin/../lib/gcc/arm-none-eabi/4.5.2/../../../../arm-none-eabi/include/c++/4.5.2/bits/stl_list.h ****        *  @brief  Remove element at given position.
1058:/opt/toolchains/arm-none-eabi/bin/../lib/gcc/arm-none-eabi/4.5.2/../../../../arm-none-eabi/include/c++/4.5.2/bits/stl_list.h ****        *  @param  position  Iterator pointing to element to be erased.
1059:/opt/toolchains/arm-none-eabi/bin/../lib/gcc/arm-none-eabi/4.5.2/../../../../arm-none-eabi/include/c++/4.5.2/bits/stl_list.h ****        *  @return  An iterator pointing to the next element (or end()).
1060:/opt/toolchains/arm-none-eabi/bin/../lib/gcc/arm-none-eabi/4.5.2/../../../../arm-none-eabi/include/c++/4.5.2/bits/stl_list.h ****        *
1061:/opt/toolchains/arm-none-eabi/bin/../lib/gcc/arm-none-eabi/4.5.2/../../../../arm-none-eabi/include/c++/4.5.2/bits/stl_list.h ****        *  This function will erase the element at the given position and thus
1062:/opt/toolchains/arm-none-eabi/bin/../lib/gcc/arm-none-eabi/4.5.2/../../../../arm-none-eabi/include/c++/4.5.2/bits/stl_list.h ****        *  shorten the %list by one.
1063:/opt/toolchains/arm-none-eabi/bin/../lib/gcc/arm-none-eabi/4.5.2/../../../../arm-none-eabi/include/c++/4.5.2/bits/stl_list.h ****        *
1064:/opt/toolchains/arm-none-eabi/bin/../lib/gcc/arm-none-eabi/4.5.2/../../../../arm-none-eabi/include/c++/4.5.2/bits/stl_list.h ****        *  Due to the nature of a %list this operation can be done in
1065:/opt/toolchains/arm-none-eabi/bin/../lib/gcc/arm-none-eabi/4.5.2/../../../../arm-none-eabi/include/c++/4.5.2/bits/stl_list.h ****        *  constant time, and only invalidates iterators/references to
1066:/opt/toolchains/arm-none-eabi/bin/../lib/gcc/arm-none-eabi/4.5.2/../../../../arm-none-eabi/include/c++/4.5.2/bits/stl_list.h ****        *  the element being removed.  The user is also cautioned that
1067:/opt/toolchains/arm-none-eabi/bin/../lib/gcc/arm-none-eabi/4.5.2/../../../../arm-none-eabi/include/c++/4.5.2/bits/stl_list.h ****        *  this function only erases the element, and that if the element
1068:/opt/toolchains/arm-none-eabi/bin/../lib/gcc/arm-none-eabi/4.5.2/../../../../arm-none-eabi/include/c++/4.5.2/bits/stl_list.h ****        *  is itself a pointer, the pointed-to memory is not touched in
1069:/opt/toolchains/arm-none-eabi/bin/../lib/gcc/arm-none-eabi/4.5.2/../../../../arm-none-eabi/include/c++/4.5.2/bits/stl_list.h ****        *  any way.  Managing the pointer is the user's responsibility.
1070:/opt/toolchains/arm-none-eabi/bin/../lib/gcc/arm-none-eabi/4.5.2/../../../../arm-none-eabi/include/c++/4.5.2/bits/stl_list.h ****        */
1071:/opt/toolchains/arm-none-eabi/bin/../lib/gcc/arm-none-eabi/4.5.2/../../../../arm-none-eabi/include/c++/4.5.2/bits/stl_list.h ****       iterator
1072:/opt/toolchains/arm-none-eabi/bin/../lib/gcc/arm-none-eabi/4.5.2/../../../../arm-none-eabi/include/c++/4.5.2/bits/stl_list.h ****       erase(iterator __position);
1073:/opt/toolchains/arm-none-eabi/bin/../lib/gcc/arm-none-eabi/4.5.2/../../../../arm-none-eabi/include/c++/4.5.2/bits/stl_list.h **** 
1074:/opt/toolchains/arm-none-eabi/bin/../lib/gcc/arm-none-eabi/4.5.2/../../../../arm-none-eabi/include/c++/4.5.2/bits/stl_list.h ****       /**
1075:/opt/toolchains/arm-none-eabi/bin/../lib/gcc/arm-none-eabi/4.5.2/../../../../arm-none-eabi/include/c++/4.5.2/bits/stl_list.h ****        *  @brief  Remove a range of elements.
1076:/opt/toolchains/arm-none-eabi/bin/../lib/gcc/arm-none-eabi/4.5.2/../../../../arm-none-eabi/include/c++/4.5.2/bits/stl_list.h ****        *  @param  first  Iterator pointing to the first element to be erased.
1077:/opt/toolchains/arm-none-eabi/bin/../lib/gcc/arm-none-eabi/4.5.2/../../../../arm-none-eabi/include/c++/4.5.2/bits/stl_list.h ****        *  @param  last  Iterator pointing to one past the last element to be
1078:/opt/toolchains/arm-none-eabi/bin/../lib/gcc/arm-none-eabi/4.5.2/../../../../arm-none-eabi/include/c++/4.5.2/bits/stl_list.h ****        *                erased.
1079:/opt/toolchains/arm-none-eabi/bin/../lib/gcc/arm-none-eabi/4.5.2/../../../../arm-none-eabi/include/c++/4.5.2/bits/stl_list.h ****        *  @return  An iterator pointing to the element pointed to by @a last
1080:/opt/toolchains/arm-none-eabi/bin/../lib/gcc/arm-none-eabi/4.5.2/../../../../arm-none-eabi/include/c++/4.5.2/bits/stl_list.h ****        *           prior to erasing (or end()).
1081:/opt/toolchains/arm-none-eabi/bin/../lib/gcc/arm-none-eabi/4.5.2/../../../../arm-none-eabi/include/c++/4.5.2/bits/stl_list.h ****        *
1082:/opt/toolchains/arm-none-eabi/bin/../lib/gcc/arm-none-eabi/4.5.2/../../../../arm-none-eabi/include/c++/4.5.2/bits/stl_list.h ****        *  This function will erase the elements in the range @a
1083:/opt/toolchains/arm-none-eabi/bin/../lib/gcc/arm-none-eabi/4.5.2/../../../../arm-none-eabi/include/c++/4.5.2/bits/stl_list.h ****        *  [first,last) and shorten the %list accordingly.
1084:/opt/toolchains/arm-none-eabi/bin/../lib/gcc/arm-none-eabi/4.5.2/../../../../arm-none-eabi/include/c++/4.5.2/bits/stl_list.h ****        *
1085:/opt/toolchains/arm-none-eabi/bin/../lib/gcc/arm-none-eabi/4.5.2/../../../../arm-none-eabi/include/c++/4.5.2/bits/stl_list.h ****        *  This operation is linear time in the size of the range and only
1086:/opt/toolchains/arm-none-eabi/bin/../lib/gcc/arm-none-eabi/4.5.2/../../../../arm-none-eabi/include/c++/4.5.2/bits/stl_list.h ****        *  invalidates iterators/references to the element being removed.
1087:/opt/toolchains/arm-none-eabi/bin/../lib/gcc/arm-none-eabi/4.5.2/../../../../arm-none-eabi/include/c++/4.5.2/bits/stl_list.h ****        *  The user is also cautioned that this function only erases the
1088:/opt/toolchains/arm-none-eabi/bin/../lib/gcc/arm-none-eabi/4.5.2/../../../../arm-none-eabi/include/c++/4.5.2/bits/stl_list.h ****        *  elements, and that if the elements themselves are pointers, the
1089:/opt/toolchains/arm-none-eabi/bin/../lib/gcc/arm-none-eabi/4.5.2/../../../../arm-none-eabi/include/c++/4.5.2/bits/stl_list.h ****        *  pointed-to memory is not touched in any way.  Managing the pointer
1090:/opt/toolchains/arm-none-eabi/bin/../lib/gcc/arm-none-eabi/4.5.2/../../../../arm-none-eabi/include/c++/4.5.2/bits/stl_list.h ****        *  is the user's responsibility.
1091:/opt/toolchains/arm-none-eabi/bin/../lib/gcc/arm-none-eabi/4.5.2/../../../../arm-none-eabi/include/c++/4.5.2/bits/stl_list.h ****        */
1092:/opt/toolchains/arm-none-eabi/bin/../lib/gcc/arm-none-eabi/4.5.2/../../../../arm-none-eabi/include/c++/4.5.2/bits/stl_list.h ****       iterator
1093:/opt/toolchains/arm-none-eabi/bin/../lib/gcc/arm-none-eabi/4.5.2/../../../../arm-none-eabi/include/c++/4.5.2/bits/stl_list.h ****       erase(iterator __first, iterator __last)
1094:/opt/toolchains/arm-none-eabi/bin/../lib/gcc/arm-none-eabi/4.5.2/../../../../arm-none-eabi/include/c++/4.5.2/bits/stl_list.h ****       {
1095:/opt/toolchains/arm-none-eabi/bin/../lib/gcc/arm-none-eabi/4.5.2/../../../../arm-none-eabi/include/c++/4.5.2/bits/stl_list.h **** 	while (__first != __last)
1096:/opt/toolchains/arm-none-eabi/bin/../lib/gcc/arm-none-eabi/4.5.2/../../../../arm-none-eabi/include/c++/4.5.2/bits/stl_list.h **** 	  __first = erase(__first);
1097:/opt/toolchains/arm-none-eabi/bin/../lib/gcc/arm-none-eabi/4.5.2/../../../../arm-none-eabi/include/c++/4.5.2/bits/stl_list.h **** 	return __last;
1098:/opt/toolchains/arm-none-eabi/bin/../lib/gcc/arm-none-eabi/4.5.2/../../../../arm-none-eabi/include/c++/4.5.2/bits/stl_list.h ****       }
1099:/opt/toolchains/arm-none-eabi/bin/../lib/gcc/arm-none-eabi/4.5.2/../../../../arm-none-eabi/include/c++/4.5.2/bits/stl_list.h **** 
1100:/opt/toolchains/arm-none-eabi/bin/../lib/gcc/arm-none-eabi/4.5.2/../../../../arm-none-eabi/include/c++/4.5.2/bits/stl_list.h ****       /**
1101:/opt/toolchains/arm-none-eabi/bin/../lib/gcc/arm-none-eabi/4.5.2/../../../../arm-none-eabi/include/c++/4.5.2/bits/stl_list.h ****        *  @brief  Swaps data with another %list.
1102:/opt/toolchains/arm-none-eabi/bin/../lib/gcc/arm-none-eabi/4.5.2/../../../../arm-none-eabi/include/c++/4.5.2/bits/stl_list.h ****        *  @param  x  A %list of the same element and allocator types.
1103:/opt/toolchains/arm-none-eabi/bin/../lib/gcc/arm-none-eabi/4.5.2/../../../../arm-none-eabi/include/c++/4.5.2/bits/stl_list.h ****        *
1104:/opt/toolchains/arm-none-eabi/bin/../lib/gcc/arm-none-eabi/4.5.2/../../../../arm-none-eabi/include/c++/4.5.2/bits/stl_list.h ****        *  This exchanges the elements between two lists in constant
1105:/opt/toolchains/arm-none-eabi/bin/../lib/gcc/arm-none-eabi/4.5.2/../../../../arm-none-eabi/include/c++/4.5.2/bits/stl_list.h ****        *  time.  Note that the global std::swap() function is
1106:/opt/toolchains/arm-none-eabi/bin/../lib/gcc/arm-none-eabi/4.5.2/../../../../arm-none-eabi/include/c++/4.5.2/bits/stl_list.h ****        *  specialized such that std::swap(l1,l2) will feed to this
1107:/opt/toolchains/arm-none-eabi/bin/../lib/gcc/arm-none-eabi/4.5.2/../../../../arm-none-eabi/include/c++/4.5.2/bits/stl_list.h ****        *  function.
1108:/opt/toolchains/arm-none-eabi/bin/../lib/gcc/arm-none-eabi/4.5.2/../../../../arm-none-eabi/include/c++/4.5.2/bits/stl_list.h ****        */
1109:/opt/toolchains/arm-none-eabi/bin/../lib/gcc/arm-none-eabi/4.5.2/../../../../arm-none-eabi/include/c++/4.5.2/bits/stl_list.h ****       void
1110:/opt/toolchains/arm-none-eabi/bin/../lib/gcc/arm-none-eabi/4.5.2/../../../../arm-none-eabi/include/c++/4.5.2/bits/stl_list.h ****       swap(list& __x)
1111:/opt/toolchains/arm-none-eabi/bin/../lib/gcc/arm-none-eabi/4.5.2/../../../../arm-none-eabi/include/c++/4.5.2/bits/stl_list.h ****       {
1112:/opt/toolchains/arm-none-eabi/bin/../lib/gcc/arm-none-eabi/4.5.2/../../../../arm-none-eabi/include/c++/4.5.2/bits/stl_list.h **** 	_List_node_base::swap(this->_M_impl._M_node, __x._M_impl._M_node);
1113:/opt/toolchains/arm-none-eabi/bin/../lib/gcc/arm-none-eabi/4.5.2/../../../../arm-none-eabi/include/c++/4.5.2/bits/stl_list.h **** 
1114:/opt/toolchains/arm-none-eabi/bin/../lib/gcc/arm-none-eabi/4.5.2/../../../../arm-none-eabi/include/c++/4.5.2/bits/stl_list.h **** 	// _GLIBCXX_RESOLVE_LIB_DEFECTS
1115:/opt/toolchains/arm-none-eabi/bin/../lib/gcc/arm-none-eabi/4.5.2/../../../../arm-none-eabi/include/c++/4.5.2/bits/stl_list.h **** 	// 431. Swapping containers with unequal allocators.
1116:/opt/toolchains/arm-none-eabi/bin/../lib/gcc/arm-none-eabi/4.5.2/../../../../arm-none-eabi/include/c++/4.5.2/bits/stl_list.h **** 	std::__alloc_swap<typename _Base::_Node_alloc_type>::
1117:/opt/toolchains/arm-none-eabi/bin/../lib/gcc/arm-none-eabi/4.5.2/../../../../arm-none-eabi/include/c++/4.5.2/bits/stl_list.h **** 	  _S_do_it(_M_get_Node_allocator(), __x._M_get_Node_allocator());
1118:/opt/toolchains/arm-none-eabi/bin/../lib/gcc/arm-none-eabi/4.5.2/../../../../arm-none-eabi/include/c++/4.5.2/bits/stl_list.h ****       }
1119:/opt/toolchains/arm-none-eabi/bin/../lib/gcc/arm-none-eabi/4.5.2/../../../../arm-none-eabi/include/c++/4.5.2/bits/stl_list.h **** 
1120:/opt/toolchains/arm-none-eabi/bin/../lib/gcc/arm-none-eabi/4.5.2/../../../../arm-none-eabi/include/c++/4.5.2/bits/stl_list.h ****       /**
1121:/opt/toolchains/arm-none-eabi/bin/../lib/gcc/arm-none-eabi/4.5.2/../../../../arm-none-eabi/include/c++/4.5.2/bits/stl_list.h ****        *  Erases all the elements.  Note that this function only erases
1122:/opt/toolchains/arm-none-eabi/bin/../lib/gcc/arm-none-eabi/4.5.2/../../../../arm-none-eabi/include/c++/4.5.2/bits/stl_list.h ****        *  the elements, and that if the elements themselves are
1123:/opt/toolchains/arm-none-eabi/bin/../lib/gcc/arm-none-eabi/4.5.2/../../../../arm-none-eabi/include/c++/4.5.2/bits/stl_list.h ****        *  pointers, the pointed-to memory is not touched in any way.
1124:/opt/toolchains/arm-none-eabi/bin/../lib/gcc/arm-none-eabi/4.5.2/../../../../arm-none-eabi/include/c++/4.5.2/bits/stl_list.h ****        *  Managing the pointer is the user's responsibility.
1125:/opt/toolchains/arm-none-eabi/bin/../lib/gcc/arm-none-eabi/4.5.2/../../../../arm-none-eabi/include/c++/4.5.2/bits/stl_list.h ****        */
1126:/opt/toolchains/arm-none-eabi/bin/../lib/gcc/arm-none-eabi/4.5.2/../../../../arm-none-eabi/include/c++/4.5.2/bits/stl_list.h ****       void
1127:/opt/toolchains/arm-none-eabi/bin/../lib/gcc/arm-none-eabi/4.5.2/../../../../arm-none-eabi/include/c++/4.5.2/bits/stl_list.h ****       clear()
 5590              		.loc 28 1127 0
 5591              		.cfi_startproc
 5592              		@ args = 0, pretend = 0, frame = 8
 5593              		@ frame_needed = 1, uses_anonymous_args = 0
 5594 0000 80B5     		push	{r7, lr}
 5595              	.LCFI102:
 5596              		.cfi_def_cfa_offset 8
 5597 0002 82B0     		sub	sp, sp, #8
 5598              	.LCFI103:
 5599              		.cfi_def_cfa_offset 16
 5600 0004 00AF     		add	r7, sp, #0
 5601              		.cfi_offset 14, -4
 5602              		.cfi_offset 7, -8
 5603              	.LCFI104:
 5604              		.cfi_def_cfa_register 7
 5605 0006 7860     		str	r0, [r7, #4]
1128:/opt/toolchains/arm-none-eabi/bin/../lib/gcc/arm-none-eabi/4.5.2/../../../../arm-none-eabi/include/c++/4.5.2/bits/stl_list.h ****       {
1129:/opt/toolchains/arm-none-eabi/bin/../lib/gcc/arm-none-eabi/4.5.2/../../../../arm-none-eabi/include/c++/4.5.2/bits/stl_list.h ****         _Base::_M_clear();
 5606              		.loc 28 1129 0
 5607 0008 7B68     		ldr	r3, [r7, #4]
 5608 000a 1846     		mov	r0, r3
 5609 000c FFF7FEFF 		bl	_ZNSt10_List_baseIN5Air3T6PlayerESaIS1_EE8_M_clearEv
1130:/opt/toolchains/arm-none-eabi/bin/../lib/gcc/arm-none-eabi/4.5.2/../../../../arm-none-eabi/include/c++/4.5.2/bits/stl_list.h ****         _Base::_M_init();
 5610              		.loc 28 1130 0
 5611 0010 7B68     		ldr	r3, [r7, #4]
 5612 0012 1846     		mov	r0, r3
 5613 0014 FFF7FEFF 		bl	_ZNSt10_List_baseIN5Air3T6PlayerESaIS1_EE7_M_initEv
1131:/opt/toolchains/arm-none-eabi/bin/../lib/gcc/arm-none-eabi/4.5.2/../../../../arm-none-eabi/include/c++/4.5.2/bits/stl_list.h ****       }
 5614              		.loc 28 1131 0
 5615 0018 07F10807 		add	r7, r7, #8
 5616 001c BD46     		mov	sp, r7
 5617 001e 80BD     		pop	{r7, pc}
 5618              		.cfi_endproc
 5619              	.LFE938:
 5621              		.section	.text._ZNSt4listIPN5Air3T5IViewESaIS2_EE5beginEv,"axG",%progbits,_ZNSt4listIPN5Air3T5IVie
 5622              		.align	2
 5623              		.weak	_ZNSt4listIPN5Air3T5IViewESaIS2_EE5beginEv
 5624              		.thumb
 5625              		.thumb_func
 5627              	_ZNSt4listIPN5Air3T5IViewESaIS2_EE5beginEv:
 5628              	.LFB939:
 690:/opt/toolchains/arm-none-eabi/bin/../lib/gcc/arm-none-eabi/4.5.2/../../../../arm-none-eabi/include/c++/4.5.2/bits/stl_list.h ****       begin()
 5629              		.loc 28 690 0
 5630              		.cfi_startproc
 5631              		@ args = 0, pretend = 0, frame = 16
 5632              		@ frame_needed = 1, uses_anonymous_args = 0
 5633 0000 80B5     		push	{r7, lr}
 5634              	.LCFI105:
 5635              		.cfi_def_cfa_offset 8
 5636 0002 84B0     		sub	sp, sp, #16
 5637              	.LCFI106:
 5638              		.cfi_def_cfa_offset 24
 5639 0004 00AF     		add	r7, sp, #0
 5640              		.cfi_offset 14, -4
 5641              		.cfi_offset 7, -8
 5642              	.LCFI107:
 5643              		.cfi_def_cfa_register 7
 5644 0006 7860     		str	r0, [r7, #4]
 691:/opt/toolchains/arm-none-eabi/bin/../lib/gcc/arm-none-eabi/4.5.2/../../../../arm-none-eabi/include/c++/4.5.2/bits/stl_list.h ****       { return iterator(this->_M_impl._M_node._M_next); }
 5645              		.loc 28 691 0
 5646 0008 7B68     		ldr	r3, [r7, #4]
 5647 000a 1B68     		ldr	r3, [r3, #0]
 5648 000c 07F10C02 		add	r2, r7, #12
 5649 0010 1046     		mov	r0, r2
 5650 0012 1946     		mov	r1, r3
 5651 0014 FFF7FEFF 		bl	_ZNSt14_List_iteratorIPN5Air3T5IViewEEC1EPSt15_List_node_base
 5652 0018 FB68     		ldr	r3, [r7, #12]
 5653 001a 1846     		mov	r0, r3
 5654 001c 07F11007 		add	r7, r7, #16
 5655 0020 BD46     		mov	sp, r7
 5656 0022 80BD     		pop	{r7, pc}
 5657              		.cfi_endproc
 5658              	.LFE939:
 5660              		.section	.text._ZNSt20_List_const_iteratorIPN5Air3T5IViewEEC2ERKSt14_List_iteratorIS2_E,"axG",%pro
 5661              		.align	2
 5662              		.weak	_ZNSt20_List_const_iteratorIPN5Air3T5IViewEEC2ERKSt14_List_iteratorIS2_E
 5663              		.thumb
 5664              		.thumb_func
 5666              	_ZNSt20_List_const_iteratorIPN5Air3T5IViewEEC2ERKSt14_List_iteratorIS2_E:
 5667              	.LFB941:
 207:/opt/toolchains/arm-none-eabi/bin/../lib/gcc/arm-none-eabi/4.5.2/../../../../arm-none-eabi/include/c++/4.5.2/bits/stl_list.h ****       _List_const_iterator(const iterator& __x)
 5668              		.loc 28 207 0
 5669              		.cfi_startproc
 5670              		@ args = 0, pretend = 0, frame = 8
 5671              		@ frame_needed = 1, uses_anonymous_args = 0
 5672              		@ link register save eliminated.
 5673 0000 80B4     		push	{r7}
 5674              	.LCFI108:
 5675              		.cfi_def_cfa_offset 4
 5676 0002 83B0     		sub	sp, sp, #12
 5677              	.LCFI109:
 5678              		.cfi_def_cfa_offset 16
 5679 0004 00AF     		add	r7, sp, #0
 5680              		.cfi_offset 7, -4
 5681              	.LCFI110:
 5682              		.cfi_def_cfa_register 7
 5683 0006 7860     		str	r0, [r7, #4]
 5684 0008 3960     		str	r1, [r7, #0]
 5685              	.LBB21:
 208:/opt/toolchains/arm-none-eabi/bin/../lib/gcc/arm-none-eabi/4.5.2/../../../../arm-none-eabi/include/c++/4.5.2/bits/stl_list.h ****       : _M_node(__x._M_node) { }
 5686              		.loc 28 208 0
 5687 000a 3B68     		ldr	r3, [r7, #0]
 5688 000c 1A68     		ldr	r2, [r3, #0]
 5689 000e 7B68     		ldr	r3, [r7, #4]
 5690 0010 1A60     		str	r2, [r3, #0]
 5691              	.LBE21:
 5692 0012 7B68     		ldr	r3, [r7, #4]
 5693 0014 1846     		mov	r0, r3
 5694 0016 07F10C07 		add	r7, r7, #12
 5695 001a BD46     		mov	sp, r7
 5696 001c 80BC     		pop	{r7}
 5697 001e 7047     		bx	lr
 5698              		.cfi_endproc
 5699              	.LFE941:
 5701              		.weak	_ZNSt20_List_const_iteratorIPN5Air3T5IViewEEC1ERKSt14_List_iteratorIS2_E
 5702              		.thumb_set _ZNSt20_List_const_iteratorIPN5Air3T5IViewEEC1ERKSt14_List_iteratorIS2_E,_ZNSt20_List_c
 5703              		.section	.text._ZNSt4listIPN5Air3T5IViewESaIS2_EE3endEv,"axG",%progbits,_ZNSt4listIPN5Air3T5IViewE
 5704              		.align	2
 5705              		.weak	_ZNSt4listIPN5Air3T5IViewESaIS2_EE3endEv
 5706              		.thumb
 5707              		.thumb_func
 5709              	_ZNSt4listIPN5Air3T5IViewESaIS2_EE3endEv:
 5710              	.LFB943:
 708:/opt/toolchains/arm-none-eabi/bin/../lib/gcc/arm-none-eabi/4.5.2/../../../../arm-none-eabi/include/c++/4.5.2/bits/stl_list.h ****       end()
 5711              		.loc 28 708 0
 5712              		.cfi_startproc
 5713              		@ args = 0, pretend = 0, frame = 16
 5714              		@ frame_needed = 1, uses_anonymous_args = 0
 5715 0000 80B5     		push	{r7, lr}
 5716              	.LCFI111:
 5717              		.cfi_def_cfa_offset 8
 5718 0002 84B0     		sub	sp, sp, #16
 5719              	.LCFI112:
 5720              		.cfi_def_cfa_offset 24
 5721 0004 00AF     		add	r7, sp, #0
 5722              		.cfi_offset 14, -4
 5723              		.cfi_offset 7, -8
 5724              	.LCFI113:
 5725              		.cfi_def_cfa_register 7
 5726 0006 7860     		str	r0, [r7, #4]
 709:/opt/toolchains/arm-none-eabi/bin/../lib/gcc/arm-none-eabi/4.5.2/../../../../arm-none-eabi/include/c++/4.5.2/bits/stl_list.h ****       { return iterator(&this->_M_impl._M_node); }
 5727              		.loc 28 709 0
 5728 0008 7B68     		ldr	r3, [r7, #4]
 5729 000a 07F10C02 		add	r2, r7, #12
 5730 000e 1046     		mov	r0, r2
 5731 0010 1946     		mov	r1, r3
 5732 0012 FFF7FEFF 		bl	_ZNSt14_List_iteratorIPN5Air3T5IViewEEC1EPSt15_List_node_base
 5733 0016 FB68     		ldr	r3, [r7, #12]
 5734 0018 1846     		mov	r0, r3
 5735 001a 07F11007 		add	r7, r7, #16
 5736 001e BD46     		mov	sp, r7
 5737 0020 80BD     		pop	{r7, pc}
 5738              		.cfi_endproc
 5739              	.LFE943:
 5741 0022 00BF     		.section	.text._ZNKSt20_List_const_iteratorIPN5Air3T5IViewEEneERKS3_,"axG",%progbits,_ZNKSt20_List
 5742              		.align	2
 5743              		.weak	_ZNKSt20_List_const_iteratorIPN5Air3T5IViewEEneERKS3_
 5744              		.thumb
 5745              		.thumb_func
 5747              	_ZNKSt20_List_const_iteratorIPN5Air3T5IViewEEneERKS3_:
 5748              	.LFB944:
 255:/opt/toolchains/arm-none-eabi/bin/../lib/gcc/arm-none-eabi/4.5.2/../../../../arm-none-eabi/include/c++/4.5.2/bits/stl_list.h ****       operator!=(const _Self& __x) const
 5749              		.loc 28 255 0
 5750              		.cfi_startproc
 5751              		@ args = 0, pretend = 0, frame = 8
 5752              		@ frame_needed = 1, uses_anonymous_args = 0
 5753              		@ link register save eliminated.
 5754 0000 80B4     		push	{r7}
 5755              	.LCFI114:
 5756              		.cfi_def_cfa_offset 4
 5757 0002 83B0     		sub	sp, sp, #12
 5758              	.LCFI115:
 5759              		.cfi_def_cfa_offset 16
 5760 0004 00AF     		add	r7, sp, #0
 5761              		.cfi_offset 7, -4
 5762              	.LCFI116:
 5763              		.cfi_def_cfa_register 7
 5764 0006 7860     		str	r0, [r7, #4]
 5765 0008 3960     		str	r1, [r7, #0]
 256:/opt/toolchains/arm-none-eabi/bin/../lib/gcc/arm-none-eabi/4.5.2/../../../../arm-none-eabi/include/c++/4.5.2/bits/stl_list.h ****       { return _M_node != __x._M_node; }
 5766              		.loc 28 256 0
 5767 000a 7B68     		ldr	r3, [r7, #4]
 5768 000c 1A68     		ldr	r2, [r3, #0]
 5769 000e 3B68     		ldr	r3, [r7, #0]
 5770 0010 1B68     		ldr	r3, [r3, #0]
 5771 0012 9A42     		cmp	r2, r3
 5772 0014 0CBF     		ite	eq
 5773 0016 0023     		moveq	r3, #0
 5774 0018 0123     		movne	r3, #1
 5775 001a DBB2     		uxtb	r3, r3
 5776 001c 1846     		mov	r0, r3
 5777 001e 07F10C07 		add	r7, r7, #12
 5778 0022 BD46     		mov	sp, r7
 5779 0024 80BC     		pop	{r7}
 5780 0026 7047     		bx	lr
 5781              		.cfi_endproc
 5782              	.LFE944:
 5784              		.section	.text._ZNSt20_List_const_iteratorIPN5Air3T5IViewEEppEv,"axG",%progbits,_ZNSt20_List_const
 5785              		.align	2
 5786              		.weak	_ZNSt20_List_const_iteratorIPN5Air3T5IViewEEppEv
 5787              		.thumb
 5788              		.thumb_func
 5790              	_ZNSt20_List_const_iteratorIPN5Air3T5IViewEEppEv:
 5791              	.LFB945:
 221:/opt/toolchains/arm-none-eabi/bin/../lib/gcc/arm-none-eabi/4.5.2/../../../../arm-none-eabi/include/c++/4.5.2/bits/stl_list.h ****       operator++()
 5792              		.loc 28 221 0
 5793              		.cfi_startproc
 5794              		@ args = 0, pretend = 0, frame = 8
 5795              		@ frame_needed = 1, uses_anonymous_args = 0
 5796              		@ link register save eliminated.
 5797 0000 80B4     		push	{r7}
 5798              	.LCFI117:
 5799              		.cfi_def_cfa_offset 4
 5800 0002 83B0     		sub	sp, sp, #12
 5801              	.LCFI118:
 5802              		.cfi_def_cfa_offset 16
 5803 0004 00AF     		add	r7, sp, #0
 5804              		.cfi_offset 7, -4
 5805              	.LCFI119:
 5806              		.cfi_def_cfa_register 7
 5807 0006 7860     		str	r0, [r7, #4]
 223:/opt/toolchains/arm-none-eabi/bin/../lib/gcc/arm-none-eabi/4.5.2/../../../../arm-none-eabi/include/c++/4.5.2/bits/stl_list.h **** 	_M_node = _M_node->_M_next;
 5808              		.loc 28 223 0
 5809 0008 7B68     		ldr	r3, [r7, #4]
 5810 000a 1B68     		ldr	r3, [r3, #0]
 5811 000c 1A68     		ldr	r2, [r3, #0]
 5812 000e 7B68     		ldr	r3, [r7, #4]
 5813 0010 1A60     		str	r2, [r3, #0]
 224:/opt/toolchains/arm-none-eabi/bin/../lib/gcc/arm-none-eabi/4.5.2/../../../../arm-none-eabi/include/c++/4.5.2/bits/stl_list.h **** 	return *this;
 5814              		.loc 28 224 0
 5815 0012 7B68     		ldr	r3, [r7, #4]
 225:/opt/toolchains/arm-none-eabi/bin/../lib/gcc/arm-none-eabi/4.5.2/../../../../arm-none-eabi/include/c++/4.5.2/bits/stl_list.h ****       }
 5816              		.loc 28 225 0
 5817 0014 1846     		mov	r0, r3
 5818 0016 07F10C07 		add	r7, r7, #12
 5819 001a BD46     		mov	sp, r7
 5820 001c 80BC     		pop	{r7}
 5821 001e 7047     		bx	lr
 5822              		.cfi_endproc
 5823              	.LFE945:
 5825              		.section	.text._ZNKSt20_List_const_iteratorIPN5Air3T5IViewEEdeEv,"axG",%progbits,_ZNKSt20_List_con
 5826              		.align	2
 5827              		.weak	_ZNKSt20_List_const_iteratorIPN5Air3T5IViewEEdeEv
 5828              		.thumb
 5829              		.thumb_func
 5831              	_ZNKSt20_List_const_iteratorIPN5Air3T5IViewEEdeEv:
 5832              	.LFB946:
 213:/opt/toolchains/arm-none-eabi/bin/../lib/gcc/arm-none-eabi/4.5.2/../../../../arm-none-eabi/include/c++/4.5.2/bits/stl_list.h ****       operator*() const
 5833              		.loc 28 213 0
 5834              		.cfi_startproc
 5835              		@ args = 0, pretend = 0, frame = 8
 5836              		@ frame_needed = 1, uses_anonymous_args = 0
 5837              		@ link register save eliminated.
 5838 0000 80B4     		push	{r7}
 5839              	.LCFI120:
 5840              		.cfi_def_cfa_offset 4
 5841 0002 83B0     		sub	sp, sp, #12
 5842              	.LCFI121:
 5843              		.cfi_def_cfa_offset 16
 5844 0004 00AF     		add	r7, sp, #0
 5845              		.cfi_offset 7, -4
 5846              	.LCFI122:
 5847              		.cfi_def_cfa_register 7
 5848 0006 7860     		str	r0, [r7, #4]
 214:/opt/toolchains/arm-none-eabi/bin/../lib/gcc/arm-none-eabi/4.5.2/../../../../arm-none-eabi/include/c++/4.5.2/bits/stl_list.h ****       { return static_cast<_Node*>(_M_node)->_M_data; }
 5849              		.loc 28 214 0
 5850 0008 7B68     		ldr	r3, [r7, #4]
 5851 000a 1B68     		ldr	r3, [r3, #0]
 5852 000c 03F10803 		add	r3, r3, #8
 5853 0010 1846     		mov	r0, r3
 5854 0012 07F10C07 		add	r7, r7, #12
 5855 0016 BD46     		mov	sp, r7
 5856 0018 80BC     		pop	{r7}
 5857 001a 7047     		bx	lr
 5858              		.cfi_endproc
 5859              	.LFE946:
 5861              		.section	.text._ZNSt10_List_baseIPN5Air3T5IViewESaIS2_EEC2Ev,"axG",%progbits,_ZNSt10_List_baseIPN5
 5862              		.align	2
 5863              		.weak	_ZNSt10_List_baseIPN5Air3T5IViewESaIS2_EEC2Ev
 5864              		.thumb
 5865              		.thumb_func
 5867              	_ZNSt10_List_baseIPN5Air3T5IViewESaIS2_EEC2Ev:
 5868              	.LFB948:
 341:/opt/toolchains/arm-none-eabi/bin/../lib/gcc/arm-none-eabi/4.5.2/../../../../arm-none-eabi/include/c++/4.5.2/bits/stl_list.h ****       _List_base()
 5869              		.loc 28 341 0
 5870              		.cfi_startproc
 5871              		@ args = 0, pretend = 0, frame = 8
 5872              		@ frame_needed = 1, uses_anonymous_args = 0
 5873 0000 80B5     		push	{r7, lr}
 5874              	.LCFI123:
 5875              		.cfi_def_cfa_offset 8
 5876 0002 82B0     		sub	sp, sp, #8
 5877              	.LCFI124:
 5878              		.cfi_def_cfa_offset 16
 5879 0004 00AF     		add	r7, sp, #0
 5880              		.cfi_offset 14, -4
 5881              		.cfi_offset 7, -8
 5882              	.LCFI125:
 5883              		.cfi_def_cfa_register 7
 5884 0006 7860     		str	r0, [r7, #4]
 5885              	.LBB22:
 342:/opt/toolchains/arm-none-eabi/bin/../lib/gcc/arm-none-eabi/4.5.2/../../../../arm-none-eabi/include/c++/4.5.2/bits/stl_list.h ****       : _M_impl()
 5886              		.loc 28 342 0
 5887 0008 7B68     		ldr	r3, [r7, #4]
 5888 000a 1846     		mov	r0, r3
 5889 000c FFF7FEFF 		bl	_ZNSt10_List_baseIPN5Air3T5IViewESaIS2_EE10_List_implC1Ev
 343:/opt/toolchains/arm-none-eabi/bin/../lib/gcc/arm-none-eabi/4.5.2/../../../../arm-none-eabi/include/c++/4.5.2/bits/stl_list.h ****       { _M_init(); }
 5890              		.loc 28 343 0
 5891 0010 7868     		ldr	r0, [r7, #4]
 5892 0012 FFF7FEFF 		bl	_ZNSt10_List_baseIPN5Air3T5IViewESaIS2_EE7_M_initEv
 5893              	.LBE22:
 5894 0016 7B68     		ldr	r3, [r7, #4]
 5895 0018 1846     		mov	r0, r3
 5896 001a 07F10807 		add	r7, r7, #8
 5897 001e BD46     		mov	sp, r7
 5898 0020 80BD     		pop	{r7, pc}
 5899              		.cfi_endproc
 5900              	.LFE948:
 5902              		.weak	_ZNSt10_List_baseIPN5Air3T5IViewESaIS2_EEC1Ev
 5903              		.thumb_set _ZNSt10_List_baseIPN5Air3T5IViewESaIS2_EEC1Ev,_ZNSt10_List_baseIPN5Air3T5IViewESaIS2_EE
 5904 0022 00BF     		.section	.text._ZNSaISt10_List_nodeIPN5Air3T5IViewEEED2Ev,"axG",%progbits,_ZNSaISt10_List_nodeIPN5
 5905              		.align	2
 5906              		.weak	_ZNSaISt10_List_nodeIPN5Air3T5IViewEEED2Ev
 5907              		.thumb
 5908              		.thumb_func
 5910              	_ZNSaISt10_List_nodeIPN5Air3T5IViewEEED2Ev:
 5911              	.LFB951:
   1:/opt/toolchains/arm-none-eabi/bin/../lib/gcc/arm-none-eabi/4.5.2/../../../../arm-none-eabi/include/c++/4.5.2/bits/allocator.h **** // Allocators -*- C++ -*-
   2:/opt/toolchains/arm-none-eabi/bin/../lib/gcc/arm-none-eabi/4.5.2/../../../../arm-none-eabi/include/c++/4.5.2/bits/allocator.h **** 
   3:/opt/toolchains/arm-none-eabi/bin/../lib/gcc/arm-none-eabi/4.5.2/../../../../arm-none-eabi/include/c++/4.5.2/bits/allocator.h **** // Copyright (C) 2001, 2002, 2003, 2004, 2005, 2006, 2007, 2008, 2009, 2010
   4:/opt/toolchains/arm-none-eabi/bin/../lib/gcc/arm-none-eabi/4.5.2/../../../../arm-none-eabi/include/c++/4.5.2/bits/allocator.h **** // Free Software Foundation, Inc.
   5:/opt/toolchains/arm-none-eabi/bin/../lib/gcc/arm-none-eabi/4.5.2/../../../../arm-none-eabi/include/c++/4.5.2/bits/allocator.h **** //
   6:/opt/toolchains/arm-none-eabi/bin/../lib/gcc/arm-none-eabi/4.5.2/../../../../arm-none-eabi/include/c++/4.5.2/bits/allocator.h **** // This file is part of the GNU ISO C++ Library.  This library is free
   7:/opt/toolchains/arm-none-eabi/bin/../lib/gcc/arm-none-eabi/4.5.2/../../../../arm-none-eabi/include/c++/4.5.2/bits/allocator.h **** // software; you can redistribute it and/or modify it under the
   8:/opt/toolchains/arm-none-eabi/bin/../lib/gcc/arm-none-eabi/4.5.2/../../../../arm-none-eabi/include/c++/4.5.2/bits/allocator.h **** // terms of the GNU General Public License as published by the
   9:/opt/toolchains/arm-none-eabi/bin/../lib/gcc/arm-none-eabi/4.5.2/../../../../arm-none-eabi/include/c++/4.5.2/bits/allocator.h **** // Free Software Foundation; either version 3, or (at your option)
  10:/opt/toolchains/arm-none-eabi/bin/../lib/gcc/arm-none-eabi/4.5.2/../../../../arm-none-eabi/include/c++/4.5.2/bits/allocator.h **** // any later version.
  11:/opt/toolchains/arm-none-eabi/bin/../lib/gcc/arm-none-eabi/4.5.2/../../../../arm-none-eabi/include/c++/4.5.2/bits/allocator.h **** 
  12:/opt/toolchains/arm-none-eabi/bin/../lib/gcc/arm-none-eabi/4.5.2/../../../../arm-none-eabi/include/c++/4.5.2/bits/allocator.h **** // This library is distributed in the hope that it will be useful,
  13:/opt/toolchains/arm-none-eabi/bin/../lib/gcc/arm-none-eabi/4.5.2/../../../../arm-none-eabi/include/c++/4.5.2/bits/allocator.h **** // but WITHOUT ANY WARRANTY; without even the implied warranty of
  14:/opt/toolchains/arm-none-eabi/bin/../lib/gcc/arm-none-eabi/4.5.2/../../../../arm-none-eabi/include/c++/4.5.2/bits/allocator.h **** // MERCHANTABILITY or FITNESS FOR A PARTICULAR PURPOSE.  See the
  15:/opt/toolchains/arm-none-eabi/bin/../lib/gcc/arm-none-eabi/4.5.2/../../../../arm-none-eabi/include/c++/4.5.2/bits/allocator.h **** // GNU General Public License for more details.
  16:/opt/toolchains/arm-none-eabi/bin/../lib/gcc/arm-none-eabi/4.5.2/../../../../arm-none-eabi/include/c++/4.5.2/bits/allocator.h **** 
  17:/opt/toolchains/arm-none-eabi/bin/../lib/gcc/arm-none-eabi/4.5.2/../../../../arm-none-eabi/include/c++/4.5.2/bits/allocator.h **** // Under Section 7 of GPL version 3, you are granted additional
  18:/opt/toolchains/arm-none-eabi/bin/../lib/gcc/arm-none-eabi/4.5.2/../../../../arm-none-eabi/include/c++/4.5.2/bits/allocator.h **** // permissions described in the GCC Runtime Library Exception, version
  19:/opt/toolchains/arm-none-eabi/bin/../lib/gcc/arm-none-eabi/4.5.2/../../../../arm-none-eabi/include/c++/4.5.2/bits/allocator.h **** // 3.1, as published by the Free Software Foundation.
  20:/opt/toolchains/arm-none-eabi/bin/../lib/gcc/arm-none-eabi/4.5.2/../../../../arm-none-eabi/include/c++/4.5.2/bits/allocator.h **** 
  21:/opt/toolchains/arm-none-eabi/bin/../lib/gcc/arm-none-eabi/4.5.2/../../../../arm-none-eabi/include/c++/4.5.2/bits/allocator.h **** // You should have received a copy of the GNU General Public License and
  22:/opt/toolchains/arm-none-eabi/bin/../lib/gcc/arm-none-eabi/4.5.2/../../../../arm-none-eabi/include/c++/4.5.2/bits/allocator.h **** // a copy of the GCC Runtime Library Exception along with this program;
  23:/opt/toolchains/arm-none-eabi/bin/../lib/gcc/arm-none-eabi/4.5.2/../../../../arm-none-eabi/include/c++/4.5.2/bits/allocator.h **** // see the files COPYING3 and COPYING.RUNTIME respectively.  If not, see
  24:/opt/toolchains/arm-none-eabi/bin/../lib/gcc/arm-none-eabi/4.5.2/../../../../arm-none-eabi/include/c++/4.5.2/bits/allocator.h **** // <http://www.gnu.org/licenses/>.
  25:/opt/toolchains/arm-none-eabi/bin/../lib/gcc/arm-none-eabi/4.5.2/../../../../arm-none-eabi/include/c++/4.5.2/bits/allocator.h **** 
  26:/opt/toolchains/arm-none-eabi/bin/../lib/gcc/arm-none-eabi/4.5.2/../../../../arm-none-eabi/include/c++/4.5.2/bits/allocator.h **** /*
  27:/opt/toolchains/arm-none-eabi/bin/../lib/gcc/arm-none-eabi/4.5.2/../../../../arm-none-eabi/include/c++/4.5.2/bits/allocator.h ****  * Copyright (c) 1996-1997
  28:/opt/toolchains/arm-none-eabi/bin/../lib/gcc/arm-none-eabi/4.5.2/../../../../arm-none-eabi/include/c++/4.5.2/bits/allocator.h ****  * Silicon Graphics Computer Systems, Inc.
  29:/opt/toolchains/arm-none-eabi/bin/../lib/gcc/arm-none-eabi/4.5.2/../../../../arm-none-eabi/include/c++/4.5.2/bits/allocator.h ****  *
  30:/opt/toolchains/arm-none-eabi/bin/../lib/gcc/arm-none-eabi/4.5.2/../../../../arm-none-eabi/include/c++/4.5.2/bits/allocator.h ****  * Permission to use, copy, modify, distribute and sell this software
  31:/opt/toolchains/arm-none-eabi/bin/../lib/gcc/arm-none-eabi/4.5.2/../../../../arm-none-eabi/include/c++/4.5.2/bits/allocator.h ****  * and its documentation for any purpose is hereby granted without fee,
  32:/opt/toolchains/arm-none-eabi/bin/../lib/gcc/arm-none-eabi/4.5.2/../../../../arm-none-eabi/include/c++/4.5.2/bits/allocator.h ****  * provided that the above copyright notice appear in all copies and
  33:/opt/toolchains/arm-none-eabi/bin/../lib/gcc/arm-none-eabi/4.5.2/../../../../arm-none-eabi/include/c++/4.5.2/bits/allocator.h ****  * that both that copyright notice and this permission notice appear
  34:/opt/toolchains/arm-none-eabi/bin/../lib/gcc/arm-none-eabi/4.5.2/../../../../arm-none-eabi/include/c++/4.5.2/bits/allocator.h ****  * in supporting documentation.  Silicon Graphics makes no
  35:/opt/toolchains/arm-none-eabi/bin/../lib/gcc/arm-none-eabi/4.5.2/../../../../arm-none-eabi/include/c++/4.5.2/bits/allocator.h ****  * representations about the suitability of this software for any
  36:/opt/toolchains/arm-none-eabi/bin/../lib/gcc/arm-none-eabi/4.5.2/../../../../arm-none-eabi/include/c++/4.5.2/bits/allocator.h ****  * purpose.  It is provided "as is" without express or implied warranty.
  37:/opt/toolchains/arm-none-eabi/bin/../lib/gcc/arm-none-eabi/4.5.2/../../../../arm-none-eabi/include/c++/4.5.2/bits/allocator.h ****  */
  38:/opt/toolchains/arm-none-eabi/bin/../lib/gcc/arm-none-eabi/4.5.2/../../../../arm-none-eabi/include/c++/4.5.2/bits/allocator.h **** 
  39:/opt/toolchains/arm-none-eabi/bin/../lib/gcc/arm-none-eabi/4.5.2/../../../../arm-none-eabi/include/c++/4.5.2/bits/allocator.h **** /** @file allocator.h
  40:/opt/toolchains/arm-none-eabi/bin/../lib/gcc/arm-none-eabi/4.5.2/../../../../arm-none-eabi/include/c++/4.5.2/bits/allocator.h ****  *  This is an internal header file, included by other library headers.
  41:/opt/toolchains/arm-none-eabi/bin/../lib/gcc/arm-none-eabi/4.5.2/../../../../arm-none-eabi/include/c++/4.5.2/bits/allocator.h ****  *  You should not attempt to use it directly.
  42:/opt/toolchains/arm-none-eabi/bin/../lib/gcc/arm-none-eabi/4.5.2/../../../../arm-none-eabi/include/c++/4.5.2/bits/allocator.h ****  */
  43:/opt/toolchains/arm-none-eabi/bin/../lib/gcc/arm-none-eabi/4.5.2/../../../../arm-none-eabi/include/c++/4.5.2/bits/allocator.h **** 
  44:/opt/toolchains/arm-none-eabi/bin/../lib/gcc/arm-none-eabi/4.5.2/../../../../arm-none-eabi/include/c++/4.5.2/bits/allocator.h **** #ifndef _ALLOCATOR_H
  45:/opt/toolchains/arm-none-eabi/bin/../lib/gcc/arm-none-eabi/4.5.2/../../../../arm-none-eabi/include/c++/4.5.2/bits/allocator.h **** #define _ALLOCATOR_H 1
  46:/opt/toolchains/arm-none-eabi/bin/../lib/gcc/arm-none-eabi/4.5.2/../../../../arm-none-eabi/include/c++/4.5.2/bits/allocator.h **** 
  47:/opt/toolchains/arm-none-eabi/bin/../lib/gcc/arm-none-eabi/4.5.2/../../../../arm-none-eabi/include/c++/4.5.2/bits/allocator.h **** // Define the base class to std::allocator.
  48:/opt/toolchains/arm-none-eabi/bin/../lib/gcc/arm-none-eabi/4.5.2/../../../../arm-none-eabi/include/c++/4.5.2/bits/allocator.h **** #include <bits/c++allocator.h>
  49:/opt/toolchains/arm-none-eabi/bin/../lib/gcc/arm-none-eabi/4.5.2/../../../../arm-none-eabi/include/c++/4.5.2/bits/allocator.h **** 
  50:/opt/toolchains/arm-none-eabi/bin/../lib/gcc/arm-none-eabi/4.5.2/../../../../arm-none-eabi/include/c++/4.5.2/bits/allocator.h **** _GLIBCXX_BEGIN_NAMESPACE(std)
  51:/opt/toolchains/arm-none-eabi/bin/../lib/gcc/arm-none-eabi/4.5.2/../../../../arm-none-eabi/include/c++/4.5.2/bits/allocator.h **** 
  52:/opt/toolchains/arm-none-eabi/bin/../lib/gcc/arm-none-eabi/4.5.2/../../../../arm-none-eabi/include/c++/4.5.2/bits/allocator.h ****   /**
  53:/opt/toolchains/arm-none-eabi/bin/../lib/gcc/arm-none-eabi/4.5.2/../../../../arm-none-eabi/include/c++/4.5.2/bits/allocator.h ****    * @defgroup allocators Allocators
  54:/opt/toolchains/arm-none-eabi/bin/../lib/gcc/arm-none-eabi/4.5.2/../../../../arm-none-eabi/include/c++/4.5.2/bits/allocator.h ****    * @ingroup memory
  55:/opt/toolchains/arm-none-eabi/bin/../lib/gcc/arm-none-eabi/4.5.2/../../../../arm-none-eabi/include/c++/4.5.2/bits/allocator.h ****    *
  56:/opt/toolchains/arm-none-eabi/bin/../lib/gcc/arm-none-eabi/4.5.2/../../../../arm-none-eabi/include/c++/4.5.2/bits/allocator.h ****    * Classes encapsulating memory operations.
  57:/opt/toolchains/arm-none-eabi/bin/../lib/gcc/arm-none-eabi/4.5.2/../../../../arm-none-eabi/include/c++/4.5.2/bits/allocator.h ****    */
  58:/opt/toolchains/arm-none-eabi/bin/../lib/gcc/arm-none-eabi/4.5.2/../../../../arm-none-eabi/include/c++/4.5.2/bits/allocator.h **** 
  59:/opt/toolchains/arm-none-eabi/bin/../lib/gcc/arm-none-eabi/4.5.2/../../../../arm-none-eabi/include/c++/4.5.2/bits/allocator.h ****   template<typename _Tp>
  60:/opt/toolchains/arm-none-eabi/bin/../lib/gcc/arm-none-eabi/4.5.2/../../../../arm-none-eabi/include/c++/4.5.2/bits/allocator.h ****     class allocator;
  61:/opt/toolchains/arm-none-eabi/bin/../lib/gcc/arm-none-eabi/4.5.2/../../../../arm-none-eabi/include/c++/4.5.2/bits/allocator.h **** 
  62:/opt/toolchains/arm-none-eabi/bin/../lib/gcc/arm-none-eabi/4.5.2/../../../../arm-none-eabi/include/c++/4.5.2/bits/allocator.h ****   /// allocator<void> specialization.
  63:/opt/toolchains/arm-none-eabi/bin/../lib/gcc/arm-none-eabi/4.5.2/../../../../arm-none-eabi/include/c++/4.5.2/bits/allocator.h ****   template<>
  64:/opt/toolchains/arm-none-eabi/bin/../lib/gcc/arm-none-eabi/4.5.2/../../../../arm-none-eabi/include/c++/4.5.2/bits/allocator.h ****     class allocator<void>
  65:/opt/toolchains/arm-none-eabi/bin/../lib/gcc/arm-none-eabi/4.5.2/../../../../arm-none-eabi/include/c++/4.5.2/bits/allocator.h ****     {
  66:/opt/toolchains/arm-none-eabi/bin/../lib/gcc/arm-none-eabi/4.5.2/../../../../arm-none-eabi/include/c++/4.5.2/bits/allocator.h ****     public:
  67:/opt/toolchains/arm-none-eabi/bin/../lib/gcc/arm-none-eabi/4.5.2/../../../../arm-none-eabi/include/c++/4.5.2/bits/allocator.h ****       typedef size_t      size_type;
  68:/opt/toolchains/arm-none-eabi/bin/../lib/gcc/arm-none-eabi/4.5.2/../../../../arm-none-eabi/include/c++/4.5.2/bits/allocator.h ****       typedef ptrdiff_t   difference_type;
  69:/opt/toolchains/arm-none-eabi/bin/../lib/gcc/arm-none-eabi/4.5.2/../../../../arm-none-eabi/include/c++/4.5.2/bits/allocator.h ****       typedef void*       pointer;
  70:/opt/toolchains/arm-none-eabi/bin/../lib/gcc/arm-none-eabi/4.5.2/../../../../arm-none-eabi/include/c++/4.5.2/bits/allocator.h ****       typedef const void* const_pointer;
  71:/opt/toolchains/arm-none-eabi/bin/../lib/gcc/arm-none-eabi/4.5.2/../../../../arm-none-eabi/include/c++/4.5.2/bits/allocator.h ****       typedef void        value_type;
  72:/opt/toolchains/arm-none-eabi/bin/../lib/gcc/arm-none-eabi/4.5.2/../../../../arm-none-eabi/include/c++/4.5.2/bits/allocator.h **** 
  73:/opt/toolchains/arm-none-eabi/bin/../lib/gcc/arm-none-eabi/4.5.2/../../../../arm-none-eabi/include/c++/4.5.2/bits/allocator.h ****       template<typename _Tp1>
  74:/opt/toolchains/arm-none-eabi/bin/../lib/gcc/arm-none-eabi/4.5.2/../../../../arm-none-eabi/include/c++/4.5.2/bits/allocator.h ****         struct rebind
  75:/opt/toolchains/arm-none-eabi/bin/../lib/gcc/arm-none-eabi/4.5.2/../../../../arm-none-eabi/include/c++/4.5.2/bits/allocator.h ****         { typedef allocator<_Tp1> other; };
  76:/opt/toolchains/arm-none-eabi/bin/../lib/gcc/arm-none-eabi/4.5.2/../../../../arm-none-eabi/include/c++/4.5.2/bits/allocator.h ****     };
  77:/opt/toolchains/arm-none-eabi/bin/../lib/gcc/arm-none-eabi/4.5.2/../../../../arm-none-eabi/include/c++/4.5.2/bits/allocator.h **** 
  78:/opt/toolchains/arm-none-eabi/bin/../lib/gcc/arm-none-eabi/4.5.2/../../../../arm-none-eabi/include/c++/4.5.2/bits/allocator.h ****   /**
  79:/opt/toolchains/arm-none-eabi/bin/../lib/gcc/arm-none-eabi/4.5.2/../../../../arm-none-eabi/include/c++/4.5.2/bits/allocator.h ****    * @brief  The @a standard allocator, as per [20.4].
  80:/opt/toolchains/arm-none-eabi/bin/../lib/gcc/arm-none-eabi/4.5.2/../../../../arm-none-eabi/include/c++/4.5.2/bits/allocator.h ****    * @ingroup allocators
  81:/opt/toolchains/arm-none-eabi/bin/../lib/gcc/arm-none-eabi/4.5.2/../../../../arm-none-eabi/include/c++/4.5.2/bits/allocator.h ****    *
  82:/opt/toolchains/arm-none-eabi/bin/../lib/gcc/arm-none-eabi/4.5.2/../../../../arm-none-eabi/include/c++/4.5.2/bits/allocator.h ****    *  Further details:
  83:/opt/toolchains/arm-none-eabi/bin/../lib/gcc/arm-none-eabi/4.5.2/../../../../arm-none-eabi/include/c++/4.5.2/bits/allocator.h ****    *  http://gcc.gnu.org/onlinedocs/libstdc++/manual/bk01pt04ch11.html
  84:/opt/toolchains/arm-none-eabi/bin/../lib/gcc/arm-none-eabi/4.5.2/../../../../arm-none-eabi/include/c++/4.5.2/bits/allocator.h ****    */
  85:/opt/toolchains/arm-none-eabi/bin/../lib/gcc/arm-none-eabi/4.5.2/../../../../arm-none-eabi/include/c++/4.5.2/bits/allocator.h ****   template<typename _Tp>
  86:/opt/toolchains/arm-none-eabi/bin/../lib/gcc/arm-none-eabi/4.5.2/../../../../arm-none-eabi/include/c++/4.5.2/bits/allocator.h ****     class allocator: public __glibcxx_base_allocator<_Tp>
  87:/opt/toolchains/arm-none-eabi/bin/../lib/gcc/arm-none-eabi/4.5.2/../../../../arm-none-eabi/include/c++/4.5.2/bits/allocator.h ****     {
  88:/opt/toolchains/arm-none-eabi/bin/../lib/gcc/arm-none-eabi/4.5.2/../../../../arm-none-eabi/include/c++/4.5.2/bits/allocator.h ****    public:
  89:/opt/toolchains/arm-none-eabi/bin/../lib/gcc/arm-none-eabi/4.5.2/../../../../arm-none-eabi/include/c++/4.5.2/bits/allocator.h ****       typedef size_t     size_type;
  90:/opt/toolchains/arm-none-eabi/bin/../lib/gcc/arm-none-eabi/4.5.2/../../../../arm-none-eabi/include/c++/4.5.2/bits/allocator.h ****       typedef ptrdiff_t  difference_type;
  91:/opt/toolchains/arm-none-eabi/bin/../lib/gcc/arm-none-eabi/4.5.2/../../../../arm-none-eabi/include/c++/4.5.2/bits/allocator.h ****       typedef _Tp*       pointer;
  92:/opt/toolchains/arm-none-eabi/bin/../lib/gcc/arm-none-eabi/4.5.2/../../../../arm-none-eabi/include/c++/4.5.2/bits/allocator.h ****       typedef const _Tp* const_pointer;
  93:/opt/toolchains/arm-none-eabi/bin/../lib/gcc/arm-none-eabi/4.5.2/../../../../arm-none-eabi/include/c++/4.5.2/bits/allocator.h ****       typedef _Tp&       reference;
  94:/opt/toolchains/arm-none-eabi/bin/../lib/gcc/arm-none-eabi/4.5.2/../../../../arm-none-eabi/include/c++/4.5.2/bits/allocator.h ****       typedef const _Tp& const_reference;
  95:/opt/toolchains/arm-none-eabi/bin/../lib/gcc/arm-none-eabi/4.5.2/../../../../arm-none-eabi/include/c++/4.5.2/bits/allocator.h ****       typedef _Tp        value_type;
  96:/opt/toolchains/arm-none-eabi/bin/../lib/gcc/arm-none-eabi/4.5.2/../../../../arm-none-eabi/include/c++/4.5.2/bits/allocator.h **** 
  97:/opt/toolchains/arm-none-eabi/bin/../lib/gcc/arm-none-eabi/4.5.2/../../../../arm-none-eabi/include/c++/4.5.2/bits/allocator.h ****       template<typename _Tp1>
  98:/opt/toolchains/arm-none-eabi/bin/../lib/gcc/arm-none-eabi/4.5.2/../../../../arm-none-eabi/include/c++/4.5.2/bits/allocator.h ****         struct rebind
  99:/opt/toolchains/arm-none-eabi/bin/../lib/gcc/arm-none-eabi/4.5.2/../../../../arm-none-eabi/include/c++/4.5.2/bits/allocator.h ****         { typedef allocator<_Tp1> other; };
 100:/opt/toolchains/arm-none-eabi/bin/../lib/gcc/arm-none-eabi/4.5.2/../../../../arm-none-eabi/include/c++/4.5.2/bits/allocator.h **** 
 101:/opt/toolchains/arm-none-eabi/bin/../lib/gcc/arm-none-eabi/4.5.2/../../../../arm-none-eabi/include/c++/4.5.2/bits/allocator.h ****       allocator() throw() { }
 102:/opt/toolchains/arm-none-eabi/bin/../lib/gcc/arm-none-eabi/4.5.2/../../../../arm-none-eabi/include/c++/4.5.2/bits/allocator.h **** 
 103:/opt/toolchains/arm-none-eabi/bin/../lib/gcc/arm-none-eabi/4.5.2/../../../../arm-none-eabi/include/c++/4.5.2/bits/allocator.h ****       allocator(const allocator& __a) throw()
 104:/opt/toolchains/arm-none-eabi/bin/../lib/gcc/arm-none-eabi/4.5.2/../../../../arm-none-eabi/include/c++/4.5.2/bits/allocator.h ****       : __glibcxx_base_allocator<_Tp>(__a) { }
 105:/opt/toolchains/arm-none-eabi/bin/../lib/gcc/arm-none-eabi/4.5.2/../../../../arm-none-eabi/include/c++/4.5.2/bits/allocator.h **** 
 106:/opt/toolchains/arm-none-eabi/bin/../lib/gcc/arm-none-eabi/4.5.2/../../../../arm-none-eabi/include/c++/4.5.2/bits/allocator.h ****       template<typename _Tp1>
 107:/opt/toolchains/arm-none-eabi/bin/../lib/gcc/arm-none-eabi/4.5.2/../../../../arm-none-eabi/include/c++/4.5.2/bits/allocator.h ****         allocator(const allocator<_Tp1>&) throw() { }
 108:/opt/toolchains/arm-none-eabi/bin/../lib/gcc/arm-none-eabi/4.5.2/../../../../arm-none-eabi/include/c++/4.5.2/bits/allocator.h **** 
 109:/opt/toolchains/arm-none-eabi/bin/../lib/gcc/arm-none-eabi/4.5.2/../../../../arm-none-eabi/include/c++/4.5.2/bits/allocator.h ****       ~allocator() throw() { }
 5912              		.loc 23 109 0
 5913              		.cfi_startproc
 5914              		@ args = 0, pretend = 0, frame = 8
 5915              		@ frame_needed = 1, uses_anonymous_args = 0
 5916 0000 80B5     		push	{r7, lr}
 5917              	.LCFI126:
 5918              		.cfi_def_cfa_offset 8
 5919 0002 82B0     		sub	sp, sp, #8
 5920              	.LCFI127:
 5921              		.cfi_def_cfa_offset 16
 5922 0004 00AF     		add	r7, sp, #0
 5923              		.cfi_offset 14, -4
 5924              		.cfi_offset 7, -8
 5925              	.LCFI128:
 5926              		.cfi_def_cfa_register 7
 5927 0006 7860     		str	r0, [r7, #4]
 5928              	.LBB23:
 5929              		.loc 23 109 0
 5930 0008 7B68     		ldr	r3, [r7, #4]
 5931 000a 1846     		mov	r0, r3
 5932 000c FFF7FEFF 		bl	_ZN9__gnu_cxx13new_allocatorISt10_List_nodeIPN5Air3T5IViewEEED2Ev
 5933              	.LBE23:
 5934 0010 7B68     		ldr	r3, [r7, #4]
 5935 0012 1846     		mov	r0, r3
 5936 0014 07F10807 		add	r7, r7, #8
 5937 0018 BD46     		mov	sp, r7
 5938 001a 80BD     		pop	{r7, pc}
 5939              		.cfi_endproc
 5940              	.LFE951:
 5942              		.weak	_ZNSaISt10_List_nodeIPN5Air3T5IViewEEED1Ev
 5943              		.thumb_set _ZNSaISt10_List_nodeIPN5Air3T5IViewEEED1Ev,_ZNSaISt10_List_nodeIPN5Air3T5IViewEEED2Ev
 5944              		.section	.text._ZNSt10_List_baseIPN5Air3T5IViewESaIS2_EE8_M_clearEv,"axG",%progbits,_ZNSt10_List_b
 5945              		.align	2
 5946              		.weak	_ZNSt10_List_baseIPN5Air3T5IViewESaIS2_EE8_M_clearEv
 5947              		.thumb
 5948              		.thumb_func
 5950              	_ZNSt10_List_baseIPN5Air3T5IViewESaIS2_EE8_M_clearEv:
 5951              	.LFB953:
  64:/opt/toolchains/arm-none-eabi/bin/../lib/gcc/arm-none-eabi/4.5.2/../../../../arm-none-eabi/include/c++/4.5.2/bits/list.tcc ****     _List_base<_Tp, _Alloc>::
 5952              		.loc 30 64 0
 5953              		.cfi_startproc
 5954              		@ args = 0, pretend = 0, frame = 24
 5955              		@ frame_needed = 1, uses_anonymous_args = 0
 5956 0000 80B5     		push	{r7, lr}
 5957              	.LCFI129:
 5958              		.cfi_def_cfa_offset 8
 5959 0002 86B0     		sub	sp, sp, #24
 5960              	.LCFI130:
 5961              		.cfi_def_cfa_offset 32
 5962 0004 00AF     		add	r7, sp, #0
 5963              		.cfi_offset 14, -4
 5964              		.cfi_offset 7, -8
 5965              	.LCFI131:
 5966              		.cfi_def_cfa_register 7
 5967 0006 7860     		str	r0, [r7, #4]
 5968              	.LBB24:
  68:/opt/toolchains/arm-none-eabi/bin/../lib/gcc/arm-none-eabi/4.5.2/../../../../arm-none-eabi/include/c++/4.5.2/bits/list.tcc ****       _Node* __cur = static_cast<_Node*>(this->_M_impl._M_node._M_next);
 5969              		.loc 30 68 0
 5970 0008 7B68     		ldr	r3, [r7, #4]
 5971 000a 1B68     		ldr	r3, [r3, #0]
 5972 000c 7B61     		str	r3, [r7, #20]
  69:/opt/toolchains/arm-none-eabi/bin/../lib/gcc/arm-none-eabi/4.5.2/../../../../arm-none-eabi/include/c++/4.5.2/bits/list.tcc ****       while (__cur != &this->_M_impl._M_node)
 5973              		.loc 30 69 0
 5974 000e 1CE0     		b	.L78
 5975              	.L79:
 5976              	.LBB25:
  71:/opt/toolchains/arm-none-eabi/bin/../lib/gcc/arm-none-eabi/4.5.2/../../../../arm-none-eabi/include/c++/4.5.2/bits/list.tcc **** 	  _Node* __tmp = __cur;
 5977              		.loc 30 71 0
 5978 0010 7B69     		ldr	r3, [r7, #20]
 5979 0012 3B61     		str	r3, [r7, #16]
  72:/opt/toolchains/arm-none-eabi/bin/../lib/gcc/arm-none-eabi/4.5.2/../../../../arm-none-eabi/include/c++/4.5.2/bits/list.tcc **** 	  __cur = static_cast<_Node*>(__cur->_M_next);
 5980              		.loc 30 72 0
 5981 0014 7B69     		ldr	r3, [r7, #20]
 5982 0016 1B68     		ldr	r3, [r3, #0]
 5983 0018 7B61     		str	r3, [r7, #20]
  76:/opt/toolchains/arm-none-eabi/bin/../lib/gcc/arm-none-eabi/4.5.2/../../../../arm-none-eabi/include/c++/4.5.2/bits/list.tcc **** 	  _M_get_Tp_allocator().destroy(&__tmp->_M_data);
 5984              		.loc 30 76 0
 5985 001a 07F10C03 		add	r3, r7, #12
 5986 001e 1846     		mov	r0, r3
 5987 0020 7968     		ldr	r1, [r7, #4]
 5988 0022 FFF7FEFF 		bl	_ZNKSt10_List_baseIPN5Air3T5IViewESaIS2_EE19_M_get_Tp_allocatorEv
 5989 0026 07F10C02 		add	r2, r7, #12
 5990 002a 3B69     		ldr	r3, [r7, #16]
 5991 002c 03F10803 		add	r3, r3, #8
 5992 0030 1046     		mov	r0, r2
 5993 0032 1946     		mov	r1, r3
 5994 0034 FFF7FEFF 		bl	_ZN9__gnu_cxx13new_allocatorIPN5Air3T5IViewEE7destroyEPS3_
 5995 0038 07F10C03 		add	r3, r7, #12
 5996 003c 1846     		mov	r0, r3
 5997 003e FFF7FEFF 		bl	_ZNSaIPN5Air3T5IViewEED1Ev
  78:/opt/toolchains/arm-none-eabi/bin/../lib/gcc/arm-none-eabi/4.5.2/../../../../arm-none-eabi/include/c++/4.5.2/bits/list.tcc **** 	  _M_put_node(__tmp);
 5998              		.loc 30 78 0
 5999 0042 7868     		ldr	r0, [r7, #4]
 6000 0044 3969     		ldr	r1, [r7, #16]
 6001 0046 FFF7FEFF 		bl	_ZNSt10_List_baseIPN5Air3T5IViewESaIS2_EE11_M_put_nodeEPSt10_List_nodeIS2_E
 6002              	.L78:
 6003              	.LBE25:
  69:/opt/toolchains/arm-none-eabi/bin/../lib/gcc/arm-none-eabi/4.5.2/../../../../arm-none-eabi/include/c++/4.5.2/bits/list.tcc ****       while (__cur != &this->_M_impl._M_node)
 6004              		.loc 30 69 0 discriminator 1
 6005 004a 7A68     		ldr	r2, [r7, #4]
 6006 004c 7B69     		ldr	r3, [r7, #20]
 6007 004e 9A42     		cmp	r2, r3
 6008 0050 0CBF     		ite	eq
 6009 0052 0023     		moveq	r3, #0
 6010 0054 0123     		movne	r3, #1
 6011 0056 DBB2     		uxtb	r3, r3
 6012 0058 002B     		cmp	r3, #0
 6013 005a D9D1     		bne	.L79
 6014              	.LBE24:
  80:/opt/toolchains/arm-none-eabi/bin/../lib/gcc/arm-none-eabi/4.5.2/../../../../arm-none-eabi/include/c++/4.5.2/bits/list.tcc ****     }
 6015              		.loc 30 80 0
 6016 005c 07F11807 		add	r7, r7, #24
 6017 0060 BD46     		mov	sp, r7
 6018 0062 80BD     		pop	{r7, pc}
 6019              		.cfi_endproc
 6020              	.LFE953:
 6022              		.section	.text._ZNSt10_List_baseIN5Air3T6PlayerESaIS1_EEC2Ev,"axG",%progbits,_ZNSt10_List_baseIN5A
 6023              		.align	2
 6024              		.weak	_ZNSt10_List_baseIN5Air3T6PlayerESaIS1_EEC2Ev
 6025              		.thumb
 6026              		.thumb_func
 6028              	_ZNSt10_List_baseIN5Air3T6PlayerESaIS1_EEC2Ev:
 6029              	.LFB955:
 341:/opt/toolchains/arm-none-eabi/bin/../lib/gcc/arm-none-eabi/4.5.2/../../../../arm-none-eabi/include/c++/4.5.2/bits/stl_list.h ****       _List_base()
 6030              		.loc 28 341 0
 6031              		.cfi_startproc
 6032              		@ args = 0, pretend = 0, frame = 8
 6033              		@ frame_needed = 1, uses_anonymous_args = 0
 6034 0000 80B5     		push	{r7, lr}
 6035              	.LCFI132:
 6036              		.cfi_def_cfa_offset 8
 6037 0002 82B0     		sub	sp, sp, #8
 6038              	.LCFI133:
 6039              		.cfi_def_cfa_offset 16
 6040 0004 00AF     		add	r7, sp, #0
 6041              		.cfi_offset 14, -4
 6042              		.cfi_offset 7, -8
 6043              	.LCFI134:
 6044              		.cfi_def_cfa_register 7
 6045 0006 7860     		str	r0, [r7, #4]
 6046              	.LBB26:
 342:/opt/toolchains/arm-none-eabi/bin/../lib/gcc/arm-none-eabi/4.5.2/../../../../arm-none-eabi/include/c++/4.5.2/bits/stl_list.h ****       : _M_impl()
 6047              		.loc 28 342 0
 6048 0008 7B68     		ldr	r3, [r7, #4]
 6049 000a 1846     		mov	r0, r3
 6050 000c FFF7FEFF 		bl	_ZNSt10_List_baseIN5Air3T6PlayerESaIS1_EE10_List_implC1Ev
 343:/opt/toolchains/arm-none-eabi/bin/../lib/gcc/arm-none-eabi/4.5.2/../../../../arm-none-eabi/include/c++/4.5.2/bits/stl_list.h ****       { _M_init(); }
 6051              		.loc 28 343 0
 6052 0010 7868     		ldr	r0, [r7, #4]
 6053 0012 FFF7FEFF 		bl	_ZNSt10_List_baseIN5Air3T6PlayerESaIS1_EE7_M_initEv
 6054              	.LBE26:
 6055 0016 7B68     		ldr	r3, [r7, #4]
 6056 0018 1846     		mov	r0, r3
 6057 001a 07F10807 		add	r7, r7, #8
 6058 001e BD46     		mov	sp, r7
 6059 0020 80BD     		pop	{r7, pc}
 6060              		.cfi_endproc
 6061              	.LFE955:
 6063              		.weak	_ZNSt10_List_baseIN5Air3T6PlayerESaIS1_EEC1Ev
 6064              		.thumb_set _ZNSt10_List_baseIN5Air3T6PlayerESaIS1_EEC1Ev,_ZNSt10_List_baseIN5Air3T6PlayerESaIS1_EE
 6065 0022 00BF     		.section	.text._ZNSaISt10_List_nodeIN5Air3T6PlayerEEED2Ev,"axG",%progbits,_ZNSaISt10_List_nodeIN5A
 6066              		.align	2
 6067              		.weak	_ZNSaISt10_List_nodeIN5Air3T6PlayerEEED2Ev
 6068              		.thumb
 6069              		.thumb_func
 6071              	_ZNSaISt10_List_nodeIN5Air3T6PlayerEEED2Ev:
 6072              	.LFB958:
 6073              		.loc 23 109 0
 6074              		.cfi_startproc
 6075              		@ args = 0, pretend = 0, frame = 8
 6076              		@ frame_needed = 1, uses_anonymous_args = 0
 6077 0000 80B5     		push	{r7, lr}
 6078              	.LCFI135:
 6079              		.cfi_def_cfa_offset 8
 6080 0002 82B0     		sub	sp, sp, #8
 6081              	.LCFI136:
 6082              		.cfi_def_cfa_offset 16
 6083 0004 00AF     		add	r7, sp, #0
 6084              		.cfi_offset 14, -4
 6085              		.cfi_offset 7, -8
 6086              	.LCFI137:
 6087              		.cfi_def_cfa_register 7
 6088 0006 7860     		str	r0, [r7, #4]
 6089              	.LBB27:
 6090              		.loc 23 109 0
 6091 0008 7B68     		ldr	r3, [r7, #4]
 6092 000a 1846     		mov	r0, r3
 6093 000c FFF7FEFF 		bl	_ZN9__gnu_cxx13new_allocatorISt10_List_nodeIN5Air3T6PlayerEEED2Ev
 6094              	.LBE27:
 6095 0010 7B68     		ldr	r3, [r7, #4]
 6096 0012 1846     		mov	r0, r3
 6097 0014 07F10807 		add	r7, r7, #8
 6098 0018 BD46     		mov	sp, r7
 6099 001a 80BD     		pop	{r7, pc}
 6100              		.cfi_endproc
 6101              	.LFE958:
 6103              		.weak	_ZNSaISt10_List_nodeIN5Air3T6PlayerEEED1Ev
 6104              		.thumb_set _ZNSaISt10_List_nodeIN5Air3T6PlayerEEED1Ev,_ZNSaISt10_List_nodeIN5Air3T6PlayerEEED2Ev
 6105              		.section	.text._ZNSt10_List_baseIN5Air3T6PlayerESaIS1_EE8_M_clearEv,"axG",%progbits,_ZNSt10_List_b
 6106              		.align	2
 6107              		.weak	_ZNSt10_List_baseIN5Air3T6PlayerESaIS1_EE8_M_clearEv
 6108              		.thumb
 6109              		.thumb_func
 6111              	_ZNSt10_List_baseIN5Air3T6PlayerESaIS1_EE8_M_clearEv:
 6112              	.LFB960:
  64:/opt/toolchains/arm-none-eabi/bin/../lib/gcc/arm-none-eabi/4.5.2/../../../../arm-none-eabi/include/c++/4.5.2/bits/list.tcc ****     _List_base<_Tp, _Alloc>::
 6113              		.loc 30 64 0
 6114              		.cfi_startproc
 6115              		@ args = 0, pretend = 0, frame = 24
 6116              		@ frame_needed = 1, uses_anonymous_args = 0
 6117 0000 80B5     		push	{r7, lr}
 6118              	.LCFI138:
 6119              		.cfi_def_cfa_offset 8
 6120 0002 86B0     		sub	sp, sp, #24
 6121              	.LCFI139:
 6122              		.cfi_def_cfa_offset 32
 6123 0004 00AF     		add	r7, sp, #0
 6124              		.cfi_offset 14, -4
 6125              		.cfi_offset 7, -8
 6126              	.LCFI140:
 6127              		.cfi_def_cfa_register 7
 6128 0006 7860     		str	r0, [r7, #4]
 6129              	.LBB28:
  68:/opt/toolchains/arm-none-eabi/bin/../lib/gcc/arm-none-eabi/4.5.2/../../../../arm-none-eabi/include/c++/4.5.2/bits/list.tcc ****       _Node* __cur = static_cast<_Node*>(this->_M_impl._M_node._M_next);
 6130              		.loc 30 68 0
 6131 0008 7B68     		ldr	r3, [r7, #4]
 6132 000a 1B68     		ldr	r3, [r3, #0]
 6133 000c 7B61     		str	r3, [r7, #20]
  69:/opt/toolchains/arm-none-eabi/bin/../lib/gcc/arm-none-eabi/4.5.2/../../../../arm-none-eabi/include/c++/4.5.2/bits/list.tcc ****       while (__cur != &this->_M_impl._M_node)
 6134              		.loc 30 69 0
 6135 000e 1CE0     		b	.L85
 6136              	.L86:
 6137              	.LBB29:
  71:/opt/toolchains/arm-none-eabi/bin/../lib/gcc/arm-none-eabi/4.5.2/../../../../arm-none-eabi/include/c++/4.5.2/bits/list.tcc **** 	  _Node* __tmp = __cur;
 6138              		.loc 30 71 0
 6139 0010 7B69     		ldr	r3, [r7, #20]
 6140 0012 3B61     		str	r3, [r7, #16]
  72:/opt/toolchains/arm-none-eabi/bin/../lib/gcc/arm-none-eabi/4.5.2/../../../../arm-none-eabi/include/c++/4.5.2/bits/list.tcc **** 	  __cur = static_cast<_Node*>(__cur->_M_next);
 6141              		.loc 30 72 0
 6142 0014 7B69     		ldr	r3, [r7, #20]
 6143 0016 1B68     		ldr	r3, [r3, #0]
 6144 0018 7B61     		str	r3, [r7, #20]
  76:/opt/toolchains/arm-none-eabi/bin/../lib/gcc/arm-none-eabi/4.5.2/../../../../arm-none-eabi/include/c++/4.5.2/bits/list.tcc **** 	  _M_get_Tp_allocator().destroy(&__tmp->_M_data);
 6145              		.loc 30 76 0
 6146 001a 07F10C03 		add	r3, r7, #12
 6147 001e 1846     		mov	r0, r3
 6148 0020 7968     		ldr	r1, [r7, #4]
 6149 0022 FFF7FEFF 		bl	_ZNKSt10_List_baseIN5Air3T6PlayerESaIS1_EE19_M_get_Tp_allocatorEv
 6150 0026 07F10C02 		add	r2, r7, #12
 6151 002a 3B69     		ldr	r3, [r7, #16]
 6152 002c 03F10803 		add	r3, r3, #8
 6153 0030 1046     		mov	r0, r2
 6154 0032 1946     		mov	r1, r3
 6155 0034 FFF7FEFF 		bl	_ZN9__gnu_cxx13new_allocatorIN5Air3T6PlayerEE7destroyEPS2_
 6156 0038 07F10C03 		add	r3, r7, #12
 6157 003c 1846     		mov	r0, r3
 6158 003e FFF7FEFF 		bl	_ZNSaIN5Air3T6PlayerEED1Ev
  78:/opt/toolchains/arm-none-eabi/bin/../lib/gcc/arm-none-eabi/4.5.2/../../../../arm-none-eabi/include/c++/4.5.2/bits/list.tcc **** 	  _M_put_node(__tmp);
 6159              		.loc 30 78 0
 6160 0042 7868     		ldr	r0, [r7, #4]
 6161 0044 3969     		ldr	r1, [r7, #16]
 6162 0046 FFF7FEFF 		bl	_ZNSt10_List_baseIN5Air3T6PlayerESaIS1_EE11_M_put_nodeEPSt10_List_nodeIS1_E
 6163              	.L85:
 6164              	.LBE29:
  69:/opt/toolchains/arm-none-eabi/bin/../lib/gcc/arm-none-eabi/4.5.2/../../../../arm-none-eabi/include/c++/4.5.2/bits/list.tcc ****       while (__cur != &this->_M_impl._M_node)
 6165              		.loc 30 69 0 discriminator 1
 6166 004a 7A68     		ldr	r2, [r7, #4]
 6167 004c 7B69     		ldr	r3, [r7, #20]
 6168 004e 9A42     		cmp	r2, r3
 6169 0050 0CBF     		ite	eq
 6170 0052 0023     		moveq	r3, #0
 6171 0054 0123     		movne	r3, #1
 6172 0056 DBB2     		uxtb	r3, r3
 6173 0058 002B     		cmp	r3, #0
 6174 005a D9D1     		bne	.L86
 6175              	.LBE28:
  80:/opt/toolchains/arm-none-eabi/bin/../lib/gcc/arm-none-eabi/4.5.2/../../../../arm-none-eabi/include/c++/4.5.2/bits/list.tcc ****     }
 6176              		.loc 30 80 0
 6177 005c 07F11807 		add	r7, r7, #24
 6178 0060 BD46     		mov	sp, r7
 6179 0062 80BD     		pop	{r7, pc}
 6180              		.cfi_endproc
 6181              	.LFE960:
 6183              		.section	.text._ZNSt4listIPN5Air3T5IViewESaIS2_EE9_M_insertESt14_List_iteratorIS2_ERKS2_,"axG",%pr
 6184              		.align	2
 6185              		.weak	_ZNSt4listIPN5Air3T5IViewESaIS2_EE9_M_insertESt14_List_iteratorIS2_ERKS2_
 6186              		.thumb
 6187              		.thumb_func
 6189              	_ZNSt4listIPN5Air3T5IViewESaIS2_EE9_M_insertESt14_List_iteratorIS2_ERKS2_:
 6190              	.LFB961:
1132:/opt/toolchains/arm-none-eabi/bin/../lib/gcc/arm-none-eabi/4.5.2/../../../../arm-none-eabi/include/c++/4.5.2/bits/stl_list.h **** 
1133:/opt/toolchains/arm-none-eabi/bin/../lib/gcc/arm-none-eabi/4.5.2/../../../../arm-none-eabi/include/c++/4.5.2/bits/stl_list.h ****       // [23.2.2.4] list operations
1134:/opt/toolchains/arm-none-eabi/bin/../lib/gcc/arm-none-eabi/4.5.2/../../../../arm-none-eabi/include/c++/4.5.2/bits/stl_list.h ****       /**
1135:/opt/toolchains/arm-none-eabi/bin/../lib/gcc/arm-none-eabi/4.5.2/../../../../arm-none-eabi/include/c++/4.5.2/bits/stl_list.h ****        *  @brief  Insert contents of another %list.
1136:/opt/toolchains/arm-none-eabi/bin/../lib/gcc/arm-none-eabi/4.5.2/../../../../arm-none-eabi/include/c++/4.5.2/bits/stl_list.h ****        *  @param  position  Iterator referencing the element to insert before.
1137:/opt/toolchains/arm-none-eabi/bin/../lib/gcc/arm-none-eabi/4.5.2/../../../../arm-none-eabi/include/c++/4.5.2/bits/stl_list.h ****        *  @param  x  Source list.
1138:/opt/toolchains/arm-none-eabi/bin/../lib/gcc/arm-none-eabi/4.5.2/../../../../arm-none-eabi/include/c++/4.5.2/bits/stl_list.h ****        *
1139:/opt/toolchains/arm-none-eabi/bin/../lib/gcc/arm-none-eabi/4.5.2/../../../../arm-none-eabi/include/c++/4.5.2/bits/stl_list.h ****        *  The elements of @a x are inserted in constant time in front of
1140:/opt/toolchains/arm-none-eabi/bin/../lib/gcc/arm-none-eabi/4.5.2/../../../../arm-none-eabi/include/c++/4.5.2/bits/stl_list.h ****        *  the element referenced by @a position.  @a x becomes an empty
1141:/opt/toolchains/arm-none-eabi/bin/../lib/gcc/arm-none-eabi/4.5.2/../../../../arm-none-eabi/include/c++/4.5.2/bits/stl_list.h ****        *  list.
1142:/opt/toolchains/arm-none-eabi/bin/../lib/gcc/arm-none-eabi/4.5.2/../../../../arm-none-eabi/include/c++/4.5.2/bits/stl_list.h ****        *
1143:/opt/toolchains/arm-none-eabi/bin/../lib/gcc/arm-none-eabi/4.5.2/../../../../arm-none-eabi/include/c++/4.5.2/bits/stl_list.h ****        *  Requires this != @a x.
1144:/opt/toolchains/arm-none-eabi/bin/../lib/gcc/arm-none-eabi/4.5.2/../../../../arm-none-eabi/include/c++/4.5.2/bits/stl_list.h ****        */
1145:/opt/toolchains/arm-none-eabi/bin/../lib/gcc/arm-none-eabi/4.5.2/../../../../arm-none-eabi/include/c++/4.5.2/bits/stl_list.h ****       void
1146:/opt/toolchains/arm-none-eabi/bin/../lib/gcc/arm-none-eabi/4.5.2/../../../../arm-none-eabi/include/c++/4.5.2/bits/stl_list.h **** #ifdef __GXX_EXPERIMENTAL_CXX0X__
1147:/opt/toolchains/arm-none-eabi/bin/../lib/gcc/arm-none-eabi/4.5.2/../../../../arm-none-eabi/include/c++/4.5.2/bits/stl_list.h ****       splice(iterator __position, list&& __x)
1148:/opt/toolchains/arm-none-eabi/bin/../lib/gcc/arm-none-eabi/4.5.2/../../../../arm-none-eabi/include/c++/4.5.2/bits/stl_list.h **** #else
1149:/opt/toolchains/arm-none-eabi/bin/../lib/gcc/arm-none-eabi/4.5.2/../../../../arm-none-eabi/include/c++/4.5.2/bits/stl_list.h ****       splice(iterator __position, list& __x)
1150:/opt/toolchains/arm-none-eabi/bin/../lib/gcc/arm-none-eabi/4.5.2/../../../../arm-none-eabi/include/c++/4.5.2/bits/stl_list.h **** #endif
1151:/opt/toolchains/arm-none-eabi/bin/../lib/gcc/arm-none-eabi/4.5.2/../../../../arm-none-eabi/include/c++/4.5.2/bits/stl_list.h ****       {
1152:/opt/toolchains/arm-none-eabi/bin/../lib/gcc/arm-none-eabi/4.5.2/../../../../arm-none-eabi/include/c++/4.5.2/bits/stl_list.h **** 	if (!__x.empty())
1153:/opt/toolchains/arm-none-eabi/bin/../lib/gcc/arm-none-eabi/4.5.2/../../../../arm-none-eabi/include/c++/4.5.2/bits/stl_list.h **** 	  {
1154:/opt/toolchains/arm-none-eabi/bin/../lib/gcc/arm-none-eabi/4.5.2/../../../../arm-none-eabi/include/c++/4.5.2/bits/stl_list.h **** 	    _M_check_equal_allocators(__x);
1155:/opt/toolchains/arm-none-eabi/bin/../lib/gcc/arm-none-eabi/4.5.2/../../../../arm-none-eabi/include/c++/4.5.2/bits/stl_list.h **** 
1156:/opt/toolchains/arm-none-eabi/bin/../lib/gcc/arm-none-eabi/4.5.2/../../../../arm-none-eabi/include/c++/4.5.2/bits/stl_list.h **** 	    this->_M_transfer(__position, __x.begin(), __x.end());
1157:/opt/toolchains/arm-none-eabi/bin/../lib/gcc/arm-none-eabi/4.5.2/../../../../arm-none-eabi/include/c++/4.5.2/bits/stl_list.h **** 	  }
1158:/opt/toolchains/arm-none-eabi/bin/../lib/gcc/arm-none-eabi/4.5.2/../../../../arm-none-eabi/include/c++/4.5.2/bits/stl_list.h ****       }
1159:/opt/toolchains/arm-none-eabi/bin/../lib/gcc/arm-none-eabi/4.5.2/../../../../arm-none-eabi/include/c++/4.5.2/bits/stl_list.h **** 
1160:/opt/toolchains/arm-none-eabi/bin/../lib/gcc/arm-none-eabi/4.5.2/../../../../arm-none-eabi/include/c++/4.5.2/bits/stl_list.h **** #ifdef __GXX_EXPERIMENTAL_CXX0X__
1161:/opt/toolchains/arm-none-eabi/bin/../lib/gcc/arm-none-eabi/4.5.2/../../../../arm-none-eabi/include/c++/4.5.2/bits/stl_list.h ****       void
1162:/opt/toolchains/arm-none-eabi/bin/../lib/gcc/arm-none-eabi/4.5.2/../../../../arm-none-eabi/include/c++/4.5.2/bits/stl_list.h ****       splice(iterator __position, list& __x)
1163:/opt/toolchains/arm-none-eabi/bin/../lib/gcc/arm-none-eabi/4.5.2/../../../../arm-none-eabi/include/c++/4.5.2/bits/stl_list.h ****       { splice(__position, std::move(__x)); }
1164:/opt/toolchains/arm-none-eabi/bin/../lib/gcc/arm-none-eabi/4.5.2/../../../../arm-none-eabi/include/c++/4.5.2/bits/stl_list.h **** #endif
1165:/opt/toolchains/arm-none-eabi/bin/../lib/gcc/arm-none-eabi/4.5.2/../../../../arm-none-eabi/include/c++/4.5.2/bits/stl_list.h **** 
1166:/opt/toolchains/arm-none-eabi/bin/../lib/gcc/arm-none-eabi/4.5.2/../../../../arm-none-eabi/include/c++/4.5.2/bits/stl_list.h ****       /**
1167:/opt/toolchains/arm-none-eabi/bin/../lib/gcc/arm-none-eabi/4.5.2/../../../../arm-none-eabi/include/c++/4.5.2/bits/stl_list.h ****        *  @brief  Insert element from another %list.
1168:/opt/toolchains/arm-none-eabi/bin/../lib/gcc/arm-none-eabi/4.5.2/../../../../arm-none-eabi/include/c++/4.5.2/bits/stl_list.h ****        *  @param  position  Iterator referencing the element to insert before.
1169:/opt/toolchains/arm-none-eabi/bin/../lib/gcc/arm-none-eabi/4.5.2/../../../../arm-none-eabi/include/c++/4.5.2/bits/stl_list.h ****        *  @param  x  Source list.
1170:/opt/toolchains/arm-none-eabi/bin/../lib/gcc/arm-none-eabi/4.5.2/../../../../arm-none-eabi/include/c++/4.5.2/bits/stl_list.h ****        *  @param  i  Iterator referencing the element to move.
1171:/opt/toolchains/arm-none-eabi/bin/../lib/gcc/arm-none-eabi/4.5.2/../../../../arm-none-eabi/include/c++/4.5.2/bits/stl_list.h ****        *
1172:/opt/toolchains/arm-none-eabi/bin/../lib/gcc/arm-none-eabi/4.5.2/../../../../arm-none-eabi/include/c++/4.5.2/bits/stl_list.h ****        *  Removes the element in list @a x referenced by @a i and
1173:/opt/toolchains/arm-none-eabi/bin/../lib/gcc/arm-none-eabi/4.5.2/../../../../arm-none-eabi/include/c++/4.5.2/bits/stl_list.h ****        *  inserts it into the current list before @a position.
1174:/opt/toolchains/arm-none-eabi/bin/../lib/gcc/arm-none-eabi/4.5.2/../../../../arm-none-eabi/include/c++/4.5.2/bits/stl_list.h ****        */
1175:/opt/toolchains/arm-none-eabi/bin/../lib/gcc/arm-none-eabi/4.5.2/../../../../arm-none-eabi/include/c++/4.5.2/bits/stl_list.h ****       void
1176:/opt/toolchains/arm-none-eabi/bin/../lib/gcc/arm-none-eabi/4.5.2/../../../../arm-none-eabi/include/c++/4.5.2/bits/stl_list.h **** #ifdef __GXX_EXPERIMENTAL_CXX0X__
1177:/opt/toolchains/arm-none-eabi/bin/../lib/gcc/arm-none-eabi/4.5.2/../../../../arm-none-eabi/include/c++/4.5.2/bits/stl_list.h ****       splice(iterator __position, list&& __x, iterator __i)
1178:/opt/toolchains/arm-none-eabi/bin/../lib/gcc/arm-none-eabi/4.5.2/../../../../arm-none-eabi/include/c++/4.5.2/bits/stl_list.h **** #else
1179:/opt/toolchains/arm-none-eabi/bin/../lib/gcc/arm-none-eabi/4.5.2/../../../../arm-none-eabi/include/c++/4.5.2/bits/stl_list.h ****       splice(iterator __position, list& __x, iterator __i)
1180:/opt/toolchains/arm-none-eabi/bin/../lib/gcc/arm-none-eabi/4.5.2/../../../../arm-none-eabi/include/c++/4.5.2/bits/stl_list.h **** #endif
1181:/opt/toolchains/arm-none-eabi/bin/../lib/gcc/arm-none-eabi/4.5.2/../../../../arm-none-eabi/include/c++/4.5.2/bits/stl_list.h ****       {
1182:/opt/toolchains/arm-none-eabi/bin/../lib/gcc/arm-none-eabi/4.5.2/../../../../arm-none-eabi/include/c++/4.5.2/bits/stl_list.h **** 	iterator __j = __i;
1183:/opt/toolchains/arm-none-eabi/bin/../lib/gcc/arm-none-eabi/4.5.2/../../../../arm-none-eabi/include/c++/4.5.2/bits/stl_list.h **** 	++__j;
1184:/opt/toolchains/arm-none-eabi/bin/../lib/gcc/arm-none-eabi/4.5.2/../../../../arm-none-eabi/include/c++/4.5.2/bits/stl_list.h **** 	if (__position == __i || __position == __j)
1185:/opt/toolchains/arm-none-eabi/bin/../lib/gcc/arm-none-eabi/4.5.2/../../../../arm-none-eabi/include/c++/4.5.2/bits/stl_list.h **** 	  return;
1186:/opt/toolchains/arm-none-eabi/bin/../lib/gcc/arm-none-eabi/4.5.2/../../../../arm-none-eabi/include/c++/4.5.2/bits/stl_list.h **** 
1187:/opt/toolchains/arm-none-eabi/bin/../lib/gcc/arm-none-eabi/4.5.2/../../../../arm-none-eabi/include/c++/4.5.2/bits/stl_list.h **** 	if (this != &__x)
1188:/opt/toolchains/arm-none-eabi/bin/../lib/gcc/arm-none-eabi/4.5.2/../../../../arm-none-eabi/include/c++/4.5.2/bits/stl_list.h **** 	  _M_check_equal_allocators(__x);
1189:/opt/toolchains/arm-none-eabi/bin/../lib/gcc/arm-none-eabi/4.5.2/../../../../arm-none-eabi/include/c++/4.5.2/bits/stl_list.h **** 
1190:/opt/toolchains/arm-none-eabi/bin/../lib/gcc/arm-none-eabi/4.5.2/../../../../arm-none-eabi/include/c++/4.5.2/bits/stl_list.h **** 	this->_M_transfer(__position, __i, __j);
1191:/opt/toolchains/arm-none-eabi/bin/../lib/gcc/arm-none-eabi/4.5.2/../../../../arm-none-eabi/include/c++/4.5.2/bits/stl_list.h ****       }
1192:/opt/toolchains/arm-none-eabi/bin/../lib/gcc/arm-none-eabi/4.5.2/../../../../arm-none-eabi/include/c++/4.5.2/bits/stl_list.h **** 
1193:/opt/toolchains/arm-none-eabi/bin/../lib/gcc/arm-none-eabi/4.5.2/../../../../arm-none-eabi/include/c++/4.5.2/bits/stl_list.h **** #ifdef __GXX_EXPERIMENTAL_CXX0X__
1194:/opt/toolchains/arm-none-eabi/bin/../lib/gcc/arm-none-eabi/4.5.2/../../../../arm-none-eabi/include/c++/4.5.2/bits/stl_list.h ****       void
1195:/opt/toolchains/arm-none-eabi/bin/../lib/gcc/arm-none-eabi/4.5.2/../../../../arm-none-eabi/include/c++/4.5.2/bits/stl_list.h ****       splice(iterator __position, list& __x, iterator __i)
1196:/opt/toolchains/arm-none-eabi/bin/../lib/gcc/arm-none-eabi/4.5.2/../../../../arm-none-eabi/include/c++/4.5.2/bits/stl_list.h ****       { splice(__position, std::move(__x), __i); }
1197:/opt/toolchains/arm-none-eabi/bin/../lib/gcc/arm-none-eabi/4.5.2/../../../../arm-none-eabi/include/c++/4.5.2/bits/stl_list.h **** #endif
1198:/opt/toolchains/arm-none-eabi/bin/../lib/gcc/arm-none-eabi/4.5.2/../../../../arm-none-eabi/include/c++/4.5.2/bits/stl_list.h **** 
1199:/opt/toolchains/arm-none-eabi/bin/../lib/gcc/arm-none-eabi/4.5.2/../../../../arm-none-eabi/include/c++/4.5.2/bits/stl_list.h ****       /**
1200:/opt/toolchains/arm-none-eabi/bin/../lib/gcc/arm-none-eabi/4.5.2/../../../../arm-none-eabi/include/c++/4.5.2/bits/stl_list.h ****        *  @brief  Insert range from another %list.
1201:/opt/toolchains/arm-none-eabi/bin/../lib/gcc/arm-none-eabi/4.5.2/../../../../arm-none-eabi/include/c++/4.5.2/bits/stl_list.h ****        *  @param  position  Iterator referencing the element to insert before.
1202:/opt/toolchains/arm-none-eabi/bin/../lib/gcc/arm-none-eabi/4.5.2/../../../../arm-none-eabi/include/c++/4.5.2/bits/stl_list.h ****        *  @param  x  Source list.
1203:/opt/toolchains/arm-none-eabi/bin/../lib/gcc/arm-none-eabi/4.5.2/../../../../arm-none-eabi/include/c++/4.5.2/bits/stl_list.h ****        *  @param  first  Iterator referencing the start of range in x.
1204:/opt/toolchains/arm-none-eabi/bin/../lib/gcc/arm-none-eabi/4.5.2/../../../../arm-none-eabi/include/c++/4.5.2/bits/stl_list.h ****        *  @param  last  Iterator referencing the end of range in x.
1205:/opt/toolchains/arm-none-eabi/bin/../lib/gcc/arm-none-eabi/4.5.2/../../../../arm-none-eabi/include/c++/4.5.2/bits/stl_list.h ****        *
1206:/opt/toolchains/arm-none-eabi/bin/../lib/gcc/arm-none-eabi/4.5.2/../../../../arm-none-eabi/include/c++/4.5.2/bits/stl_list.h ****        *  Removes elements in the range [first,last) and inserts them
1207:/opt/toolchains/arm-none-eabi/bin/../lib/gcc/arm-none-eabi/4.5.2/../../../../arm-none-eabi/include/c++/4.5.2/bits/stl_list.h ****        *  before @a position in constant time.
1208:/opt/toolchains/arm-none-eabi/bin/../lib/gcc/arm-none-eabi/4.5.2/../../../../arm-none-eabi/include/c++/4.5.2/bits/stl_list.h ****        *
1209:/opt/toolchains/arm-none-eabi/bin/../lib/gcc/arm-none-eabi/4.5.2/../../../../arm-none-eabi/include/c++/4.5.2/bits/stl_list.h ****        *  Undefined if @a position is in [first,last).
1210:/opt/toolchains/arm-none-eabi/bin/../lib/gcc/arm-none-eabi/4.5.2/../../../../arm-none-eabi/include/c++/4.5.2/bits/stl_list.h ****        */
1211:/opt/toolchains/arm-none-eabi/bin/../lib/gcc/arm-none-eabi/4.5.2/../../../../arm-none-eabi/include/c++/4.5.2/bits/stl_list.h ****       void
1212:/opt/toolchains/arm-none-eabi/bin/../lib/gcc/arm-none-eabi/4.5.2/../../../../arm-none-eabi/include/c++/4.5.2/bits/stl_list.h **** #ifdef __GXX_EXPERIMENTAL_CXX0X__
1213:/opt/toolchains/arm-none-eabi/bin/../lib/gcc/arm-none-eabi/4.5.2/../../../../arm-none-eabi/include/c++/4.5.2/bits/stl_list.h ****       splice(iterator __position, list&& __x, iterator __first,
1214:/opt/toolchains/arm-none-eabi/bin/../lib/gcc/arm-none-eabi/4.5.2/../../../../arm-none-eabi/include/c++/4.5.2/bits/stl_list.h **** 	     iterator __last)
1215:/opt/toolchains/arm-none-eabi/bin/../lib/gcc/arm-none-eabi/4.5.2/../../../../arm-none-eabi/include/c++/4.5.2/bits/stl_list.h **** #else
1216:/opt/toolchains/arm-none-eabi/bin/../lib/gcc/arm-none-eabi/4.5.2/../../../../arm-none-eabi/include/c++/4.5.2/bits/stl_list.h ****       splice(iterator __position, list& __x, iterator __first,
1217:/opt/toolchains/arm-none-eabi/bin/../lib/gcc/arm-none-eabi/4.5.2/../../../../arm-none-eabi/include/c++/4.5.2/bits/stl_list.h **** 	     iterator __last)
1218:/opt/toolchains/arm-none-eabi/bin/../lib/gcc/arm-none-eabi/4.5.2/../../../../arm-none-eabi/include/c++/4.5.2/bits/stl_list.h **** #endif
1219:/opt/toolchains/arm-none-eabi/bin/../lib/gcc/arm-none-eabi/4.5.2/../../../../arm-none-eabi/include/c++/4.5.2/bits/stl_list.h ****       {
1220:/opt/toolchains/arm-none-eabi/bin/../lib/gcc/arm-none-eabi/4.5.2/../../../../arm-none-eabi/include/c++/4.5.2/bits/stl_list.h **** 	if (__first != __last)
1221:/opt/toolchains/arm-none-eabi/bin/../lib/gcc/arm-none-eabi/4.5.2/../../../../arm-none-eabi/include/c++/4.5.2/bits/stl_list.h **** 	  {
1222:/opt/toolchains/arm-none-eabi/bin/../lib/gcc/arm-none-eabi/4.5.2/../../../../arm-none-eabi/include/c++/4.5.2/bits/stl_list.h **** 	    if (this != &__x)
1223:/opt/toolchains/arm-none-eabi/bin/../lib/gcc/arm-none-eabi/4.5.2/../../../../arm-none-eabi/include/c++/4.5.2/bits/stl_list.h **** 	      _M_check_equal_allocators(__x);
1224:/opt/toolchains/arm-none-eabi/bin/../lib/gcc/arm-none-eabi/4.5.2/../../../../arm-none-eabi/include/c++/4.5.2/bits/stl_list.h **** 
1225:/opt/toolchains/arm-none-eabi/bin/../lib/gcc/arm-none-eabi/4.5.2/../../../../arm-none-eabi/include/c++/4.5.2/bits/stl_list.h **** 	    this->_M_transfer(__position, __first, __last);
1226:/opt/toolchains/arm-none-eabi/bin/../lib/gcc/arm-none-eabi/4.5.2/../../../../arm-none-eabi/include/c++/4.5.2/bits/stl_list.h **** 	  }
1227:/opt/toolchains/arm-none-eabi/bin/../lib/gcc/arm-none-eabi/4.5.2/../../../../arm-none-eabi/include/c++/4.5.2/bits/stl_list.h ****       }
1228:/opt/toolchains/arm-none-eabi/bin/../lib/gcc/arm-none-eabi/4.5.2/../../../../arm-none-eabi/include/c++/4.5.2/bits/stl_list.h **** 
1229:/opt/toolchains/arm-none-eabi/bin/../lib/gcc/arm-none-eabi/4.5.2/../../../../arm-none-eabi/include/c++/4.5.2/bits/stl_list.h **** #ifdef __GXX_EXPERIMENTAL_CXX0X__
1230:/opt/toolchains/arm-none-eabi/bin/../lib/gcc/arm-none-eabi/4.5.2/../../../../arm-none-eabi/include/c++/4.5.2/bits/stl_list.h ****       void
1231:/opt/toolchains/arm-none-eabi/bin/../lib/gcc/arm-none-eabi/4.5.2/../../../../arm-none-eabi/include/c++/4.5.2/bits/stl_list.h ****       splice(iterator __position, list& __x, iterator __first, iterator __last)
1232:/opt/toolchains/arm-none-eabi/bin/../lib/gcc/arm-none-eabi/4.5.2/../../../../arm-none-eabi/include/c++/4.5.2/bits/stl_list.h ****       { splice(__position, std::move(__x), __first, __last); }
1233:/opt/toolchains/arm-none-eabi/bin/../lib/gcc/arm-none-eabi/4.5.2/../../../../arm-none-eabi/include/c++/4.5.2/bits/stl_list.h **** #endif
1234:/opt/toolchains/arm-none-eabi/bin/../lib/gcc/arm-none-eabi/4.5.2/../../../../arm-none-eabi/include/c++/4.5.2/bits/stl_list.h **** 
1235:/opt/toolchains/arm-none-eabi/bin/../lib/gcc/arm-none-eabi/4.5.2/../../../../arm-none-eabi/include/c++/4.5.2/bits/stl_list.h ****       /**
1236:/opt/toolchains/arm-none-eabi/bin/../lib/gcc/arm-none-eabi/4.5.2/../../../../arm-none-eabi/include/c++/4.5.2/bits/stl_list.h ****        *  @brief  Remove all elements equal to value.
1237:/opt/toolchains/arm-none-eabi/bin/../lib/gcc/arm-none-eabi/4.5.2/../../../../arm-none-eabi/include/c++/4.5.2/bits/stl_list.h ****        *  @param  value  The value to remove.
1238:/opt/toolchains/arm-none-eabi/bin/../lib/gcc/arm-none-eabi/4.5.2/../../../../arm-none-eabi/include/c++/4.5.2/bits/stl_list.h ****        *
1239:/opt/toolchains/arm-none-eabi/bin/../lib/gcc/arm-none-eabi/4.5.2/../../../../arm-none-eabi/include/c++/4.5.2/bits/stl_list.h ****        *  Removes every element in the list equal to @a value.
1240:/opt/toolchains/arm-none-eabi/bin/../lib/gcc/arm-none-eabi/4.5.2/../../../../arm-none-eabi/include/c++/4.5.2/bits/stl_list.h ****        *  Remaining elements stay in list order.  Note that this
1241:/opt/toolchains/arm-none-eabi/bin/../lib/gcc/arm-none-eabi/4.5.2/../../../../arm-none-eabi/include/c++/4.5.2/bits/stl_list.h ****        *  function only erases the elements, and that if the elements
1242:/opt/toolchains/arm-none-eabi/bin/../lib/gcc/arm-none-eabi/4.5.2/../../../../arm-none-eabi/include/c++/4.5.2/bits/stl_list.h ****        *  themselves are pointers, the pointed-to memory is not
1243:/opt/toolchains/arm-none-eabi/bin/../lib/gcc/arm-none-eabi/4.5.2/../../../../arm-none-eabi/include/c++/4.5.2/bits/stl_list.h ****        *  touched in any way.  Managing the pointer is the user's
1244:/opt/toolchains/arm-none-eabi/bin/../lib/gcc/arm-none-eabi/4.5.2/../../../../arm-none-eabi/include/c++/4.5.2/bits/stl_list.h ****        *  responsibility.
1245:/opt/toolchains/arm-none-eabi/bin/../lib/gcc/arm-none-eabi/4.5.2/../../../../arm-none-eabi/include/c++/4.5.2/bits/stl_list.h ****        */
1246:/opt/toolchains/arm-none-eabi/bin/../lib/gcc/arm-none-eabi/4.5.2/../../../../arm-none-eabi/include/c++/4.5.2/bits/stl_list.h ****       void
1247:/opt/toolchains/arm-none-eabi/bin/../lib/gcc/arm-none-eabi/4.5.2/../../../../arm-none-eabi/include/c++/4.5.2/bits/stl_list.h ****       remove(const _Tp& __value);
1248:/opt/toolchains/arm-none-eabi/bin/../lib/gcc/arm-none-eabi/4.5.2/../../../../arm-none-eabi/include/c++/4.5.2/bits/stl_list.h **** 
1249:/opt/toolchains/arm-none-eabi/bin/../lib/gcc/arm-none-eabi/4.5.2/../../../../arm-none-eabi/include/c++/4.5.2/bits/stl_list.h ****       /**
1250:/opt/toolchains/arm-none-eabi/bin/../lib/gcc/arm-none-eabi/4.5.2/../../../../arm-none-eabi/include/c++/4.5.2/bits/stl_list.h ****        *  @brief  Remove all elements satisfying a predicate.
1251:/opt/toolchains/arm-none-eabi/bin/../lib/gcc/arm-none-eabi/4.5.2/../../../../arm-none-eabi/include/c++/4.5.2/bits/stl_list.h ****        *  @param  Predicate  Unary predicate function or object.
1252:/opt/toolchains/arm-none-eabi/bin/../lib/gcc/arm-none-eabi/4.5.2/../../../../arm-none-eabi/include/c++/4.5.2/bits/stl_list.h ****        *
1253:/opt/toolchains/arm-none-eabi/bin/../lib/gcc/arm-none-eabi/4.5.2/../../../../arm-none-eabi/include/c++/4.5.2/bits/stl_list.h ****        *  Removes every element in the list for which the predicate
1254:/opt/toolchains/arm-none-eabi/bin/../lib/gcc/arm-none-eabi/4.5.2/../../../../arm-none-eabi/include/c++/4.5.2/bits/stl_list.h ****        *  returns true.  Remaining elements stay in list order.  Note
1255:/opt/toolchains/arm-none-eabi/bin/../lib/gcc/arm-none-eabi/4.5.2/../../../../arm-none-eabi/include/c++/4.5.2/bits/stl_list.h ****        *  that this function only erases the elements, and that if the
1256:/opt/toolchains/arm-none-eabi/bin/../lib/gcc/arm-none-eabi/4.5.2/../../../../arm-none-eabi/include/c++/4.5.2/bits/stl_list.h ****        *  elements themselves are pointers, the pointed-to memory is
1257:/opt/toolchains/arm-none-eabi/bin/../lib/gcc/arm-none-eabi/4.5.2/../../../../arm-none-eabi/include/c++/4.5.2/bits/stl_list.h ****        *  not touched in any way.  Managing the pointer is the user's
1258:/opt/toolchains/arm-none-eabi/bin/../lib/gcc/arm-none-eabi/4.5.2/../../../../arm-none-eabi/include/c++/4.5.2/bits/stl_list.h ****        *  responsibility.
1259:/opt/toolchains/arm-none-eabi/bin/../lib/gcc/arm-none-eabi/4.5.2/../../../../arm-none-eabi/include/c++/4.5.2/bits/stl_list.h ****        */
1260:/opt/toolchains/arm-none-eabi/bin/../lib/gcc/arm-none-eabi/4.5.2/../../../../arm-none-eabi/include/c++/4.5.2/bits/stl_list.h ****       template<typename _Predicate>
1261:/opt/toolchains/arm-none-eabi/bin/../lib/gcc/arm-none-eabi/4.5.2/../../../../arm-none-eabi/include/c++/4.5.2/bits/stl_list.h ****         void
1262:/opt/toolchains/arm-none-eabi/bin/../lib/gcc/arm-none-eabi/4.5.2/../../../../arm-none-eabi/include/c++/4.5.2/bits/stl_list.h ****         remove_if(_Predicate);
1263:/opt/toolchains/arm-none-eabi/bin/../lib/gcc/arm-none-eabi/4.5.2/../../../../arm-none-eabi/include/c++/4.5.2/bits/stl_list.h **** 
1264:/opt/toolchains/arm-none-eabi/bin/../lib/gcc/arm-none-eabi/4.5.2/../../../../arm-none-eabi/include/c++/4.5.2/bits/stl_list.h ****       /**
1265:/opt/toolchains/arm-none-eabi/bin/../lib/gcc/arm-none-eabi/4.5.2/../../../../arm-none-eabi/include/c++/4.5.2/bits/stl_list.h ****        *  @brief  Remove consecutive duplicate elements.
1266:/opt/toolchains/arm-none-eabi/bin/../lib/gcc/arm-none-eabi/4.5.2/../../../../arm-none-eabi/include/c++/4.5.2/bits/stl_list.h ****        *
1267:/opt/toolchains/arm-none-eabi/bin/../lib/gcc/arm-none-eabi/4.5.2/../../../../arm-none-eabi/include/c++/4.5.2/bits/stl_list.h ****        *  For each consecutive set of elements with the same value,
1268:/opt/toolchains/arm-none-eabi/bin/../lib/gcc/arm-none-eabi/4.5.2/../../../../arm-none-eabi/include/c++/4.5.2/bits/stl_list.h ****        *  remove all but the first one.  Remaining elements stay in
1269:/opt/toolchains/arm-none-eabi/bin/../lib/gcc/arm-none-eabi/4.5.2/../../../../arm-none-eabi/include/c++/4.5.2/bits/stl_list.h ****        *  list order.  Note that this function only erases the
1270:/opt/toolchains/arm-none-eabi/bin/../lib/gcc/arm-none-eabi/4.5.2/../../../../arm-none-eabi/include/c++/4.5.2/bits/stl_list.h ****        *  elements, and that if the elements themselves are pointers,
1271:/opt/toolchains/arm-none-eabi/bin/../lib/gcc/arm-none-eabi/4.5.2/../../../../arm-none-eabi/include/c++/4.5.2/bits/stl_list.h ****        *  the pointed-to memory is not touched in any way.  Managing
1272:/opt/toolchains/arm-none-eabi/bin/../lib/gcc/arm-none-eabi/4.5.2/../../../../arm-none-eabi/include/c++/4.5.2/bits/stl_list.h ****        *  the pointer is the user's responsibility.
1273:/opt/toolchains/arm-none-eabi/bin/../lib/gcc/arm-none-eabi/4.5.2/../../../../arm-none-eabi/include/c++/4.5.2/bits/stl_list.h ****        */
1274:/opt/toolchains/arm-none-eabi/bin/../lib/gcc/arm-none-eabi/4.5.2/../../../../arm-none-eabi/include/c++/4.5.2/bits/stl_list.h ****       void
1275:/opt/toolchains/arm-none-eabi/bin/../lib/gcc/arm-none-eabi/4.5.2/../../../../arm-none-eabi/include/c++/4.5.2/bits/stl_list.h ****       unique();
1276:/opt/toolchains/arm-none-eabi/bin/../lib/gcc/arm-none-eabi/4.5.2/../../../../arm-none-eabi/include/c++/4.5.2/bits/stl_list.h **** 
1277:/opt/toolchains/arm-none-eabi/bin/../lib/gcc/arm-none-eabi/4.5.2/../../../../arm-none-eabi/include/c++/4.5.2/bits/stl_list.h ****       /**
1278:/opt/toolchains/arm-none-eabi/bin/../lib/gcc/arm-none-eabi/4.5.2/../../../../arm-none-eabi/include/c++/4.5.2/bits/stl_list.h ****        *  @brief  Remove consecutive elements satisfying a predicate.
1279:/opt/toolchains/arm-none-eabi/bin/../lib/gcc/arm-none-eabi/4.5.2/../../../../arm-none-eabi/include/c++/4.5.2/bits/stl_list.h ****        *  @param  BinaryPredicate  Binary predicate function or object.
1280:/opt/toolchains/arm-none-eabi/bin/../lib/gcc/arm-none-eabi/4.5.2/../../../../arm-none-eabi/include/c++/4.5.2/bits/stl_list.h ****        *
1281:/opt/toolchains/arm-none-eabi/bin/../lib/gcc/arm-none-eabi/4.5.2/../../../../arm-none-eabi/include/c++/4.5.2/bits/stl_list.h ****        *  For each consecutive set of elements [first,last) that
1282:/opt/toolchains/arm-none-eabi/bin/../lib/gcc/arm-none-eabi/4.5.2/../../../../arm-none-eabi/include/c++/4.5.2/bits/stl_list.h ****        *  satisfy predicate(first,i) where i is an iterator in
1283:/opt/toolchains/arm-none-eabi/bin/../lib/gcc/arm-none-eabi/4.5.2/../../../../arm-none-eabi/include/c++/4.5.2/bits/stl_list.h ****        *  [first,last), remove all but the first one.  Remaining
1284:/opt/toolchains/arm-none-eabi/bin/../lib/gcc/arm-none-eabi/4.5.2/../../../../arm-none-eabi/include/c++/4.5.2/bits/stl_list.h ****        *  elements stay in list order.  Note that this function only
1285:/opt/toolchains/arm-none-eabi/bin/../lib/gcc/arm-none-eabi/4.5.2/../../../../arm-none-eabi/include/c++/4.5.2/bits/stl_list.h ****        *  erases the elements, and that if the elements themselves are
1286:/opt/toolchains/arm-none-eabi/bin/../lib/gcc/arm-none-eabi/4.5.2/../../../../arm-none-eabi/include/c++/4.5.2/bits/stl_list.h ****        *  pointers, the pointed-to memory is not touched in any way.
1287:/opt/toolchains/arm-none-eabi/bin/../lib/gcc/arm-none-eabi/4.5.2/../../../../arm-none-eabi/include/c++/4.5.2/bits/stl_list.h ****        *  Managing the pointer is the user's responsibility.
1288:/opt/toolchains/arm-none-eabi/bin/../lib/gcc/arm-none-eabi/4.5.2/../../../../arm-none-eabi/include/c++/4.5.2/bits/stl_list.h ****        */
1289:/opt/toolchains/arm-none-eabi/bin/../lib/gcc/arm-none-eabi/4.5.2/../../../../arm-none-eabi/include/c++/4.5.2/bits/stl_list.h ****       template<typename _BinaryPredicate>
1290:/opt/toolchains/arm-none-eabi/bin/../lib/gcc/arm-none-eabi/4.5.2/../../../../arm-none-eabi/include/c++/4.5.2/bits/stl_list.h ****         void
1291:/opt/toolchains/arm-none-eabi/bin/../lib/gcc/arm-none-eabi/4.5.2/../../../../arm-none-eabi/include/c++/4.5.2/bits/stl_list.h ****         unique(_BinaryPredicate);
1292:/opt/toolchains/arm-none-eabi/bin/../lib/gcc/arm-none-eabi/4.5.2/../../../../arm-none-eabi/include/c++/4.5.2/bits/stl_list.h **** 
1293:/opt/toolchains/arm-none-eabi/bin/../lib/gcc/arm-none-eabi/4.5.2/../../../../arm-none-eabi/include/c++/4.5.2/bits/stl_list.h ****       /**
1294:/opt/toolchains/arm-none-eabi/bin/../lib/gcc/arm-none-eabi/4.5.2/../../../../arm-none-eabi/include/c++/4.5.2/bits/stl_list.h ****        *  @brief  Merge sorted lists.
1295:/opt/toolchains/arm-none-eabi/bin/../lib/gcc/arm-none-eabi/4.5.2/../../../../arm-none-eabi/include/c++/4.5.2/bits/stl_list.h ****        *  @param  x  Sorted list to merge.
1296:/opt/toolchains/arm-none-eabi/bin/../lib/gcc/arm-none-eabi/4.5.2/../../../../arm-none-eabi/include/c++/4.5.2/bits/stl_list.h ****        *
1297:/opt/toolchains/arm-none-eabi/bin/../lib/gcc/arm-none-eabi/4.5.2/../../../../arm-none-eabi/include/c++/4.5.2/bits/stl_list.h ****        *  Assumes that both @a x and this list are sorted according to
1298:/opt/toolchains/arm-none-eabi/bin/../lib/gcc/arm-none-eabi/4.5.2/../../../../arm-none-eabi/include/c++/4.5.2/bits/stl_list.h ****        *  operator<().  Merges elements of @a x into this list in
1299:/opt/toolchains/arm-none-eabi/bin/../lib/gcc/arm-none-eabi/4.5.2/../../../../arm-none-eabi/include/c++/4.5.2/bits/stl_list.h ****        *  sorted order, leaving @a x empty when complete.  Elements in
1300:/opt/toolchains/arm-none-eabi/bin/../lib/gcc/arm-none-eabi/4.5.2/../../../../arm-none-eabi/include/c++/4.5.2/bits/stl_list.h ****        *  this list precede elements in @a x that are equal.
1301:/opt/toolchains/arm-none-eabi/bin/../lib/gcc/arm-none-eabi/4.5.2/../../../../arm-none-eabi/include/c++/4.5.2/bits/stl_list.h ****        */
1302:/opt/toolchains/arm-none-eabi/bin/../lib/gcc/arm-none-eabi/4.5.2/../../../../arm-none-eabi/include/c++/4.5.2/bits/stl_list.h **** #ifdef __GXX_EXPERIMENTAL_CXX0X__
1303:/opt/toolchains/arm-none-eabi/bin/../lib/gcc/arm-none-eabi/4.5.2/../../../../arm-none-eabi/include/c++/4.5.2/bits/stl_list.h ****       void
1304:/opt/toolchains/arm-none-eabi/bin/../lib/gcc/arm-none-eabi/4.5.2/../../../../arm-none-eabi/include/c++/4.5.2/bits/stl_list.h ****       merge(list&& __x);
1305:/opt/toolchains/arm-none-eabi/bin/../lib/gcc/arm-none-eabi/4.5.2/../../../../arm-none-eabi/include/c++/4.5.2/bits/stl_list.h **** 
1306:/opt/toolchains/arm-none-eabi/bin/../lib/gcc/arm-none-eabi/4.5.2/../../../../arm-none-eabi/include/c++/4.5.2/bits/stl_list.h ****       void
1307:/opt/toolchains/arm-none-eabi/bin/../lib/gcc/arm-none-eabi/4.5.2/../../../../arm-none-eabi/include/c++/4.5.2/bits/stl_list.h ****       merge(list& __x)
1308:/opt/toolchains/arm-none-eabi/bin/../lib/gcc/arm-none-eabi/4.5.2/../../../../arm-none-eabi/include/c++/4.5.2/bits/stl_list.h ****       { merge(std::move(__x)); }
1309:/opt/toolchains/arm-none-eabi/bin/../lib/gcc/arm-none-eabi/4.5.2/../../../../arm-none-eabi/include/c++/4.5.2/bits/stl_list.h **** #else
1310:/opt/toolchains/arm-none-eabi/bin/../lib/gcc/arm-none-eabi/4.5.2/../../../../arm-none-eabi/include/c++/4.5.2/bits/stl_list.h ****       void
1311:/opt/toolchains/arm-none-eabi/bin/../lib/gcc/arm-none-eabi/4.5.2/../../../../arm-none-eabi/include/c++/4.5.2/bits/stl_list.h ****       merge(list& __x);
1312:/opt/toolchains/arm-none-eabi/bin/../lib/gcc/arm-none-eabi/4.5.2/../../../../arm-none-eabi/include/c++/4.5.2/bits/stl_list.h **** #endif
1313:/opt/toolchains/arm-none-eabi/bin/../lib/gcc/arm-none-eabi/4.5.2/../../../../arm-none-eabi/include/c++/4.5.2/bits/stl_list.h **** 
1314:/opt/toolchains/arm-none-eabi/bin/../lib/gcc/arm-none-eabi/4.5.2/../../../../arm-none-eabi/include/c++/4.5.2/bits/stl_list.h ****       /**
1315:/opt/toolchains/arm-none-eabi/bin/../lib/gcc/arm-none-eabi/4.5.2/../../../../arm-none-eabi/include/c++/4.5.2/bits/stl_list.h ****        *  @brief  Merge sorted lists according to comparison function.
1316:/opt/toolchains/arm-none-eabi/bin/../lib/gcc/arm-none-eabi/4.5.2/../../../../arm-none-eabi/include/c++/4.5.2/bits/stl_list.h ****        *  @param  x  Sorted list to merge.
1317:/opt/toolchains/arm-none-eabi/bin/../lib/gcc/arm-none-eabi/4.5.2/../../../../arm-none-eabi/include/c++/4.5.2/bits/stl_list.h ****        *  @param StrictWeakOrdering Comparison function defining
1318:/opt/toolchains/arm-none-eabi/bin/../lib/gcc/arm-none-eabi/4.5.2/../../../../arm-none-eabi/include/c++/4.5.2/bits/stl_list.h ****        *  sort order.
1319:/opt/toolchains/arm-none-eabi/bin/../lib/gcc/arm-none-eabi/4.5.2/../../../../arm-none-eabi/include/c++/4.5.2/bits/stl_list.h ****        *
1320:/opt/toolchains/arm-none-eabi/bin/../lib/gcc/arm-none-eabi/4.5.2/../../../../arm-none-eabi/include/c++/4.5.2/bits/stl_list.h ****        *  Assumes that both @a x and this list are sorted according to
1321:/opt/toolchains/arm-none-eabi/bin/../lib/gcc/arm-none-eabi/4.5.2/../../../../arm-none-eabi/include/c++/4.5.2/bits/stl_list.h ****        *  StrictWeakOrdering.  Merges elements of @a x into this list
1322:/opt/toolchains/arm-none-eabi/bin/../lib/gcc/arm-none-eabi/4.5.2/../../../../arm-none-eabi/include/c++/4.5.2/bits/stl_list.h ****        *  in sorted order, leaving @a x empty when complete.  Elements
1323:/opt/toolchains/arm-none-eabi/bin/../lib/gcc/arm-none-eabi/4.5.2/../../../../arm-none-eabi/include/c++/4.5.2/bits/stl_list.h ****        *  in this list precede elements in @a x that are equivalent
1324:/opt/toolchains/arm-none-eabi/bin/../lib/gcc/arm-none-eabi/4.5.2/../../../../arm-none-eabi/include/c++/4.5.2/bits/stl_list.h ****        *  according to StrictWeakOrdering().
1325:/opt/toolchains/arm-none-eabi/bin/../lib/gcc/arm-none-eabi/4.5.2/../../../../arm-none-eabi/include/c++/4.5.2/bits/stl_list.h ****        */
1326:/opt/toolchains/arm-none-eabi/bin/../lib/gcc/arm-none-eabi/4.5.2/../../../../arm-none-eabi/include/c++/4.5.2/bits/stl_list.h **** #ifdef __GXX_EXPERIMENTAL_CXX0X__
1327:/opt/toolchains/arm-none-eabi/bin/../lib/gcc/arm-none-eabi/4.5.2/../../../../arm-none-eabi/include/c++/4.5.2/bits/stl_list.h ****       template<typename _StrictWeakOrdering>
1328:/opt/toolchains/arm-none-eabi/bin/../lib/gcc/arm-none-eabi/4.5.2/../../../../arm-none-eabi/include/c++/4.5.2/bits/stl_list.h ****         void
1329:/opt/toolchains/arm-none-eabi/bin/../lib/gcc/arm-none-eabi/4.5.2/../../../../arm-none-eabi/include/c++/4.5.2/bits/stl_list.h ****         merge(list&&, _StrictWeakOrdering);
1330:/opt/toolchains/arm-none-eabi/bin/../lib/gcc/arm-none-eabi/4.5.2/../../../../arm-none-eabi/include/c++/4.5.2/bits/stl_list.h **** 
1331:/opt/toolchains/arm-none-eabi/bin/../lib/gcc/arm-none-eabi/4.5.2/../../../../arm-none-eabi/include/c++/4.5.2/bits/stl_list.h ****       template<typename _StrictWeakOrdering>
1332:/opt/toolchains/arm-none-eabi/bin/../lib/gcc/arm-none-eabi/4.5.2/../../../../arm-none-eabi/include/c++/4.5.2/bits/stl_list.h ****         void
1333:/opt/toolchains/arm-none-eabi/bin/../lib/gcc/arm-none-eabi/4.5.2/../../../../arm-none-eabi/include/c++/4.5.2/bits/stl_list.h ****         merge(list& __x, _StrictWeakOrdering __comp)
1334:/opt/toolchains/arm-none-eabi/bin/../lib/gcc/arm-none-eabi/4.5.2/../../../../arm-none-eabi/include/c++/4.5.2/bits/stl_list.h ****         { merge(std::move(__x), __comp); }
1335:/opt/toolchains/arm-none-eabi/bin/../lib/gcc/arm-none-eabi/4.5.2/../../../../arm-none-eabi/include/c++/4.5.2/bits/stl_list.h **** #else
1336:/opt/toolchains/arm-none-eabi/bin/../lib/gcc/arm-none-eabi/4.5.2/../../../../arm-none-eabi/include/c++/4.5.2/bits/stl_list.h ****       template<typename _StrictWeakOrdering>
1337:/opt/toolchains/arm-none-eabi/bin/../lib/gcc/arm-none-eabi/4.5.2/../../../../arm-none-eabi/include/c++/4.5.2/bits/stl_list.h ****         void
1338:/opt/toolchains/arm-none-eabi/bin/../lib/gcc/arm-none-eabi/4.5.2/../../../../arm-none-eabi/include/c++/4.5.2/bits/stl_list.h ****         merge(list&, _StrictWeakOrdering);
1339:/opt/toolchains/arm-none-eabi/bin/../lib/gcc/arm-none-eabi/4.5.2/../../../../arm-none-eabi/include/c++/4.5.2/bits/stl_list.h **** #endif
1340:/opt/toolchains/arm-none-eabi/bin/../lib/gcc/arm-none-eabi/4.5.2/../../../../arm-none-eabi/include/c++/4.5.2/bits/stl_list.h **** 
1341:/opt/toolchains/arm-none-eabi/bin/../lib/gcc/arm-none-eabi/4.5.2/../../../../arm-none-eabi/include/c++/4.5.2/bits/stl_list.h ****       /**
1342:/opt/toolchains/arm-none-eabi/bin/../lib/gcc/arm-none-eabi/4.5.2/../../../../arm-none-eabi/include/c++/4.5.2/bits/stl_list.h ****        *  @brief  Reverse the elements in list.
1343:/opt/toolchains/arm-none-eabi/bin/../lib/gcc/arm-none-eabi/4.5.2/../../../../arm-none-eabi/include/c++/4.5.2/bits/stl_list.h ****        *
1344:/opt/toolchains/arm-none-eabi/bin/../lib/gcc/arm-none-eabi/4.5.2/../../../../arm-none-eabi/include/c++/4.5.2/bits/stl_list.h ****        *  Reverse the order of elements in the list in linear time.
1345:/opt/toolchains/arm-none-eabi/bin/../lib/gcc/arm-none-eabi/4.5.2/../../../../arm-none-eabi/include/c++/4.5.2/bits/stl_list.h ****        */
1346:/opt/toolchains/arm-none-eabi/bin/../lib/gcc/arm-none-eabi/4.5.2/../../../../arm-none-eabi/include/c++/4.5.2/bits/stl_list.h ****       void
1347:/opt/toolchains/arm-none-eabi/bin/../lib/gcc/arm-none-eabi/4.5.2/../../../../arm-none-eabi/include/c++/4.5.2/bits/stl_list.h ****       reverse()
1348:/opt/toolchains/arm-none-eabi/bin/../lib/gcc/arm-none-eabi/4.5.2/../../../../arm-none-eabi/include/c++/4.5.2/bits/stl_list.h ****       { this->_M_impl._M_node._M_reverse(); }
1349:/opt/toolchains/arm-none-eabi/bin/../lib/gcc/arm-none-eabi/4.5.2/../../../../arm-none-eabi/include/c++/4.5.2/bits/stl_list.h **** 
1350:/opt/toolchains/arm-none-eabi/bin/../lib/gcc/arm-none-eabi/4.5.2/../../../../arm-none-eabi/include/c++/4.5.2/bits/stl_list.h ****       /**
1351:/opt/toolchains/arm-none-eabi/bin/../lib/gcc/arm-none-eabi/4.5.2/../../../../arm-none-eabi/include/c++/4.5.2/bits/stl_list.h ****        *  @brief  Sort the elements.
1352:/opt/toolchains/arm-none-eabi/bin/../lib/gcc/arm-none-eabi/4.5.2/../../../../arm-none-eabi/include/c++/4.5.2/bits/stl_list.h ****        *
1353:/opt/toolchains/arm-none-eabi/bin/../lib/gcc/arm-none-eabi/4.5.2/../../../../arm-none-eabi/include/c++/4.5.2/bits/stl_list.h ****        *  Sorts the elements of this list in NlogN time.  Equivalent
1354:/opt/toolchains/arm-none-eabi/bin/../lib/gcc/arm-none-eabi/4.5.2/../../../../arm-none-eabi/include/c++/4.5.2/bits/stl_list.h ****        *  elements remain in list order.
1355:/opt/toolchains/arm-none-eabi/bin/../lib/gcc/arm-none-eabi/4.5.2/../../../../arm-none-eabi/include/c++/4.5.2/bits/stl_list.h ****        */
1356:/opt/toolchains/arm-none-eabi/bin/../lib/gcc/arm-none-eabi/4.5.2/../../../../arm-none-eabi/include/c++/4.5.2/bits/stl_list.h ****       void
1357:/opt/toolchains/arm-none-eabi/bin/../lib/gcc/arm-none-eabi/4.5.2/../../../../arm-none-eabi/include/c++/4.5.2/bits/stl_list.h ****       sort();
1358:/opt/toolchains/arm-none-eabi/bin/../lib/gcc/arm-none-eabi/4.5.2/../../../../arm-none-eabi/include/c++/4.5.2/bits/stl_list.h **** 
1359:/opt/toolchains/arm-none-eabi/bin/../lib/gcc/arm-none-eabi/4.5.2/../../../../arm-none-eabi/include/c++/4.5.2/bits/stl_list.h ****       /**
1360:/opt/toolchains/arm-none-eabi/bin/../lib/gcc/arm-none-eabi/4.5.2/../../../../arm-none-eabi/include/c++/4.5.2/bits/stl_list.h ****        *  @brief  Sort the elements according to comparison function.
1361:/opt/toolchains/arm-none-eabi/bin/../lib/gcc/arm-none-eabi/4.5.2/../../../../arm-none-eabi/include/c++/4.5.2/bits/stl_list.h ****        *
1362:/opt/toolchains/arm-none-eabi/bin/../lib/gcc/arm-none-eabi/4.5.2/../../../../arm-none-eabi/include/c++/4.5.2/bits/stl_list.h ****        *  Sorts the elements of this list in NlogN time.  Equivalent
1363:/opt/toolchains/arm-none-eabi/bin/../lib/gcc/arm-none-eabi/4.5.2/../../../../arm-none-eabi/include/c++/4.5.2/bits/stl_list.h ****        *  elements remain in list order.
1364:/opt/toolchains/arm-none-eabi/bin/../lib/gcc/arm-none-eabi/4.5.2/../../../../arm-none-eabi/include/c++/4.5.2/bits/stl_list.h ****        */
1365:/opt/toolchains/arm-none-eabi/bin/../lib/gcc/arm-none-eabi/4.5.2/../../../../arm-none-eabi/include/c++/4.5.2/bits/stl_list.h ****       template<typename _StrictWeakOrdering>
1366:/opt/toolchains/arm-none-eabi/bin/../lib/gcc/arm-none-eabi/4.5.2/../../../../arm-none-eabi/include/c++/4.5.2/bits/stl_list.h ****         void
1367:/opt/toolchains/arm-none-eabi/bin/../lib/gcc/arm-none-eabi/4.5.2/../../../../arm-none-eabi/include/c++/4.5.2/bits/stl_list.h ****         sort(_StrictWeakOrdering);
1368:/opt/toolchains/arm-none-eabi/bin/../lib/gcc/arm-none-eabi/4.5.2/../../../../arm-none-eabi/include/c++/4.5.2/bits/stl_list.h **** 
1369:/opt/toolchains/arm-none-eabi/bin/../lib/gcc/arm-none-eabi/4.5.2/../../../../arm-none-eabi/include/c++/4.5.2/bits/stl_list.h ****     protected:
1370:/opt/toolchains/arm-none-eabi/bin/../lib/gcc/arm-none-eabi/4.5.2/../../../../arm-none-eabi/include/c++/4.5.2/bits/stl_list.h ****       // Internal constructor functions follow.
1371:/opt/toolchains/arm-none-eabi/bin/../lib/gcc/arm-none-eabi/4.5.2/../../../../arm-none-eabi/include/c++/4.5.2/bits/stl_list.h **** 
1372:/opt/toolchains/arm-none-eabi/bin/../lib/gcc/arm-none-eabi/4.5.2/../../../../arm-none-eabi/include/c++/4.5.2/bits/stl_list.h ****       // Called by the range constructor to implement [23.1.1]/9
1373:/opt/toolchains/arm-none-eabi/bin/../lib/gcc/arm-none-eabi/4.5.2/../../../../arm-none-eabi/include/c++/4.5.2/bits/stl_list.h **** 
1374:/opt/toolchains/arm-none-eabi/bin/../lib/gcc/arm-none-eabi/4.5.2/../../../../arm-none-eabi/include/c++/4.5.2/bits/stl_list.h ****       // _GLIBCXX_RESOLVE_LIB_DEFECTS
1375:/opt/toolchains/arm-none-eabi/bin/../lib/gcc/arm-none-eabi/4.5.2/../../../../arm-none-eabi/include/c++/4.5.2/bits/stl_list.h ****       // 438. Ambiguity in the "do the right thing" clause
1376:/opt/toolchains/arm-none-eabi/bin/../lib/gcc/arm-none-eabi/4.5.2/../../../../arm-none-eabi/include/c++/4.5.2/bits/stl_list.h ****       template<typename _Integer>
1377:/opt/toolchains/arm-none-eabi/bin/../lib/gcc/arm-none-eabi/4.5.2/../../../../arm-none-eabi/include/c++/4.5.2/bits/stl_list.h ****         void
1378:/opt/toolchains/arm-none-eabi/bin/../lib/gcc/arm-none-eabi/4.5.2/../../../../arm-none-eabi/include/c++/4.5.2/bits/stl_list.h ****         _M_initialize_dispatch(_Integer __n, _Integer __x, __true_type)
1379:/opt/toolchains/arm-none-eabi/bin/../lib/gcc/arm-none-eabi/4.5.2/../../../../arm-none-eabi/include/c++/4.5.2/bits/stl_list.h ****         { _M_fill_initialize(static_cast<size_type>(__n), __x); }
1380:/opt/toolchains/arm-none-eabi/bin/../lib/gcc/arm-none-eabi/4.5.2/../../../../arm-none-eabi/include/c++/4.5.2/bits/stl_list.h **** 
1381:/opt/toolchains/arm-none-eabi/bin/../lib/gcc/arm-none-eabi/4.5.2/../../../../arm-none-eabi/include/c++/4.5.2/bits/stl_list.h ****       // Called by the range constructor to implement [23.1.1]/9
1382:/opt/toolchains/arm-none-eabi/bin/../lib/gcc/arm-none-eabi/4.5.2/../../../../arm-none-eabi/include/c++/4.5.2/bits/stl_list.h ****       template<typename _InputIterator>
1383:/opt/toolchains/arm-none-eabi/bin/../lib/gcc/arm-none-eabi/4.5.2/../../../../arm-none-eabi/include/c++/4.5.2/bits/stl_list.h ****         void
1384:/opt/toolchains/arm-none-eabi/bin/../lib/gcc/arm-none-eabi/4.5.2/../../../../arm-none-eabi/include/c++/4.5.2/bits/stl_list.h ****         _M_initialize_dispatch(_InputIterator __first, _InputIterator __last,
1385:/opt/toolchains/arm-none-eabi/bin/../lib/gcc/arm-none-eabi/4.5.2/../../../../arm-none-eabi/include/c++/4.5.2/bits/stl_list.h **** 			       __false_type)
1386:/opt/toolchains/arm-none-eabi/bin/../lib/gcc/arm-none-eabi/4.5.2/../../../../arm-none-eabi/include/c++/4.5.2/bits/stl_list.h ****         {
1387:/opt/toolchains/arm-none-eabi/bin/../lib/gcc/arm-none-eabi/4.5.2/../../../../arm-none-eabi/include/c++/4.5.2/bits/stl_list.h **** 	  for (; __first != __last; ++__first)
1388:/opt/toolchains/arm-none-eabi/bin/../lib/gcc/arm-none-eabi/4.5.2/../../../../arm-none-eabi/include/c++/4.5.2/bits/stl_list.h **** 	    push_back(*__first);
1389:/opt/toolchains/arm-none-eabi/bin/../lib/gcc/arm-none-eabi/4.5.2/../../../../arm-none-eabi/include/c++/4.5.2/bits/stl_list.h **** 	}
1390:/opt/toolchains/arm-none-eabi/bin/../lib/gcc/arm-none-eabi/4.5.2/../../../../arm-none-eabi/include/c++/4.5.2/bits/stl_list.h **** 
1391:/opt/toolchains/arm-none-eabi/bin/../lib/gcc/arm-none-eabi/4.5.2/../../../../arm-none-eabi/include/c++/4.5.2/bits/stl_list.h ****       // Called by list(n,v,a), and the range constructor when it turns out
1392:/opt/toolchains/arm-none-eabi/bin/../lib/gcc/arm-none-eabi/4.5.2/../../../../arm-none-eabi/include/c++/4.5.2/bits/stl_list.h ****       // to be the same thing.
1393:/opt/toolchains/arm-none-eabi/bin/../lib/gcc/arm-none-eabi/4.5.2/../../../../arm-none-eabi/include/c++/4.5.2/bits/stl_list.h ****       void
1394:/opt/toolchains/arm-none-eabi/bin/../lib/gcc/arm-none-eabi/4.5.2/../../../../arm-none-eabi/include/c++/4.5.2/bits/stl_list.h ****       _M_fill_initialize(size_type __n, const value_type& __x)
1395:/opt/toolchains/arm-none-eabi/bin/../lib/gcc/arm-none-eabi/4.5.2/../../../../arm-none-eabi/include/c++/4.5.2/bits/stl_list.h ****       {
1396:/opt/toolchains/arm-none-eabi/bin/../lib/gcc/arm-none-eabi/4.5.2/../../../../arm-none-eabi/include/c++/4.5.2/bits/stl_list.h **** 	for (; __n > 0; --__n)
1397:/opt/toolchains/arm-none-eabi/bin/../lib/gcc/arm-none-eabi/4.5.2/../../../../arm-none-eabi/include/c++/4.5.2/bits/stl_list.h **** 	  push_back(__x);
1398:/opt/toolchains/arm-none-eabi/bin/../lib/gcc/arm-none-eabi/4.5.2/../../../../arm-none-eabi/include/c++/4.5.2/bits/stl_list.h ****       }
1399:/opt/toolchains/arm-none-eabi/bin/../lib/gcc/arm-none-eabi/4.5.2/../../../../arm-none-eabi/include/c++/4.5.2/bits/stl_list.h **** 
1400:/opt/toolchains/arm-none-eabi/bin/../lib/gcc/arm-none-eabi/4.5.2/../../../../arm-none-eabi/include/c++/4.5.2/bits/stl_list.h **** 
1401:/opt/toolchains/arm-none-eabi/bin/../lib/gcc/arm-none-eabi/4.5.2/../../../../arm-none-eabi/include/c++/4.5.2/bits/stl_list.h ****       // Internal assign functions follow.
1402:/opt/toolchains/arm-none-eabi/bin/../lib/gcc/arm-none-eabi/4.5.2/../../../../arm-none-eabi/include/c++/4.5.2/bits/stl_list.h **** 
1403:/opt/toolchains/arm-none-eabi/bin/../lib/gcc/arm-none-eabi/4.5.2/../../../../arm-none-eabi/include/c++/4.5.2/bits/stl_list.h ****       // Called by the range assign to implement [23.1.1]/9
1404:/opt/toolchains/arm-none-eabi/bin/../lib/gcc/arm-none-eabi/4.5.2/../../../../arm-none-eabi/include/c++/4.5.2/bits/stl_list.h **** 
1405:/opt/toolchains/arm-none-eabi/bin/../lib/gcc/arm-none-eabi/4.5.2/../../../../arm-none-eabi/include/c++/4.5.2/bits/stl_list.h ****       // _GLIBCXX_RESOLVE_LIB_DEFECTS
1406:/opt/toolchains/arm-none-eabi/bin/../lib/gcc/arm-none-eabi/4.5.2/../../../../arm-none-eabi/include/c++/4.5.2/bits/stl_list.h ****       // 438. Ambiguity in the "do the right thing" clause
1407:/opt/toolchains/arm-none-eabi/bin/../lib/gcc/arm-none-eabi/4.5.2/../../../../arm-none-eabi/include/c++/4.5.2/bits/stl_list.h ****       template<typename _Integer>
1408:/opt/toolchains/arm-none-eabi/bin/../lib/gcc/arm-none-eabi/4.5.2/../../../../arm-none-eabi/include/c++/4.5.2/bits/stl_list.h ****         void
1409:/opt/toolchains/arm-none-eabi/bin/../lib/gcc/arm-none-eabi/4.5.2/../../../../arm-none-eabi/include/c++/4.5.2/bits/stl_list.h ****         _M_assign_dispatch(_Integer __n, _Integer __val, __true_type)
1410:/opt/toolchains/arm-none-eabi/bin/../lib/gcc/arm-none-eabi/4.5.2/../../../../arm-none-eabi/include/c++/4.5.2/bits/stl_list.h ****         { _M_fill_assign(__n, __val); }
1411:/opt/toolchains/arm-none-eabi/bin/../lib/gcc/arm-none-eabi/4.5.2/../../../../arm-none-eabi/include/c++/4.5.2/bits/stl_list.h **** 
1412:/opt/toolchains/arm-none-eabi/bin/../lib/gcc/arm-none-eabi/4.5.2/../../../../arm-none-eabi/include/c++/4.5.2/bits/stl_list.h ****       // Called by the range assign to implement [23.1.1]/9
1413:/opt/toolchains/arm-none-eabi/bin/../lib/gcc/arm-none-eabi/4.5.2/../../../../arm-none-eabi/include/c++/4.5.2/bits/stl_list.h ****       template<typename _InputIterator>
1414:/opt/toolchains/arm-none-eabi/bin/../lib/gcc/arm-none-eabi/4.5.2/../../../../arm-none-eabi/include/c++/4.5.2/bits/stl_list.h ****         void
1415:/opt/toolchains/arm-none-eabi/bin/../lib/gcc/arm-none-eabi/4.5.2/../../../../arm-none-eabi/include/c++/4.5.2/bits/stl_list.h ****         _M_assign_dispatch(_InputIterator __first, _InputIterator __last,
1416:/opt/toolchains/arm-none-eabi/bin/../lib/gcc/arm-none-eabi/4.5.2/../../../../arm-none-eabi/include/c++/4.5.2/bits/stl_list.h **** 			   __false_type);
1417:/opt/toolchains/arm-none-eabi/bin/../lib/gcc/arm-none-eabi/4.5.2/../../../../arm-none-eabi/include/c++/4.5.2/bits/stl_list.h **** 
1418:/opt/toolchains/arm-none-eabi/bin/../lib/gcc/arm-none-eabi/4.5.2/../../../../arm-none-eabi/include/c++/4.5.2/bits/stl_list.h ****       // Called by assign(n,t), and the range assign when it turns out
1419:/opt/toolchains/arm-none-eabi/bin/../lib/gcc/arm-none-eabi/4.5.2/../../../../arm-none-eabi/include/c++/4.5.2/bits/stl_list.h ****       // to be the same thing.
1420:/opt/toolchains/arm-none-eabi/bin/../lib/gcc/arm-none-eabi/4.5.2/../../../../arm-none-eabi/include/c++/4.5.2/bits/stl_list.h ****       void
1421:/opt/toolchains/arm-none-eabi/bin/../lib/gcc/arm-none-eabi/4.5.2/../../../../arm-none-eabi/include/c++/4.5.2/bits/stl_list.h ****       _M_fill_assign(size_type __n, const value_type& __val);
1422:/opt/toolchains/arm-none-eabi/bin/../lib/gcc/arm-none-eabi/4.5.2/../../../../arm-none-eabi/include/c++/4.5.2/bits/stl_list.h **** 
1423:/opt/toolchains/arm-none-eabi/bin/../lib/gcc/arm-none-eabi/4.5.2/../../../../arm-none-eabi/include/c++/4.5.2/bits/stl_list.h **** 
1424:/opt/toolchains/arm-none-eabi/bin/../lib/gcc/arm-none-eabi/4.5.2/../../../../arm-none-eabi/include/c++/4.5.2/bits/stl_list.h ****       // Moves the elements from [first,last) before position.
1425:/opt/toolchains/arm-none-eabi/bin/../lib/gcc/arm-none-eabi/4.5.2/../../../../arm-none-eabi/include/c++/4.5.2/bits/stl_list.h ****       void
1426:/opt/toolchains/arm-none-eabi/bin/../lib/gcc/arm-none-eabi/4.5.2/../../../../arm-none-eabi/include/c++/4.5.2/bits/stl_list.h ****       _M_transfer(iterator __position, iterator __first, iterator __last)
1427:/opt/toolchains/arm-none-eabi/bin/../lib/gcc/arm-none-eabi/4.5.2/../../../../arm-none-eabi/include/c++/4.5.2/bits/stl_list.h ****       { __position._M_node->_M_transfer(__first._M_node, __last._M_node); }
1428:/opt/toolchains/arm-none-eabi/bin/../lib/gcc/arm-none-eabi/4.5.2/../../../../arm-none-eabi/include/c++/4.5.2/bits/stl_list.h **** 
1429:/opt/toolchains/arm-none-eabi/bin/../lib/gcc/arm-none-eabi/4.5.2/../../../../arm-none-eabi/include/c++/4.5.2/bits/stl_list.h ****       // Inserts new element at position given and with value given.
1430:/opt/toolchains/arm-none-eabi/bin/../lib/gcc/arm-none-eabi/4.5.2/../../../../arm-none-eabi/include/c++/4.5.2/bits/stl_list.h **** #ifndef __GXX_EXPERIMENTAL_CXX0X__
1431:/opt/toolchains/arm-none-eabi/bin/../lib/gcc/arm-none-eabi/4.5.2/../../../../arm-none-eabi/include/c++/4.5.2/bits/stl_list.h ****       void
1432:/opt/toolchains/arm-none-eabi/bin/../lib/gcc/arm-none-eabi/4.5.2/../../../../arm-none-eabi/include/c++/4.5.2/bits/stl_list.h ****       _M_insert(iterator __position, const value_type& __x)
 6191              		.loc 28 1432 0
 6192              		.cfi_startproc
 6193              		@ args = 0, pretend = 0, frame = 24
 6194              		@ frame_needed = 1, uses_anonymous_args = 0
 6195 0000 80B5     		push	{r7, lr}
 6196              	.LCFI141:
 6197              		.cfi_def_cfa_offset 8
 6198 0002 86B0     		sub	sp, sp, #24
 6199              	.LCFI142:
 6200              		.cfi_def_cfa_offset 32
 6201 0004 00AF     		add	r7, sp, #0
 6202              		.cfi_offset 14, -4
 6203              		.cfi_offset 7, -8
 6204              	.LCFI143:
 6205              		.cfi_def_cfa_register 7
 6206 0006 F860     		str	r0, [r7, #12]
 6207 0008 B960     		str	r1, [r7, #8]
 6208 000a 7A60     		str	r2, [r7, #4]
 6209              	.LBB30:
1433:/opt/toolchains/arm-none-eabi/bin/../lib/gcc/arm-none-eabi/4.5.2/../../../../arm-none-eabi/include/c++/4.5.2/bits/stl_list.h ****       {
1434:/opt/toolchains/arm-none-eabi/bin/../lib/gcc/arm-none-eabi/4.5.2/../../../../arm-none-eabi/include/c++/4.5.2/bits/stl_list.h ****         _Node* __tmp = _M_create_node(__x);
 6210              		.loc 28 1434 0
 6211 000c F868     		ldr	r0, [r7, #12]
 6212 000e 7968     		ldr	r1, [r7, #4]
 6213 0010 FFF7FEFF 		bl	_ZNSt4listIPN5Air3T5IViewESaIS2_EE14_M_create_nodeERKS2_
 6214 0014 7861     		str	r0, [r7, #20]
1435:/opt/toolchains/arm-none-eabi/bin/../lib/gcc/arm-none-eabi/4.5.2/../../../../arm-none-eabi/include/c++/4.5.2/bits/stl_list.h ****         __tmp->_M_hook(__position._M_node);
 6215              		.loc 28 1435 0
 6216 0016 7A69     		ldr	r2, [r7, #20]
 6217 0018 BB68     		ldr	r3, [r7, #8]
 6218 001a 1046     		mov	r0, r2
 6219 001c 1946     		mov	r1, r3
 6220 001e FFF7FEFF 		bl	_ZNSt15_List_node_base7_M_hookEPS_
 6221              	.LBE30:
1436:/opt/toolchains/arm-none-eabi/bin/../lib/gcc/arm-none-eabi/4.5.2/../../../../arm-none-eabi/include/c++/4.5.2/bits/stl_list.h ****       }
 6222              		.loc 28 1436 0
 6223 0022 07F11807 		add	r7, r7, #24
 6224 0026 BD46     		mov	sp, r7
 6225 0028 80BD     		pop	{r7, pc}
 6226              		.cfi_endproc
 6227              	.LFE961:
 6229 002a 00BF     		.section	.text._ZNKSt14_List_iteratorIPN5Air3T5IViewEEneERKS3_,"axG",%progbits,_ZNKSt14_List_itera
 6230              		.align	2
 6231              		.weak	_ZNKSt14_List_iteratorIPN5Air3T5IViewEEneERKS3_
 6232              		.thumb
 6233              		.thumb_func
 6235              	_ZNKSt14_List_iteratorIPN5Air3T5IViewEEneERKS3_:
 6236              	.LFB962:
 175:/opt/toolchains/arm-none-eabi/bin/../lib/gcc/arm-none-eabi/4.5.2/../../../../arm-none-eabi/include/c++/4.5.2/bits/stl_list.h ****       operator!=(const _Self& __x) const
 6237              		.loc 28 175 0
 6238              		.cfi_startproc
 6239              		@ args = 0, pretend = 0, frame = 8
 6240              		@ frame_needed = 1, uses_anonymous_args = 0
 6241              		@ link register save eliminated.
 6242 0000 80B4     		push	{r7}
 6243              	.LCFI144:
 6244              		.cfi_def_cfa_offset 4
 6245 0002 83B0     		sub	sp, sp, #12
 6246              	.LCFI145:
 6247              		.cfi_def_cfa_offset 16
 6248 0004 00AF     		add	r7, sp, #0
 6249              		.cfi_offset 7, -4
 6250              	.LCFI146:
 6251              		.cfi_def_cfa_register 7
 6252 0006 7860     		str	r0, [r7, #4]
 6253 0008 3960     		str	r1, [r7, #0]
 176:/opt/toolchains/arm-none-eabi/bin/../lib/gcc/arm-none-eabi/4.5.2/../../../../arm-none-eabi/include/c++/4.5.2/bits/stl_list.h ****       { return _M_node != __x._M_node; }
 6254              		.loc 28 176 0
 6255 000a 7B68     		ldr	r3, [r7, #4]
 6256 000c 1A68     		ldr	r2, [r3, #0]
 6257 000e 3B68     		ldr	r3, [r7, #0]
 6258 0010 1B68     		ldr	r3, [r3, #0]
 6259 0012 9A42     		cmp	r2, r3
 6260 0014 0CBF     		ite	eq
 6261 0016 0023     		moveq	r3, #0
 6262 0018 0123     		movne	r3, #1
 6263 001a DBB2     		uxtb	r3, r3
 6264 001c 1846     		mov	r0, r3
 6265 001e 07F10C07 		add	r7, r7, #12
 6266 0022 BD46     		mov	sp, r7
 6267 0024 80BC     		pop	{r7}
 6268 0026 7047     		bx	lr
 6269              		.cfi_endproc
 6270              	.LFE962:
 6272              		.section	.text._ZNSt14_List_iteratorIPN5Air3T5IViewEEppEv,"axG",%progbits,_ZNSt14_List_iteratorIPN
 6273              		.align	2
 6274              		.weak	_ZNSt14_List_iteratorIPN5Air3T5IViewEEppEv
 6275              		.thumb
 6276              		.thumb_func
 6278              	_ZNSt14_List_iteratorIPN5Air3T5IViewEEppEv:
 6279              	.LFB963:
 141:/opt/toolchains/arm-none-eabi/bin/../lib/gcc/arm-none-eabi/4.5.2/../../../../arm-none-eabi/include/c++/4.5.2/bits/stl_list.h ****       operator++()
 6280              		.loc 28 141 0
 6281              		.cfi_startproc
 6282              		@ args = 0, pretend = 0, frame = 8
 6283              		@ frame_needed = 1, uses_anonymous_args = 0
 6284              		@ link register save eliminated.
 6285 0000 80B4     		push	{r7}
 6286              	.LCFI147:
 6287              		.cfi_def_cfa_offset 4
 6288 0002 83B0     		sub	sp, sp, #12
 6289              	.LCFI148:
 6290              		.cfi_def_cfa_offset 16
 6291 0004 00AF     		add	r7, sp, #0
 6292              		.cfi_offset 7, -4
 6293              	.LCFI149:
 6294              		.cfi_def_cfa_register 7
 6295 0006 7860     		str	r0, [r7, #4]
 143:/opt/toolchains/arm-none-eabi/bin/../lib/gcc/arm-none-eabi/4.5.2/../../../../arm-none-eabi/include/c++/4.5.2/bits/stl_list.h **** 	_M_node = _M_node->_M_next;
 6296              		.loc 28 143 0
 6297 0008 7B68     		ldr	r3, [r7, #4]
 6298 000a 1B68     		ldr	r3, [r3, #0]
 6299 000c 1A68     		ldr	r2, [r3, #0]
 6300 000e 7B68     		ldr	r3, [r7, #4]
 6301 0010 1A60     		str	r2, [r3, #0]
 144:/opt/toolchains/arm-none-eabi/bin/../lib/gcc/arm-none-eabi/4.5.2/../../../../arm-none-eabi/include/c++/4.5.2/bits/stl_list.h **** 	return *this;
 6302              		.loc 28 144 0
 6303 0012 7B68     		ldr	r3, [r7, #4]
 145:/opt/toolchains/arm-none-eabi/bin/../lib/gcc/arm-none-eabi/4.5.2/../../../../arm-none-eabi/include/c++/4.5.2/bits/stl_list.h ****       }
 6304              		.loc 28 145 0
 6305 0014 1846     		mov	r0, r3
 6306 0016 07F10C07 		add	r7, r7, #12
 6307 001a BD46     		mov	sp, r7
 6308 001c 80BC     		pop	{r7}
 6309 001e 7047     		bx	lr
 6310              		.cfi_endproc
 6311              	.LFE963:
 6313              		.section	.text._ZNKSt14_List_iteratorIPN5Air3T5IViewEEdeEv,"axG",%progbits,_ZNKSt14_List_iteratorI
 6314              		.align	2
 6315              		.weak	_ZNKSt14_List_iteratorIPN5Air3T5IViewEEdeEv
 6316              		.thumb
 6317              		.thumb_func
 6319              	_ZNKSt14_List_iteratorIPN5Air3T5IViewEEdeEv:
 6320              	.LFB964:
 133:/opt/toolchains/arm-none-eabi/bin/../lib/gcc/arm-none-eabi/4.5.2/../../../../arm-none-eabi/include/c++/4.5.2/bits/stl_list.h ****       operator*() const
 6321              		.loc 28 133 0
 6322              		.cfi_startproc
 6323              		@ args = 0, pretend = 0, frame = 8
 6324              		@ frame_needed = 1, uses_anonymous_args = 0
 6325              		@ link register save eliminated.
 6326 0000 80B4     		push	{r7}
 6327              	.LCFI150:
 6328              		.cfi_def_cfa_offset 4
 6329 0002 83B0     		sub	sp, sp, #12
 6330              	.LCFI151:
 6331              		.cfi_def_cfa_offset 16
 6332 0004 00AF     		add	r7, sp, #0
 6333              		.cfi_offset 7, -4
 6334              	.LCFI152:
 6335              		.cfi_def_cfa_register 7
 6336 0006 7860     		str	r0, [r7, #4]
 134:/opt/toolchains/arm-none-eabi/bin/../lib/gcc/arm-none-eabi/4.5.2/../../../../arm-none-eabi/include/c++/4.5.2/bits/stl_list.h ****       { return static_cast<_Node*>(_M_node)->_M_data; }
 6337              		.loc 28 134 0
 6338 0008 7B68     		ldr	r3, [r7, #4]
 6339 000a 1B68     		ldr	r3, [r3, #0]
 6340 000c 03F10803 		add	r3, r3, #8
 6341 0010 1846     		mov	r0, r3
 6342 0012 07F10C07 		add	r7, r7, #12
 6343 0016 BD46     		mov	sp, r7
 6344 0018 80BC     		pop	{r7}
 6345 001a 7047     		bx	lr
 6346              		.cfi_endproc
 6347              	.LFE964:
 6349              		.section	.text._ZNSt4listIPN5Air3T5IViewESaIS2_EE8_M_eraseESt14_List_iteratorIS2_E,"axG",%progbits
 6350              		.align	2
 6351              		.weak	_ZNSt4listIPN5Air3T5IViewESaIS2_EE8_M_eraseESt14_List_iteratorIS2_E
 6352              		.thumb
 6353              		.thumb_func
 6355              	_ZNSt4listIPN5Air3T5IViewESaIS2_EE8_M_eraseESt14_List_iteratorIS2_E:
 6356              	.LFB965:
1437:/opt/toolchains/arm-none-eabi/bin/../lib/gcc/arm-none-eabi/4.5.2/../../../../arm-none-eabi/include/c++/4.5.2/bits/stl_list.h **** #else
1438:/opt/toolchains/arm-none-eabi/bin/../lib/gcc/arm-none-eabi/4.5.2/../../../../arm-none-eabi/include/c++/4.5.2/bits/stl_list.h ****      template<typename... _Args>
1439:/opt/toolchains/arm-none-eabi/bin/../lib/gcc/arm-none-eabi/4.5.2/../../../../arm-none-eabi/include/c++/4.5.2/bits/stl_list.h ****        void
1440:/opt/toolchains/arm-none-eabi/bin/../lib/gcc/arm-none-eabi/4.5.2/../../../../arm-none-eabi/include/c++/4.5.2/bits/stl_list.h ****        _M_insert(iterator __position, _Args&&... __args)
1441:/opt/toolchains/arm-none-eabi/bin/../lib/gcc/arm-none-eabi/4.5.2/../../../../arm-none-eabi/include/c++/4.5.2/bits/stl_list.h ****        {
1442:/opt/toolchains/arm-none-eabi/bin/../lib/gcc/arm-none-eabi/4.5.2/../../../../arm-none-eabi/include/c++/4.5.2/bits/stl_list.h **** 	 _Node* __tmp = _M_create_node(std::forward<_Args>(__args)...);
1443:/opt/toolchains/arm-none-eabi/bin/../lib/gcc/arm-none-eabi/4.5.2/../../../../arm-none-eabi/include/c++/4.5.2/bits/stl_list.h **** 	 __tmp->_M_hook(__position._M_node);
1444:/opt/toolchains/arm-none-eabi/bin/../lib/gcc/arm-none-eabi/4.5.2/../../../../arm-none-eabi/include/c++/4.5.2/bits/stl_list.h ****        }
1445:/opt/toolchains/arm-none-eabi/bin/../lib/gcc/arm-none-eabi/4.5.2/../../../../arm-none-eabi/include/c++/4.5.2/bits/stl_list.h **** #endif
1446:/opt/toolchains/arm-none-eabi/bin/../lib/gcc/arm-none-eabi/4.5.2/../../../../arm-none-eabi/include/c++/4.5.2/bits/stl_list.h **** 
1447:/opt/toolchains/arm-none-eabi/bin/../lib/gcc/arm-none-eabi/4.5.2/../../../../arm-none-eabi/include/c++/4.5.2/bits/stl_list.h ****       // Erases element at position given.
1448:/opt/toolchains/arm-none-eabi/bin/../lib/gcc/arm-none-eabi/4.5.2/../../../../arm-none-eabi/include/c++/4.5.2/bits/stl_list.h ****       void
1449:/opt/toolchains/arm-none-eabi/bin/../lib/gcc/arm-none-eabi/4.5.2/../../../../arm-none-eabi/include/c++/4.5.2/bits/stl_list.h ****       _M_erase(iterator __position)
 6357              		.loc 28 1449 0
 6358              		.cfi_startproc
 6359              		@ args = 0, pretend = 0, frame = 16
 6360              		@ frame_needed = 1, uses_anonymous_args = 0
 6361 0000 80B5     		push	{r7, lr}
 6362              	.LCFI153:
 6363              		.cfi_def_cfa_offset 8
 6364 0002 84B0     		sub	sp, sp, #16
 6365              	.LCFI154:
 6366              		.cfi_def_cfa_offset 24
 6367 0004 00AF     		add	r7, sp, #0
 6368              		.cfi_offset 14, -4
 6369              		.cfi_offset 7, -8
 6370              	.LCFI155:
 6371              		.cfi_def_cfa_register 7
 6372 0006 7860     		str	r0, [r7, #4]
 6373 0008 3960     		str	r1, [r7, #0]
 6374              	.LBB31:
1450:/opt/toolchains/arm-none-eabi/bin/../lib/gcc/arm-none-eabi/4.5.2/../../../../arm-none-eabi/include/c++/4.5.2/bits/stl_list.h ****       {
1451:/opt/toolchains/arm-none-eabi/bin/../lib/gcc/arm-none-eabi/4.5.2/../../../../arm-none-eabi/include/c++/4.5.2/bits/stl_list.h ****         __position._M_node->_M_unhook();
 6375              		.loc 28 1451 0
 6376 000a 3B68     		ldr	r3, [r7, #0]
 6377 000c 1846     		mov	r0, r3
 6378 000e FFF7FEFF 		bl	_ZNSt15_List_node_base9_M_unhookEv
1452:/opt/toolchains/arm-none-eabi/bin/../lib/gcc/arm-none-eabi/4.5.2/../../../../arm-none-eabi/include/c++/4.5.2/bits/stl_list.h ****         _Node* __n = static_cast<_Node*>(__position._M_node);
 6379              		.loc 28 1452 0
 6380 0012 3B68     		ldr	r3, [r7, #0]
 6381 0014 FB60     		str	r3, [r7, #12]
1453:/opt/toolchains/arm-none-eabi/bin/../lib/gcc/arm-none-eabi/4.5.2/../../../../arm-none-eabi/include/c++/4.5.2/bits/stl_list.h **** #ifdef __GXX_EXPERIMENTAL_CXX0X__
1454:/opt/toolchains/arm-none-eabi/bin/../lib/gcc/arm-none-eabi/4.5.2/../../../../arm-none-eabi/include/c++/4.5.2/bits/stl_list.h ****         _M_get_Node_allocator().destroy(__n);
1455:/opt/toolchains/arm-none-eabi/bin/../lib/gcc/arm-none-eabi/4.5.2/../../../../arm-none-eabi/include/c++/4.5.2/bits/stl_list.h **** #else
1456:/opt/toolchains/arm-none-eabi/bin/../lib/gcc/arm-none-eabi/4.5.2/../../../../arm-none-eabi/include/c++/4.5.2/bits/stl_list.h **** 	_M_get_Tp_allocator().destroy(&__n->_M_data);
 6382              		.loc 28 1456 0
 6383 0016 7B68     		ldr	r3, [r7, #4]
 6384 0018 07F10802 		add	r2, r7, #8
 6385 001c 1046     		mov	r0, r2
 6386 001e 1946     		mov	r1, r3
 6387 0020 FFF7FEFF 		bl	_ZNKSt10_List_baseIPN5Air3T5IViewESaIS2_EE19_M_get_Tp_allocatorEv
 6388 0024 07F10802 		add	r2, r7, #8
 6389 0028 FB68     		ldr	r3, [r7, #12]
 6390 002a 03F10803 		add	r3, r3, #8
 6391 002e 1046     		mov	r0, r2
 6392 0030 1946     		mov	r1, r3
 6393 0032 FFF7FEFF 		bl	_ZN9__gnu_cxx13new_allocatorIPN5Air3T5IViewEE7destroyEPS3_
 6394 0036 07F10803 		add	r3, r7, #8
 6395 003a 1846     		mov	r0, r3
 6396 003c FFF7FEFF 		bl	_ZNSaIPN5Air3T5IViewEED1Ev
1457:/opt/toolchains/arm-none-eabi/bin/../lib/gcc/arm-none-eabi/4.5.2/../../../../arm-none-eabi/include/c++/4.5.2/bits/stl_list.h **** #endif
1458:/opt/toolchains/arm-none-eabi/bin/../lib/gcc/arm-none-eabi/4.5.2/../../../../arm-none-eabi/include/c++/4.5.2/bits/stl_list.h ****         _M_put_node(__n);
 6397              		.loc 28 1458 0
 6398 0040 7B68     		ldr	r3, [r7, #4]
 6399 0042 1846     		mov	r0, r3
 6400 0044 F968     		ldr	r1, [r7, #12]
 6401 0046 FFF7FEFF 		bl	_ZNSt10_List_baseIPN5Air3T5IViewESaIS2_EE11_M_put_nodeEPSt10_List_nodeIS2_E
 6402              	.LBE31:
1459:/opt/toolchains/arm-none-eabi/bin/../lib/gcc/arm-none-eabi/4.5.2/../../../../arm-none-eabi/include/c++/4.5.2/bits/stl_list.h ****       }
 6403              		.loc 28 1459 0
 6404 004a 07F11007 		add	r7, r7, #16
 6405 004e BD46     		mov	sp, r7
 6406 0050 80BD     		pop	{r7, pc}
 6407              		.cfi_endproc
 6408              	.LFE965:
 6410 0052 00BF     		.section	.text._ZNSt4listIN5Air3T6PlayerESaIS1_EE9_M_insertESt14_List_iteratorIS1_ERKS1_,"axG",%pr
 6411              		.align	2
 6412              		.weak	_ZNSt4listIN5Air3T6PlayerESaIS1_EE9_M_insertESt14_List_iteratorIS1_ERKS1_
 6413              		.thumb
 6414              		.thumb_func
 6416              	_ZNSt4listIN5Air3T6PlayerESaIS1_EE9_M_insertESt14_List_iteratorIS1_ERKS1_:
 6417              	.LFB966:
1432:/opt/toolchains/arm-none-eabi/bin/../lib/gcc/arm-none-eabi/4.5.2/../../../../arm-none-eabi/include/c++/4.5.2/bits/stl_list.h ****       _M_insert(iterator __position, const value_type& __x)
 6418              		.loc 28 1432 0
 6419              		.cfi_startproc
 6420              		@ args = 0, pretend = 0, frame = 24
 6421              		@ frame_needed = 1, uses_anonymous_args = 0
 6422 0000 80B5     		push	{r7, lr}
 6423              	.LCFI156:
 6424              		.cfi_def_cfa_offset 8
 6425 0002 86B0     		sub	sp, sp, #24
 6426              	.LCFI157:
 6427              		.cfi_def_cfa_offset 32
 6428 0004 00AF     		add	r7, sp, #0
 6429              		.cfi_offset 14, -4
 6430              		.cfi_offset 7, -8
 6431              	.LCFI158:
 6432              		.cfi_def_cfa_register 7
 6433 0006 F860     		str	r0, [r7, #12]
 6434 0008 B960     		str	r1, [r7, #8]
 6435 000a 7A60     		str	r2, [r7, #4]
 6436              	.LBB32:
1434:/opt/toolchains/arm-none-eabi/bin/../lib/gcc/arm-none-eabi/4.5.2/../../../../arm-none-eabi/include/c++/4.5.2/bits/stl_list.h ****         _Node* __tmp = _M_create_node(__x);
 6437              		.loc 28 1434 0
 6438 000c F868     		ldr	r0, [r7, #12]
 6439 000e 7968     		ldr	r1, [r7, #4]
 6440 0010 FFF7FEFF 		bl	_ZNSt4listIN5Air3T6PlayerESaIS1_EE14_M_create_nodeERKS1_
 6441 0014 7861     		str	r0, [r7, #20]
1435:/opt/toolchains/arm-none-eabi/bin/../lib/gcc/arm-none-eabi/4.5.2/../../../../arm-none-eabi/include/c++/4.5.2/bits/stl_list.h ****         __tmp->_M_hook(__position._M_node);
 6442              		.loc 28 1435 0
 6443 0016 7A69     		ldr	r2, [r7, #20]
 6444 0018 BB68     		ldr	r3, [r7, #8]
 6445 001a 1046     		mov	r0, r2
 6446 001c 1946     		mov	r1, r3
 6447 001e FFF7FEFF 		bl	_ZNSt15_List_node_base7_M_hookEPS_
 6448              	.LBE32:
1436:/opt/toolchains/arm-none-eabi/bin/../lib/gcc/arm-none-eabi/4.5.2/../../../../arm-none-eabi/include/c++/4.5.2/bits/stl_list.h ****       }
 6449              		.loc 28 1436 0
 6450 0022 07F11807 		add	r7, r7, #24
 6451 0026 BD46     		mov	sp, r7
 6452 0028 80BD     		pop	{r7, pc}
 6453              		.cfi_endproc
 6454              	.LFE966:
 6456 002a 00BF     		.section	.text._ZNSt14_List_iteratorIN5Air3T6PlayerEEC2EPSt15_List_node_base,"axG",%progbits,_ZNSt
 6457              		.align	2
 6458              		.weak	_ZNSt14_List_iteratorIN5Air3T6PlayerEEC2EPSt15_List_node_base
 6459              		.thumb
 6460              		.thumb_func
 6462              	_ZNSt14_List_iteratorIN5Air3T6PlayerEEC2EPSt15_List_node_base:
 6463              	.LFB968:
 128:/opt/toolchains/arm-none-eabi/bin/../lib/gcc/arm-none-eabi/4.5.2/../../../../arm-none-eabi/include/c++/4.5.2/bits/stl_list.h ****       _List_iterator(_List_node_base* __x)
 6464              		.loc 28 128 0
 6465              		.cfi_startproc
 6466              		@ args = 0, pretend = 0, frame = 8
 6467              		@ frame_needed = 1, uses_anonymous_args = 0
 6468              		@ link register save eliminated.
 6469 0000 80B4     		push	{r7}
 6470              	.LCFI159:
 6471              		.cfi_def_cfa_offset 4
 6472 0002 83B0     		sub	sp, sp, #12
 6473              	.LCFI160:
 6474              		.cfi_def_cfa_offset 16
 6475 0004 00AF     		add	r7, sp, #0
 6476              		.cfi_offset 7, -4
 6477              	.LCFI161:
 6478              		.cfi_def_cfa_register 7
 6479 0006 7860     		str	r0, [r7, #4]
 6480 0008 3960     		str	r1, [r7, #0]
 6481              	.LBB33:
 129:/opt/toolchains/arm-none-eabi/bin/../lib/gcc/arm-none-eabi/4.5.2/../../../../arm-none-eabi/include/c++/4.5.2/bits/stl_list.h ****       : _M_node(__x) { }
 6482              		.loc 28 129 0
 6483 000a 7B68     		ldr	r3, [r7, #4]
 6484 000c 3A68     		ldr	r2, [r7, #0]
 6485 000e 1A60     		str	r2, [r3, #0]
 6486              	.LBE33:
 6487 0010 7B68     		ldr	r3, [r7, #4]
 6488 0012 1846     		mov	r0, r3
 6489 0014 07F10C07 		add	r7, r7, #12
 6490 0018 BD46     		mov	sp, r7
 6491 001a 80BC     		pop	{r7}
 6492 001c 7047     		bx	lr
 6493              		.cfi_endproc
 6494              	.LFE968:
 6496              		.weak	_ZNSt14_List_iteratorIN5Air3T6PlayerEEC1EPSt15_List_node_base
 6497              		.thumb_set _ZNSt14_List_iteratorIN5Air3T6PlayerEEC1EPSt15_List_node_base,_ZNSt14_List_iteratorIN5A
 6498 001e 00BF     		.section	.text._ZNSt4listIN5Air3T6PlayerESaIS1_EE8_M_eraseESt14_List_iteratorIS1_E,"axG",%progbits
 6499              		.align	2
 6500              		.weak	_ZNSt4listIN5Air3T6PlayerESaIS1_EE8_M_eraseESt14_List_iteratorIS1_E
 6501              		.thumb
 6502              		.thumb_func
 6504              	_ZNSt4listIN5Air3T6PlayerESaIS1_EE8_M_eraseESt14_List_iteratorIS1_E:
 6505              	.LFB970:
1449:/opt/toolchains/arm-none-eabi/bin/../lib/gcc/arm-none-eabi/4.5.2/../../../../arm-none-eabi/include/c++/4.5.2/bits/stl_list.h ****       _M_erase(iterator __position)
 6506              		.loc 28 1449 0
 6507              		.cfi_startproc
 6508              		@ args = 0, pretend = 0, frame = 16
 6509              		@ frame_needed = 1, uses_anonymous_args = 0
 6510 0000 80B5     		push	{r7, lr}
 6511              	.LCFI162:
 6512              		.cfi_def_cfa_offset 8
 6513 0002 84B0     		sub	sp, sp, #16
 6514              	.LCFI163:
 6515              		.cfi_def_cfa_offset 24
 6516 0004 00AF     		add	r7, sp, #0
 6517              		.cfi_offset 14, -4
 6518              		.cfi_offset 7, -8
 6519              	.LCFI164:
 6520              		.cfi_def_cfa_register 7
 6521 0006 7860     		str	r0, [r7, #4]
 6522 0008 3960     		str	r1, [r7, #0]
 6523              	.LBB34:
1451:/opt/toolchains/arm-none-eabi/bin/../lib/gcc/arm-none-eabi/4.5.2/../../../../arm-none-eabi/include/c++/4.5.2/bits/stl_list.h ****         __position._M_node->_M_unhook();
 6524              		.loc 28 1451 0
 6525 000a 3B68     		ldr	r3, [r7, #0]
 6526 000c 1846     		mov	r0, r3
 6527 000e FFF7FEFF 		bl	_ZNSt15_List_node_base9_M_unhookEv
1452:/opt/toolchains/arm-none-eabi/bin/../lib/gcc/arm-none-eabi/4.5.2/../../../../arm-none-eabi/include/c++/4.5.2/bits/stl_list.h ****         _Node* __n = static_cast<_Node*>(__position._M_node);
 6528              		.loc 28 1452 0
 6529 0012 3B68     		ldr	r3, [r7, #0]
 6530 0014 FB60     		str	r3, [r7, #12]
1456:/opt/toolchains/arm-none-eabi/bin/../lib/gcc/arm-none-eabi/4.5.2/../../../../arm-none-eabi/include/c++/4.5.2/bits/stl_list.h **** 	_M_get_Tp_allocator().destroy(&__n->_M_data);
 6531              		.loc 28 1456 0
 6532 0016 7B68     		ldr	r3, [r7, #4]
 6533 0018 07F10802 		add	r2, r7, #8
 6534 001c 1046     		mov	r0, r2
 6535 001e 1946     		mov	r1, r3
 6536 0020 FFF7FEFF 		bl	_ZNKSt10_List_baseIN5Air3T6PlayerESaIS1_EE19_M_get_Tp_allocatorEv
 6537 0024 07F10802 		add	r2, r7, #8
 6538 0028 FB68     		ldr	r3, [r7, #12]
 6539 002a 03F10803 		add	r3, r3, #8
 6540 002e 1046     		mov	r0, r2
 6541 0030 1946     		mov	r1, r3
 6542 0032 FFF7FEFF 		bl	_ZN9__gnu_cxx13new_allocatorIN5Air3T6PlayerEE7destroyEPS2_
 6543 0036 07F10803 		add	r3, r7, #8
 6544 003a 1846     		mov	r0, r3
 6545 003c FFF7FEFF 		bl	_ZNSaIN5Air3T6PlayerEED1Ev
1458:/opt/toolchains/arm-none-eabi/bin/../lib/gcc/arm-none-eabi/4.5.2/../../../../arm-none-eabi/include/c++/4.5.2/bits/stl_list.h ****         _M_put_node(__n);
 6546              		.loc 28 1458 0
 6547 0040 7B68     		ldr	r3, [r7, #4]
 6548 0042 1846     		mov	r0, r3
 6549 0044 F968     		ldr	r1, [r7, #12]
 6550 0046 FFF7FEFF 		bl	_ZNSt10_List_baseIN5Air3T6PlayerESaIS1_EE11_M_put_nodeEPSt10_List_nodeIS1_E
 6551              	.LBE34:
 6552              		.loc 28 1459 0
 6553 004a 07F11007 		add	r7, r7, #16
 6554 004e BD46     		mov	sp, r7
 6555 0050 80BD     		pop	{r7, pc}
 6556              		.cfi_endproc
 6557              	.LFE970:
 6559 0052 00BF     		.section	.text._ZNSt10_List_baseIN5Air3T6PlayerESaIS1_EE7_M_initEv,"axG",%progbits,_ZNSt10_List_ba
 6560              		.align	2
 6561              		.weak	_ZNSt10_List_baseIN5Air3T6PlayerESaIS1_EE7_M_initEv
 6562              		.thumb
 6563              		.thumb_func
 6565              	_ZNSt10_List_baseIN5Air3T6PlayerESaIS1_EE7_M_initEv:
 6566              	.LFB971:
 366:/opt/toolchains/arm-none-eabi/bin/../lib/gcc/arm-none-eabi/4.5.2/../../../../arm-none-eabi/include/c++/4.5.2/bits/stl_list.h ****       _M_init()
 6567              		.loc 28 366 0
 6568              		.cfi_startproc
 6569              		@ args = 0, pretend = 0, frame = 8
 6570              		@ frame_needed = 1, uses_anonymous_args = 0
 6571              		@ link register save eliminated.
 6572 0000 80B4     		push	{r7}
 6573              	.LCFI165:
 6574              		.cfi_def_cfa_offset 4
 6575 0002 83B0     		sub	sp, sp, #12
 6576              	.LCFI166:
 6577              		.cfi_def_cfa_offset 16
 6578 0004 00AF     		add	r7, sp, #0
 6579              		.cfi_offset 7, -4
 6580              	.LCFI167:
 6581              		.cfi_def_cfa_register 7
 6582 0006 7860     		str	r0, [r7, #4]
 368:/opt/toolchains/arm-none-eabi/bin/../lib/gcc/arm-none-eabi/4.5.2/../../../../arm-none-eabi/include/c++/4.5.2/bits/stl_list.h ****         this->_M_impl._M_node._M_next = &this->_M_impl._M_node;
 6583              		.loc 28 368 0
 6584 0008 7A68     		ldr	r2, [r7, #4]
 6585 000a 7B68     		ldr	r3, [r7, #4]
 6586 000c 1A60     		str	r2, [r3, #0]
 369:/opt/toolchains/arm-none-eabi/bin/../lib/gcc/arm-none-eabi/4.5.2/../../../../arm-none-eabi/include/c++/4.5.2/bits/stl_list.h ****         this->_M_impl._M_node._M_prev = &this->_M_impl._M_node;
 6587              		.loc 28 369 0
 6588 000e 7A68     		ldr	r2, [r7, #4]
 6589 0010 7B68     		ldr	r3, [r7, #4]
 6590 0012 5A60     		str	r2, [r3, #4]
 370:/opt/toolchains/arm-none-eabi/bin/../lib/gcc/arm-none-eabi/4.5.2/../../../../arm-none-eabi/include/c++/4.5.2/bits/stl_list.h ****       }
 6591              		.loc 28 370 0
 6592 0014 07F10C07 		add	r7, r7, #12
 6593 0018 BD46     		mov	sp, r7
 6594 001a 80BC     		pop	{r7}
 6595 001c 7047     		bx	lr
 6596              		.cfi_endproc
 6597              	.LFE971:
 6599 001e 00BF     		.section	.text._ZNSt14_List_iteratorIPN5Air3T5IViewEEC2EPSt15_List_node_base,"axG",%progbits,_ZNSt
 6600              		.align	2
 6601              		.weak	_ZNSt14_List_iteratorIPN5Air3T5IViewEEC2EPSt15_List_node_base
 6602              		.thumb
 6603              		.thumb_func
 6605              	_ZNSt14_List_iteratorIPN5Air3T5IViewEEC2EPSt15_List_node_base:
 6606              	.LFB973:
 128:/opt/toolchains/arm-none-eabi/bin/../lib/gcc/arm-none-eabi/4.5.2/../../../../arm-none-eabi/include/c++/4.5.2/bits/stl_list.h ****       _List_iterator(_List_node_base* __x)
 6607              		.loc 28 128 0
 6608              		.cfi_startproc
 6609              		@ args = 0, pretend = 0, frame = 8
 6610              		@ frame_needed = 1, uses_anonymous_args = 0
 6611              		@ link register save eliminated.
 6612 0000 80B4     		push	{r7}
 6613              	.LCFI168:
 6614              		.cfi_def_cfa_offset 4
 6615 0002 83B0     		sub	sp, sp, #12
 6616              	.LCFI169:
 6617              		.cfi_def_cfa_offset 16
 6618 0004 00AF     		add	r7, sp, #0
 6619              		.cfi_offset 7, -4
 6620              	.LCFI170:
 6621              		.cfi_def_cfa_register 7
 6622 0006 7860     		str	r0, [r7, #4]
 6623 0008 3960     		str	r1, [r7, #0]
 6624              	.LBB35:
 129:/opt/toolchains/arm-none-eabi/bin/../lib/gcc/arm-none-eabi/4.5.2/../../../../arm-none-eabi/include/c++/4.5.2/bits/stl_list.h ****       : _M_node(__x) { }
 6625              		.loc 28 129 0
 6626 000a 7B68     		ldr	r3, [r7, #4]
 6627 000c 3A68     		ldr	r2, [r7, #0]
 6628 000e 1A60     		str	r2, [r3, #0]
 6629              	.LBE35:
 6630 0010 7B68     		ldr	r3, [r7, #4]
 6631 0012 1846     		mov	r0, r3
 6632 0014 07F10C07 		add	r7, r7, #12
 6633 0018 BD46     		mov	sp, r7
 6634 001a 80BC     		pop	{r7}
 6635 001c 7047     		bx	lr
 6636              		.cfi_endproc
 6637              	.LFE973:
 6639              		.weak	_ZNSt14_List_iteratorIPN5Air3T5IViewEEC1EPSt15_List_node_base
 6640              		.thumb_set _ZNSt14_List_iteratorIPN5Air3T5IViewEEC1EPSt15_List_node_base,_ZNSt14_List_iteratorIPN5
 6641 001e 00BF     		.section	.text._ZNSt10_List_baseIPN5Air3T5IViewESaIS2_EE10_List_implC2Ev,"axG",%progbits,_ZNSt10_L
 6642              		.align	2
 6643              		.weak	_ZNSt10_List_baseIPN5Air3T5IViewESaIS2_EE10_List_implC2Ev
 6644              		.thumb
 6645              		.thumb_func
 6647              	_ZNSt10_List_baseIPN5Air3T5IViewESaIS2_EE10_List_implC2Ev:
 6648              	.LFB976:
 303:/opt/toolchains/arm-none-eabi/bin/../lib/gcc/arm-none-eabi/4.5.2/../../../../arm-none-eabi/include/c++/4.5.2/bits/stl_list.h **** 	_List_impl()
 6649              		.loc 28 303 0
 6650              		.cfi_startproc
 6651              		@ args = 0, pretend = 0, frame = 8
 6652              		@ frame_needed = 1, uses_anonymous_args = 0
 6653 0000 80B5     		push	{r7, lr}
 6654              	.LCFI171:
 6655              		.cfi_def_cfa_offset 8
 6656 0002 82B0     		sub	sp, sp, #8
 6657              	.LCFI172:
 6658              		.cfi_def_cfa_offset 16
 6659 0004 00AF     		add	r7, sp, #0
 6660              		.cfi_offset 14, -4
 6661              		.cfi_offset 7, -8
 6662              	.LCFI173:
 6663              		.cfi_def_cfa_register 7
 6664 0006 7860     		str	r0, [r7, #4]
 6665              	.LBB36:
 304:/opt/toolchains/arm-none-eabi/bin/../lib/gcc/arm-none-eabi/4.5.2/../../../../arm-none-eabi/include/c++/4.5.2/bits/stl_list.h **** 	: _Node_alloc_type(), _M_node()
 6666              		.loc 28 304 0
 6667 0008 7B68     		ldr	r3, [r7, #4]
 6668 000a 1846     		mov	r0, r3
 6669 000c FFF7FEFF 		bl	_ZNSaISt10_List_nodeIPN5Air3T5IViewEEEC2Ev
 6670 0010 7B68     		ldr	r3, [r7, #4]
 6671 0012 4FF00002 		mov	r2, #0
 6672 0016 1A60     		str	r2, [r3, #0]
 6673 0018 7B68     		ldr	r3, [r7, #4]
 6674 001a 4FF00002 		mov	r2, #0
 6675 001e 5A60     		str	r2, [r3, #4]
 6676              	.LBE36:
 305:/opt/toolchains/arm-none-eabi/bin/../lib/gcc/arm-none-eabi/4.5.2/../../../../arm-none-eabi/include/c++/4.5.2/bits/stl_list.h **** 	{ }
 6677              		.loc 28 305 0
 6678 0020 7B68     		ldr	r3, [r7, #4]
 6679 0022 1846     		mov	r0, r3
 6680 0024 07F10807 		add	r7, r7, #8
 6681 0028 BD46     		mov	sp, r7
 6682 002a 80BD     		pop	{r7, pc}
 6683              		.cfi_endproc
 6684              	.LFE976:
 6686              		.weak	_ZNSt10_List_baseIPN5Air3T5IViewESaIS2_EE10_List_implC1Ev
 6687              		.thumb_set _ZNSt10_List_baseIPN5Air3T5IViewESaIS2_EE10_List_implC1Ev,_ZNSt10_List_baseIPN5Air3T5IV
 6688              		.section	.text._ZNSt10_List_baseIPN5Air3T5IViewESaIS2_EE7_M_initEv,"axG",%progbits,_ZNSt10_List_ba
 6689              		.align	2
 6690              		.weak	_ZNSt10_List_baseIPN5Air3T5IViewESaIS2_EE7_M_initEv
 6691              		.thumb
 6692              		.thumb_func
 6694              	_ZNSt10_List_baseIPN5Air3T5IViewESaIS2_EE7_M_initEv:
 6695              	.LFB978:
 366:/opt/toolchains/arm-none-eabi/bin/../lib/gcc/arm-none-eabi/4.5.2/../../../../arm-none-eabi/include/c++/4.5.2/bits/stl_list.h ****       _M_init()
 6696              		.loc 28 366 0
 6697              		.cfi_startproc
 6698              		@ args = 0, pretend = 0, frame = 8
 6699              		@ frame_needed = 1, uses_anonymous_args = 0
 6700              		@ link register save eliminated.
 6701 0000 80B4     		push	{r7}
 6702              	.LCFI174:
 6703              		.cfi_def_cfa_offset 4
 6704 0002 83B0     		sub	sp, sp, #12
 6705              	.LCFI175:
 6706              		.cfi_def_cfa_offset 16
 6707 0004 00AF     		add	r7, sp, #0
 6708              		.cfi_offset 7, -4
 6709              	.LCFI176:
 6710              		.cfi_def_cfa_register 7
 6711 0006 7860     		str	r0, [r7, #4]
 368:/opt/toolchains/arm-none-eabi/bin/../lib/gcc/arm-none-eabi/4.5.2/../../../../arm-none-eabi/include/c++/4.5.2/bits/stl_list.h ****         this->_M_impl._M_node._M_next = &this->_M_impl._M_node;
 6712              		.loc 28 368 0
 6713 0008 7A68     		ldr	r2, [r7, #4]
 6714 000a 7B68     		ldr	r3, [r7, #4]
 6715 000c 1A60     		str	r2, [r3, #0]
 369:/opt/toolchains/arm-none-eabi/bin/../lib/gcc/arm-none-eabi/4.5.2/../../../../arm-none-eabi/include/c++/4.5.2/bits/stl_list.h ****         this->_M_impl._M_node._M_prev = &this->_M_impl._M_node;
 6716              		.loc 28 369 0
 6717 000e 7A68     		ldr	r2, [r7, #4]
 6718 0010 7B68     		ldr	r3, [r7, #4]
 6719 0012 5A60     		str	r2, [r3, #4]
 370:/opt/toolchains/arm-none-eabi/bin/../lib/gcc/arm-none-eabi/4.5.2/../../../../arm-none-eabi/include/c++/4.5.2/bits/stl_list.h ****       }
 6720              		.loc 28 370 0
 6721 0014 07F10C07 		add	r7, r7, #12
 6722 0018 BD46     		mov	sp, r7
 6723 001a 80BC     		pop	{r7}
 6724 001c 7047     		bx	lr
 6725              		.cfi_endproc
 6726              	.LFE978:
 6728 001e 00BF     		.section	.text._ZN9__gnu_cxx13new_allocatorISt10_List_nodeIPN5Air3T5IViewEEED2Ev,"axG",%progbits,_
 6729              		.align	2
 6730              		.weak	_ZN9__gnu_cxx13new_allocatorISt10_List_nodeIPN5Air3T5IViewEEED2Ev
 6731              		.thumb
 6732              		.thumb_func
 6734              	_ZN9__gnu_cxx13new_allocatorISt10_List_nodeIPN5Air3T5IViewEEED2Ev:
 6735              	.LFB980:
   1:/opt/toolchains/arm-none-eabi/bin/../lib/gcc/arm-none-eabi/4.5.2/../../../../arm-none-eabi/include/c++/4.5.2/ext/new_allocator.h **** // Allocator that wraps operator new -*- C++ -*-
   2:/opt/toolchains/arm-none-eabi/bin/../lib/gcc/arm-none-eabi/4.5.2/../../../../arm-none-eabi/include/c++/4.5.2/ext/new_allocator.h **** 
   3:/opt/toolchains/arm-none-eabi/bin/../lib/gcc/arm-none-eabi/4.5.2/../../../../arm-none-eabi/include/c++/4.5.2/ext/new_allocator.h **** // Copyright (C) 2001, 2002, 2003, 2004, 2005, 2009
   4:/opt/toolchains/arm-none-eabi/bin/../lib/gcc/arm-none-eabi/4.5.2/../../../../arm-none-eabi/include/c++/4.5.2/ext/new_allocator.h **** // Free Software Foundation, Inc.
   5:/opt/toolchains/arm-none-eabi/bin/../lib/gcc/arm-none-eabi/4.5.2/../../../../arm-none-eabi/include/c++/4.5.2/ext/new_allocator.h **** //
   6:/opt/toolchains/arm-none-eabi/bin/../lib/gcc/arm-none-eabi/4.5.2/../../../../arm-none-eabi/include/c++/4.5.2/ext/new_allocator.h **** // This file is part of the GNU ISO C++ Library.  This library is free
   7:/opt/toolchains/arm-none-eabi/bin/../lib/gcc/arm-none-eabi/4.5.2/../../../../arm-none-eabi/include/c++/4.5.2/ext/new_allocator.h **** // software; you can redistribute it and/or modify it under the
   8:/opt/toolchains/arm-none-eabi/bin/../lib/gcc/arm-none-eabi/4.5.2/../../../../arm-none-eabi/include/c++/4.5.2/ext/new_allocator.h **** // terms of the GNU General Public License as published by the
   9:/opt/toolchains/arm-none-eabi/bin/../lib/gcc/arm-none-eabi/4.5.2/../../../../arm-none-eabi/include/c++/4.5.2/ext/new_allocator.h **** // Free Software Foundation; either version 3, or (at your option)
  10:/opt/toolchains/arm-none-eabi/bin/../lib/gcc/arm-none-eabi/4.5.2/../../../../arm-none-eabi/include/c++/4.5.2/ext/new_allocator.h **** // any later version.
  11:/opt/toolchains/arm-none-eabi/bin/../lib/gcc/arm-none-eabi/4.5.2/../../../../arm-none-eabi/include/c++/4.5.2/ext/new_allocator.h **** 
  12:/opt/toolchains/arm-none-eabi/bin/../lib/gcc/arm-none-eabi/4.5.2/../../../../arm-none-eabi/include/c++/4.5.2/ext/new_allocator.h **** // This library is distributed in the hope that it will be useful,
  13:/opt/toolchains/arm-none-eabi/bin/../lib/gcc/arm-none-eabi/4.5.2/../../../../arm-none-eabi/include/c++/4.5.2/ext/new_allocator.h **** // but WITHOUT ANY WARRANTY; without even the implied warranty of
  14:/opt/toolchains/arm-none-eabi/bin/../lib/gcc/arm-none-eabi/4.5.2/../../../../arm-none-eabi/include/c++/4.5.2/ext/new_allocator.h **** // MERCHANTABILITY or FITNESS FOR A PARTICULAR PURPOSE.  See the
  15:/opt/toolchains/arm-none-eabi/bin/../lib/gcc/arm-none-eabi/4.5.2/../../../../arm-none-eabi/include/c++/4.5.2/ext/new_allocator.h **** // GNU General Public License for more details.
  16:/opt/toolchains/arm-none-eabi/bin/../lib/gcc/arm-none-eabi/4.5.2/../../../../arm-none-eabi/include/c++/4.5.2/ext/new_allocator.h **** 
  17:/opt/toolchains/arm-none-eabi/bin/../lib/gcc/arm-none-eabi/4.5.2/../../../../arm-none-eabi/include/c++/4.5.2/ext/new_allocator.h **** // Under Section 7 of GPL version 3, you are granted additional
  18:/opt/toolchains/arm-none-eabi/bin/../lib/gcc/arm-none-eabi/4.5.2/../../../../arm-none-eabi/include/c++/4.5.2/ext/new_allocator.h **** // permissions described in the GCC Runtime Library Exception, version
  19:/opt/toolchains/arm-none-eabi/bin/../lib/gcc/arm-none-eabi/4.5.2/../../../../arm-none-eabi/include/c++/4.5.2/ext/new_allocator.h **** // 3.1, as published by the Free Software Foundation.
  20:/opt/toolchains/arm-none-eabi/bin/../lib/gcc/arm-none-eabi/4.5.2/../../../../arm-none-eabi/include/c++/4.5.2/ext/new_allocator.h **** 
  21:/opt/toolchains/arm-none-eabi/bin/../lib/gcc/arm-none-eabi/4.5.2/../../../../arm-none-eabi/include/c++/4.5.2/ext/new_allocator.h **** // You should have received a copy of the GNU General Public License and
  22:/opt/toolchains/arm-none-eabi/bin/../lib/gcc/arm-none-eabi/4.5.2/../../../../arm-none-eabi/include/c++/4.5.2/ext/new_allocator.h **** // a copy of the GCC Runtime Library Exception along with this program;
  23:/opt/toolchains/arm-none-eabi/bin/../lib/gcc/arm-none-eabi/4.5.2/../../../../arm-none-eabi/include/c++/4.5.2/ext/new_allocator.h **** // see the files COPYING3 and COPYING.RUNTIME respectively.  If not, see
  24:/opt/toolchains/arm-none-eabi/bin/../lib/gcc/arm-none-eabi/4.5.2/../../../../arm-none-eabi/include/c++/4.5.2/ext/new_allocator.h **** // <http://www.gnu.org/licenses/>.
  25:/opt/toolchains/arm-none-eabi/bin/../lib/gcc/arm-none-eabi/4.5.2/../../../../arm-none-eabi/include/c++/4.5.2/ext/new_allocator.h **** 
  26:/opt/toolchains/arm-none-eabi/bin/../lib/gcc/arm-none-eabi/4.5.2/../../../../arm-none-eabi/include/c++/4.5.2/ext/new_allocator.h **** /** @file ext/new_allocator.h
  27:/opt/toolchains/arm-none-eabi/bin/../lib/gcc/arm-none-eabi/4.5.2/../../../../arm-none-eabi/include/c++/4.5.2/ext/new_allocator.h ****  *  This file is a GNU extension to the Standard C++ Library.
  28:/opt/toolchains/arm-none-eabi/bin/../lib/gcc/arm-none-eabi/4.5.2/../../../../arm-none-eabi/include/c++/4.5.2/ext/new_allocator.h ****  */
  29:/opt/toolchains/arm-none-eabi/bin/../lib/gcc/arm-none-eabi/4.5.2/../../../../arm-none-eabi/include/c++/4.5.2/ext/new_allocator.h **** 
  30:/opt/toolchains/arm-none-eabi/bin/../lib/gcc/arm-none-eabi/4.5.2/../../../../arm-none-eabi/include/c++/4.5.2/ext/new_allocator.h **** #ifndef _NEW_ALLOCATOR_H
  31:/opt/toolchains/arm-none-eabi/bin/../lib/gcc/arm-none-eabi/4.5.2/../../../../arm-none-eabi/include/c++/4.5.2/ext/new_allocator.h **** #define _NEW_ALLOCATOR_H 1
  32:/opt/toolchains/arm-none-eabi/bin/../lib/gcc/arm-none-eabi/4.5.2/../../../../arm-none-eabi/include/c++/4.5.2/ext/new_allocator.h **** 
  33:/opt/toolchains/arm-none-eabi/bin/../lib/gcc/arm-none-eabi/4.5.2/../../../../arm-none-eabi/include/c++/4.5.2/ext/new_allocator.h **** #include <new>
  34:/opt/toolchains/arm-none-eabi/bin/../lib/gcc/arm-none-eabi/4.5.2/../../../../arm-none-eabi/include/c++/4.5.2/ext/new_allocator.h **** #include <bits/functexcept.h>
  35:/opt/toolchains/arm-none-eabi/bin/../lib/gcc/arm-none-eabi/4.5.2/../../../../arm-none-eabi/include/c++/4.5.2/ext/new_allocator.h **** #include <bits/move.h>
  36:/opt/toolchains/arm-none-eabi/bin/../lib/gcc/arm-none-eabi/4.5.2/../../../../arm-none-eabi/include/c++/4.5.2/ext/new_allocator.h **** 
  37:/opt/toolchains/arm-none-eabi/bin/../lib/gcc/arm-none-eabi/4.5.2/../../../../arm-none-eabi/include/c++/4.5.2/ext/new_allocator.h **** _GLIBCXX_BEGIN_NAMESPACE(__gnu_cxx)
  38:/opt/toolchains/arm-none-eabi/bin/../lib/gcc/arm-none-eabi/4.5.2/../../../../arm-none-eabi/include/c++/4.5.2/ext/new_allocator.h **** 
  39:/opt/toolchains/arm-none-eabi/bin/../lib/gcc/arm-none-eabi/4.5.2/../../../../arm-none-eabi/include/c++/4.5.2/ext/new_allocator.h ****   using std::size_t;
  40:/opt/toolchains/arm-none-eabi/bin/../lib/gcc/arm-none-eabi/4.5.2/../../../../arm-none-eabi/include/c++/4.5.2/ext/new_allocator.h ****   using std::ptrdiff_t;
  41:/opt/toolchains/arm-none-eabi/bin/../lib/gcc/arm-none-eabi/4.5.2/../../../../arm-none-eabi/include/c++/4.5.2/ext/new_allocator.h **** 
  42:/opt/toolchains/arm-none-eabi/bin/../lib/gcc/arm-none-eabi/4.5.2/../../../../arm-none-eabi/include/c++/4.5.2/ext/new_allocator.h ****   /**
  43:/opt/toolchains/arm-none-eabi/bin/../lib/gcc/arm-none-eabi/4.5.2/../../../../arm-none-eabi/include/c++/4.5.2/ext/new_allocator.h ****    *  @brief  An allocator that uses global new, as per [20.4].
  44:/opt/toolchains/arm-none-eabi/bin/../lib/gcc/arm-none-eabi/4.5.2/../../../../arm-none-eabi/include/c++/4.5.2/ext/new_allocator.h ****    *  @ingroup allocators
  45:/opt/toolchains/arm-none-eabi/bin/../lib/gcc/arm-none-eabi/4.5.2/../../../../arm-none-eabi/include/c++/4.5.2/ext/new_allocator.h ****    *
  46:/opt/toolchains/arm-none-eabi/bin/../lib/gcc/arm-none-eabi/4.5.2/../../../../arm-none-eabi/include/c++/4.5.2/ext/new_allocator.h ****    *  This is precisely the allocator defined in the C++ Standard. 
  47:/opt/toolchains/arm-none-eabi/bin/../lib/gcc/arm-none-eabi/4.5.2/../../../../arm-none-eabi/include/c++/4.5.2/ext/new_allocator.h ****    *    - all allocation calls operator new
  48:/opt/toolchains/arm-none-eabi/bin/../lib/gcc/arm-none-eabi/4.5.2/../../../../arm-none-eabi/include/c++/4.5.2/ext/new_allocator.h ****    *    - all deallocation calls operator delete
  49:/opt/toolchains/arm-none-eabi/bin/../lib/gcc/arm-none-eabi/4.5.2/../../../../arm-none-eabi/include/c++/4.5.2/ext/new_allocator.h ****    */
  50:/opt/toolchains/arm-none-eabi/bin/../lib/gcc/arm-none-eabi/4.5.2/../../../../arm-none-eabi/include/c++/4.5.2/ext/new_allocator.h ****   template<typename _Tp>
  51:/opt/toolchains/arm-none-eabi/bin/../lib/gcc/arm-none-eabi/4.5.2/../../../../arm-none-eabi/include/c++/4.5.2/ext/new_allocator.h ****     class new_allocator
  52:/opt/toolchains/arm-none-eabi/bin/../lib/gcc/arm-none-eabi/4.5.2/../../../../arm-none-eabi/include/c++/4.5.2/ext/new_allocator.h ****     {
  53:/opt/toolchains/arm-none-eabi/bin/../lib/gcc/arm-none-eabi/4.5.2/../../../../arm-none-eabi/include/c++/4.5.2/ext/new_allocator.h ****     public:
  54:/opt/toolchains/arm-none-eabi/bin/../lib/gcc/arm-none-eabi/4.5.2/../../../../arm-none-eabi/include/c++/4.5.2/ext/new_allocator.h ****       typedef size_t     size_type;
  55:/opt/toolchains/arm-none-eabi/bin/../lib/gcc/arm-none-eabi/4.5.2/../../../../arm-none-eabi/include/c++/4.5.2/ext/new_allocator.h ****       typedef ptrdiff_t  difference_type;
  56:/opt/toolchains/arm-none-eabi/bin/../lib/gcc/arm-none-eabi/4.5.2/../../../../arm-none-eabi/include/c++/4.5.2/ext/new_allocator.h ****       typedef _Tp*       pointer;
  57:/opt/toolchains/arm-none-eabi/bin/../lib/gcc/arm-none-eabi/4.5.2/../../../../arm-none-eabi/include/c++/4.5.2/ext/new_allocator.h ****       typedef const _Tp* const_pointer;
  58:/opt/toolchains/arm-none-eabi/bin/../lib/gcc/arm-none-eabi/4.5.2/../../../../arm-none-eabi/include/c++/4.5.2/ext/new_allocator.h ****       typedef _Tp&       reference;
  59:/opt/toolchains/arm-none-eabi/bin/../lib/gcc/arm-none-eabi/4.5.2/../../../../arm-none-eabi/include/c++/4.5.2/ext/new_allocator.h ****       typedef const _Tp& const_reference;
  60:/opt/toolchains/arm-none-eabi/bin/../lib/gcc/arm-none-eabi/4.5.2/../../../../arm-none-eabi/include/c++/4.5.2/ext/new_allocator.h ****       typedef _Tp        value_type;
  61:/opt/toolchains/arm-none-eabi/bin/../lib/gcc/arm-none-eabi/4.5.2/../../../../arm-none-eabi/include/c++/4.5.2/ext/new_allocator.h **** 
  62:/opt/toolchains/arm-none-eabi/bin/../lib/gcc/arm-none-eabi/4.5.2/../../../../arm-none-eabi/include/c++/4.5.2/ext/new_allocator.h ****       template<typename _Tp1>
  63:/opt/toolchains/arm-none-eabi/bin/../lib/gcc/arm-none-eabi/4.5.2/../../../../arm-none-eabi/include/c++/4.5.2/ext/new_allocator.h ****         struct rebind
  64:/opt/toolchains/arm-none-eabi/bin/../lib/gcc/arm-none-eabi/4.5.2/../../../../arm-none-eabi/include/c++/4.5.2/ext/new_allocator.h ****         { typedef new_allocator<_Tp1> other; };
  65:/opt/toolchains/arm-none-eabi/bin/../lib/gcc/arm-none-eabi/4.5.2/../../../../arm-none-eabi/include/c++/4.5.2/ext/new_allocator.h **** 
  66:/opt/toolchains/arm-none-eabi/bin/../lib/gcc/arm-none-eabi/4.5.2/../../../../arm-none-eabi/include/c++/4.5.2/ext/new_allocator.h ****       new_allocator() throw() { }
  67:/opt/toolchains/arm-none-eabi/bin/../lib/gcc/arm-none-eabi/4.5.2/../../../../arm-none-eabi/include/c++/4.5.2/ext/new_allocator.h **** 
  68:/opt/toolchains/arm-none-eabi/bin/../lib/gcc/arm-none-eabi/4.5.2/../../../../arm-none-eabi/include/c++/4.5.2/ext/new_allocator.h ****       new_allocator(const new_allocator&) throw() { }
  69:/opt/toolchains/arm-none-eabi/bin/../lib/gcc/arm-none-eabi/4.5.2/../../../../arm-none-eabi/include/c++/4.5.2/ext/new_allocator.h **** 
  70:/opt/toolchains/arm-none-eabi/bin/../lib/gcc/arm-none-eabi/4.5.2/../../../../arm-none-eabi/include/c++/4.5.2/ext/new_allocator.h ****       template<typename _Tp1>
  71:/opt/toolchains/arm-none-eabi/bin/../lib/gcc/arm-none-eabi/4.5.2/../../../../arm-none-eabi/include/c++/4.5.2/ext/new_allocator.h ****         new_allocator(const new_allocator<_Tp1>&) throw() { }
  72:/opt/toolchains/arm-none-eabi/bin/../lib/gcc/arm-none-eabi/4.5.2/../../../../arm-none-eabi/include/c++/4.5.2/ext/new_allocator.h **** 
  73:/opt/toolchains/arm-none-eabi/bin/../lib/gcc/arm-none-eabi/4.5.2/../../../../arm-none-eabi/include/c++/4.5.2/ext/new_allocator.h ****       ~new_allocator() throw() { }
 6736              		.loc 25 73 0
 6737              		.cfi_startproc
 6738              		@ args = 0, pretend = 0, frame = 8
 6739              		@ frame_needed = 1, uses_anonymous_args = 0
 6740              		@ link register save eliminated.
 6741 0000 80B4     		push	{r7}
 6742              	.LCFI177:
 6743              		.cfi_def_cfa_offset 4
 6744 0002 83B0     		sub	sp, sp, #12
 6745              	.LCFI178:
 6746              		.cfi_def_cfa_offset 16
 6747 0004 00AF     		add	r7, sp, #0
 6748              		.cfi_offset 7, -4
 6749              	.LCFI179:
 6750              		.cfi_def_cfa_register 7
 6751 0006 7860     		str	r0, [r7, #4]
 6752              		.loc 25 73 0
 6753 0008 7B68     		ldr	r3, [r7, #4]
 6754 000a 1846     		mov	r0, r3
 6755 000c 07F10C07 		add	r7, r7, #12
 6756 0010 BD46     		mov	sp, r7
 6757 0012 80BC     		pop	{r7}
 6758 0014 7047     		bx	lr
 6759              		.cfi_endproc
 6760              	.LFE980:
 6762              		.weak	_ZN9__gnu_cxx13new_allocatorISt10_List_nodeIPN5Air3T5IViewEEED1Ev
 6763              		.thumb_set _ZN9__gnu_cxx13new_allocatorISt10_List_nodeIPN5Air3T5IViewEEED1Ev,_ZN9__gnu_cxx13new_al
 6764 0016 00BF     		.section	.text._ZNKSt10_List_baseIPN5Air3T5IViewESaIS2_EE19_M_get_Tp_allocatorEv,"axG",%progbits,_
 6765              		.align	2
 6766              		.weak	_ZNKSt10_List_baseIPN5Air3T5IViewESaIS2_EE19_M_get_Tp_allocatorEv
 6767              		.thumb
 6768              		.thumb_func
 6770              	_ZNKSt10_List_baseIPN5Air3T5IViewESaIS2_EE19_M_get_Tp_allocatorEv:
 6771              	.LFB982:
 334:/opt/toolchains/arm-none-eabi/bin/../lib/gcc/arm-none-eabi/4.5.2/../../../../arm-none-eabi/include/c++/4.5.2/bits/stl_list.h ****       _M_get_Tp_allocator() const
 6772              		.loc 28 334 0
 6773              		.cfi_startproc
 6774              		@ args = 0, pretend = 0, frame = 8
 6775              		@ frame_needed = 1, uses_anonymous_args = 0
 6776 0000 B0B5     		push	{r4, r5, r7, lr}
 6777              	.LCFI180:
 6778              		.cfi_def_cfa_offset 16
 6779 0002 82B0     		sub	sp, sp, #8
 6780              	.LCFI181:
 6781              		.cfi_def_cfa_offset 24
 6782 0004 00AF     		add	r7, sp, #0
 6783              		.cfi_offset 14, -4
 6784              		.cfi_offset 7, -8
 6785              		.cfi_offset 5, -12
 6786              		.cfi_offset 4, -16
 6787              	.LCFI182:
 6788              		.cfi_def_cfa_register 7
 6789 0006 0446     		mov	r4, r0
 6790 0008 7960     		str	r1, [r7, #4]
 335:/opt/toolchains/arm-none-eabi/bin/../lib/gcc/arm-none-eabi/4.5.2/../../../../arm-none-eabi/include/c++/4.5.2/bits/stl_list.h ****       { return _Tp_alloc_type(_M_get_Node_allocator()); }
 6791              		.loc 28 335 0
 6792 000a 2546     		mov	r5, r4
 6793 000c 7868     		ldr	r0, [r7, #4]
 6794 000e FFF7FEFF 		bl	_ZNKSt10_List_baseIPN5Air3T5IViewESaIS2_EE21_M_get_Node_allocatorEv
 6795 0012 0346     		mov	r3, r0
 6796 0014 2846     		mov	r0, r5
 6797 0016 1946     		mov	r1, r3
 6798 0018 FFF7FEFF 		bl	_ZNSaIPN5Air3T5IViewEEC1ISt10_List_nodeIS1_EEERKSaIT_E
 6799 001c 2046     		mov	r0, r4
 6800 001e 2046     		mov	r0, r4
 6801 0020 07F10807 		add	r7, r7, #8
 6802 0024 BD46     		mov	sp, r7
 6803 0026 B0BD     		pop	{r4, r5, r7, pc}
 6804              		.cfi_endproc
 6805              	.LFE982:
 6807              		.section	.text._ZNSaIPN5Air3T5IViewEED2Ev,"axG",%progbits,_ZNSaIPN5Air3T5IViewEED5Ev,comdat
 6808              		.align	2
 6809              		.weak	_ZNSaIPN5Air3T5IViewEED2Ev
 6810              		.thumb
 6811              		.thumb_func
 6813              	_ZNSaIPN5Air3T5IViewEED2Ev:
 6814              	.LFB984:
 6815              		.loc 23 109 0
 6816              		.cfi_startproc
 6817              		@ args = 0, pretend = 0, frame = 8
 6818              		@ frame_needed = 1, uses_anonymous_args = 0
 6819 0000 80B5     		push	{r7, lr}
 6820              	.LCFI183:
 6821              		.cfi_def_cfa_offset 8
 6822 0002 82B0     		sub	sp, sp, #8
 6823              	.LCFI184:
 6824              		.cfi_def_cfa_offset 16
 6825 0004 00AF     		add	r7, sp, #0
 6826              		.cfi_offset 14, -4
 6827              		.cfi_offset 7, -8
 6828              	.LCFI185:
 6829              		.cfi_def_cfa_register 7
 6830 0006 7860     		str	r0, [r7, #4]
 6831              	.LBB37:
 6832              		.loc 23 109 0
 6833 0008 7B68     		ldr	r3, [r7, #4]
 6834 000a 1846     		mov	r0, r3
 6835 000c FFF7FEFF 		bl	_ZN9__gnu_cxx13new_allocatorIPN5Air3T5IViewEED2Ev
 6836              	.LBE37:
 6837 0010 7B68     		ldr	r3, [r7, #4]
 6838 0012 1846     		mov	r0, r3
 6839 0014 07F10807 		add	r7, r7, #8
 6840 0018 BD46     		mov	sp, r7
 6841 001a 80BD     		pop	{r7, pc}
 6842              		.cfi_endproc
 6843              	.LFE984:
 6845              		.weak	_ZNSaIPN5Air3T5IViewEED1Ev
 6846              		.thumb_set _ZNSaIPN5Air3T5IViewEED1Ev,_ZNSaIPN5Air3T5IViewEED2Ev
 6847              		.section	.text._ZN9__gnu_cxx13new_allocatorIPN5Air3T5IViewEE7destroyEPS3_,"axG",%progbits,_ZN9__gn
 6848              		.align	2
 6849              		.weak	_ZN9__gnu_cxx13new_allocatorIPN5Air3T5IViewEE7destroyEPS3_
 6850              		.thumb
 6851              		.thumb_func
 6853              	_ZN9__gnu_cxx13new_allocatorIPN5Air3T5IViewEE7destroyEPS3_:
 6854              	.LFB986:
  74:/opt/toolchains/arm-none-eabi/bin/../lib/gcc/arm-none-eabi/4.5.2/../../../../arm-none-eabi/include/c++/4.5.2/ext/new_allocator.h **** 
  75:/opt/toolchains/arm-none-eabi/bin/../lib/gcc/arm-none-eabi/4.5.2/../../../../arm-none-eabi/include/c++/4.5.2/ext/new_allocator.h ****       pointer
  76:/opt/toolchains/arm-none-eabi/bin/../lib/gcc/arm-none-eabi/4.5.2/../../../../arm-none-eabi/include/c++/4.5.2/ext/new_allocator.h ****       address(reference __x) const { return &__x; }
  77:/opt/toolchains/arm-none-eabi/bin/../lib/gcc/arm-none-eabi/4.5.2/../../../../arm-none-eabi/include/c++/4.5.2/ext/new_allocator.h **** 
  78:/opt/toolchains/arm-none-eabi/bin/../lib/gcc/arm-none-eabi/4.5.2/../../../../arm-none-eabi/include/c++/4.5.2/ext/new_allocator.h ****       const_pointer
  79:/opt/toolchains/arm-none-eabi/bin/../lib/gcc/arm-none-eabi/4.5.2/../../../../arm-none-eabi/include/c++/4.5.2/ext/new_allocator.h ****       address(const_reference __x) const { return &__x; }
  80:/opt/toolchains/arm-none-eabi/bin/../lib/gcc/arm-none-eabi/4.5.2/../../../../arm-none-eabi/include/c++/4.5.2/ext/new_allocator.h **** 
  81:/opt/toolchains/arm-none-eabi/bin/../lib/gcc/arm-none-eabi/4.5.2/../../../../arm-none-eabi/include/c++/4.5.2/ext/new_allocator.h ****       // NB: __n is permitted to be 0.  The C++ standard says nothing
  82:/opt/toolchains/arm-none-eabi/bin/../lib/gcc/arm-none-eabi/4.5.2/../../../../arm-none-eabi/include/c++/4.5.2/ext/new_allocator.h ****       // about what the return value is when __n == 0.
  83:/opt/toolchains/arm-none-eabi/bin/../lib/gcc/arm-none-eabi/4.5.2/../../../../arm-none-eabi/include/c++/4.5.2/ext/new_allocator.h ****       pointer
  84:/opt/toolchains/arm-none-eabi/bin/../lib/gcc/arm-none-eabi/4.5.2/../../../../arm-none-eabi/include/c++/4.5.2/ext/new_allocator.h ****       allocate(size_type __n, const void* = 0)
  85:/opt/toolchains/arm-none-eabi/bin/../lib/gcc/arm-none-eabi/4.5.2/../../../../arm-none-eabi/include/c++/4.5.2/ext/new_allocator.h ****       { 
  86:/opt/toolchains/arm-none-eabi/bin/../lib/gcc/arm-none-eabi/4.5.2/../../../../arm-none-eabi/include/c++/4.5.2/ext/new_allocator.h **** 	if (__n > this->max_size())
  87:/opt/toolchains/arm-none-eabi/bin/../lib/gcc/arm-none-eabi/4.5.2/../../../../arm-none-eabi/include/c++/4.5.2/ext/new_allocator.h **** 	  std::__throw_bad_alloc();
  88:/opt/toolchains/arm-none-eabi/bin/../lib/gcc/arm-none-eabi/4.5.2/../../../../arm-none-eabi/include/c++/4.5.2/ext/new_allocator.h **** 
  89:/opt/toolchains/arm-none-eabi/bin/../lib/gcc/arm-none-eabi/4.5.2/../../../../arm-none-eabi/include/c++/4.5.2/ext/new_allocator.h **** 	return static_cast<_Tp*>(::operator new(__n * sizeof(_Tp)));
  90:/opt/toolchains/arm-none-eabi/bin/../lib/gcc/arm-none-eabi/4.5.2/../../../../arm-none-eabi/include/c++/4.5.2/ext/new_allocator.h ****       }
  91:/opt/toolchains/arm-none-eabi/bin/../lib/gcc/arm-none-eabi/4.5.2/../../../../arm-none-eabi/include/c++/4.5.2/ext/new_allocator.h **** 
  92:/opt/toolchains/arm-none-eabi/bin/../lib/gcc/arm-none-eabi/4.5.2/../../../../arm-none-eabi/include/c++/4.5.2/ext/new_allocator.h ****       // __p is not permitted to be a null pointer.
  93:/opt/toolchains/arm-none-eabi/bin/../lib/gcc/arm-none-eabi/4.5.2/../../../../arm-none-eabi/include/c++/4.5.2/ext/new_allocator.h ****       void
  94:/opt/toolchains/arm-none-eabi/bin/../lib/gcc/arm-none-eabi/4.5.2/../../../../arm-none-eabi/include/c++/4.5.2/ext/new_allocator.h ****       deallocate(pointer __p, size_type)
  95:/opt/toolchains/arm-none-eabi/bin/../lib/gcc/arm-none-eabi/4.5.2/../../../../arm-none-eabi/include/c++/4.5.2/ext/new_allocator.h ****       { ::operator delete(__p); }
  96:/opt/toolchains/arm-none-eabi/bin/../lib/gcc/arm-none-eabi/4.5.2/../../../../arm-none-eabi/include/c++/4.5.2/ext/new_allocator.h **** 
  97:/opt/toolchains/arm-none-eabi/bin/../lib/gcc/arm-none-eabi/4.5.2/../../../../arm-none-eabi/include/c++/4.5.2/ext/new_allocator.h ****       size_type
  98:/opt/toolchains/arm-none-eabi/bin/../lib/gcc/arm-none-eabi/4.5.2/../../../../arm-none-eabi/include/c++/4.5.2/ext/new_allocator.h ****       max_size() const throw() 
  99:/opt/toolchains/arm-none-eabi/bin/../lib/gcc/arm-none-eabi/4.5.2/../../../../arm-none-eabi/include/c++/4.5.2/ext/new_allocator.h ****       { return size_t(-1) / sizeof(_Tp); }
 100:/opt/toolchains/arm-none-eabi/bin/../lib/gcc/arm-none-eabi/4.5.2/../../../../arm-none-eabi/include/c++/4.5.2/ext/new_allocator.h **** 
 101:/opt/toolchains/arm-none-eabi/bin/../lib/gcc/arm-none-eabi/4.5.2/../../../../arm-none-eabi/include/c++/4.5.2/ext/new_allocator.h ****       // _GLIBCXX_RESOLVE_LIB_DEFECTS
 102:/opt/toolchains/arm-none-eabi/bin/../lib/gcc/arm-none-eabi/4.5.2/../../../../arm-none-eabi/include/c++/4.5.2/ext/new_allocator.h ****       // 402. wrong new expression in [some_] allocator::construct
 103:/opt/toolchains/arm-none-eabi/bin/../lib/gcc/arm-none-eabi/4.5.2/../../../../arm-none-eabi/include/c++/4.5.2/ext/new_allocator.h ****       void 
 104:/opt/toolchains/arm-none-eabi/bin/../lib/gcc/arm-none-eabi/4.5.2/../../../../arm-none-eabi/include/c++/4.5.2/ext/new_allocator.h ****       construct(pointer __p, const _Tp& __val) 
 105:/opt/toolchains/arm-none-eabi/bin/../lib/gcc/arm-none-eabi/4.5.2/../../../../arm-none-eabi/include/c++/4.5.2/ext/new_allocator.h ****       { ::new((void *)__p) _Tp(__val); }
 106:/opt/toolchains/arm-none-eabi/bin/../lib/gcc/arm-none-eabi/4.5.2/../../../../arm-none-eabi/include/c++/4.5.2/ext/new_allocator.h **** 
 107:/opt/toolchains/arm-none-eabi/bin/../lib/gcc/arm-none-eabi/4.5.2/../../../../arm-none-eabi/include/c++/4.5.2/ext/new_allocator.h **** #ifdef __GXX_EXPERIMENTAL_CXX0X__
 108:/opt/toolchains/arm-none-eabi/bin/../lib/gcc/arm-none-eabi/4.5.2/../../../../arm-none-eabi/include/c++/4.5.2/ext/new_allocator.h ****       template<typename... _Args>
 109:/opt/toolchains/arm-none-eabi/bin/../lib/gcc/arm-none-eabi/4.5.2/../../../../arm-none-eabi/include/c++/4.5.2/ext/new_allocator.h ****         void
 110:/opt/toolchains/arm-none-eabi/bin/../lib/gcc/arm-none-eabi/4.5.2/../../../../arm-none-eabi/include/c++/4.5.2/ext/new_allocator.h ****         construct(pointer __p, _Args&&... __args)
 111:/opt/toolchains/arm-none-eabi/bin/../lib/gcc/arm-none-eabi/4.5.2/../../../../arm-none-eabi/include/c++/4.5.2/ext/new_allocator.h **** 	{ ::new((void *)__p) _Tp(std::forward<_Args>(__args)...); }
 112:/opt/toolchains/arm-none-eabi/bin/../lib/gcc/arm-none-eabi/4.5.2/../../../../arm-none-eabi/include/c++/4.5.2/ext/new_allocator.h **** #endif
 113:/opt/toolchains/arm-none-eabi/bin/../lib/gcc/arm-none-eabi/4.5.2/../../../../arm-none-eabi/include/c++/4.5.2/ext/new_allocator.h **** 
 114:/opt/toolchains/arm-none-eabi/bin/../lib/gcc/arm-none-eabi/4.5.2/../../../../arm-none-eabi/include/c++/4.5.2/ext/new_allocator.h ****       void 
 115:/opt/toolchains/arm-none-eabi/bin/../lib/gcc/arm-none-eabi/4.5.2/../../../../arm-none-eabi/include/c++/4.5.2/ext/new_allocator.h ****       destroy(pointer __p) { __p->~_Tp(); }
 6855              		.loc 25 115 0
 6856              		.cfi_startproc
 6857              		@ args = 0, pretend = 0, frame = 8
 6858              		@ frame_needed = 1, uses_anonymous_args = 0
 6859              		@ link register save eliminated.
 6860 0000 80B4     		push	{r7}
 6861              	.LCFI186:
 6862              		.cfi_def_cfa_offset 4
 6863 0002 83B0     		sub	sp, sp, #12
 6864              	.LCFI187:
 6865              		.cfi_def_cfa_offset 16
 6866 0004 00AF     		add	r7, sp, #0
 6867              		.cfi_offset 7, -4
 6868              	.LCFI188:
 6869              		.cfi_def_cfa_register 7
 6870 0006 7860     		str	r0, [r7, #4]
 6871 0008 3960     		str	r1, [r7, #0]
 6872              		.loc 25 115 0
 6873 000a 07F10C07 		add	r7, r7, #12
 6874 000e BD46     		mov	sp, r7
 6875 0010 80BC     		pop	{r7}
 6876 0012 7047     		bx	lr
 6877              		.cfi_endproc
 6878              	.LFE986:
 6880              		.section	.text._ZNSt10_List_baseIPN5Air3T5IViewESaIS2_EE11_M_put_nodeEPSt10_List_nodeIS2_E,"axG",%
 6881              		.align	2
 6882              		.weak	_ZNSt10_List_baseIPN5Air3T5IViewESaIS2_EE11_M_put_nodeEPSt10_List_nodeIS2_E
 6883              		.thumb
 6884              		.thumb_func
 6886              	_ZNSt10_List_baseIPN5Air3T5IViewESaIS2_EE11_M_put_nodeEPSt10_List_nodeIS2_E:
 6887              	.LFB987:
 319:/opt/toolchains/arm-none-eabi/bin/../lib/gcc/arm-none-eabi/4.5.2/../../../../arm-none-eabi/include/c++/4.5.2/bits/stl_list.h ****       _M_put_node(_List_node<_Tp>* __p)
 6888              		.loc 28 319 0
 6889              		.cfi_startproc
 6890              		@ args = 0, pretend = 0, frame = 8
 6891              		@ frame_needed = 1, uses_anonymous_args = 0
 6892 0000 80B5     		push	{r7, lr}
 6893              	.LCFI189:
 6894              		.cfi_def_cfa_offset 8
 6895 0002 82B0     		sub	sp, sp, #8
 6896              	.LCFI190:
 6897              		.cfi_def_cfa_offset 16
 6898 0004 00AF     		add	r7, sp, #0
 6899              		.cfi_offset 14, -4
 6900              		.cfi_offset 7, -8
 6901              	.LCFI191:
 6902              		.cfi_def_cfa_register 7
 6903 0006 7860     		str	r0, [r7, #4]
 6904 0008 3960     		str	r1, [r7, #0]
 320:/opt/toolchains/arm-none-eabi/bin/../lib/gcc/arm-none-eabi/4.5.2/../../../../arm-none-eabi/include/c++/4.5.2/bits/stl_list.h ****       { _M_impl._Node_alloc_type::deallocate(__p, 1); }
 6905              		.loc 28 320 0
 6906 000a 7B68     		ldr	r3, [r7, #4]
 6907 000c 1846     		mov	r0, r3
 6908 000e 3968     		ldr	r1, [r7, #0]
 6909 0010 4FF00102 		mov	r2, #1
 6910 0014 FFF7FEFF 		bl	_ZN9__gnu_cxx13new_allocatorISt10_List_nodeIPN5Air3T5IViewEEE10deallocateEPS5_j
 6911 0018 07F10807 		add	r7, r7, #8
 6912 001c BD46     		mov	sp, r7
 6913 001e 80BD     		pop	{r7, pc}
 6914              		.cfi_endproc
 6915              	.LFE987:
 6917              		.section	.text._ZNSt10_List_baseIN5Air3T6PlayerESaIS1_EE10_List_implC2Ev,"axG",%progbits,_ZNSt10_L
 6918              		.align	2
 6919              		.weak	_ZNSt10_List_baseIN5Air3T6PlayerESaIS1_EE10_List_implC2Ev
 6920              		.thumb
 6921              		.thumb_func
 6923              	_ZNSt10_List_baseIN5Air3T6PlayerESaIS1_EE10_List_implC2Ev:
 6924              	.LFB989:
 303:/opt/toolchains/arm-none-eabi/bin/../lib/gcc/arm-none-eabi/4.5.2/../../../../arm-none-eabi/include/c++/4.5.2/bits/stl_list.h **** 	_List_impl()
 6925              		.loc 28 303 0
 6926              		.cfi_startproc
 6927              		@ args = 0, pretend = 0, frame = 8
 6928              		@ frame_needed = 1, uses_anonymous_args = 0
 6929 0000 80B5     		push	{r7, lr}
 6930              	.LCFI192:
 6931              		.cfi_def_cfa_offset 8
 6932 0002 82B0     		sub	sp, sp, #8
 6933              	.LCFI193:
 6934              		.cfi_def_cfa_offset 16
 6935 0004 00AF     		add	r7, sp, #0
 6936              		.cfi_offset 14, -4
 6937              		.cfi_offset 7, -8
 6938              	.LCFI194:
 6939              		.cfi_def_cfa_register 7
 6940 0006 7860     		str	r0, [r7, #4]
 6941              	.LBB38:
 304:/opt/toolchains/arm-none-eabi/bin/../lib/gcc/arm-none-eabi/4.5.2/../../../../arm-none-eabi/include/c++/4.5.2/bits/stl_list.h **** 	: _Node_alloc_type(), _M_node()
 6942              		.loc 28 304 0
 6943 0008 7B68     		ldr	r3, [r7, #4]
 6944 000a 1846     		mov	r0, r3
 6945 000c FFF7FEFF 		bl	_ZNSaISt10_List_nodeIN5Air3T6PlayerEEEC2Ev
 6946 0010 7B68     		ldr	r3, [r7, #4]
 6947 0012 4FF00002 		mov	r2, #0
 6948 0016 1A60     		str	r2, [r3, #0]
 6949 0018 7B68     		ldr	r3, [r7, #4]
 6950 001a 4FF00002 		mov	r2, #0
 6951 001e 5A60     		str	r2, [r3, #4]
 6952              	.LBE38:
 305:/opt/toolchains/arm-none-eabi/bin/../lib/gcc/arm-none-eabi/4.5.2/../../../../arm-none-eabi/include/c++/4.5.2/bits/stl_list.h **** 	{ }
 6953              		.loc 28 305 0
 6954 0020 7B68     		ldr	r3, [r7, #4]
 6955 0022 1846     		mov	r0, r3
 6956 0024 07F10807 		add	r7, r7, #8
 6957 0028 BD46     		mov	sp, r7
 6958 002a 80BD     		pop	{r7, pc}
 6959              		.cfi_endproc
 6960              	.LFE989:
 6962              		.weak	_ZNSt10_List_baseIN5Air3T6PlayerESaIS1_EE10_List_implC1Ev
 6963              		.thumb_set _ZNSt10_List_baseIN5Air3T6PlayerESaIS1_EE10_List_implC1Ev,_ZNSt10_List_baseIN5Air3T6Pla
 6964              		.section	.text._ZN9__gnu_cxx13new_allocatorISt10_List_nodeIN5Air3T6PlayerEEED2Ev,"axG",%progbits,_
 6965              		.align	2
 6966              		.weak	_ZN9__gnu_cxx13new_allocatorISt10_List_nodeIN5Air3T6PlayerEEED2Ev
 6967              		.thumb
 6968              		.thumb_func
 6970              	_ZN9__gnu_cxx13new_allocatorISt10_List_nodeIN5Air3T6PlayerEEED2Ev:
 6971              	.LFB992:
  73:/opt/toolchains/arm-none-eabi/bin/../lib/gcc/arm-none-eabi/4.5.2/../../../../arm-none-eabi/include/c++/4.5.2/ext/new_allocator.h ****       ~new_allocator() throw() { }
 6972              		.loc 25 73 0
 6973              		.cfi_startproc
 6974              		@ args = 0, pretend = 0, frame = 8
 6975              		@ frame_needed = 1, uses_anonymous_args = 0
 6976              		@ link register save eliminated.
 6977 0000 80B4     		push	{r7}
 6978              	.LCFI195:
 6979              		.cfi_def_cfa_offset 4
 6980 0002 83B0     		sub	sp, sp, #12
 6981              	.LCFI196:
 6982              		.cfi_def_cfa_offset 16
 6983 0004 00AF     		add	r7, sp, #0
 6984              		.cfi_offset 7, -4
 6985              	.LCFI197:
 6986              		.cfi_def_cfa_register 7
 6987 0006 7860     		str	r0, [r7, #4]
  73:/opt/toolchains/arm-none-eabi/bin/../lib/gcc/arm-none-eabi/4.5.2/../../../../arm-none-eabi/include/c++/4.5.2/ext/new_allocator.h ****       ~new_allocator() throw() { }
 6988              		.loc 25 73 0
 6989 0008 7B68     		ldr	r3, [r7, #4]
 6990 000a 1846     		mov	r0, r3
 6991 000c 07F10C07 		add	r7, r7, #12
 6992 0010 BD46     		mov	sp, r7
 6993 0012 80BC     		pop	{r7}
 6994 0014 7047     		bx	lr
 6995              		.cfi_endproc
 6996              	.LFE992:
 6998              		.weak	_ZN9__gnu_cxx13new_allocatorISt10_List_nodeIN5Air3T6PlayerEEED1Ev
 6999              		.thumb_set _ZN9__gnu_cxx13new_allocatorISt10_List_nodeIN5Air3T6PlayerEEED1Ev,_ZN9__gnu_cxx13new_al
 7000 0016 00BF     		.section	.text._ZNKSt10_List_baseIN5Air3T6PlayerESaIS1_EE19_M_get_Tp_allocatorEv,"axG",%progbits,_
 7001              		.align	2
 7002              		.weak	_ZNKSt10_List_baseIN5Air3T6PlayerESaIS1_EE19_M_get_Tp_allocatorEv
 7003              		.thumb
 7004              		.thumb_func
 7006              	_ZNKSt10_List_baseIN5Air3T6PlayerESaIS1_EE19_M_get_Tp_allocatorEv:
 7007              	.LFB994:
 334:/opt/toolchains/arm-none-eabi/bin/../lib/gcc/arm-none-eabi/4.5.2/../../../../arm-none-eabi/include/c++/4.5.2/bits/stl_list.h ****       _M_get_Tp_allocator() const
 7008              		.loc 28 334 0
 7009              		.cfi_startproc
 7010              		@ args = 0, pretend = 0, frame = 8
 7011              		@ frame_needed = 1, uses_anonymous_args = 0
 7012 0000 B0B5     		push	{r4, r5, r7, lr}
 7013              	.LCFI198:
 7014              		.cfi_def_cfa_offset 16
 7015 0002 82B0     		sub	sp, sp, #8
 7016              	.LCFI199:
 7017              		.cfi_def_cfa_offset 24
 7018 0004 00AF     		add	r7, sp, #0
 7019              		.cfi_offset 14, -4
 7020              		.cfi_offset 7, -8
 7021              		.cfi_offset 5, -12
 7022              		.cfi_offset 4, -16
 7023              	.LCFI200:
 7024              		.cfi_def_cfa_register 7
 7025 0006 0446     		mov	r4, r0
 7026 0008 7960     		str	r1, [r7, #4]
 335:/opt/toolchains/arm-none-eabi/bin/../lib/gcc/arm-none-eabi/4.5.2/../../../../arm-none-eabi/include/c++/4.5.2/bits/stl_list.h ****       { return _Tp_alloc_type(_M_get_Node_allocator()); }
 7027              		.loc 28 335 0
 7028 000a 2546     		mov	r5, r4
 7029 000c 7868     		ldr	r0, [r7, #4]
 7030 000e FFF7FEFF 		bl	_ZNKSt10_List_baseIN5Air3T6PlayerESaIS1_EE21_M_get_Node_allocatorEv
 7031 0012 0346     		mov	r3, r0
 7032 0014 2846     		mov	r0, r5
 7033 0016 1946     		mov	r1, r3
 7034 0018 FFF7FEFF 		bl	_ZNSaIN5Air3T6PlayerEEC1ISt10_List_nodeIS0_EEERKSaIT_E
 7035 001c 2046     		mov	r0, r4
 7036 001e 2046     		mov	r0, r4
 7037 0020 07F10807 		add	r7, r7, #8
 7038 0024 BD46     		mov	sp, r7
 7039 0026 B0BD     		pop	{r4, r5, r7, pc}
 7040              		.cfi_endproc
 7041              	.LFE994:
 7043              		.section	.text._ZNSaIN5Air3T6PlayerEED2Ev,"axG",%progbits,_ZNSaIN5Air3T6PlayerEED5Ev,comdat
 7044              		.align	2
 7045              		.weak	_ZNSaIN5Air3T6PlayerEED2Ev
 7046              		.thumb
 7047              		.thumb_func
 7049              	_ZNSaIN5Air3T6PlayerEED2Ev:
 7050              	.LFB996:
 7051              		.loc 23 109 0
 7052              		.cfi_startproc
 7053              		@ args = 0, pretend = 0, frame = 8
 7054              		@ frame_needed = 1, uses_anonymous_args = 0
 7055 0000 80B5     		push	{r7, lr}
 7056              	.LCFI201:
 7057              		.cfi_def_cfa_offset 8
 7058 0002 82B0     		sub	sp, sp, #8
 7059              	.LCFI202:
 7060              		.cfi_def_cfa_offset 16
 7061 0004 00AF     		add	r7, sp, #0
 7062              		.cfi_offset 14, -4
 7063              		.cfi_offset 7, -8
 7064              	.LCFI203:
 7065              		.cfi_def_cfa_register 7
 7066 0006 7860     		str	r0, [r7, #4]
 7067              	.LBB39:
 7068              		.loc 23 109 0
 7069 0008 7B68     		ldr	r3, [r7, #4]
 7070 000a 1846     		mov	r0, r3
 7071 000c FFF7FEFF 		bl	_ZN9__gnu_cxx13new_allocatorIN5Air3T6PlayerEED2Ev
 7072              	.LBE39:
 7073 0010 7B68     		ldr	r3, [r7, #4]
 7074 0012 1846     		mov	r0, r3
 7075 0014 07F10807 		add	r7, r7, #8
 7076 0018 BD46     		mov	sp, r7
 7077 001a 80BD     		pop	{r7, pc}
 7078              		.cfi_endproc
 7079              	.LFE996:
 7081              		.weak	_ZNSaIN5Air3T6PlayerEED1Ev
 7082              		.thumb_set _ZNSaIN5Air3T6PlayerEED1Ev,_ZNSaIN5Air3T6PlayerEED2Ev
 7083              		.section	.text._ZN9__gnu_cxx13new_allocatorIN5Air3T6PlayerEE7destroyEPS2_,"axG",%progbits,_ZN9__gn
 7084              		.align	2
 7085              		.weak	_ZN9__gnu_cxx13new_allocatorIN5Air3T6PlayerEE7destroyEPS2_
 7086              		.thumb
 7087              		.thumb_func
 7089              	_ZN9__gnu_cxx13new_allocatorIN5Air3T6PlayerEE7destroyEPS2_:
 7090              	.LFB998:
 7091              		.loc 25 115 0
 7092              		.cfi_startproc
 7093              		@ args = 0, pretend = 0, frame = 8
 7094              		@ frame_needed = 1, uses_anonymous_args = 0
 7095 0000 80B5     		push	{r7, lr}
 7096              	.LCFI204:
 7097              		.cfi_def_cfa_offset 8
 7098 0002 82B0     		sub	sp, sp, #8
 7099              	.LCFI205:
 7100              		.cfi_def_cfa_offset 16
 7101 0004 00AF     		add	r7, sp, #0
 7102              		.cfi_offset 14, -4
 7103              		.cfi_offset 7, -8
 7104              	.LCFI206:
 7105              		.cfi_def_cfa_register 7
 7106 0006 7860     		str	r0, [r7, #4]
 7107 0008 3960     		str	r1, [r7, #0]
 7108              		.loc 25 115 0
 7109 000a 3B68     		ldr	r3, [r7, #0]
 7110 000c 1B68     		ldr	r3, [r3, #0]
 7111 000e 1B68     		ldr	r3, [r3, #0]
 7112 0010 3868     		ldr	r0, [r7, #0]
 7113 0012 9847     		blx	r3
 7114 0014 07F10807 		add	r7, r7, #8
 7115 0018 BD46     		mov	sp, r7
 7116 001a 80BD     		pop	{r7, pc}
 7117              		.cfi_endproc
 7118              	.LFE998:
 7120              		.section	.text._ZNSt10_List_baseIN5Air3T6PlayerESaIS1_EE11_M_put_nodeEPSt10_List_nodeIS1_E,"axG",%
 7121              		.align	2
 7122              		.weak	_ZNSt10_List_baseIN5Air3T6PlayerESaIS1_EE11_M_put_nodeEPSt10_List_nodeIS1_E
 7123              		.thumb
 7124              		.thumb_func
 7126              	_ZNSt10_List_baseIN5Air3T6PlayerESaIS1_EE11_M_put_nodeEPSt10_List_nodeIS1_E:
 7127              	.LFB999:
 319:/opt/toolchains/arm-none-eabi/bin/../lib/gcc/arm-none-eabi/4.5.2/../../../../arm-none-eabi/include/c++/4.5.2/bits/stl_list.h ****       _M_put_node(_List_node<_Tp>* __p)
 7128              		.loc 28 319 0
 7129              		.cfi_startproc
 7130              		@ args = 0, pretend = 0, frame = 8
 7131              		@ frame_needed = 1, uses_anonymous_args = 0
 7132 0000 80B5     		push	{r7, lr}
 7133              	.LCFI207:
 7134              		.cfi_def_cfa_offset 8
 7135 0002 82B0     		sub	sp, sp, #8
 7136              	.LCFI208:
 7137              		.cfi_def_cfa_offset 16
 7138 0004 00AF     		add	r7, sp, #0
 7139              		.cfi_offset 14, -4
 7140              		.cfi_offset 7, -8
 7141              	.LCFI209:
 7142              		.cfi_def_cfa_register 7
 7143 0006 7860     		str	r0, [r7, #4]
 7144 0008 3960     		str	r1, [r7, #0]
 320:/opt/toolchains/arm-none-eabi/bin/../lib/gcc/arm-none-eabi/4.5.2/../../../../arm-none-eabi/include/c++/4.5.2/bits/stl_list.h ****       { _M_impl._Node_alloc_type::deallocate(__p, 1); }
 7145              		.loc 28 320 0
 7146 000a 7B68     		ldr	r3, [r7, #4]
 7147 000c 1846     		mov	r0, r3
 7148 000e 3968     		ldr	r1, [r7, #0]
 7149 0010 4FF00102 		mov	r2, #1
 7150 0014 FFF7FEFF 		bl	_ZN9__gnu_cxx13new_allocatorISt10_List_nodeIN5Air3T6PlayerEEE10deallocateEPS4_j
 7151 0018 07F10807 		add	r7, r7, #8
 7152 001c BD46     		mov	sp, r7
 7153 001e 80BD     		pop	{r7, pc}
 7154              		.cfi_endproc
 7155              	.LFE999:
 7157              		.section	.text._ZNSt4listIPN5Air3T5IViewESaIS2_EE14_M_create_nodeERKS2_,"axG",%progbits,_ZNSt4list
 7158              		.align	2
 7159              		.weak	_ZNSt4listIPN5Air3T5IViewESaIS2_EE14_M_create_nodeERKS2_
 7160              		.thumb
 7161              		.thumb_func
 7163              	_ZNSt4listIPN5Air3T5IViewESaIS2_EE14_M_create_nodeERKS2_:
 7164              	.LFB1000:
 459:/opt/toolchains/arm-none-eabi/bin/../lib/gcc/arm-none-eabi/4.5.2/../../../../arm-none-eabi/include/c++/4.5.2/bits/stl_list.h ****       _M_create_node(const value_type& __x)
 7165              		.loc 28 459 0
 7166              		.cfi_startproc
 7167              		@ args = 0, pretend = 0, frame = 16
 7168              		@ frame_needed = 1, uses_anonymous_args = 0
 7169 0000 80B5     		push	{r7, lr}
 7170              	.LCFI210:
 7171              		.cfi_def_cfa_offset 8
 7172 0002 84B0     		sub	sp, sp, #16
 7173              	.LCFI211:
 7174              		.cfi_def_cfa_offset 24
 7175 0004 00AF     		add	r7, sp, #0
 7176              		.cfi_offset 14, -4
 7177              		.cfi_offset 7, -8
 7178              	.LCFI212:
 7179              		.cfi_def_cfa_register 7
 7180 0006 7860     		str	r0, [r7, #4]
 7181 0008 3960     		str	r1, [r7, #0]
 7182              	.LBB40:
 461:/opt/toolchains/arm-none-eabi/bin/../lib/gcc/arm-none-eabi/4.5.2/../../../../arm-none-eabi/include/c++/4.5.2/bits/stl_list.h **** 	_Node* __p = this->_M_get_node();
 7183              		.loc 28 461 0
 7184 000a 7B68     		ldr	r3, [r7, #4]
 7185 000c 1846     		mov	r0, r3
 7186 000e FFF7FEFF 		bl	_ZNSt10_List_baseIPN5Air3T5IViewESaIS2_EE11_M_get_nodeEv
 7187 0012 F860     		str	r0, [r7, #12]
 464:/opt/toolchains/arm-none-eabi/bin/../lib/gcc/arm-none-eabi/4.5.2/../../../../arm-none-eabi/include/c++/4.5.2/bits/stl_list.h **** 	    _M_get_Tp_allocator().construct(&__p->_M_data, __x);
 7188              		.loc 28 464 0
 7189 0014 7B68     		ldr	r3, [r7, #4]
 7190 0016 07F10802 		add	r2, r7, #8
 7191 001a 1046     		mov	r0, r2
 7192 001c 1946     		mov	r1, r3
 7193 001e FFF7FEFF 		bl	_ZNKSt10_List_baseIPN5Air3T5IViewESaIS2_EE19_M_get_Tp_allocatorEv
 7194 0022 07F10802 		add	r2, r7, #8
 7195 0026 FB68     		ldr	r3, [r7, #12]
 7196 0028 03F10803 		add	r3, r3, #8
 7197 002c 1046     		mov	r0, r2
 7198 002e 1946     		mov	r1, r3
 7199 0030 3A68     		ldr	r2, [r7, #0]
 7200 0032 FFF7FEFF 		bl	_ZN9__gnu_cxx13new_allocatorIPN5Air3T5IViewEE9constructEPS3_RKS3_
 7201 0036 07F10803 		add	r3, r7, #8
 7202 003a 1846     		mov	r0, r3
 7203 003c FFF7FEFF 		bl	_ZNSaIPN5Air3T5IViewEED1Ev
 471:/opt/toolchains/arm-none-eabi/bin/../lib/gcc/arm-none-eabi/4.5.2/../../../../arm-none-eabi/include/c++/4.5.2/bits/stl_list.h **** 	return __p;
 7204              		.loc 28 471 0
 7205 0040 FB68     		ldr	r3, [r7, #12]
 7206              	.LBE40:
 472:/opt/toolchains/arm-none-eabi/bin/../lib/gcc/arm-none-eabi/4.5.2/../../../../arm-none-eabi/include/c++/4.5.2/bits/stl_list.h ****       }
 7207              		.loc 28 472 0
 7208 0042 1846     		mov	r0, r3
 7209 0044 07F11007 		add	r7, r7, #16
 7210 0048 BD46     		mov	sp, r7
 7211 004a 80BD     		pop	{r7, pc}
 7212              		.cfi_endproc
 7213              	.LFE1000:
 7215              		.section	.text._ZNSt4listIN5Air3T6PlayerESaIS1_EE14_M_create_nodeERKS1_,"axG",%progbits,_ZNSt4list
 7216              		.align	2
 7217              		.weak	_ZNSt4listIN5Air3T6PlayerESaIS1_EE14_M_create_nodeERKS1_
 7218              		.thumb
 7219              		.thumb_func
 7221              	_ZNSt4listIN5Air3T6PlayerESaIS1_EE14_M_create_nodeERKS1_:
 7222              	.LFB1001:
 459:/opt/toolchains/arm-none-eabi/bin/../lib/gcc/arm-none-eabi/4.5.2/../../../../arm-none-eabi/include/c++/4.5.2/bits/stl_list.h ****       _M_create_node(const value_type& __x)
 7223              		.loc 28 459 0
 7224              		.cfi_startproc
 7225              		@ args = 0, pretend = 0, frame = 16
 7226              		@ frame_needed = 1, uses_anonymous_args = 0
 7227 0000 80B5     		push	{r7, lr}
 7228              	.LCFI213:
 7229              		.cfi_def_cfa_offset 8
 7230 0002 84B0     		sub	sp, sp, #16
 7231              	.LCFI214:
 7232              		.cfi_def_cfa_offset 24
 7233 0004 00AF     		add	r7, sp, #0
 7234              		.cfi_offset 14, -4
 7235              		.cfi_offset 7, -8
 7236              	.LCFI215:
 7237              		.cfi_def_cfa_register 7
 7238 0006 7860     		str	r0, [r7, #4]
 7239 0008 3960     		str	r1, [r7, #0]
 7240              	.LBB41:
 461:/opt/toolchains/arm-none-eabi/bin/../lib/gcc/arm-none-eabi/4.5.2/../../../../arm-none-eabi/include/c++/4.5.2/bits/stl_list.h **** 	_Node* __p = this->_M_get_node();
 7241              		.loc 28 461 0
 7242 000a 7B68     		ldr	r3, [r7, #4]
 7243 000c 1846     		mov	r0, r3
 7244 000e FFF7FEFF 		bl	_ZNSt10_List_baseIN5Air3T6PlayerESaIS1_EE11_M_get_nodeEv
 7245 0012 F860     		str	r0, [r7, #12]
 464:/opt/toolchains/arm-none-eabi/bin/../lib/gcc/arm-none-eabi/4.5.2/../../../../arm-none-eabi/include/c++/4.5.2/bits/stl_list.h **** 	    _M_get_Tp_allocator().construct(&__p->_M_data, __x);
 7246              		.loc 28 464 0
 7247 0014 7B68     		ldr	r3, [r7, #4]
 7248 0016 07F10802 		add	r2, r7, #8
 7249 001a 1046     		mov	r0, r2
 7250 001c 1946     		mov	r1, r3
 7251 001e FFF7FEFF 		bl	_ZNKSt10_List_baseIN5Air3T6PlayerESaIS1_EE19_M_get_Tp_allocatorEv
 7252 0022 07F10802 		add	r2, r7, #8
 7253 0026 FB68     		ldr	r3, [r7, #12]
 7254 0028 03F10803 		add	r3, r3, #8
 7255 002c 1046     		mov	r0, r2
 7256 002e 1946     		mov	r1, r3
 7257 0030 3A68     		ldr	r2, [r7, #0]
 7258 0032 FFF7FEFF 		bl	_ZN9__gnu_cxx13new_allocatorIN5Air3T6PlayerEE9constructEPS2_RKS2_
 7259 0036 07F10803 		add	r3, r7, #8
 7260 003a 1846     		mov	r0, r3
 7261 003c FFF7FEFF 		bl	_ZNSaIN5Air3T6PlayerEED1Ev
 471:/opt/toolchains/arm-none-eabi/bin/../lib/gcc/arm-none-eabi/4.5.2/../../../../arm-none-eabi/include/c++/4.5.2/bits/stl_list.h **** 	return __p;
 7262              		.loc 28 471 0
 7263 0040 FB68     		ldr	r3, [r7, #12]
 7264              	.LBE41:
 472:/opt/toolchains/arm-none-eabi/bin/../lib/gcc/arm-none-eabi/4.5.2/../../../../arm-none-eabi/include/c++/4.5.2/bits/stl_list.h ****       }
 7265              		.loc 28 472 0
 7266 0042 1846     		mov	r0, r3
 7267 0044 07F11007 		add	r7, r7, #16
 7268 0048 BD46     		mov	sp, r7
 7269 004a 80BD     		pop	{r7, pc}
 7270              		.cfi_endproc
 7271              	.LFE1001:
 7273              		.section	.text._ZNSaISt10_List_nodeIPN5Air3T5IViewEEEC2Ev,"axG",%progbits,_ZNSaISt10_List_nodeIPN5
 7274              		.align	2
 7275              		.weak	_ZNSaISt10_List_nodeIPN5Air3T5IViewEEEC2Ev
 7276              		.thumb
 7277              		.thumb_func
 7279              	_ZNSaISt10_List_nodeIPN5Air3T5IViewEEEC2Ev:
 7280              	.LFB1003:
 101:/opt/toolchains/arm-none-eabi/bin/../lib/gcc/arm-none-eabi/4.5.2/../../../../arm-none-eabi/include/c++/4.5.2/bits/allocator.h ****       allocator() throw() { }
 7281              		.loc 23 101 0
 7282              		.cfi_startproc
 7283              		@ args = 0, pretend = 0, frame = 8
 7284              		@ frame_needed = 1, uses_anonymous_args = 0
 7285 0000 80B5     		push	{r7, lr}
 7286              	.LCFI216:
 7287              		.cfi_def_cfa_offset 8
 7288 0002 82B0     		sub	sp, sp, #8
 7289              	.LCFI217:
 7290              		.cfi_def_cfa_offset 16
 7291 0004 00AF     		add	r7, sp, #0
 7292              		.cfi_offset 14, -4
 7293              		.cfi_offset 7, -8
 7294              	.LCFI218:
 7295              		.cfi_def_cfa_register 7
 7296 0006 7860     		str	r0, [r7, #4]
 7297              	.LBB42:
 101:/opt/toolchains/arm-none-eabi/bin/../lib/gcc/arm-none-eabi/4.5.2/../../../../arm-none-eabi/include/c++/4.5.2/bits/allocator.h ****       allocator() throw() { }
 7298              		.loc 23 101 0
 7299 0008 7B68     		ldr	r3, [r7, #4]
 7300 000a 1846     		mov	r0, r3
 7301 000c FFF7FEFF 		bl	_ZN9__gnu_cxx13new_allocatorISt10_List_nodeIPN5Air3T5IViewEEEC2Ev
 7302              	.LBE42:
 7303 0010 7B68     		ldr	r3, [r7, #4]
 7304 0012 1846     		mov	r0, r3
 7305 0014 07F10807 		add	r7, r7, #8
 7306 0018 BD46     		mov	sp, r7
 7307 001a 80BD     		pop	{r7, pc}
 7308              		.cfi_endproc
 7309              	.LFE1003:
 7311              		.weak	_ZNSaISt10_List_nodeIPN5Air3T5IViewEEEC1Ev
 7312              		.thumb_set _ZNSaISt10_List_nodeIPN5Air3T5IViewEEEC1Ev,_ZNSaISt10_List_nodeIPN5Air3T5IViewEEEC2Ev
 7313              		.section	.text._ZNKSt10_List_baseIPN5Air3T5IViewESaIS2_EE21_M_get_Node_allocatorEv,"axG",%progbits
 7314              		.align	2
 7315              		.weak	_ZNKSt10_List_baseIPN5Air3T5IViewESaIS2_EE21_M_get_Node_allocatorEv
 7316              		.thumb
 7317              		.thumb_func
 7319              	_ZNKSt10_List_baseIPN5Air3T5IViewESaIS2_EE21_M_get_Node_allocatorEv:
 7320              	.LFB1005:
 330:/opt/toolchains/arm-none-eabi/bin/../lib/gcc/arm-none-eabi/4.5.2/../../../../arm-none-eabi/include/c++/4.5.2/bits/stl_list.h ****       _M_get_Node_allocator() const
 7321              		.loc 28 330 0
 7322              		.cfi_startproc
 7323              		@ args = 0, pretend = 0, frame = 8
 7324              		@ frame_needed = 1, uses_anonymous_args = 0
 7325              		@ link register save eliminated.
 7326 0000 80B4     		push	{r7}
 7327              	.LCFI219:
 7328              		.cfi_def_cfa_offset 4
 7329 0002 83B0     		sub	sp, sp, #12
 7330              	.LCFI220:
 7331              		.cfi_def_cfa_offset 16
 7332 0004 00AF     		add	r7, sp, #0
 7333              		.cfi_offset 7, -4
 7334              	.LCFI221:
 7335              		.cfi_def_cfa_register 7
 7336 0006 7860     		str	r0, [r7, #4]
 331:/opt/toolchains/arm-none-eabi/bin/../lib/gcc/arm-none-eabi/4.5.2/../../../../arm-none-eabi/include/c++/4.5.2/bits/stl_list.h ****       { return *static_cast<const _Node_alloc_type*>(&this->_M_impl); }
 7337              		.loc 28 331 0
 7338 0008 7B68     		ldr	r3, [r7, #4]
 7339 000a 1846     		mov	r0, r3
 7340 000c 07F10C07 		add	r7, r7, #12
 7341 0010 BD46     		mov	sp, r7
 7342 0012 80BC     		pop	{r7}
 7343 0014 7047     		bx	lr
 7344              		.cfi_endproc
 7345              	.LFE1005:
 7347 0016 00BF     		.section	.text._ZNSaIPN5Air3T5IViewEEC2ISt10_List_nodeIS1_EEERKSaIT_E,"axG",%progbits,_ZNSaIPN5Air
 7348              		.align	2
 7349              		.weak	_ZNSaIPN5Air3T5IViewEEC2ISt10_List_nodeIS1_EEERKSaIT_E
 7350              		.thumb
 7351              		.thumb_func
 7353              	_ZNSaIPN5Air3T5IViewEEC2ISt10_List_nodeIS1_EEERKSaIT_E:
 7354              	.LFB1007:
 107:/opt/toolchains/arm-none-eabi/bin/../lib/gcc/arm-none-eabi/4.5.2/../../../../arm-none-eabi/include/c++/4.5.2/bits/allocator.h ****         allocator(const allocator<_Tp1>&) throw() { }
 7355              		.loc 23 107 0
 7356              		.cfi_startproc
 7357              		@ args = 0, pretend = 0, frame = 8
 7358              		@ frame_needed = 1, uses_anonymous_args = 0
 7359 0000 80B5     		push	{r7, lr}
 7360              	.LCFI222:
 7361              		.cfi_def_cfa_offset 8
 7362 0002 82B0     		sub	sp, sp, #8
 7363              	.LCFI223:
 7364              		.cfi_def_cfa_offset 16
 7365 0004 00AF     		add	r7, sp, #0
 7366              		.cfi_offset 14, -4
 7367              		.cfi_offset 7, -8
 7368              	.LCFI224:
 7369              		.cfi_def_cfa_register 7
 7370 0006 7860     		str	r0, [r7, #4]
 7371 0008 3960     		str	r1, [r7, #0]
 7372              	.LBB43:
 107:/opt/toolchains/arm-none-eabi/bin/../lib/gcc/arm-none-eabi/4.5.2/../../../../arm-none-eabi/include/c++/4.5.2/bits/allocator.h ****         allocator(const allocator<_Tp1>&) throw() { }
 7373              		.loc 23 107 0
 7374 000a 7B68     		ldr	r3, [r7, #4]
 7375 000c 1846     		mov	r0, r3
 7376 000e FFF7FEFF 		bl	_ZN9__gnu_cxx13new_allocatorIPN5Air3T5IViewEEC2Ev
 7377              	.LBE43:
 7378 0012 7B68     		ldr	r3, [r7, #4]
 7379 0014 1846     		mov	r0, r3
 7380 0016 07F10807 		add	r7, r7, #8
 7381 001a BD46     		mov	sp, r7
 7382 001c 80BD     		pop	{r7, pc}
 7383              		.cfi_endproc
 7384              	.LFE1007:
 7386              		.weak	_ZNSaIPN5Air3T5IViewEEC1ISt10_List_nodeIS1_EEERKSaIT_E
 7387              		.thumb_set _ZNSaIPN5Air3T5IViewEEC1ISt10_List_nodeIS1_EEERKSaIT_E,_ZNSaIPN5Air3T5IViewEEC2ISt10_Li
 7388 001e 00BF     		.section	.text._ZN9__gnu_cxx13new_allocatorIPN5Air3T5IViewEED2Ev,"axG",%progbits,_ZN9__gnu_cxx13ne
 7389              		.align	2
 7390              		.weak	_ZN9__gnu_cxx13new_allocatorIPN5Air3T5IViewEED2Ev
 7391              		.thumb
 7392              		.thumb_func
 7394              	_ZN9__gnu_cxx13new_allocatorIPN5Air3T5IViewEED2Ev:
 7395              	.LFB1013:
  73:/opt/toolchains/arm-none-eabi/bin/../lib/gcc/arm-none-eabi/4.5.2/../../../../arm-none-eabi/include/c++/4.5.2/ext/new_allocator.h ****       ~new_allocator() throw() { }
 7396              		.loc 25 73 0
 7397              		.cfi_startproc
 7398              		@ args = 0, pretend = 0, frame = 8
 7399              		@ frame_needed = 1, uses_anonymous_args = 0
 7400              		@ link register save eliminated.
 7401 0000 80B4     		push	{r7}
 7402              	.LCFI225:
 7403              		.cfi_def_cfa_offset 4
 7404 0002 83B0     		sub	sp, sp, #12
 7405              	.LCFI226:
 7406              		.cfi_def_cfa_offset 16
 7407 0004 00AF     		add	r7, sp, #0
 7408              		.cfi_offset 7, -4
 7409              	.LCFI227:
 7410              		.cfi_def_cfa_register 7
 7411 0006 7860     		str	r0, [r7, #4]
  73:/opt/toolchains/arm-none-eabi/bin/../lib/gcc/arm-none-eabi/4.5.2/../../../../arm-none-eabi/include/c++/4.5.2/ext/new_allocator.h ****       ~new_allocator() throw() { }
 7412              		.loc 25 73 0
 7413 0008 7B68     		ldr	r3, [r7, #4]
 7414 000a 1846     		mov	r0, r3
 7415 000c 07F10C07 		add	r7, r7, #12
 7416 0010 BD46     		mov	sp, r7
 7417 0012 80BC     		pop	{r7}
 7418 0014 7047     		bx	lr
 7419              		.cfi_endproc
 7420              	.LFE1013:
 7422              		.weak	_ZN9__gnu_cxx13new_allocatorIPN5Air3T5IViewEED1Ev
 7423              		.thumb_set _ZN9__gnu_cxx13new_allocatorIPN5Air3T5IViewEED1Ev,_ZN9__gnu_cxx13new_allocatorIPN5Air3T
 7424 0016 00BF     		.section	.text._ZN9__gnu_cxx13new_allocatorISt10_List_nodeIPN5Air3T5IViewEEE10deallocateEPS5_j,"ax
 7425              		.align	2
 7426              		.weak	_ZN9__gnu_cxx13new_allocatorISt10_List_nodeIPN5Air3T5IViewEEE10deallocateEPS5_j
 7427              		.thumb
 7428              		.thumb_func
 7430              	_ZN9__gnu_cxx13new_allocatorISt10_List_nodeIPN5Air3T5IViewEEE10deallocateEPS5_j:
 7431              	.LFB1015:
  94:/opt/toolchains/arm-none-eabi/bin/../lib/gcc/arm-none-eabi/4.5.2/../../../../arm-none-eabi/include/c++/4.5.2/ext/new_allocator.h ****       deallocate(pointer __p, size_type)
 7432              		.loc 25 94 0
 7433              		.cfi_startproc
 7434              		@ args = 0, pretend = 0, frame = 16
 7435              		@ frame_needed = 1, uses_anonymous_args = 0
 7436 0000 80B5     		push	{r7, lr}
 7437              	.LCFI228:
 7438              		.cfi_def_cfa_offset 8
 7439 0002 84B0     		sub	sp, sp, #16
 7440              	.LCFI229:
 7441              		.cfi_def_cfa_offset 24
 7442 0004 00AF     		add	r7, sp, #0
 7443              		.cfi_offset 14, -4
 7444              		.cfi_offset 7, -8
 7445              	.LCFI230:
 7446              		.cfi_def_cfa_register 7
 7447 0006 F860     		str	r0, [r7, #12]
 7448 0008 B960     		str	r1, [r7, #8]
 7449 000a 7A60     		str	r2, [r7, #4]
  95:/opt/toolchains/arm-none-eabi/bin/../lib/gcc/arm-none-eabi/4.5.2/../../../../arm-none-eabi/include/c++/4.5.2/ext/new_allocator.h ****       { ::operator delete(__p); }
 7450              		.loc 25 95 0
 7451 000c B868     		ldr	r0, [r7, #8]
 7452 000e FFF7FEFF 		bl	_ZdlPv
 7453 0012 07F11007 		add	r7, r7, #16
 7454 0016 BD46     		mov	sp, r7
 7455 0018 80BD     		pop	{r7, pc}
 7456              		.cfi_endproc
 7457              	.LFE1015:
 7459 001a 00BF     		.section	.text._ZNSaISt10_List_nodeIN5Air3T6PlayerEEEC2Ev,"axG",%progbits,_ZNSaISt10_List_nodeIN5A
 7460              		.align	2
 7461              		.weak	_ZNSaISt10_List_nodeIN5Air3T6PlayerEEEC2Ev
 7462              		.thumb
 7463              		.thumb_func
 7465              	_ZNSaISt10_List_nodeIN5Air3T6PlayerEEEC2Ev:
 7466              	.LFB1017:
 101:/opt/toolchains/arm-none-eabi/bin/../lib/gcc/arm-none-eabi/4.5.2/../../../../arm-none-eabi/include/c++/4.5.2/bits/allocator.h ****       allocator() throw() { }
 7467              		.loc 23 101 0
 7468              		.cfi_startproc
 7469              		@ args = 0, pretend = 0, frame = 8
 7470              		@ frame_needed = 1, uses_anonymous_args = 0
 7471 0000 80B5     		push	{r7, lr}
 7472              	.LCFI231:
 7473              		.cfi_def_cfa_offset 8
 7474 0002 82B0     		sub	sp, sp, #8
 7475              	.LCFI232:
 7476              		.cfi_def_cfa_offset 16
 7477 0004 00AF     		add	r7, sp, #0
 7478              		.cfi_offset 14, -4
 7479              		.cfi_offset 7, -8
 7480              	.LCFI233:
 7481              		.cfi_def_cfa_register 7
 7482 0006 7860     		str	r0, [r7, #4]
 7483              	.LBB44:
 101:/opt/toolchains/arm-none-eabi/bin/../lib/gcc/arm-none-eabi/4.5.2/../../../../arm-none-eabi/include/c++/4.5.2/bits/allocator.h ****       allocator() throw() { }
 7484              		.loc 23 101 0
 7485 0008 7B68     		ldr	r3, [r7, #4]
 7486 000a 1846     		mov	r0, r3
 7487 000c FFF7FEFF 		bl	_ZN9__gnu_cxx13new_allocatorISt10_List_nodeIN5Air3T6PlayerEEEC2Ev
 7488              	.LBE44:
 7489 0010 7B68     		ldr	r3, [r7, #4]
 7490 0012 1846     		mov	r0, r3
 7491 0014 07F10807 		add	r7, r7, #8
 7492 0018 BD46     		mov	sp, r7
 7493 001a 80BD     		pop	{r7, pc}
 7494              		.cfi_endproc
 7495              	.LFE1017:
 7497              		.weak	_ZNSaISt10_List_nodeIN5Air3T6PlayerEEEC1Ev
 7498              		.thumb_set _ZNSaISt10_List_nodeIN5Air3T6PlayerEEEC1Ev,_ZNSaISt10_List_nodeIN5Air3T6PlayerEEEC2Ev
 7499              		.section	.text._ZNKSt10_List_baseIN5Air3T6PlayerESaIS1_EE21_M_get_Node_allocatorEv,"axG",%progbits
 7500              		.align	2
 7501              		.weak	_ZNKSt10_List_baseIN5Air3T6PlayerESaIS1_EE21_M_get_Node_allocatorEv
 7502              		.thumb
 7503              		.thumb_func
 7505              	_ZNKSt10_List_baseIN5Air3T6PlayerESaIS1_EE21_M_get_Node_allocatorEv:
 7506              	.LFB1019:
 330:/opt/toolchains/arm-none-eabi/bin/../lib/gcc/arm-none-eabi/4.5.2/../../../../arm-none-eabi/include/c++/4.5.2/bits/stl_list.h ****       _M_get_Node_allocator() const
 7507              		.loc 28 330 0
 7508              		.cfi_startproc
 7509              		@ args = 0, pretend = 0, frame = 8
 7510              		@ frame_needed = 1, uses_anonymous_args = 0
 7511              		@ link register save eliminated.
 7512 0000 80B4     		push	{r7}
 7513              	.LCFI234:
 7514              		.cfi_def_cfa_offset 4
 7515 0002 83B0     		sub	sp, sp, #12
 7516              	.LCFI235:
 7517              		.cfi_def_cfa_offset 16
 7518 0004 00AF     		add	r7, sp, #0
 7519              		.cfi_offset 7, -4
 7520              	.LCFI236:
 7521              		.cfi_def_cfa_register 7
 7522 0006 7860     		str	r0, [r7, #4]
 331:/opt/toolchains/arm-none-eabi/bin/../lib/gcc/arm-none-eabi/4.5.2/../../../../arm-none-eabi/include/c++/4.5.2/bits/stl_list.h ****       { return *static_cast<const _Node_alloc_type*>(&this->_M_impl); }
 7523              		.loc 28 331 0
 7524 0008 7B68     		ldr	r3, [r7, #4]
 7525 000a 1846     		mov	r0, r3
 7526 000c 07F10C07 		add	r7, r7, #12
 7527 0010 BD46     		mov	sp, r7
 7528 0012 80BC     		pop	{r7}
 7529 0014 7047     		bx	lr
 7530              		.cfi_endproc
 7531              	.LFE1019:
 7533 0016 00BF     		.section	.text._ZNSaIN5Air3T6PlayerEEC2ISt10_List_nodeIS0_EEERKSaIT_E,"axG",%progbits,_ZNSaIN5Air3
 7534              		.align	2
 7535              		.weak	_ZNSaIN5Air3T6PlayerEEC2ISt10_List_nodeIS0_EEERKSaIT_E
 7536              		.thumb
 7537              		.thumb_func
 7539              	_ZNSaIN5Air3T6PlayerEEC2ISt10_List_nodeIS0_EEERKSaIT_E:
 7540              	.LFB1021:
 107:/opt/toolchains/arm-none-eabi/bin/../lib/gcc/arm-none-eabi/4.5.2/../../../../arm-none-eabi/include/c++/4.5.2/bits/allocator.h ****         allocator(const allocator<_Tp1>&) throw() { }
 7541              		.loc 23 107 0
 7542              		.cfi_startproc
 7543              		@ args = 0, pretend = 0, frame = 8
 7544              		@ frame_needed = 1, uses_anonymous_args = 0
 7545 0000 80B5     		push	{r7, lr}
 7546              	.LCFI237:
 7547              		.cfi_def_cfa_offset 8
 7548 0002 82B0     		sub	sp, sp, #8
 7549              	.LCFI238:
 7550              		.cfi_def_cfa_offset 16
 7551 0004 00AF     		add	r7, sp, #0
 7552              		.cfi_offset 14, -4
 7553              		.cfi_offset 7, -8
 7554              	.LCFI239:
 7555              		.cfi_def_cfa_register 7
 7556 0006 7860     		str	r0, [r7, #4]
 7557 0008 3960     		str	r1, [r7, #0]
 7558              	.LBB45:
 107:/opt/toolchains/arm-none-eabi/bin/../lib/gcc/arm-none-eabi/4.5.2/../../../../arm-none-eabi/include/c++/4.5.2/bits/allocator.h ****         allocator(const allocator<_Tp1>&) throw() { }
 7559              		.loc 23 107 0
 7560 000a 7B68     		ldr	r3, [r7, #4]
 7561 000c 1846     		mov	r0, r3
 7562 000e FFF7FEFF 		bl	_ZN9__gnu_cxx13new_allocatorIN5Air3T6PlayerEEC2Ev
 7563              	.LBE45:
 7564 0012 7B68     		ldr	r3, [r7, #4]
 7565 0014 1846     		mov	r0, r3
 7566 0016 07F10807 		add	r7, r7, #8
 7567 001a BD46     		mov	sp, r7
 7568 001c 80BD     		pop	{r7, pc}
 7569              		.cfi_endproc
 7570              	.LFE1021:
 7572              		.weak	_ZNSaIN5Air3T6PlayerEEC1ISt10_List_nodeIS0_EEERKSaIT_E
 7573              		.thumb_set _ZNSaIN5Air3T6PlayerEEC1ISt10_List_nodeIS0_EEERKSaIT_E,_ZNSaIN5Air3T6PlayerEEC2ISt10_Li
 7574 001e 00BF     		.section	.text._ZN9__gnu_cxx13new_allocatorIN5Air3T6PlayerEED2Ev,"axG",%progbits,_ZN9__gnu_cxx13ne
 7575              		.align	2
 7576              		.weak	_ZN9__gnu_cxx13new_allocatorIN5Air3T6PlayerEED2Ev
 7577              		.thumb
 7578              		.thumb_func
 7580              	_ZN9__gnu_cxx13new_allocatorIN5Air3T6PlayerEED2Ev:
 7581              	.LFB1027:
  73:/opt/toolchains/arm-none-eabi/bin/../lib/gcc/arm-none-eabi/4.5.2/../../../../arm-none-eabi/include/c++/4.5.2/ext/new_allocator.h ****       ~new_allocator() throw() { }
 7582              		.loc 25 73 0
 7583              		.cfi_startproc
 7584              		@ args = 0, pretend = 0, frame = 8
 7585              		@ frame_needed = 1, uses_anonymous_args = 0
 7586              		@ link register save eliminated.
 7587 0000 80B4     		push	{r7}
 7588              	.LCFI240:
 7589              		.cfi_def_cfa_offset 4
 7590 0002 83B0     		sub	sp, sp, #12
 7591              	.LCFI241:
 7592              		.cfi_def_cfa_offset 16
 7593 0004 00AF     		add	r7, sp, #0
 7594              		.cfi_offset 7, -4
 7595              	.LCFI242:
 7596              		.cfi_def_cfa_register 7
 7597 0006 7860     		str	r0, [r7, #4]
  73:/opt/toolchains/arm-none-eabi/bin/../lib/gcc/arm-none-eabi/4.5.2/../../../../arm-none-eabi/include/c++/4.5.2/ext/new_allocator.h ****       ~new_allocator() throw() { }
 7598              		.loc 25 73 0
 7599 0008 7B68     		ldr	r3, [r7, #4]
 7600 000a 1846     		mov	r0, r3
 7601 000c 07F10C07 		add	r7, r7, #12
 7602 0010 BD46     		mov	sp, r7
 7603 0012 80BC     		pop	{r7}
 7604 0014 7047     		bx	lr
 7605              		.cfi_endproc
 7606              	.LFE1027:
 7608              		.weak	_ZN9__gnu_cxx13new_allocatorIN5Air3T6PlayerEED1Ev
 7609              		.thumb_set _ZN9__gnu_cxx13new_allocatorIN5Air3T6PlayerEED1Ev,_ZN9__gnu_cxx13new_allocatorIN5Air3T6
 7610 0016 00BF     		.section	.text._ZN9__gnu_cxx13new_allocatorISt10_List_nodeIN5Air3T6PlayerEEE10deallocateEPS4_j,"ax
 7611              		.align	2
 7612              		.weak	_ZN9__gnu_cxx13new_allocatorISt10_List_nodeIN5Air3T6PlayerEEE10deallocateEPS4_j
 7613              		.thumb
 7614              		.thumb_func
 7616              	_ZN9__gnu_cxx13new_allocatorISt10_List_nodeIN5Air3T6PlayerEEE10deallocateEPS4_j:
 7617              	.LFB1029:
  94:/opt/toolchains/arm-none-eabi/bin/../lib/gcc/arm-none-eabi/4.5.2/../../../../arm-none-eabi/include/c++/4.5.2/ext/new_allocator.h ****       deallocate(pointer __p, size_type)
 7618              		.loc 25 94 0
 7619              		.cfi_startproc
 7620              		@ args = 0, pretend = 0, frame = 16
 7621              		@ frame_needed = 1, uses_anonymous_args = 0
 7622 0000 80B5     		push	{r7, lr}
 7623              	.LCFI243:
 7624              		.cfi_def_cfa_offset 8
 7625 0002 84B0     		sub	sp, sp, #16
 7626              	.LCFI244:
 7627              		.cfi_def_cfa_offset 24
 7628 0004 00AF     		add	r7, sp, #0
 7629              		.cfi_offset 14, -4
 7630              		.cfi_offset 7, -8
 7631              	.LCFI245:
 7632              		.cfi_def_cfa_register 7
 7633 0006 F860     		str	r0, [r7, #12]
 7634 0008 B960     		str	r1, [r7, #8]
 7635 000a 7A60     		str	r2, [r7, #4]
  95:/opt/toolchains/arm-none-eabi/bin/../lib/gcc/arm-none-eabi/4.5.2/../../../../arm-none-eabi/include/c++/4.5.2/ext/new_allocator.h ****       { ::operator delete(__p); }
 7636              		.loc 25 95 0
 7637 000c B868     		ldr	r0, [r7, #8]
 7638 000e FFF7FEFF 		bl	_ZdlPv
 7639 0012 07F11007 		add	r7, r7, #16
 7640 0016 BD46     		mov	sp, r7
 7641 0018 80BD     		pop	{r7, pc}
 7642              		.cfi_endproc
 7643              	.LFE1029:
 7645 001a 00BF     		.section	.text._ZNSt10_List_baseIPN5Air3T5IViewESaIS2_EE11_M_get_nodeEv,"axG",%progbits,_ZNSt10_Li
 7646              		.align	2
 7647              		.weak	_ZNSt10_List_baseIPN5Air3T5IViewESaIS2_EE11_M_get_nodeEv
 7648              		.thumb
 7649              		.thumb_func
 7651              	_ZNSt10_List_baseIPN5Air3T5IViewESaIS2_EE11_M_get_nodeEv:
 7652              	.LFB1030:
 315:/opt/toolchains/arm-none-eabi/bin/../lib/gcc/arm-none-eabi/4.5.2/../../../../arm-none-eabi/include/c++/4.5.2/bits/stl_list.h ****       _M_get_node()
 7653              		.loc 28 315 0
 7654              		.cfi_startproc
 7655              		@ args = 0, pretend = 0, frame = 8
 7656              		@ frame_needed = 1, uses_anonymous_args = 0
 7657 0000 80B5     		push	{r7, lr}
 7658              	.LCFI246:
 7659              		.cfi_def_cfa_offset 8
 7660 0002 82B0     		sub	sp, sp, #8
 7661              	.LCFI247:
 7662              		.cfi_def_cfa_offset 16
 7663 0004 00AF     		add	r7, sp, #0
 7664              		.cfi_offset 14, -4
 7665              		.cfi_offset 7, -8
 7666              	.LCFI248:
 7667              		.cfi_def_cfa_register 7
 7668 0006 7860     		str	r0, [r7, #4]
 316:/opt/toolchains/arm-none-eabi/bin/../lib/gcc/arm-none-eabi/4.5.2/../../../../arm-none-eabi/include/c++/4.5.2/bits/stl_list.h ****       { return _M_impl._Node_alloc_type::allocate(1); }
 7669              		.loc 28 316 0
 7670 0008 7B68     		ldr	r3, [r7, #4]
 7671 000a 1846     		mov	r0, r3
 7672 000c 4FF00101 		mov	r1, #1
 7673 0010 4FF00002 		mov	r2, #0
 7674 0014 FFF7FEFF 		bl	_ZN9__gnu_cxx13new_allocatorISt10_List_nodeIPN5Air3T5IViewEEE8allocateEjPKv
 7675 0018 0346     		mov	r3, r0
 7676 001a 1846     		mov	r0, r3
 7677 001c 07F10807 		add	r7, r7, #8
 7678 0020 BD46     		mov	sp, r7
 7679 0022 80BD     		pop	{r7, pc}
 7680              		.cfi_endproc
 7681              	.LFE1030:
 7683              		.section	.text._ZN9__gnu_cxx13new_allocatorIPN5Air3T5IViewEE9constructEPS3_RKS3_,"axG",%progbits,_
 7684              		.align	2
 7685              		.weak	_ZN9__gnu_cxx13new_allocatorIPN5Air3T5IViewEE9constructEPS3_RKS3_
 7686              		.thumb
 7687              		.thumb_func
 7689              	_ZN9__gnu_cxx13new_allocatorIPN5Air3T5IViewEE9constructEPS3_RKS3_:
 7690              	.LFB1031:
 104:/opt/toolchains/arm-none-eabi/bin/../lib/gcc/arm-none-eabi/4.5.2/../../../../arm-none-eabi/include/c++/4.5.2/ext/new_allocator.h ****       construct(pointer __p, const _Tp& __val) 
 7691              		.loc 25 104 0
 7692              		.cfi_startproc
 7693              		@ args = 0, pretend = 0, frame = 16
 7694              		@ frame_needed = 1, uses_anonymous_args = 0
 7695 0000 80B5     		push	{r7, lr}
 7696              	.LCFI249:
 7697              		.cfi_def_cfa_offset 8
 7698 0002 84B0     		sub	sp, sp, #16
 7699              	.LCFI250:
 7700              		.cfi_def_cfa_offset 24
 7701 0004 00AF     		add	r7, sp, #0
 7702              		.cfi_offset 14, -4
 7703              		.cfi_offset 7, -8
 7704              	.LCFI251:
 7705              		.cfi_def_cfa_register 7
 7706 0006 F860     		str	r0, [r7, #12]
 7707 0008 B960     		str	r1, [r7, #8]
 7708 000a 7A60     		str	r2, [r7, #4]
 105:/opt/toolchains/arm-none-eabi/bin/../lib/gcc/arm-none-eabi/4.5.2/../../../../arm-none-eabi/include/c++/4.5.2/ext/new_allocator.h ****       { ::new((void *)__p) _Tp(__val); }
 7709              		.loc 25 105 0
 7710 000c BB68     		ldr	r3, [r7, #8]
 7711 000e 4FF00400 		mov	r0, #4
 7712 0012 1946     		mov	r1, r3
 7713 0014 FFF7FEFF 		bl	_ZnwjPv
 7714 0018 0346     		mov	r3, r0
 7715 001a 1A46     		mov	r2, r3
 7716 001c 002A     		cmp	r2, #0
 7717 001e 02D0     		beq	.L137
 105:/opt/toolchains/arm-none-eabi/bin/../lib/gcc/arm-none-eabi/4.5.2/../../../../arm-none-eabi/include/c++/4.5.2/ext/new_allocator.h ****       { ::new((void *)__p) _Tp(__val); }
 7718              		.loc 25 105 0 is_stmt 0 discriminator 1
 7719 0020 7A68     		ldr	r2, [r7, #4]
 7720 0022 1268     		ldr	r2, [r2, #0]
 7721 0024 1A60     		str	r2, [r3, #0]
 7722              	.L137:
 105:/opt/toolchains/arm-none-eabi/bin/../lib/gcc/arm-none-eabi/4.5.2/../../../../arm-none-eabi/include/c++/4.5.2/ext/new_allocator.h ****       { ::new((void *)__p) _Tp(__val); }
 7723              		.loc 25 105 0
 7724 0026 07F11007 		add	r7, r7, #16
 7725 002a BD46     		mov	sp, r7
 7726 002c 80BD     		pop	{r7, pc}
 7727              		.cfi_endproc
 7728              	.LFE1031:
 7730 002e 00BF     		.section	.text._ZNSt10_List_baseIN5Air3T6PlayerESaIS1_EE11_M_get_nodeEv,"axG",%progbits,_ZNSt10_Li
 7731              		.align	2
 7732              		.weak	_ZNSt10_List_baseIN5Air3T6PlayerESaIS1_EE11_M_get_nodeEv
 7733              		.thumb
 7734              		.thumb_func
 7736              	_ZNSt10_List_baseIN5Air3T6PlayerESaIS1_EE11_M_get_nodeEv:
 7737              	.LFB1032:
 315:/opt/toolchains/arm-none-eabi/bin/../lib/gcc/arm-none-eabi/4.5.2/../../../../arm-none-eabi/include/c++/4.5.2/bits/stl_list.h ****       _M_get_node()
 7738              		.loc 28 315 0 is_stmt 1
 7739              		.cfi_startproc
 7740              		@ args = 0, pretend = 0, frame = 8
 7741              		@ frame_needed = 1, uses_anonymous_args = 0
 7742 0000 80B5     		push	{r7, lr}
 7743              	.LCFI252:
 7744              		.cfi_def_cfa_offset 8
 7745 0002 82B0     		sub	sp, sp, #8
 7746              	.LCFI253:
 7747              		.cfi_def_cfa_offset 16
 7748 0004 00AF     		add	r7, sp, #0
 7749              		.cfi_offset 14, -4
 7750              		.cfi_offset 7, -8
 7751              	.LCFI254:
 7752              		.cfi_def_cfa_register 7
 7753 0006 7860     		str	r0, [r7, #4]
 316:/opt/toolchains/arm-none-eabi/bin/../lib/gcc/arm-none-eabi/4.5.2/../../../../arm-none-eabi/include/c++/4.5.2/bits/stl_list.h ****       { return _M_impl._Node_alloc_type::allocate(1); }
 7754              		.loc 28 316 0
 7755 0008 7B68     		ldr	r3, [r7, #4]
 7756 000a 1846     		mov	r0, r3
 7757 000c 4FF00101 		mov	r1, #1
 7758 0010 4FF00002 		mov	r2, #0
 7759 0014 FFF7FEFF 		bl	_ZN9__gnu_cxx13new_allocatorISt10_List_nodeIN5Air3T6PlayerEEE8allocateEjPKv
 7760 0018 0346     		mov	r3, r0
 7761 001a 1846     		mov	r0, r3
 7762 001c 07F10807 		add	r7, r7, #8
 7763 0020 BD46     		mov	sp, r7
 7764 0022 80BD     		pop	{r7, pc}
 7765              		.cfi_endproc
 7766              	.LFE1032:
 7768              		.section	.text._ZN7AddressILj6EEC2ERKS0_,"axG",%progbits,_ZN7AddressILj6EEC5ERKS0_,comdat
 7769              		.align	2
 7770              		.weak	_ZN7AddressILj6EEC2ERKS0_
 7771              		.thumb
 7772              		.thumb_func
 7774              	_ZN7AddressILj6EEC2ERKS0_:
 7775              	.LFB1036:
  34:/home/desem/workspace/desenet/utils/address.hpp **** {
 7776              		.loc 72 34 0
 7777              		.cfi_startproc
 7778              		@ args = 0, pretend = 0, frame = 8
 7779              		@ frame_needed = 1, uses_anonymous_args = 0
 7780              		@ link register save eliminated.
 7781 0000 80B4     		push	{r7}
 7782              	.LCFI255:
 7783              		.cfi_def_cfa_offset 4
 7784 0002 83B0     		sub	sp, sp, #12
 7785              	.LCFI256:
 7786              		.cfi_def_cfa_offset 16
 7787 0004 00AF     		add	r7, sp, #0
 7788              		.cfi_offset 7, -4
 7789              	.LCFI257:
 7790              		.cfi_def_cfa_register 7
 7791 0006 7860     		str	r0, [r7, #4]
 7792 0008 3960     		str	r1, [r7, #0]
 7793              	.LBB46:
  34:/home/desem/workspace/desenet/utils/address.hpp **** {
 7794              		.loc 72 34 0
 7795 000a 7B68     		ldr	r3, [r7, #4]
 7796 000c 0A4A     		ldr	r2, .L143
 7797 000e 1A60     		str	r2, [r3, #0]
 7798 0010 7B68     		ldr	r3, [r7, #4]
 7799 0012 3A68     		ldr	r2, [r7, #0]
 7800 0014 03F10403 		add	r3, r3, #4
 7801 0018 02F10402 		add	r2, r2, #4
 7802 001c 92E80300 		ldmia	r2, {r0, r1}
 7803 0020 1860     		str	r0, [r3, #0]
 7804 0022 03F10403 		add	r3, r3, #4
 7805 0026 1980     		strh	r1, [r3, #0]	@ movhi
 7806              	.LBE46:
 7807 0028 7B68     		ldr	r3, [r7, #4]
 7808 002a 1846     		mov	r0, r3
 7809 002c 07F10C07 		add	r7, r7, #12
 7810 0030 BD46     		mov	sp, r7
 7811 0032 80BC     		pop	{r7}
 7812 0034 7047     		bx	lr
 7813              	.L144:
 7814 0036 00BF     		.align	2
 7815              	.L143:
 7816 0038 08000000 		.word	_ZTV7AddressILj6EE+8
 7817              		.cfi_endproc
 7818              	.LFE1036:
 7820              		.weak	_ZN7AddressILj6EEC1ERKS0_
 7821              		.thumb_set _ZN7AddressILj6EEC1ERKS0_,_ZN7AddressILj6EEC2ERKS0_
 7822              		.section	.text._ZN5Air3T6PlayerC2ERKS0_,"axG",%progbits,_ZN5Air3T6PlayerC5ERKS0_,comdat
 7823              		.align	2
 7824              		.weak	_ZN5Air3T6PlayerC2ERKS0_
 7825              		.thumb
 7826              		.thumb_func
 7828              	_ZN5Air3T6PlayerC2ERKS0_:
 7829              	.LFB1038:
   1:../air3t/data/player.h **** #pragma once
   2:../air3t/data/player.h **** #include <string>
   3:../air3t/data/player.h **** #include <utils/Address>
   4:../air3t/data/player.h **** 
   5:../air3t/data/player.h **** namespace Air3T
   6:../air3t/data/player.h **** {
   7:../air3t/data/player.h **** 	/**
   8:../air3t/data/player.h **** 	 * @ingroup data
   9:../air3t/data/player.h **** 	 * @brief Represents a remote Air3T-player that was found using DeSeNet advertisements.
  10:../air3t/data/player.h **** 	 */
  11:../air3t/data/player.h **** 	class Player
  12:../air3t/data/player.h **** 	{
 7830              		.loc 36 12 0
 7831              		.cfi_startproc
 7832              		@ args = 0, pretend = 0, frame = 8
 7833              		@ frame_needed = 1, uses_anonymous_args = 0
 7834 0000 80B5     		push	{r7, lr}
 7835              	.LCFI258:
 7836              		.cfi_def_cfa_offset 8
 7837 0002 82B0     		sub	sp, sp, #8
 7838              	.LCFI259:
 7839              		.cfi_def_cfa_offset 16
 7840 0004 00AF     		add	r7, sp, #0
 7841              		.cfi_offset 14, -4
 7842              		.cfi_offset 7, -8
 7843              	.LCFI260:
 7844              		.cfi_def_cfa_register 7
 7845 0006 7860     		str	r0, [r7, #4]
 7846 0008 3960     		str	r1, [r7, #0]
 7847              	.LBB47:
 7848              		.loc 36 12 0
 7849 000a 7B68     		ldr	r3, [r7, #4]
 7850 000c 0D4A     		ldr	r2, .L147
 7851 000e 1A60     		str	r2, [r3, #0]
 7852 0010 7B68     		ldr	r3, [r7, #4]
 7853 0012 03F10402 		add	r2, r3, #4
 7854 0016 3B68     		ldr	r3, [r7, #0]
 7855 0018 03F10403 		add	r3, r3, #4
 7856 001c 1046     		mov	r0, r2
 7857 001e 1946     		mov	r1, r3
 7858 0020 FFF7FEFF 		bl	_ZN7AddressILj6EEC1ERKS0_
 7859 0024 7B68     		ldr	r3, [r7, #4]
 7860 0026 03F11002 		add	r2, r3, #16
 7861 002a 3B68     		ldr	r3, [r7, #0]
 7862 002c 03F11003 		add	r3, r3, #16
 7863 0030 1046     		mov	r0, r2
 7864 0032 1946     		mov	r1, r3
 7865 0034 FFF7FEFF 		bl	_ZNSsC1ERKSs
 7866              	.LBE47:
 7867 0038 7B68     		ldr	r3, [r7, #4]
 7868 003a 1846     		mov	r0, r3
 7869 003c 07F10807 		add	r7, r7, #8
 7870 0040 BD46     		mov	sp, r7
 7871 0042 80BD     		pop	{r7, pc}
 7872              	.L148:
 7873              		.align	2
 7874              	.L147:
 7875 0044 08000000 		.word	_ZTVN5Air3T6PlayerE+8
 7876              		.cfi_endproc
 7877              	.LFE1038:
 7879              		.weak	_ZN5Air3T6PlayerC1ERKS0_
 7880              		.thumb_set _ZN5Air3T6PlayerC1ERKS0_,_ZN5Air3T6PlayerC2ERKS0_
 7881              		.section	.text._ZN9__gnu_cxx13new_allocatorIN5Air3T6PlayerEE9constructEPS2_RKS2_,"axG",%progbits,_
 7882              		.align	2
 7883              		.weak	_ZN9__gnu_cxx13new_allocatorIN5Air3T6PlayerEE9constructEPS2_RKS2_
 7884              		.thumb
 7885              		.thumb_func
 7887              	_ZN9__gnu_cxx13new_allocatorIN5Air3T6PlayerEE9constructEPS2_RKS2_:
 7888              	.LFB1033:
 104:/opt/toolchains/arm-none-eabi/bin/../lib/gcc/arm-none-eabi/4.5.2/../../../../arm-none-eabi/include/c++/4.5.2/ext/new_allocator.h ****       construct(pointer __p, const _Tp& __val) 
 7889              		.loc 25 104 0
 7890              		.cfi_startproc
 7891              		@ args = 0, pretend = 0, frame = 16
 7892              		@ frame_needed = 1, uses_anonymous_args = 0
 7893 0000 80B5     		push	{r7, lr}
 7894              	.LCFI261:
 7895              		.cfi_def_cfa_offset 8
 7896 0002 84B0     		sub	sp, sp, #16
 7897              	.LCFI262:
 7898              		.cfi_def_cfa_offset 24
 7899 0004 00AF     		add	r7, sp, #0
 7900              		.cfi_offset 14, -4
 7901              		.cfi_offset 7, -8
 7902              	.LCFI263:
 7903              		.cfi_def_cfa_register 7
 7904 0006 F860     		str	r0, [r7, #12]
 7905 0008 B960     		str	r1, [r7, #8]
 7906 000a 7A60     		str	r2, [r7, #4]
 105:/opt/toolchains/arm-none-eabi/bin/../lib/gcc/arm-none-eabi/4.5.2/../../../../arm-none-eabi/include/c++/4.5.2/ext/new_allocator.h ****       { ::new((void *)__p) _Tp(__val); }
 7907              		.loc 25 105 0
 7908 000c BB68     		ldr	r3, [r7, #8]
 7909 000e 4FF01400 		mov	r0, #20
 7910 0012 1946     		mov	r1, r3
 7911 0014 FFF7FEFF 		bl	_ZnwjPv
 7912 0018 0346     		mov	r3, r0
 7913 001a 1A46     		mov	r2, r3
 7914 001c 002A     		cmp	r2, #0
 7915 001e 03D0     		beq	.L149
 105:/opt/toolchains/arm-none-eabi/bin/../lib/gcc/arm-none-eabi/4.5.2/../../../../arm-none-eabi/include/c++/4.5.2/ext/new_allocator.h ****       { ::new((void *)__p) _Tp(__val); }
 7916              		.loc 25 105 0 is_stmt 0 discriminator 1
 7917 0020 1846     		mov	r0, r3
 7918 0022 7968     		ldr	r1, [r7, #4]
 7919 0024 FFF7FEFF 		bl	_ZN5Air3T6PlayerC1ERKS0_
 7920              	.L149:
 105:/opt/toolchains/arm-none-eabi/bin/../lib/gcc/arm-none-eabi/4.5.2/../../../../arm-none-eabi/include/c++/4.5.2/ext/new_allocator.h ****       { ::new((void *)__p) _Tp(__val); }
 7921              		.loc 25 105 0
 7922 0028 07F11007 		add	r7, r7, #16
 7923 002c BD46     		mov	sp, r7
 7924 002e 80BD     		pop	{r7, pc}
 7925              		.cfi_endproc
 7926              	.LFE1033:
 7928              		.section	.text._ZN9__gnu_cxx13new_allocatorISt10_List_nodeIPN5Air3T5IViewEEEC2Ev,"axG",%progbits,_
 7929              		.align	2
 7930              		.weak	_ZN9__gnu_cxx13new_allocatorISt10_List_nodeIPN5Air3T5IViewEEEC2Ev
 7931              		.thumb
 7932              		.thumb_func
 7934              	_ZN9__gnu_cxx13new_allocatorISt10_List_nodeIPN5Air3T5IViewEEEC2Ev:
 7935              	.LFB1041:
  66:/opt/toolchains/arm-none-eabi/bin/../lib/gcc/arm-none-eabi/4.5.2/../../../../arm-none-eabi/include/c++/4.5.2/ext/new_allocator.h ****       new_allocator() throw() { }
 7936              		.loc 25 66 0 is_stmt 1
 7937              		.cfi_startproc
 7938              		@ args = 0, pretend = 0, frame = 8
 7939              		@ frame_needed = 1, uses_anonymous_args = 0
 7940              		@ link register save eliminated.
 7941 0000 80B4     		push	{r7}
 7942              	.LCFI264:
 7943              		.cfi_def_cfa_offset 4
 7944 0002 83B0     		sub	sp, sp, #12
 7945              	.LCFI265:
 7946              		.cfi_def_cfa_offset 16
 7947 0004 00AF     		add	r7, sp, #0
 7948              		.cfi_offset 7, -4
 7949              	.LCFI266:
 7950              		.cfi_def_cfa_register 7
 7951 0006 7860     		str	r0, [r7, #4]
  66:/opt/toolchains/arm-none-eabi/bin/../lib/gcc/arm-none-eabi/4.5.2/../../../../arm-none-eabi/include/c++/4.5.2/ext/new_allocator.h ****       new_allocator() throw() { }
 7952              		.loc 25 66 0
 7953 0008 7B68     		ldr	r3, [r7, #4]
 7954 000a 1846     		mov	r0, r3
 7955 000c 07F10C07 		add	r7, r7, #12
 7956 0010 BD46     		mov	sp, r7
 7957 0012 80BC     		pop	{r7}
 7958 0014 7047     		bx	lr
 7959              		.cfi_endproc
 7960              	.LFE1041:
 7962              		.weak	_ZN9__gnu_cxx13new_allocatorISt10_List_nodeIPN5Air3T5IViewEEEC1Ev
 7963              		.thumb_set _ZN9__gnu_cxx13new_allocatorISt10_List_nodeIPN5Air3T5IViewEEEC1Ev,_ZN9__gnu_cxx13new_al
 7964 0016 00BF     		.section	.text._ZN9__gnu_cxx13new_allocatorIPN5Air3T5IViewEEC2Ev,"axG",%progbits,_ZN9__gnu_cxx13ne
 7965              		.align	2
 7966              		.weak	_ZN9__gnu_cxx13new_allocatorIPN5Air3T5IViewEEC2Ev
 7967              		.thumb
 7968              		.thumb_func
 7970              	_ZN9__gnu_cxx13new_allocatorIPN5Air3T5IViewEEC2Ev:
 7971              	.LFB1044:
  66:/opt/toolchains/arm-none-eabi/bin/../lib/gcc/arm-none-eabi/4.5.2/../../../../arm-none-eabi/include/c++/4.5.2/ext/new_allocator.h ****       new_allocator() throw() { }
 7972              		.loc 25 66 0
 7973              		.cfi_startproc
 7974              		@ args = 0, pretend = 0, frame = 8
 7975              		@ frame_needed = 1, uses_anonymous_args = 0
 7976              		@ link register save eliminated.
 7977 0000 80B4     		push	{r7}
 7978              	.LCFI267:
 7979              		.cfi_def_cfa_offset 4
 7980 0002 83B0     		sub	sp, sp, #12
 7981              	.LCFI268:
 7982              		.cfi_def_cfa_offset 16
 7983 0004 00AF     		add	r7, sp, #0
 7984              		.cfi_offset 7, -4
 7985              	.LCFI269:
 7986              		.cfi_def_cfa_register 7
 7987 0006 7860     		str	r0, [r7, #4]
  66:/opt/toolchains/arm-none-eabi/bin/../lib/gcc/arm-none-eabi/4.5.2/../../../../arm-none-eabi/include/c++/4.5.2/ext/new_allocator.h ****       new_allocator() throw() { }
 7988              		.loc 25 66 0
 7989 0008 7B68     		ldr	r3, [r7, #4]
 7990 000a 1846     		mov	r0, r3
 7991 000c 07F10C07 		add	r7, r7, #12
 7992 0010 BD46     		mov	sp, r7
 7993 0012 80BC     		pop	{r7}
 7994 0014 7047     		bx	lr
 7995              		.cfi_endproc
 7996              	.LFE1044:
 7998              		.weak	_ZN9__gnu_cxx13new_allocatorIPN5Air3T5IViewEEC1Ev
 7999              		.thumb_set _ZN9__gnu_cxx13new_allocatorIPN5Air3T5IViewEEC1Ev,_ZN9__gnu_cxx13new_allocatorIPN5Air3T
 8000 0016 00BF     		.section	.text._ZN9__gnu_cxx13new_allocatorISt10_List_nodeIN5Air3T6PlayerEEEC2Ev,"axG",%progbits,_
 8001              		.align	2
 8002              		.weak	_ZN9__gnu_cxx13new_allocatorISt10_List_nodeIN5Air3T6PlayerEEEC2Ev
 8003              		.thumb
 8004              		.thumb_func
 8006              	_ZN9__gnu_cxx13new_allocatorISt10_List_nodeIN5Air3T6PlayerEEEC2Ev:
 8007              	.LFB1050:
  66:/opt/toolchains/arm-none-eabi/bin/../lib/gcc/arm-none-eabi/4.5.2/../../../../arm-none-eabi/include/c++/4.5.2/ext/new_allocator.h ****       new_allocator() throw() { }
 8008              		.loc 25 66 0
 8009              		.cfi_startproc
 8010              		@ args = 0, pretend = 0, frame = 8
 8011              		@ frame_needed = 1, uses_anonymous_args = 0
 8012              		@ link register save eliminated.
 8013 0000 80B4     		push	{r7}
 8014              	.LCFI270:
 8015              		.cfi_def_cfa_offset 4
 8016 0002 83B0     		sub	sp, sp, #12
 8017              	.LCFI271:
 8018              		.cfi_def_cfa_offset 16
 8019 0004 00AF     		add	r7, sp, #0
 8020              		.cfi_offset 7, -4
 8021              	.LCFI272:
 8022              		.cfi_def_cfa_register 7
 8023 0006 7860     		str	r0, [r7, #4]
  66:/opt/toolchains/arm-none-eabi/bin/../lib/gcc/arm-none-eabi/4.5.2/../../../../arm-none-eabi/include/c++/4.5.2/ext/new_allocator.h ****       new_allocator() throw() { }
 8024              		.loc 25 66 0
 8025 0008 7B68     		ldr	r3, [r7, #4]
 8026 000a 1846     		mov	r0, r3
 8027 000c 07F10C07 		add	r7, r7, #12
 8028 0010 BD46     		mov	sp, r7
 8029 0012 80BC     		pop	{r7}
 8030 0014 7047     		bx	lr
 8031              		.cfi_endproc
 8032              	.LFE1050:
 8034              		.weak	_ZN9__gnu_cxx13new_allocatorISt10_List_nodeIN5Air3T6PlayerEEEC1Ev
 8035              		.thumb_set _ZN9__gnu_cxx13new_allocatorISt10_List_nodeIN5Air3T6PlayerEEEC1Ev,_ZN9__gnu_cxx13new_al
 8036 0016 00BF     		.section	.text._ZN9__gnu_cxx13new_allocatorIN5Air3T6PlayerEEC2Ev,"axG",%progbits,_ZN9__gnu_cxx13ne
 8037              		.align	2
 8038              		.weak	_ZN9__gnu_cxx13new_allocatorIN5Air3T6PlayerEEC2Ev
 8039              		.thumb
 8040              		.thumb_func
 8042              	_ZN9__gnu_cxx13new_allocatorIN5Air3T6PlayerEEC2Ev:
 8043              	.LFB1053:
  66:/opt/toolchains/arm-none-eabi/bin/../lib/gcc/arm-none-eabi/4.5.2/../../../../arm-none-eabi/include/c++/4.5.2/ext/new_allocator.h ****       new_allocator() throw() { }
 8044              		.loc 25 66 0
 8045              		.cfi_startproc
 8046              		@ args = 0, pretend = 0, frame = 8
 8047              		@ frame_needed = 1, uses_anonymous_args = 0
 8048              		@ link register save eliminated.
 8049 0000 80B4     		push	{r7}
 8050              	.LCFI273:
 8051              		.cfi_def_cfa_offset 4
 8052 0002 83B0     		sub	sp, sp, #12
 8053              	.LCFI274:
 8054              		.cfi_def_cfa_offset 16
 8055 0004 00AF     		add	r7, sp, #0
 8056              		.cfi_offset 7, -4
 8057              	.LCFI275:
 8058              		.cfi_def_cfa_register 7
 8059 0006 7860     		str	r0, [r7, #4]
  66:/opt/toolchains/arm-none-eabi/bin/../lib/gcc/arm-none-eabi/4.5.2/../../../../arm-none-eabi/include/c++/4.5.2/ext/new_allocator.h ****       new_allocator() throw() { }
 8060              		.loc 25 66 0
 8061 0008 7B68     		ldr	r3, [r7, #4]
 8062 000a 1846     		mov	r0, r3
 8063 000c 07F10C07 		add	r7, r7, #12
 8064 0010 BD46     		mov	sp, r7
 8065 0012 80BC     		pop	{r7}
 8066 0014 7047     		bx	lr
 8067              		.cfi_endproc
 8068              	.LFE1053:
 8070              		.weak	_ZN9__gnu_cxx13new_allocatorIN5Air3T6PlayerEEC1Ev
 8071              		.thumb_set _ZN9__gnu_cxx13new_allocatorIN5Air3T6PlayerEEC1Ev,_ZN9__gnu_cxx13new_allocatorIN5Air3T6
 8072 0016 00BF     		.section	.text._ZN9__gnu_cxx13new_allocatorISt10_List_nodeIPN5Air3T5IViewEEE8allocateEjPKv,"axG",%
 8073              		.align	2
 8074              		.weak	_ZN9__gnu_cxx13new_allocatorISt10_List_nodeIPN5Air3T5IViewEEE8allocateEjPKv
 8075              		.thumb
 8076              		.thumb_func
 8078              	_ZN9__gnu_cxx13new_allocatorISt10_List_nodeIPN5Air3T5IViewEEE8allocateEjPKv:
 8079              	.LFB1058:
  84:/opt/toolchains/arm-none-eabi/bin/../lib/gcc/arm-none-eabi/4.5.2/../../../../arm-none-eabi/include/c++/4.5.2/ext/new_allocator.h ****       allocate(size_type __n, const void* = 0)
 8080              		.loc 25 84 0
 8081              		.cfi_startproc
 8082              		@ args = 0, pretend = 0, frame = 16
 8083              		@ frame_needed = 1, uses_anonymous_args = 0
 8084 0000 80B5     		push	{r7, lr}
 8085              	.LCFI276:
 8086              		.cfi_def_cfa_offset 8
 8087 0002 84B0     		sub	sp, sp, #16
 8088              	.LCFI277:
 8089              		.cfi_def_cfa_offset 24
 8090 0004 00AF     		add	r7, sp, #0
 8091              		.cfi_offset 14, -4
 8092              		.cfi_offset 7, -8
 8093              	.LCFI278:
 8094              		.cfi_def_cfa_register 7
 8095 0006 F860     		str	r0, [r7, #12]
 8096 0008 B960     		str	r1, [r7, #8]
 8097 000a 7A60     		str	r2, [r7, #4]
  86:/opt/toolchains/arm-none-eabi/bin/../lib/gcc/arm-none-eabi/4.5.2/../../../../arm-none-eabi/include/c++/4.5.2/ext/new_allocator.h **** 	if (__n > this->max_size())
 8098              		.loc 25 86 0
 8099 000c F868     		ldr	r0, [r7, #12]
 8100 000e FFF7FEFF 		bl	_ZNK9__gnu_cxx13new_allocatorISt10_List_nodeIPN5Air3T5IViewEEE8max_sizeEv
 8101 0012 0246     		mov	r2, r0
 8102 0014 BB68     		ldr	r3, [r7, #8]
 8103 0016 9A42     		cmp	r2, r3
 8104 0018 2CBF     		ite	cs
 8105 001a 0023     		movcs	r3, #0
 8106 001c 0123     		movcc	r3, #1
 8107 001e DBB2     		uxtb	r3, r3
 8108 0020 002B     		cmp	r3, #0
 8109 0022 01D0     		beq	.L161
  87:/opt/toolchains/arm-none-eabi/bin/../lib/gcc/arm-none-eabi/4.5.2/../../../../arm-none-eabi/include/c++/4.5.2/ext/new_allocator.h **** 	  std::__throw_bad_alloc();
 8110              		.loc 25 87 0
 8111 0024 FFF7FEFF 		bl	_ZSt17__throw_bad_allocv
 8112              	.L161:
  89:/opt/toolchains/arm-none-eabi/bin/../lib/gcc/arm-none-eabi/4.5.2/../../../../arm-none-eabi/include/c++/4.5.2/ext/new_allocator.h **** 	return static_cast<_Tp*>(::operator new(__n * sizeof(_Tp)));
 8113              		.loc 25 89 0
 8114 0028 BA68     		ldr	r2, [r7, #8]
 8115 002a 1346     		mov	r3, r2
 8116 002c 4FEA4303 		lsl	r3, r3, #1
 8117 0030 9B18     		adds	r3, r3, r2
 8118 0032 4FEA8303 		lsl	r3, r3, #2
 8119 0036 1846     		mov	r0, r3
 8120 0038 FFF7FEFF 		bl	_Znwj
 8121 003c 0346     		mov	r3, r0
  90:/opt/toolchains/arm-none-eabi/bin/../lib/gcc/arm-none-eabi/4.5.2/../../../../arm-none-eabi/include/c++/4.5.2/ext/new_allocator.h ****       }
 8122              		.loc 25 90 0
 8123 003e 1846     		mov	r0, r3
 8124 0040 07F11007 		add	r7, r7, #16
 8125 0044 BD46     		mov	sp, r7
 8126 0046 80BD     		pop	{r7, pc}
 8127              		.cfi_endproc
 8128              	.LFE1058:
 8130              		.section	.text._ZN9__gnu_cxx13new_allocatorISt10_List_nodeIN5Air3T6PlayerEEE8allocateEjPKv,"axG",%
 8131              		.align	2
 8132              		.weak	_ZN9__gnu_cxx13new_allocatorISt10_List_nodeIN5Air3T6PlayerEEE8allocateEjPKv
 8133              		.thumb
 8134              		.thumb_func
 8136              	_ZN9__gnu_cxx13new_allocatorISt10_List_nodeIN5Air3T6PlayerEEE8allocateEjPKv:
 8137              	.LFB1059:
  84:/opt/toolchains/arm-none-eabi/bin/../lib/gcc/arm-none-eabi/4.5.2/../../../../arm-none-eabi/include/c++/4.5.2/ext/new_allocator.h ****       allocate(size_type __n, const void* = 0)
 8138              		.loc 25 84 0
 8139              		.cfi_startproc
 8140              		@ args = 0, pretend = 0, frame = 16
 8141              		@ frame_needed = 1, uses_anonymous_args = 0
 8142 0000 80B5     		push	{r7, lr}
 8143              	.LCFI279:
 8144              		.cfi_def_cfa_offset 8
 8145 0002 84B0     		sub	sp, sp, #16
 8146              	.LCFI280:
 8147              		.cfi_def_cfa_offset 24
 8148 0004 00AF     		add	r7, sp, #0
 8149              		.cfi_offset 14, -4
 8150              		.cfi_offset 7, -8
 8151              	.LCFI281:
 8152              		.cfi_def_cfa_register 7
 8153 0006 F860     		str	r0, [r7, #12]
 8154 0008 B960     		str	r1, [r7, #8]
 8155 000a 7A60     		str	r2, [r7, #4]
  86:/opt/toolchains/arm-none-eabi/bin/../lib/gcc/arm-none-eabi/4.5.2/../../../../arm-none-eabi/include/c++/4.5.2/ext/new_allocator.h **** 	if (__n > this->max_size())
 8156              		.loc 25 86 0
 8157 000c F868     		ldr	r0, [r7, #12]
 8158 000e FFF7FEFF 		bl	_ZNK9__gnu_cxx13new_allocatorISt10_List_nodeIN5Air3T6PlayerEEE8max_sizeEv
 8159 0012 0246     		mov	r2, r0
 8160 0014 BB68     		ldr	r3, [r7, #8]
 8161 0016 9A42     		cmp	r2, r3
 8162 0018 2CBF     		ite	cs
 8163 001a 0023     		movcs	r3, #0
 8164 001c 0123     		movcc	r3, #1
 8165 001e DBB2     		uxtb	r3, r3
 8166 0020 002B     		cmp	r3, #0
 8167 0022 01D0     		beq	.L163
  87:/opt/toolchains/arm-none-eabi/bin/../lib/gcc/arm-none-eabi/4.5.2/../../../../arm-none-eabi/include/c++/4.5.2/ext/new_allocator.h **** 	  std::__throw_bad_alloc();
 8168              		.loc 25 87 0
 8169 0024 FFF7FEFF 		bl	_ZSt17__throw_bad_allocv
 8170              	.L163:
  89:/opt/toolchains/arm-none-eabi/bin/../lib/gcc/arm-none-eabi/4.5.2/../../../../arm-none-eabi/include/c++/4.5.2/ext/new_allocator.h **** 	return static_cast<_Tp*>(::operator new(__n * sizeof(_Tp)));
 8171              		.loc 25 89 0
 8172 0028 BA68     		ldr	r2, [r7, #8]
 8173 002a 1346     		mov	r3, r2
 8174 002c 4FEAC303 		lsl	r3, r3, #3
 8175 0030 9B1A     		subs	r3, r3, r2
 8176 0032 4FEA8303 		lsl	r3, r3, #2
 8177 0036 1846     		mov	r0, r3
 8178 0038 FFF7FEFF 		bl	_Znwj
 8179 003c 0346     		mov	r3, r0
  90:/opt/toolchains/arm-none-eabi/bin/../lib/gcc/arm-none-eabi/4.5.2/../../../../arm-none-eabi/include/c++/4.5.2/ext/new_allocator.h ****       }
 8180              		.loc 25 90 0
 8181 003e 1846     		mov	r0, r3
 8182 0040 07F11007 		add	r7, r7, #16
 8183 0044 BD46     		mov	sp, r7
 8184 0046 80BD     		pop	{r7, pc}
 8185              		.cfi_endproc
 8186              	.LFE1059:
 8188              		.section	.text._ZN7AddressILj6EED2Ev,"axG",%progbits,_ZN7AddressILj6EED5Ev,comdat
 8189              		.align	2
 8190              		.weak	_ZN7AddressILj6EED2Ev
 8191              		.thumb
 8192              		.thumb_func
 8194              	_ZN7AddressILj6EED2Ev:
 8195              	.LFB1061:
  60:/home/desem/workspace/desenet/utils/address.hpp **** 	virtual ~Address()
 8196              		.loc 72 60 0
 8197              		.cfi_startproc
 8198              		@ args = 0, pretend = 0, frame = 8
 8199              		@ frame_needed = 1, uses_anonymous_args = 0
 8200 0000 80B5     		push	{r7, lr}
 8201              	.LCFI282:
 8202              		.cfi_def_cfa_offset 8
 8203 0002 82B0     		sub	sp, sp, #8
 8204              	.LCFI283:
 8205              		.cfi_def_cfa_offset 16
 8206 0004 00AF     		add	r7, sp, #0
 8207              		.cfi_offset 14, -4
 8208              		.cfi_offset 7, -8
 8209              	.LCFI284:
 8210              		.cfi_def_cfa_register 7
 8211 0006 7860     		str	r0, [r7, #4]
 8212              	.LBB48:
  61:/home/desem/workspace/desenet/utils/address.hpp **** 	{}
 8213              		.loc 72 61 0
 8214 0008 7B68     		ldr	r3, [r7, #4]
 8215 000a 094A     		ldr	r2, .L167
 8216 000c 1A60     		str	r2, [r3, #0]
 8217              	.LBE48:
 8218 000e 4FF00003 		mov	r3, #0
 8219 0012 03F00103 		and	r3, r3, #1
 8220 0016 DBB2     		uxtb	r3, r3
 8221 0018 002B     		cmp	r3, #0
 8222 001a 02D0     		beq	.L166
  61:/home/desem/workspace/desenet/utils/address.hpp **** 	{}
 8223              		.loc 72 61 0 is_stmt 0 discriminator 1
 8224 001c 7868     		ldr	r0, [r7, #4]
 8225 001e FFF7FEFF 		bl	_ZdlPv
 8226              	.L166:
  61:/home/desem/workspace/desenet/utils/address.hpp **** 	{}
 8227              		.loc 72 61 0 discriminator 2
 8228 0022 7B68     		ldr	r3, [r7, #4]
 8229 0024 1846     		mov	r0, r3
 8230 0026 07F10807 		add	r7, r7, #8
 8231 002a BD46     		mov	sp, r7
 8232 002c 80BD     		pop	{r7, pc}
 8233              	.L168:
 8234 002e 00BF     		.align	2
 8235              	.L167:
 8236 0030 08000000 		.word	_ZTV7AddressILj6EE+8
 8237              		.cfi_endproc
 8238              	.LFE1061:
 8240              		.weak	_ZN7AddressILj6EED1Ev
 8241              		.thumb_set _ZN7AddressILj6EED1Ev,_ZN7AddressILj6EED2Ev
 8242              		.section	.text._ZN7AddressILj6EED0Ev,"axG",%progbits,_ZN7AddressILj6EED5Ev,comdat
 8243              		.align	2
 8244              		.weak	_ZN7AddressILj6EED0Ev
 8245              		.thumb
 8246              		.thumb_func
 8248              	_ZN7AddressILj6EED0Ev:
 8249              	.LFB1063:
  60:/home/desem/workspace/desenet/utils/address.hpp **** 	virtual ~Address()
 8250              		.loc 72 60 0 is_stmt 1
 8251              		.cfi_startproc
 8252              		@ args = 0, pretend = 0, frame = 8
 8253              		@ frame_needed = 1, uses_anonymous_args = 0
 8254 0000 80B5     		push	{r7, lr}
 8255              	.LCFI285:
 8256              		.cfi_def_cfa_offset 8
 8257 0002 82B0     		sub	sp, sp, #8
 8258              	.LCFI286:
 8259              		.cfi_def_cfa_offset 16
 8260 0004 00AF     		add	r7, sp, #0
 8261              		.cfi_offset 14, -4
 8262              		.cfi_offset 7, -8
 8263              	.LCFI287:
 8264              		.cfi_def_cfa_register 7
 8265 0006 7860     		str	r0, [r7, #4]
  61:/home/desem/workspace/desenet/utils/address.hpp **** 	{}
 8266              		.loc 72 61 0
 8267 0008 7868     		ldr	r0, [r7, #4]
 8268 000a FFF7FEFF 		bl	_ZN7AddressILj6EED1Ev
 8269 000e 7868     		ldr	r0, [r7, #4]
 8270 0010 FFF7FEFF 		bl	_ZdlPv
 8271 0014 7B68     		ldr	r3, [r7, #4]
 8272 0016 1846     		mov	r0, r3
 8273 0018 07F10807 		add	r7, r7, #8
 8274 001c BD46     		mov	sp, r7
 8275 001e 80BD     		pop	{r7, pc}
 8276              		.cfi_endproc
 8277              	.LFE1063:
 8279              		.section	.text._ZNK9__gnu_cxx13new_allocatorISt10_List_nodeIPN5Air3T5IViewEEE8max_sizeEv,"axG",%pr
 8280              		.align	2
 8281              		.weak	_ZNK9__gnu_cxx13new_allocatorISt10_List_nodeIPN5Air3T5IViewEEE8max_sizeEv
 8282              		.thumb
 8283              		.thumb_func
 8285              	_ZNK9__gnu_cxx13new_allocatorISt10_List_nodeIPN5Air3T5IViewEEE8max_sizeEv:
 8286              	.LFB1070:
  98:/opt/toolchains/arm-none-eabi/bin/../lib/gcc/arm-none-eabi/4.5.2/../../../../arm-none-eabi/include/c++/4.5.2/ext/new_allocator.h ****       max_size() const throw() 
 8287              		.loc 25 98 0
 8288              		.cfi_startproc
 8289              		@ args = 0, pretend = 0, frame = 8
 8290              		@ frame_needed = 1, uses_anonymous_args = 0
 8291              		@ link register save eliminated.
 8292 0000 80B4     		push	{r7}
 8293              	.LCFI288:
 8294              		.cfi_def_cfa_offset 4
 8295 0002 83B0     		sub	sp, sp, #12
 8296              	.LCFI289:
 8297              		.cfi_def_cfa_offset 16
 8298 0004 00AF     		add	r7, sp, #0
 8299              		.cfi_offset 7, -4
 8300              	.LCFI290:
 8301              		.cfi_def_cfa_register 7
 8302 0006 7860     		str	r0, [r7, #4]
  99:/opt/toolchains/arm-none-eabi/bin/../lib/gcc/arm-none-eabi/4.5.2/../../../../arm-none-eabi/include/c++/4.5.2/ext/new_allocator.h ****       { return size_t(-1) / sizeof(_Tp); }
 8303              		.loc 25 99 0
 8304 0008 45F25553 		movw	r3, #21845
 8305 000c C1F25553 		movt	r3, 5461
 8306 0010 1846     		mov	r0, r3
 8307 0012 07F10C07 		add	r7, r7, #12
 8308 0016 BD46     		mov	sp, r7
 8309 0018 80BC     		pop	{r7}
 8310 001a 7047     		bx	lr
 8311              		.cfi_endproc
 8312              	.LFE1070:
 8314              		.section	.text._ZNK9__gnu_cxx13new_allocatorISt10_List_nodeIN5Air3T6PlayerEEE8max_sizeEv,"axG",%pr
 8315              		.align	2
 8316              		.weak	_ZNK9__gnu_cxx13new_allocatorISt10_List_nodeIN5Air3T6PlayerEEE8max_sizeEv
 8317              		.thumb
 8318              		.thumb_func
 8320              	_ZNK9__gnu_cxx13new_allocatorISt10_List_nodeIN5Air3T6PlayerEEE8max_sizeEv:
 8321              	.LFB1071:
  98:/opt/toolchains/arm-none-eabi/bin/../lib/gcc/arm-none-eabi/4.5.2/../../../../arm-none-eabi/include/c++/4.5.2/ext/new_allocator.h ****       max_size() const throw() 
 8322              		.loc 25 98 0
 8323              		.cfi_startproc
 8324              		@ args = 0, pretend = 0, frame = 8
 8325              		@ frame_needed = 1, uses_anonymous_args = 0
 8326              		@ link register save eliminated.
 8327 0000 80B4     		push	{r7}
 8328              	.LCFI291:
 8329              		.cfi_def_cfa_offset 4
 8330 0002 83B0     		sub	sp, sp, #12
 8331              	.LCFI292:
 8332              		.cfi_def_cfa_offset 16
 8333 0004 00AF     		add	r7, sp, #0
 8334              		.cfi_offset 7, -4
 8335              	.LCFI293:
 8336              		.cfi_def_cfa_register 7
 8337 0006 7860     		str	r0, [r7, #4]
  99:/opt/toolchains/arm-none-eabi/bin/../lib/gcc/arm-none-eabi/4.5.2/../../../../arm-none-eabi/include/c++/4.5.2/ext/new_allocator.h ****       { return size_t(-1) / sizeof(_Tp); }
 8338              		.loc 25 99 0
 8339 0008 49F24923 		movw	r3, #37449
 8340 000c C0F62413 		movt	r3, 2340
 8341 0010 1846     		mov	r0, r3
 8342 0012 07F10C07 		add	r7, r7, #12
 8343 0016 BD46     		mov	sp, r7
 8344 0018 80BC     		pop	{r7}
 8345 001a 7047     		bx	lr
 8346              		.cfi_endproc
 8347              	.LFE1071:
 8349              		.global	_ZTVN5Air3T5ModelE
 8350              		.section	.rodata._ZTVN5Air3T5ModelE,"a",%progbits
 8351              		.align	3
 8354              	_ZTVN5Air3T5ModelE:
 8355 0000 00000000 		.word	0
 8356 0004 00000000 		.word	0
 8357 0008 00000000 		.word	_ZN5Air3T5ModelD1Ev
 8358 000c 00000000 		.word	_ZN5Air3T5ModelD0Ev
 8359              		.weak	_ZTV7AddressILj6EE
 8360              		.section	.rodata._ZTV7AddressILj6EE,"aG",%progbits,_ZTV7AddressILj6EE,comdat
 8361              		.align	3
 8364              	_ZTV7AddressILj6EE:
 8365 0000 00000000 		.word	0
 8366 0004 00000000 		.word	0
 8367 0008 00000000 		.word	_ZN7AddressILj6EED1Ev
 8368 000c 00000000 		.word	_ZN7AddressILj6EED0Ev
 8369              		.section	.rodata._ZZN5Air3T5Model14unregisterViewEPNS_5IViewEE19__PRETTY_FUNCTION__,"a",%progbits
 8370              		.align	2
 8373              	_ZZN5Air3T5Model14unregisterViewEPNS_5IViewEE19__PRETTY_FUNCTION__:
 8374 0000 766F6964 		.ascii	"void Air3T::Model::unregisterView(Air3T::IView*)\000"
 8374      20416972 
 8374      33543A3A 
 8374      4D6F6465 
 8374      6C3A3A75 
 8375 0031 000000   		.section	.rodata._ZZN5Air3T5Model12registerViewEPNS_5IViewEE19__PRETTY_FUNCTION__,"a",%progbits
 8376              		.align	2
 8379              	_ZZN5Air3T5Model12registerViewEPNS_5IViewEE19__PRETTY_FUNCTION__:
 8380 0000 766F6964 		.ascii	"void Air3T::Model::registerView(Air3T::IView*)\000"
 8380      20416972 
 8380      33543A3A 
 8380      4D6F6465 
 8380      6C3A3A72 
 8381 002f 00       		.text
 8382              	.Letext0:
DEFINED SYMBOLS
                            *ABS*:00000000 model.cpp
     /tmp/ccR4KyEe.s:3952   .text._ZnwjPv:00000000 $t
     /tmp/ccR4KyEe.s:3957   .text._ZnwjPv:00000000 _ZnwjPv
     /tmp/ccR4KyEe.s:3987   .text._ZL20__gthread_key_deletei:00000000 $t
     /tmp/ccR4KyEe.s:3991   .text._ZL20__gthread_key_deletei:00000000 _ZL20__gthread_key_deletei
     /tmp/ccR4KyEe.s:4021   .text._ZNSt4listIPN5Air3T5IViewESaIS2_EED2Ev:00000000 $t
     /tmp/ccR4KyEe.s:4026   .text._ZNSt4listIPN5Air3T5IViewESaIS2_EED2Ev:00000000 _ZNSt4listIPN5Air3T5IViewESaIS2_EED2Ev
     /tmp/ccR4KyEe.s:4929   .text._ZNSt10_List_baseIPN5Air3T5IViewESaIS2_EED2Ev:00000000 _ZNSt10_List_baseIPN5Air3T5IViewESaIS2_EED2Ev
     /tmp/ccR4KyEe.s:4026   .text._ZNSt4listIPN5Air3T5IViewESaIS2_EED2Ev:00000000 _ZNSt4listIPN5Air3T5IViewESaIS2_EED1Ev
     /tmp/ccR4KyEe.s:4061   .text._ZNSt4listIN5Air3T6PlayerESaIS1_EED2Ev:00000000 $t
     /tmp/ccR4KyEe.s:4066   .text._ZNSt4listIN5Air3T6PlayerESaIS1_EED2Ev:00000000 _ZNSt4listIN5Air3T6PlayerESaIS1_EED2Ev
     /tmp/ccR4KyEe.s:5051   .text._ZNSt10_List_baseIN5Air3T6PlayerESaIS1_EED2Ev:00000000 _ZNSt10_List_baseIN5Air3T6PlayerESaIS1_EED2Ev
     /tmp/ccR4KyEe.s:4066   .text._ZNSt4listIN5Air3T6PlayerESaIS1_EED2Ev:00000000 _ZNSt4listIN5Air3T6PlayerESaIS1_EED1Ev
     /tmp/ccR4KyEe.s:4101   .text._ZN5Air3T5ModelC2Ev:00000000 $t
     /tmp/ccR4KyEe.s:4106   .text._ZN5Air3T5ModelC2Ev:00000000 _ZN5Air3T5ModelC2Ev
     /tmp/ccR4KyEe.s:4849   .text._ZNSt4listIPN5Air3T5IViewESaIS2_EEC2Ev:00000000 _ZNSt4listIPN5Air3T5IViewESaIS2_EEC1Ev
     /tmp/ccR4KyEe.s:4971   .text._ZNSt4listIN5Air3T6PlayerESaIS1_EEC2Ev:00000000 _ZNSt4listIN5Air3T6PlayerESaIS1_EEC1Ev
     /tmp/ccR4KyEe.s:4157   .text._ZN5Air3T5ModelC2Ev:00000050 $d
     /tmp/ccR4KyEe.s:8354   .rodata._ZTVN5Air3T5ModelE:00000000 _ZTVN5Air3T5ModelE
     /tmp/ccR4KyEe.s:4106   .text._ZN5Air3T5ModelC2Ev:00000000 _ZN5Air3T5ModelC1Ev
     /tmp/ccR4KyEe.s:4164   .text._ZN5Air3T5ModelD2Ev:00000000 $t
     /tmp/ccR4KyEe.s:4169   .text._ZN5Air3T5ModelD2Ev:00000000 _ZN5Air3T5ModelD2Ev
     /tmp/ccR4KyEe.s:4228   .text._ZN5Air3T5ModelD2Ev:00000054 $d
     /tmp/ccR4KyEe.s:4169   .text._ZN5Air3T5ModelD2Ev:00000000 _ZN5Air3T5ModelD1Ev
     /tmp/ccR4KyEe.s:4235   .text._ZN5Air3T5ModelD0Ev:00000000 $t
     /tmp/ccR4KyEe.s:4240   .text._ZN5Air3T5ModelD0Ev:00000000 _ZN5Air3T5ModelD0Ev
     /tmp/ccR4KyEe.s:4272   .rodata:00000000 $d
     /tmp/ccR4KyEe.s:4273   .rodata:00000000 .LC0
     /tmp/ccR4KyEe.s:4276   .rodata:00000018 .LC1
     /tmp/ccR4KyEe.s:4279   .text._ZN5Air3T5Model12registerViewEPNS_5IViewE:00000000 $t
     /tmp/ccR4KyEe.s:4284   .text._ZN5Air3T5Model12registerViewEPNS_5IViewE:00000000 _ZN5Air3T5Model12registerViewEPNS_5IViewE
     /tmp/ccR4KyEe.s:8379   .rodata._ZZN5Air3T5Model12registerViewEPNS_5IViewEE19__PRETTY_FUNCTION__:00000000 _ZZN5Air3T5Model12registerViewEPNS_5IViewEE19__PRETTY_FUNCTION__
     /tmp/ccR4KyEe.s:5093   .text._ZNSt4listIPN5Air3T5IViewESaIS2_EE9push_backERKS2_:00000000 _ZNSt4listIPN5Air3T5IViewESaIS2_EE9push_backERKS2_
     /tmp/ccR4KyEe.s:4339   .text._ZN5Air3T5Model14unregisterViewEPNS_5IViewE:00000000 $t
     /tmp/ccR4KyEe.s:4344   .text._ZN5Air3T5Model14unregisterViewEPNS_5IViewE:00000000 _ZN5Air3T5Model14unregisterViewEPNS_5IViewE
     /tmp/ccR4KyEe.s:8373   .rodata._ZZN5Air3T5Model14unregisterViewEPNS_5IViewEE19__PRETTY_FUNCTION__:00000000 _ZZN5Air3T5Model14unregisterViewEPNS_5IViewEE19__PRETTY_FUNCTION__
     /tmp/ccR4KyEe.s:5132   .text._ZNSt4listIPN5Air3T5IViewESaIS2_EE6removeERKS2_:00000000 _ZNSt4listIPN5Air3T5IViewESaIS2_EE6removeERKS2_
     /tmp/ccR4KyEe.s:4394   .text._ZNK5Air3T5Model16availablePlayersEv:00000000 $t
     /tmp/ccR4KyEe.s:4399   .text._ZNK5Air3T5Model16availablePlayersEv:00000000 _ZNK5Air3T5Model16availablePlayersEv
     /tmp/ccR4KyEe.s:4430   .text._ZN5Air3T5Model18addAvailablePlayerERKNS_6PlayerE:00000000 $t
     /tmp/ccR4KyEe.s:4435   .text._ZN5Air3T5Model18addAvailablePlayerERKNS_6PlayerE:00000000 _ZN5Air3T5Model18addAvailablePlayerERKNS_6PlayerE
     /tmp/ccR4KyEe.s:5256   .text._ZNSt4listIN5Air3T6PlayerESaIS1_EE9push_backERKS1_:00000000 _ZNSt4listIN5Air3T6PlayerESaIS1_EE9push_backERKS1_
     /tmp/ccR4KyEe.s:4762   .text._ZN5Air3T5Model7_updateEi:00000000 _ZN5Air3T5Model7_updateEi
     /tmp/ccR4KyEe.s:4472   .text._ZN5Air3T5Model21removeAvailablePlayerERKNS_6PlayerE:00000000 $t
     /tmp/ccR4KyEe.s:4477   .text._ZN5Air3T5Model21removeAvailablePlayerERKNS_6PlayerE:00000000 _ZN5Air3T5Model21removeAvailablePlayerERKNS_6PlayerE
     /tmp/ccR4KyEe.s:5295   .text._ZNSt4listIN5Air3T6PlayerESaIS1_EE5beginEv:00000000 _ZNSt4listIN5Air3T6PlayerESaIS1_EE5beginEv
     /tmp/ccR4KyEe.s:5456   .text._ZNKSt14_List_iteratorIN5Air3T6PlayerEEptEv:00000000 _ZNKSt14_List_iteratorIN5Air3T6PlayerEEptEv
     /tmp/ccR4KyEe.s:5492   .text._ZNK7AddressILj6EEeqERKS0_:00000000 _ZNK7AddressILj6EEeqERKS0_
     /tmp/ccR4KyEe.s:5540   .text._ZNSt4listIN5Air3T6PlayerESaIS1_EE5eraseESt14_List_iteratorIS1_E:00000000 _ZNSt4listIN5Air3T6PlayerESaIS1_EE5eraseESt14_List_iteratorIS1_E
     /tmp/ccR4KyEe.s:5415   .text._ZNSt14_List_iteratorIN5Air3T6PlayerEEppEv:00000000 _ZNSt14_List_iteratorIN5Air3T6PlayerEEppEv
     /tmp/ccR4KyEe.s:5334   .text._ZNSt4listIN5Air3T6PlayerESaIS1_EE3endEv:00000000 _ZNSt4listIN5Air3T6PlayerESaIS1_EE3endEv
     /tmp/ccR4KyEe.s:5372   .text._ZNKSt14_List_iteratorIN5Air3T6PlayerEEneERKS2_:00000000 _ZNKSt14_List_iteratorIN5Air3T6PlayerEEneERKS2_
     /tmp/ccR4KyEe.s:4573   .text._ZN5Air3T5Model21clearAvailablePlayersEv:00000000 $t
     /tmp/ccR4KyEe.s:4578   .text._ZN5Air3T5Model21clearAvailablePlayersEv:00000000 _ZN5Air3T5Model21clearAvailablePlayersEv
     /tmp/ccR4KyEe.s:5588   .text._ZNSt4listIN5Air3T6PlayerESaIS1_EE5clearEv:00000000 _ZNSt4listIN5Air3T6PlayerESaIS1_EE5clearEv
     /tmp/ccR4KyEe.s:4613   .text._ZNK5Air3T5Model9gamefieldEv:00000000 $t
     /tmp/ccR4KyEe.s:4618   .text._ZNK5Air3T5Model9gamefieldEv:00000000 _ZNK5Air3T5Model9gamefieldEv
     /tmp/ccR4KyEe.s:4649   .text._ZN5Air3T5Model9gamefieldEv:00000000 $t
     /tmp/ccR4KyEe.s:4654   .text._ZN5Air3T5Model9gamefieldEv:00000000 _ZN5Air3T5Model9gamefieldEv
     /tmp/ccR4KyEe.s:4685   .text._ZNK5Air3T5Model10statisticsEv:00000000 $t
     /tmp/ccR4KyEe.s:4690   .text._ZNK5Air3T5Model10statisticsEv:00000000 _ZNK5Air3T5Model10statisticsEv
     /tmp/ccR4KyEe.s:4721   .text._ZN5Air3T5Model10statisticsEv:00000000 $t
     /tmp/ccR4KyEe.s:4726   .text._ZN5Air3T5Model10statisticsEv:00000000 _ZN5Air3T5Model10statisticsEv
     /tmp/ccR4KyEe.s:4757   .text._ZN5Air3T5Model7_updateEi:00000000 $t
     /tmp/ccR4KyEe.s:5627   .text._ZNSt4listIPN5Air3T5IViewESaIS2_EE5beginEv:00000000 _ZNSt4listIPN5Air3T5IViewESaIS2_EE5beginEv
     /tmp/ccR4KyEe.s:5666   .text._ZNSt20_List_const_iteratorIPN5Air3T5IViewEEC2ERKSt14_List_iteratorIS2_E:00000000 _ZNSt20_List_const_iteratorIPN5Air3T5IViewEEC1ERKSt14_List_iteratorIS2_E
     /tmp/ccR4KyEe.s:5831   .text._ZNKSt20_List_const_iteratorIPN5Air3T5IViewEEdeEv:00000000 _ZNKSt20_List_const_iteratorIPN5Air3T5IViewEEdeEv
     /tmp/ccR4KyEe.s:5790   .text._ZNSt20_List_const_iteratorIPN5Air3T5IViewEEppEv:00000000 _ZNSt20_List_const_iteratorIPN5Air3T5IViewEEppEv
     /tmp/ccR4KyEe.s:5709   .text._ZNSt4listIPN5Air3T5IViewESaIS2_EE3endEv:00000000 _ZNSt4listIPN5Air3T5IViewESaIS2_EE3endEv
     /tmp/ccR4KyEe.s:5747   .text._ZNKSt20_List_const_iteratorIPN5Air3T5IViewEEneERKS3_:00000000 _ZNKSt20_List_const_iteratorIPN5Air3T5IViewEEneERKS3_
     /tmp/ccR4KyEe.s:4844   .text._ZNSt4listIPN5Air3T5IViewESaIS2_EEC2Ev:00000000 $t
     /tmp/ccR4KyEe.s:4849   .text._ZNSt4listIPN5Air3T5IViewESaIS2_EEC2Ev:00000000 _ZNSt4listIPN5Air3T5IViewESaIS2_EEC2Ev
     /tmp/ccR4KyEe.s:5867   .text._ZNSt10_List_baseIPN5Air3T5IViewESaIS2_EEC2Ev:00000000 _ZNSt10_List_baseIPN5Air3T5IViewESaIS2_EEC2Ev
     /tmp/ccR4KyEe.s:4884   .text._ZNSt10_List_baseIPN5Air3T5IViewESaIS2_EE10_List_implD2Ev:00000000 $t
     /tmp/ccR4KyEe.s:4889   .text._ZNSt10_List_baseIPN5Air3T5IViewESaIS2_EE10_List_implD2Ev:00000000 _ZNSt10_List_baseIPN5Air3T5IViewESaIS2_EE10_List_implD2Ev
     /tmp/ccR4KyEe.s:5910   .text._ZNSaISt10_List_nodeIPN5Air3T5IViewEEED2Ev:00000000 _ZNSaISt10_List_nodeIPN5Air3T5IViewEEED2Ev
     /tmp/ccR4KyEe.s:4889   .text._ZNSt10_List_baseIPN5Air3T5IViewESaIS2_EE10_List_implD2Ev:00000000 _ZNSt10_List_baseIPN5Air3T5IViewESaIS2_EE10_List_implD1Ev
     /tmp/ccR4KyEe.s:4924   .text._ZNSt10_List_baseIPN5Air3T5IViewESaIS2_EED2Ev:00000000 $t
     /tmp/ccR4KyEe.s:5950   .text._ZNSt10_List_baseIPN5Air3T5IViewESaIS2_EE8_M_clearEv:00000000 _ZNSt10_List_baseIPN5Air3T5IViewESaIS2_EE8_M_clearEv
     /tmp/ccR4KyEe.s:4929   .text._ZNSt10_List_baseIPN5Air3T5IViewESaIS2_EED2Ev:00000000 _ZNSt10_List_baseIPN5Air3T5IViewESaIS2_EED1Ev
     /tmp/ccR4KyEe.s:4966   .text._ZNSt4listIN5Air3T6PlayerESaIS1_EEC2Ev:00000000 $t
     /tmp/ccR4KyEe.s:4971   .text._ZNSt4listIN5Air3T6PlayerESaIS1_EEC2Ev:00000000 _ZNSt4listIN5Air3T6PlayerESaIS1_EEC2Ev
     /tmp/ccR4KyEe.s:6028   .text._ZNSt10_List_baseIN5Air3T6PlayerESaIS1_EEC2Ev:00000000 _ZNSt10_List_baseIN5Air3T6PlayerESaIS1_EEC2Ev
     /tmp/ccR4KyEe.s:5006   .text._ZNSt10_List_baseIN5Air3T6PlayerESaIS1_EE10_List_implD2Ev:00000000 $t
     /tmp/ccR4KyEe.s:5011   .text._ZNSt10_List_baseIN5Air3T6PlayerESaIS1_EE10_List_implD2Ev:00000000 _ZNSt10_List_baseIN5Air3T6PlayerESaIS1_EE10_List_implD2Ev
     /tmp/ccR4KyEe.s:6071   .text._ZNSaISt10_List_nodeIN5Air3T6PlayerEEED2Ev:00000000 _ZNSaISt10_List_nodeIN5Air3T6PlayerEEED2Ev
     /tmp/ccR4KyEe.s:5011   .text._ZNSt10_List_baseIN5Air3T6PlayerESaIS1_EE10_List_implD2Ev:00000000 _ZNSt10_List_baseIN5Air3T6PlayerESaIS1_EE10_List_implD1Ev
     /tmp/ccR4KyEe.s:5046   .text._ZNSt10_List_baseIN5Air3T6PlayerESaIS1_EED2Ev:00000000 $t
     /tmp/ccR4KyEe.s:6111   .text._ZNSt10_List_baseIN5Air3T6PlayerESaIS1_EE8_M_clearEv:00000000 _ZNSt10_List_baseIN5Air3T6PlayerESaIS1_EE8_M_clearEv
     /tmp/ccR4KyEe.s:5051   .text._ZNSt10_List_baseIN5Air3T6PlayerESaIS1_EED2Ev:00000000 _ZNSt10_List_baseIN5Air3T6PlayerESaIS1_EED1Ev
     /tmp/ccR4KyEe.s:5088   .text._ZNSt4listIPN5Air3T5IViewESaIS2_EE9push_backERKS2_:00000000 $t
     /tmp/ccR4KyEe.s:6189   .text._ZNSt4listIPN5Air3T5IViewESaIS2_EE9_M_insertESt14_List_iteratorIS2_ERKS2_:00000000 _ZNSt4listIPN5Air3T5IViewESaIS2_EE9_M_insertESt14_List_iteratorIS2_ERKS2_
     /tmp/ccR4KyEe.s:5127   .text._ZNSt4listIPN5Air3T5IViewESaIS2_EE6removeERKS2_:00000000 $t
     /tmp/ccR4KyEe.s:6278   .text._ZNSt14_List_iteratorIPN5Air3T5IViewEEppEv:00000000 _ZNSt14_List_iteratorIPN5Air3T5IViewEEppEv
     /tmp/ccR4KyEe.s:6319   .text._ZNKSt14_List_iteratorIPN5Air3T5IViewEEdeEv:00000000 _ZNKSt14_List_iteratorIPN5Air3T5IViewEEdeEv
     /tmp/ccR4KyEe.s:6355   .text._ZNSt4listIPN5Air3T5IViewESaIS2_EE8_M_eraseESt14_List_iteratorIS2_E:00000000 _ZNSt4listIPN5Air3T5IViewESaIS2_EE8_M_eraseESt14_List_iteratorIS2_E
     /tmp/ccR4KyEe.s:6235   .text._ZNKSt14_List_iteratorIPN5Air3T5IViewEEneERKS3_:00000000 _ZNKSt14_List_iteratorIPN5Air3T5IViewEEneERKS3_
     /tmp/ccR4KyEe.s:5251   .text._ZNSt4listIN5Air3T6PlayerESaIS1_EE9push_backERKS1_:00000000 $t
     /tmp/ccR4KyEe.s:6416   .text._ZNSt4listIN5Air3T6PlayerESaIS1_EE9_M_insertESt14_List_iteratorIS1_ERKS1_:00000000 _ZNSt4listIN5Air3T6PlayerESaIS1_EE9_M_insertESt14_List_iteratorIS1_ERKS1_
     /tmp/ccR4KyEe.s:5290   .text._ZNSt4listIN5Air3T6PlayerESaIS1_EE5beginEv:00000000 $t
     /tmp/ccR4KyEe.s:6462   .text._ZNSt14_List_iteratorIN5Air3T6PlayerEEC2EPSt15_List_node_base:00000000 _ZNSt14_List_iteratorIN5Air3T6PlayerEEC1EPSt15_List_node_base
     /tmp/ccR4KyEe.s:5329   .text._ZNSt4listIN5Air3T6PlayerESaIS1_EE3endEv:00000000 $t
     /tmp/ccR4KyEe.s:5367   .text._ZNKSt14_List_iteratorIN5Air3T6PlayerEEneERKS2_:00000000 $t
     /tmp/ccR4KyEe.s:5410   .text._ZNSt14_List_iteratorIN5Air3T6PlayerEEppEv:00000000 $t
     /tmp/ccR4KyEe.s:5451   .text._ZNKSt14_List_iteratorIN5Air3T6PlayerEEptEv:00000000 $t
     /tmp/ccR4KyEe.s:5487   .text._ZNK7AddressILj6EEeqERKS0_:00000000 $t
     /tmp/ccR4KyEe.s:5535   .text._ZNSt4listIN5Air3T6PlayerESaIS1_EE5eraseESt14_List_iteratorIS1_E:00000000 $t
     /tmp/ccR4KyEe.s:6504   .text._ZNSt4listIN5Air3T6PlayerESaIS1_EE8_M_eraseESt14_List_iteratorIS1_E:00000000 _ZNSt4listIN5Air3T6PlayerESaIS1_EE8_M_eraseESt14_List_iteratorIS1_E
     /tmp/ccR4KyEe.s:5583   .text._ZNSt4listIN5Air3T6PlayerESaIS1_EE5clearEv:00000000 $t
     /tmp/ccR4KyEe.s:6565   .text._ZNSt10_List_baseIN5Air3T6PlayerESaIS1_EE7_M_initEv:00000000 _ZNSt10_List_baseIN5Air3T6PlayerESaIS1_EE7_M_initEv
     /tmp/ccR4KyEe.s:5622   .text._ZNSt4listIPN5Air3T5IViewESaIS2_EE5beginEv:00000000 $t
     /tmp/ccR4KyEe.s:6605   .text._ZNSt14_List_iteratorIPN5Air3T5IViewEEC2EPSt15_List_node_base:00000000 _ZNSt14_List_iteratorIPN5Air3T5IViewEEC1EPSt15_List_node_base
     /tmp/ccR4KyEe.s:5661   .text._ZNSt20_List_const_iteratorIPN5Air3T5IViewEEC2ERKSt14_List_iteratorIS2_E:00000000 $t
     /tmp/ccR4KyEe.s:5666   .text._ZNSt20_List_const_iteratorIPN5Air3T5IViewEEC2ERKSt14_List_iteratorIS2_E:00000000 _ZNSt20_List_const_iteratorIPN5Air3T5IViewEEC2ERKSt14_List_iteratorIS2_E
     /tmp/ccR4KyEe.s:5704   .text._ZNSt4listIPN5Air3T5IViewESaIS2_EE3endEv:00000000 $t
     /tmp/ccR4KyEe.s:5742   .text._ZNKSt20_List_const_iteratorIPN5Air3T5IViewEEneERKS3_:00000000 $t
     /tmp/ccR4KyEe.s:5785   .text._ZNSt20_List_const_iteratorIPN5Air3T5IViewEEppEv:00000000 $t
     /tmp/ccR4KyEe.s:5826   .text._ZNKSt20_List_const_iteratorIPN5Air3T5IViewEEdeEv:00000000 $t
     /tmp/ccR4KyEe.s:5862   .text._ZNSt10_List_baseIPN5Air3T5IViewESaIS2_EEC2Ev:00000000 $t
     /tmp/ccR4KyEe.s:6647   .text._ZNSt10_List_baseIPN5Air3T5IViewESaIS2_EE10_List_implC2Ev:00000000 _ZNSt10_List_baseIPN5Air3T5IViewESaIS2_EE10_List_implC1Ev
     /tmp/ccR4KyEe.s:6694   .text._ZNSt10_List_baseIPN5Air3T5IViewESaIS2_EE7_M_initEv:00000000 _ZNSt10_List_baseIPN5Air3T5IViewESaIS2_EE7_M_initEv
     /tmp/ccR4KyEe.s:5867   .text._ZNSt10_List_baseIPN5Air3T5IViewESaIS2_EEC2Ev:00000000 _ZNSt10_List_baseIPN5Air3T5IViewESaIS2_EEC1Ev
     /tmp/ccR4KyEe.s:5905   .text._ZNSaISt10_List_nodeIPN5Air3T5IViewEEED2Ev:00000000 $t
     /tmp/ccR4KyEe.s:6734   .text._ZN9__gnu_cxx13new_allocatorISt10_List_nodeIPN5Air3T5IViewEEED2Ev:00000000 _ZN9__gnu_cxx13new_allocatorISt10_List_nodeIPN5Air3T5IViewEEED2Ev
     /tmp/ccR4KyEe.s:5910   .text._ZNSaISt10_List_nodeIPN5Air3T5IViewEEED2Ev:00000000 _ZNSaISt10_List_nodeIPN5Air3T5IViewEEED1Ev
     /tmp/ccR4KyEe.s:5945   .text._ZNSt10_List_baseIPN5Air3T5IViewESaIS2_EE8_M_clearEv:00000000 $t
     /tmp/ccR4KyEe.s:6770   .text._ZNKSt10_List_baseIPN5Air3T5IViewESaIS2_EE19_M_get_Tp_allocatorEv:00000000 _ZNKSt10_List_baseIPN5Air3T5IViewESaIS2_EE19_M_get_Tp_allocatorEv
     /tmp/ccR4KyEe.s:6853   .text._ZN9__gnu_cxx13new_allocatorIPN5Air3T5IViewEE7destroyEPS3_:00000000 _ZN9__gnu_cxx13new_allocatorIPN5Air3T5IViewEE7destroyEPS3_
     /tmp/ccR4KyEe.s:6813   .text._ZNSaIPN5Air3T5IViewEED2Ev:00000000 _ZNSaIPN5Air3T5IViewEED1Ev
     /tmp/ccR4KyEe.s:6886   .text._ZNSt10_List_baseIPN5Air3T5IViewESaIS2_EE11_M_put_nodeEPSt10_List_nodeIS2_E:00000000 _ZNSt10_List_baseIPN5Air3T5IViewESaIS2_EE11_M_put_nodeEPSt10_List_nodeIS2_E
     /tmp/ccR4KyEe.s:6023   .text._ZNSt10_List_baseIN5Air3T6PlayerESaIS1_EEC2Ev:00000000 $t
     /tmp/ccR4KyEe.s:6923   .text._ZNSt10_List_baseIN5Air3T6PlayerESaIS1_EE10_List_implC2Ev:00000000 _ZNSt10_List_baseIN5Air3T6PlayerESaIS1_EE10_List_implC1Ev
     /tmp/ccR4KyEe.s:6028   .text._ZNSt10_List_baseIN5Air3T6PlayerESaIS1_EEC2Ev:00000000 _ZNSt10_List_baseIN5Air3T6PlayerESaIS1_EEC1Ev
     /tmp/ccR4KyEe.s:6066   .text._ZNSaISt10_List_nodeIN5Air3T6PlayerEEED2Ev:00000000 $t
     /tmp/ccR4KyEe.s:6970   .text._ZN9__gnu_cxx13new_allocatorISt10_List_nodeIN5Air3T6PlayerEEED2Ev:00000000 _ZN9__gnu_cxx13new_allocatorISt10_List_nodeIN5Air3T6PlayerEEED2Ev
     /tmp/ccR4KyEe.s:6071   .text._ZNSaISt10_List_nodeIN5Air3T6PlayerEEED2Ev:00000000 _ZNSaISt10_List_nodeIN5Air3T6PlayerEEED1Ev
     /tmp/ccR4KyEe.s:6106   .text._ZNSt10_List_baseIN5Air3T6PlayerESaIS1_EE8_M_clearEv:00000000 $t
     /tmp/ccR4KyEe.s:7006   .text._ZNKSt10_List_baseIN5Air3T6PlayerESaIS1_EE19_M_get_Tp_allocatorEv:00000000 _ZNKSt10_List_baseIN5Air3T6PlayerESaIS1_EE19_M_get_Tp_allocatorEv
     /tmp/ccR4KyEe.s:7089   .text._ZN9__gnu_cxx13new_allocatorIN5Air3T6PlayerEE7destroyEPS2_:00000000 _ZN9__gnu_cxx13new_allocatorIN5Air3T6PlayerEE7destroyEPS2_
     /tmp/ccR4KyEe.s:7049   .text._ZNSaIN5Air3T6PlayerEED2Ev:00000000 _ZNSaIN5Air3T6PlayerEED1Ev
     /tmp/ccR4KyEe.s:7126   .text._ZNSt10_List_baseIN5Air3T6PlayerESaIS1_EE11_M_put_nodeEPSt10_List_nodeIS1_E:00000000 _ZNSt10_List_baseIN5Air3T6PlayerESaIS1_EE11_M_put_nodeEPSt10_List_nodeIS1_E
     /tmp/ccR4KyEe.s:6184   .text._ZNSt4listIPN5Air3T5IViewESaIS2_EE9_M_insertESt14_List_iteratorIS2_ERKS2_:00000000 $t
     /tmp/ccR4KyEe.s:7163   .text._ZNSt4listIPN5Air3T5IViewESaIS2_EE14_M_create_nodeERKS2_:00000000 _ZNSt4listIPN5Air3T5IViewESaIS2_EE14_M_create_nodeERKS2_
     /tmp/ccR4KyEe.s:6230   .text._ZNKSt14_List_iteratorIPN5Air3T5IViewEEneERKS3_:00000000 $t
     /tmp/ccR4KyEe.s:6273   .text._ZNSt14_List_iteratorIPN5Air3T5IViewEEppEv:00000000 $t
     /tmp/ccR4KyEe.s:6314   .text._ZNKSt14_List_iteratorIPN5Air3T5IViewEEdeEv:00000000 $t
     /tmp/ccR4KyEe.s:6350   .text._ZNSt4listIPN5Air3T5IViewESaIS2_EE8_M_eraseESt14_List_iteratorIS2_E:00000000 $t
     /tmp/ccR4KyEe.s:6411   .text._ZNSt4listIN5Air3T6PlayerESaIS1_EE9_M_insertESt14_List_iteratorIS1_ERKS1_:00000000 $t
     /tmp/ccR4KyEe.s:7221   .text._ZNSt4listIN5Air3T6PlayerESaIS1_EE14_M_create_nodeERKS1_:00000000 _ZNSt4listIN5Air3T6PlayerESaIS1_EE14_M_create_nodeERKS1_
     /tmp/ccR4KyEe.s:6457   .text._ZNSt14_List_iteratorIN5Air3T6PlayerEEC2EPSt15_List_node_base:00000000 $t
     /tmp/ccR4KyEe.s:6462   .text._ZNSt14_List_iteratorIN5Air3T6PlayerEEC2EPSt15_List_node_base:00000000 _ZNSt14_List_iteratorIN5Air3T6PlayerEEC2EPSt15_List_node_base
     /tmp/ccR4KyEe.s:6499   .text._ZNSt4listIN5Air3T6PlayerESaIS1_EE8_M_eraseESt14_List_iteratorIS1_E:00000000 $t
     /tmp/ccR4KyEe.s:6560   .text._ZNSt10_List_baseIN5Air3T6PlayerESaIS1_EE7_M_initEv:00000000 $t
     /tmp/ccR4KyEe.s:6600   .text._ZNSt14_List_iteratorIPN5Air3T5IViewEEC2EPSt15_List_node_base:00000000 $t
     /tmp/ccR4KyEe.s:6605   .text._ZNSt14_List_iteratorIPN5Air3T5IViewEEC2EPSt15_List_node_base:00000000 _ZNSt14_List_iteratorIPN5Air3T5IViewEEC2EPSt15_List_node_base
     /tmp/ccR4KyEe.s:6642   .text._ZNSt10_List_baseIPN5Air3T5IViewESaIS2_EE10_List_implC2Ev:00000000 $t
     /tmp/ccR4KyEe.s:6647   .text._ZNSt10_List_baseIPN5Air3T5IViewESaIS2_EE10_List_implC2Ev:00000000 _ZNSt10_List_baseIPN5Air3T5IViewESaIS2_EE10_List_implC2Ev
     /tmp/ccR4KyEe.s:7279   .text._ZNSaISt10_List_nodeIPN5Air3T5IViewEEEC2Ev:00000000 _ZNSaISt10_List_nodeIPN5Air3T5IViewEEEC2Ev
     /tmp/ccR4KyEe.s:6689   .text._ZNSt10_List_baseIPN5Air3T5IViewESaIS2_EE7_M_initEv:00000000 $t
     /tmp/ccR4KyEe.s:6729   .text._ZN9__gnu_cxx13new_allocatorISt10_List_nodeIPN5Air3T5IViewEEED2Ev:00000000 $t
     /tmp/ccR4KyEe.s:6734   .text._ZN9__gnu_cxx13new_allocatorISt10_List_nodeIPN5Air3T5IViewEEED2Ev:00000000 _ZN9__gnu_cxx13new_allocatorISt10_List_nodeIPN5Air3T5IViewEEED1Ev
     /tmp/ccR4KyEe.s:6765   .text._ZNKSt10_List_baseIPN5Air3T5IViewESaIS2_EE19_M_get_Tp_allocatorEv:00000000 $t
     /tmp/ccR4KyEe.s:7319   .text._ZNKSt10_List_baseIPN5Air3T5IViewESaIS2_EE21_M_get_Node_allocatorEv:00000000 _ZNKSt10_List_baseIPN5Air3T5IViewESaIS2_EE21_M_get_Node_allocatorEv
     /tmp/ccR4KyEe.s:7353   .text._ZNSaIPN5Air3T5IViewEEC2ISt10_List_nodeIS1_EEERKSaIT_E:00000000 _ZNSaIPN5Air3T5IViewEEC1ISt10_List_nodeIS1_EEERKSaIT_E
     /tmp/ccR4KyEe.s:6808   .text._ZNSaIPN5Air3T5IViewEED2Ev:00000000 $t
     /tmp/ccR4KyEe.s:6813   .text._ZNSaIPN5Air3T5IViewEED2Ev:00000000 _ZNSaIPN5Air3T5IViewEED2Ev
     /tmp/ccR4KyEe.s:7394   .text._ZN9__gnu_cxx13new_allocatorIPN5Air3T5IViewEED2Ev:00000000 _ZN9__gnu_cxx13new_allocatorIPN5Air3T5IViewEED2Ev
     /tmp/ccR4KyEe.s:6848   .text._ZN9__gnu_cxx13new_allocatorIPN5Air3T5IViewEE7destroyEPS3_:00000000 $t
     /tmp/ccR4KyEe.s:6881   .text._ZNSt10_List_baseIPN5Air3T5IViewESaIS2_EE11_M_put_nodeEPSt10_List_nodeIS2_E:00000000 $t
     /tmp/ccR4KyEe.s:7430   .text._ZN9__gnu_cxx13new_allocatorISt10_List_nodeIPN5Air3T5IViewEEE10deallocateEPS5_j:00000000 _ZN9__gnu_cxx13new_allocatorISt10_List_nodeIPN5Air3T5IViewEEE10deallocateEPS5_j
     /tmp/ccR4KyEe.s:6918   .text._ZNSt10_List_baseIN5Air3T6PlayerESaIS1_EE10_List_implC2Ev:00000000 $t
     /tmp/ccR4KyEe.s:6923   .text._ZNSt10_List_baseIN5Air3T6PlayerESaIS1_EE10_List_implC2Ev:00000000 _ZNSt10_List_baseIN5Air3T6PlayerESaIS1_EE10_List_implC2Ev
     /tmp/ccR4KyEe.s:7465   .text._ZNSaISt10_List_nodeIN5Air3T6PlayerEEEC2Ev:00000000 _ZNSaISt10_List_nodeIN5Air3T6PlayerEEEC2Ev
     /tmp/ccR4KyEe.s:6965   .text._ZN9__gnu_cxx13new_allocatorISt10_List_nodeIN5Air3T6PlayerEEED2Ev:00000000 $t
     /tmp/ccR4KyEe.s:6970   .text._ZN9__gnu_cxx13new_allocatorISt10_List_nodeIN5Air3T6PlayerEEED2Ev:00000000 _ZN9__gnu_cxx13new_allocatorISt10_List_nodeIN5Air3T6PlayerEEED1Ev
     /tmp/ccR4KyEe.s:7001   .text._ZNKSt10_List_baseIN5Air3T6PlayerESaIS1_EE19_M_get_Tp_allocatorEv:00000000 $t
     /tmp/ccR4KyEe.s:7505   .text._ZNKSt10_List_baseIN5Air3T6PlayerESaIS1_EE21_M_get_Node_allocatorEv:00000000 _ZNKSt10_List_baseIN5Air3T6PlayerESaIS1_EE21_M_get_Node_allocatorEv
     /tmp/ccR4KyEe.s:7539   .text._ZNSaIN5Air3T6PlayerEEC2ISt10_List_nodeIS0_EEERKSaIT_E:00000000 _ZNSaIN5Air3T6PlayerEEC1ISt10_List_nodeIS0_EEERKSaIT_E
     /tmp/ccR4KyEe.s:7044   .text._ZNSaIN5Air3T6PlayerEED2Ev:00000000 $t
     /tmp/ccR4KyEe.s:7049   .text._ZNSaIN5Air3T6PlayerEED2Ev:00000000 _ZNSaIN5Air3T6PlayerEED2Ev
     /tmp/ccR4KyEe.s:7580   .text._ZN9__gnu_cxx13new_allocatorIN5Air3T6PlayerEED2Ev:00000000 _ZN9__gnu_cxx13new_allocatorIN5Air3T6PlayerEED2Ev
     /tmp/ccR4KyEe.s:7084   .text._ZN9__gnu_cxx13new_allocatorIN5Air3T6PlayerEE7destroyEPS2_:00000000 $t
     /tmp/ccR4KyEe.s:7121   .text._ZNSt10_List_baseIN5Air3T6PlayerESaIS1_EE11_M_put_nodeEPSt10_List_nodeIS1_E:00000000 $t
     /tmp/ccR4KyEe.s:7616   .text._ZN9__gnu_cxx13new_allocatorISt10_List_nodeIN5Air3T6PlayerEEE10deallocateEPS4_j:00000000 _ZN9__gnu_cxx13new_allocatorISt10_List_nodeIN5Air3T6PlayerEEE10deallocateEPS4_j
     /tmp/ccR4KyEe.s:7158   .text._ZNSt4listIPN5Air3T5IViewESaIS2_EE14_M_create_nodeERKS2_:00000000 $t
     /tmp/ccR4KyEe.s:7651   .text._ZNSt10_List_baseIPN5Air3T5IViewESaIS2_EE11_M_get_nodeEv:00000000 _ZNSt10_List_baseIPN5Air3T5IViewESaIS2_EE11_M_get_nodeEv
     /tmp/ccR4KyEe.s:7689   .text._ZN9__gnu_cxx13new_allocatorIPN5Air3T5IViewEE9constructEPS3_RKS3_:00000000 _ZN9__gnu_cxx13new_allocatorIPN5Air3T5IViewEE9constructEPS3_RKS3_
     /tmp/ccR4KyEe.s:7216   .text._ZNSt4listIN5Air3T6PlayerESaIS1_EE14_M_create_nodeERKS1_:00000000 $t
     /tmp/ccR4KyEe.s:7736   .text._ZNSt10_List_baseIN5Air3T6PlayerESaIS1_EE11_M_get_nodeEv:00000000 _ZNSt10_List_baseIN5Air3T6PlayerESaIS1_EE11_M_get_nodeEv
     /tmp/ccR4KyEe.s:7887   .text._ZN9__gnu_cxx13new_allocatorIN5Air3T6PlayerEE9constructEPS2_RKS2_:00000000 _ZN9__gnu_cxx13new_allocatorIN5Air3T6PlayerEE9constructEPS2_RKS2_
     /tmp/ccR4KyEe.s:7274   .text._ZNSaISt10_List_nodeIPN5Air3T5IViewEEEC2Ev:00000000 $t
     /tmp/ccR4KyEe.s:7934   .text._ZN9__gnu_cxx13new_allocatorISt10_List_nodeIPN5Air3T5IViewEEEC2Ev:00000000 _ZN9__gnu_cxx13new_allocatorISt10_List_nodeIPN5Air3T5IViewEEEC2Ev
     /tmp/ccR4KyEe.s:7279   .text._ZNSaISt10_List_nodeIPN5Air3T5IViewEEEC2Ev:00000000 _ZNSaISt10_List_nodeIPN5Air3T5IViewEEEC1Ev
     /tmp/ccR4KyEe.s:7314   .text._ZNKSt10_List_baseIPN5Air3T5IViewESaIS2_EE21_M_get_Node_allocatorEv:00000000 $t
     /tmp/ccR4KyEe.s:7348   .text._ZNSaIPN5Air3T5IViewEEC2ISt10_List_nodeIS1_EEERKSaIT_E:00000000 $t
     /tmp/ccR4KyEe.s:7353   .text._ZNSaIPN5Air3T5IViewEEC2ISt10_List_nodeIS1_EEERKSaIT_E:00000000 _ZNSaIPN5Air3T5IViewEEC2ISt10_List_nodeIS1_EEERKSaIT_E
     /tmp/ccR4KyEe.s:7970   .text._ZN9__gnu_cxx13new_allocatorIPN5Air3T5IViewEEC2Ev:00000000 _ZN9__gnu_cxx13new_allocatorIPN5Air3T5IViewEEC2Ev
     /tmp/ccR4KyEe.s:7389   .text._ZN9__gnu_cxx13new_allocatorIPN5Air3T5IViewEED2Ev:00000000 $t
     /tmp/ccR4KyEe.s:7394   .text._ZN9__gnu_cxx13new_allocatorIPN5Air3T5IViewEED2Ev:00000000 _ZN9__gnu_cxx13new_allocatorIPN5Air3T5IViewEED1Ev
     /tmp/ccR4KyEe.s:7425   .text._ZN9__gnu_cxx13new_allocatorISt10_List_nodeIPN5Air3T5IViewEEE10deallocateEPS5_j:00000000 $t
     /tmp/ccR4KyEe.s:7460   .text._ZNSaISt10_List_nodeIN5Air3T6PlayerEEEC2Ev:00000000 $t
     /tmp/ccR4KyEe.s:8006   .text._ZN9__gnu_cxx13new_allocatorISt10_List_nodeIN5Air3T6PlayerEEEC2Ev:00000000 _ZN9__gnu_cxx13new_allocatorISt10_List_nodeIN5Air3T6PlayerEEEC2Ev
     /tmp/ccR4KyEe.s:7465   .text._ZNSaISt10_List_nodeIN5Air3T6PlayerEEEC2Ev:00000000 _ZNSaISt10_List_nodeIN5Air3T6PlayerEEEC1Ev
     /tmp/ccR4KyEe.s:7500   .text._ZNKSt10_List_baseIN5Air3T6PlayerESaIS1_EE21_M_get_Node_allocatorEv:00000000 $t
     /tmp/ccR4KyEe.s:7534   .text._ZNSaIN5Air3T6PlayerEEC2ISt10_List_nodeIS0_EEERKSaIT_E:00000000 $t
     /tmp/ccR4KyEe.s:7539   .text._ZNSaIN5Air3T6PlayerEEC2ISt10_List_nodeIS0_EEERKSaIT_E:00000000 _ZNSaIN5Air3T6PlayerEEC2ISt10_List_nodeIS0_EEERKSaIT_E
     /tmp/ccR4KyEe.s:8042   .text._ZN9__gnu_cxx13new_allocatorIN5Air3T6PlayerEEC2Ev:00000000 _ZN9__gnu_cxx13new_allocatorIN5Air3T6PlayerEEC2Ev
     /tmp/ccR4KyEe.s:7575   .text._ZN9__gnu_cxx13new_allocatorIN5Air3T6PlayerEED2Ev:00000000 $t
     /tmp/ccR4KyEe.s:7580   .text._ZN9__gnu_cxx13new_allocatorIN5Air3T6PlayerEED2Ev:00000000 _ZN9__gnu_cxx13new_allocatorIN5Air3T6PlayerEED1Ev
     /tmp/ccR4KyEe.s:7611   .text._ZN9__gnu_cxx13new_allocatorISt10_List_nodeIN5Air3T6PlayerEEE10deallocateEPS4_j:00000000 $t
     /tmp/ccR4KyEe.s:7646   .text._ZNSt10_List_baseIPN5Air3T5IViewESaIS2_EE11_M_get_nodeEv:00000000 $t
     /tmp/ccR4KyEe.s:8078   .text._ZN9__gnu_cxx13new_allocatorISt10_List_nodeIPN5Air3T5IViewEEE8allocateEjPKv:00000000 _ZN9__gnu_cxx13new_allocatorISt10_List_nodeIPN5Air3T5IViewEEE8allocateEjPKv
     /tmp/ccR4KyEe.s:7684   .text._ZN9__gnu_cxx13new_allocatorIPN5Air3T5IViewEE9constructEPS3_RKS3_:00000000 $t
     /tmp/ccR4KyEe.s:7731   .text._ZNSt10_List_baseIN5Air3T6PlayerESaIS1_EE11_M_get_nodeEv:00000000 $t
     /tmp/ccR4KyEe.s:8136   .text._ZN9__gnu_cxx13new_allocatorISt10_List_nodeIN5Air3T6PlayerEEE8allocateEjPKv:00000000 _ZN9__gnu_cxx13new_allocatorISt10_List_nodeIN5Air3T6PlayerEEE8allocateEjPKv
     /tmp/ccR4KyEe.s:7769   .text._ZN7AddressILj6EEC2ERKS0_:00000000 $t
     /tmp/ccR4KyEe.s:7774   .text._ZN7AddressILj6EEC2ERKS0_:00000000 _ZN7AddressILj6EEC2ERKS0_
     /tmp/ccR4KyEe.s:7816   .text._ZN7AddressILj6EEC2ERKS0_:00000038 $d
     /tmp/ccR4KyEe.s:8364   .rodata._ZTV7AddressILj6EE:00000000 _ZTV7AddressILj6EE
     /tmp/ccR4KyEe.s:7774   .text._ZN7AddressILj6EEC2ERKS0_:00000000 _ZN7AddressILj6EEC1ERKS0_
     /tmp/ccR4KyEe.s:7823   .text._ZN5Air3T6PlayerC2ERKS0_:00000000 $t
     /tmp/ccR4KyEe.s:7828   .text._ZN5Air3T6PlayerC2ERKS0_:00000000 _ZN5Air3T6PlayerC2ERKS0_
     /tmp/ccR4KyEe.s:7875   .text._ZN5Air3T6PlayerC2ERKS0_:00000044 $d
     /tmp/ccR4KyEe.s:7828   .text._ZN5Air3T6PlayerC2ERKS0_:00000000 _ZN5Air3T6PlayerC1ERKS0_
     /tmp/ccR4KyEe.s:7882   .text._ZN9__gnu_cxx13new_allocatorIN5Air3T6PlayerEE9constructEPS2_RKS2_:00000000 $t
     /tmp/ccR4KyEe.s:7929   .text._ZN9__gnu_cxx13new_allocatorISt10_List_nodeIPN5Air3T5IViewEEEC2Ev:00000000 $t
     /tmp/ccR4KyEe.s:7934   .text._ZN9__gnu_cxx13new_allocatorISt10_List_nodeIPN5Air3T5IViewEEEC2Ev:00000000 _ZN9__gnu_cxx13new_allocatorISt10_List_nodeIPN5Air3T5IViewEEEC1Ev
     /tmp/ccR4KyEe.s:7965   .text._ZN9__gnu_cxx13new_allocatorIPN5Air3T5IViewEEC2Ev:00000000 $t
     /tmp/ccR4KyEe.s:7970   .text._ZN9__gnu_cxx13new_allocatorIPN5Air3T5IViewEEC2Ev:00000000 _ZN9__gnu_cxx13new_allocatorIPN5Air3T5IViewEEC1Ev
     /tmp/ccR4KyEe.s:8001   .text._ZN9__gnu_cxx13new_allocatorISt10_List_nodeIN5Air3T6PlayerEEEC2Ev:00000000 $t
     /tmp/ccR4KyEe.s:8006   .text._ZN9__gnu_cxx13new_allocatorISt10_List_nodeIN5Air3T6PlayerEEEC2Ev:00000000 _ZN9__gnu_cxx13new_allocatorISt10_List_nodeIN5Air3T6PlayerEEEC1Ev
     /tmp/ccR4KyEe.s:8037   .text._ZN9__gnu_cxx13new_allocatorIN5Air3T6PlayerEEC2Ev:00000000 $t
     /tmp/ccR4KyEe.s:8042   .text._ZN9__gnu_cxx13new_allocatorIN5Air3T6PlayerEEC2Ev:00000000 _ZN9__gnu_cxx13new_allocatorIN5Air3T6PlayerEEC1Ev
     /tmp/ccR4KyEe.s:8073   .text._ZN9__gnu_cxx13new_allocatorISt10_List_nodeIPN5Air3T5IViewEEE8allocateEjPKv:00000000 $t
     /tmp/ccR4KyEe.s:8285   .text._ZNK9__gnu_cxx13new_allocatorISt10_List_nodeIPN5Air3T5IViewEEE8max_sizeEv:00000000 _ZNK9__gnu_cxx13new_allocatorISt10_List_nodeIPN5Air3T5IViewEEE8max_sizeEv
     /tmp/ccR4KyEe.s:8131   .text._ZN9__gnu_cxx13new_allocatorISt10_List_nodeIN5Air3T6PlayerEEE8allocateEjPKv:00000000 $t
     /tmp/ccR4KyEe.s:8320   .text._ZNK9__gnu_cxx13new_allocatorISt10_List_nodeIN5Air3T6PlayerEEE8max_sizeEv:00000000 _ZNK9__gnu_cxx13new_allocatorISt10_List_nodeIN5Air3T6PlayerEEE8max_sizeEv
     /tmp/ccR4KyEe.s:8189   .text._ZN7AddressILj6EED2Ev:00000000 $t
     /tmp/ccR4KyEe.s:8194   .text._ZN7AddressILj6EED2Ev:00000000 _ZN7AddressILj6EED2Ev
     /tmp/ccR4KyEe.s:8236   .text._ZN7AddressILj6EED2Ev:00000030 $d
     /tmp/ccR4KyEe.s:8194   .text._ZN7AddressILj6EED2Ev:00000000 _ZN7AddressILj6EED1Ev
     /tmp/ccR4KyEe.s:8243   .text._ZN7AddressILj6EED0Ev:00000000 $t
     /tmp/ccR4KyEe.s:8248   .text._ZN7AddressILj6EED0Ev:00000000 _ZN7AddressILj6EED0Ev
     /tmp/ccR4KyEe.s:8280   .text._ZNK9__gnu_cxx13new_allocatorISt10_List_nodeIPN5Air3T5IViewEEE8max_sizeEv:00000000 $t
     /tmp/ccR4KyEe.s:8315   .text._ZNK9__gnu_cxx13new_allocatorISt10_List_nodeIN5Air3T6PlayerEEE8max_sizeEv:00000000 $t
     /tmp/ccR4KyEe.s:8351   .rodata._ZTVN5Air3T5ModelE:00000000 $d
     /tmp/ccR4KyEe.s:8361   .rodata._ZTV7AddressILj6EE:00000000 $d
     /tmp/ccR4KyEe.s:8370   .rodata._ZZN5Air3T5Model14unregisterViewEPNS_5IViewEE19__PRETTY_FUNCTION__:00000000 $d
     /tmp/ccR4KyEe.s:8376   .rodata._ZZN5Air3T5Model12registerViewEPNS_5IViewEE19__PRETTY_FUNCTION__:00000000 $d
                     .debug_frame:00000010 $d
                           .group:00000000 _ZNSt4listIPN5Air3T5IViewESaIS2_EED5Ev
                           .group:00000000 _ZNSt4listIN5Air3T6PlayerESaIS1_EED5Ev
                           .group:00000000 _ZNSt4listIPN5Air3T5IViewESaIS2_EEC5Ev
                           .group:00000000 _ZNSt10_List_baseIPN5Air3T5IViewESaIS2_EE10_List_implD5Ev
                           .group:00000000 _ZNSt10_List_baseIPN5Air3T5IViewESaIS2_EED5Ev
                           .group:00000000 _ZNSt4listIN5Air3T6PlayerESaIS1_EEC5Ev
                           .group:00000000 _ZNSt10_List_baseIN5Air3T6PlayerESaIS1_EE10_List_implD5Ev
                           .group:00000000 _ZNSt10_List_baseIN5Air3T6PlayerESaIS1_EED5Ev
                           .group:00000000 _ZNSt20_List_const_iteratorIPN5Air3T5IViewEEC5ERKSt14_List_iteratorIS2_E
                           .group:00000000 _ZNSt10_List_baseIPN5Air3T5IViewESaIS2_EEC5Ev
                           .group:00000000 _ZNSaISt10_List_nodeIPN5Air3T5IViewEEED5Ev
                           .group:00000000 _ZNSt10_List_baseIN5Air3T6PlayerESaIS1_EEC5Ev
                           .group:00000000 _ZNSaISt10_List_nodeIN5Air3T6PlayerEEED5Ev
                           .group:00000000 _ZNSt14_List_iteratorIN5Air3T6PlayerEEC5EPSt15_List_node_base
                           .group:00000000 _ZNSt14_List_iteratorIPN5Air3T5IViewEEC5EPSt15_List_node_base
                           .group:00000000 _ZNSt10_List_baseIPN5Air3T5IViewESaIS2_EE10_List_implC5Ev
                           .group:00000000 _ZN9__gnu_cxx13new_allocatorISt10_List_nodeIPN5Air3T5IViewEEED5Ev
                           .group:00000000 _ZNSaIPN5Air3T5IViewEED5Ev
                           .group:00000000 _ZNSt10_List_baseIN5Air3T6PlayerESaIS1_EE10_List_implC5Ev
                           .group:00000000 _ZN9__gnu_cxx13new_allocatorISt10_List_nodeIN5Air3T6PlayerEEED5Ev
                           .group:00000000 _ZNSaIN5Air3T6PlayerEED5Ev
                           .group:00000000 _ZNSaISt10_List_nodeIPN5Air3T5IViewEEEC5Ev
                           .group:00000000 _ZNSaIPN5Air3T5IViewEEC5ISt10_List_nodeIS1_EEERKSaIT_E
                           .group:00000000 _ZN9__gnu_cxx13new_allocatorIPN5Air3T5IViewEED5Ev
                           .group:00000000 _ZNSaISt10_List_nodeIN5Air3T6PlayerEEEC5Ev
                           .group:00000000 _ZNSaIN5Air3T6PlayerEEC5ISt10_List_nodeIS0_EEERKSaIT_E
                           .group:00000000 _ZN9__gnu_cxx13new_allocatorIN5Air3T6PlayerEED5Ev
                           .group:00000000 _ZN7AddressILj6EEC5ERKS0_
                           .group:00000000 _ZN5Air3T6PlayerC5ERKS0_
                           .group:00000000 _ZN9__gnu_cxx13new_allocatorISt10_List_nodeIPN5Air3T5IViewEEEC5Ev
                           .group:00000000 _ZN9__gnu_cxx13new_allocatorIPN5Air3T5IViewEEC5Ev
                           .group:00000000 _ZN9__gnu_cxx13new_allocatorISt10_List_nodeIN5Air3T6PlayerEEEC5Ev
                           .group:00000000 _ZN9__gnu_cxx13new_allocatorIN5Air3T6PlayerEEC5Ev
                           .group:00000000 _ZN7AddressILj6EED5Ev

UNDEFINED SYMBOLS
_ZN5Air3T9GameFieldC1ERNS_5ModelE
_ZN5Air3T10StatisticsC1ERNS_5ModelE
_ZN5Air3T10StatisticsD1Ev
_ZdlPv
__assert_func
_ZNK5Air3T6Player2idEv
memcmp
_ZNSt15_List_node_base7_M_hookEPS_
_ZNSt15_List_node_base9_M_unhookEv
_ZNSsC1ERKSs
_ZTVN5Air3T6PlayerE
_ZSt17__throw_bad_allocv
_Znwj
