   1              		.syntax unified
   2              		.cpu cortex-m3
   3              		.fpu softvfp
   4              		.eabi_attribute 20, 1
   5              		.eabi_attribute 21, 1
   6              		.eabi_attribute 23, 3
   7              		.eabi_attribute 24, 1
   8              		.eabi_attribute 25, 1
   9              		.eabi_attribute 26, 1
  10              		.eabi_attribute 30, 6
  11              		.eabi_attribute 18, 4
  12              		.thumb
  13              		.file	"nrftransceiver.cpp"
  23              	.Ltext0:
  24              		.file 1 "../board/olimex-stm32f103-stk/board/transceiver/nrftransceiver.cpp"
 20110              		.align	2
 20111              		.thumb
 20112              		.thumb_func
 20114              	_ZL20__gthread_key_deletei:
 20115              	.LFB576:
   1:/opt/toolchains/arm-none-eabi/bin/../lib/gcc/arm-none-eabi/4.5.2/../../../../arm-none-eabi/include/c++/4.5.2/arm-none-eabi/thumb/bits/gthr-single.h **** /* Threads compatibility routines for libgcc2 and libobjc.  */
   2:/opt/toolchains/arm-none-eabi/bin/../lib/gcc/arm-none-eabi/4.5.2/../../../../arm-none-eabi/include/c++/4.5.2/arm-none-eabi/thumb/bits/gthr-single.h **** /* Compile this one with gcc.  */
   3:/opt/toolchains/arm-none-eabi/bin/../lib/gcc/arm-none-eabi/4.5.2/../../../../arm-none-eabi/include/c++/4.5.2/arm-none-eabi/thumb/bits/gthr-single.h **** /* Copyright (C) 1997, 1999, 2000, 2004, 2008, 2009
   4:/opt/toolchains/arm-none-eabi/bin/../lib/gcc/arm-none-eabi/4.5.2/../../../../arm-none-eabi/include/c++/4.5.2/arm-none-eabi/thumb/bits/gthr-single.h ****    Free Software Foundation, Inc.
   5:/opt/toolchains/arm-none-eabi/bin/../lib/gcc/arm-none-eabi/4.5.2/../../../../arm-none-eabi/include/c++/4.5.2/arm-none-eabi/thumb/bits/gthr-single.h **** 
   6:/opt/toolchains/arm-none-eabi/bin/../lib/gcc/arm-none-eabi/4.5.2/../../../../arm-none-eabi/include/c++/4.5.2/arm-none-eabi/thumb/bits/gthr-single.h **** This file is part of GCC.
   7:/opt/toolchains/arm-none-eabi/bin/../lib/gcc/arm-none-eabi/4.5.2/../../../../arm-none-eabi/include/c++/4.5.2/arm-none-eabi/thumb/bits/gthr-single.h **** 
   8:/opt/toolchains/arm-none-eabi/bin/../lib/gcc/arm-none-eabi/4.5.2/../../../../arm-none-eabi/include/c++/4.5.2/arm-none-eabi/thumb/bits/gthr-single.h **** GCC is free software; you can redistribute it and/or modify it under
   9:/opt/toolchains/arm-none-eabi/bin/../lib/gcc/arm-none-eabi/4.5.2/../../../../arm-none-eabi/include/c++/4.5.2/arm-none-eabi/thumb/bits/gthr-single.h **** the terms of the GNU General Public License as published by the Free
  10:/opt/toolchains/arm-none-eabi/bin/../lib/gcc/arm-none-eabi/4.5.2/../../../../arm-none-eabi/include/c++/4.5.2/arm-none-eabi/thumb/bits/gthr-single.h **** Software Foundation; either version 3, or (at your option) any later
  11:/opt/toolchains/arm-none-eabi/bin/../lib/gcc/arm-none-eabi/4.5.2/../../../../arm-none-eabi/include/c++/4.5.2/arm-none-eabi/thumb/bits/gthr-single.h **** version.
  12:/opt/toolchains/arm-none-eabi/bin/../lib/gcc/arm-none-eabi/4.5.2/../../../../arm-none-eabi/include/c++/4.5.2/arm-none-eabi/thumb/bits/gthr-single.h **** 
  13:/opt/toolchains/arm-none-eabi/bin/../lib/gcc/arm-none-eabi/4.5.2/../../../../arm-none-eabi/include/c++/4.5.2/arm-none-eabi/thumb/bits/gthr-single.h **** GCC is distributed in the hope that it will be useful, but WITHOUT ANY
  14:/opt/toolchains/arm-none-eabi/bin/../lib/gcc/arm-none-eabi/4.5.2/../../../../arm-none-eabi/include/c++/4.5.2/arm-none-eabi/thumb/bits/gthr-single.h **** WARRANTY; without even the implied warranty of MERCHANTABILITY or
  15:/opt/toolchains/arm-none-eabi/bin/../lib/gcc/arm-none-eabi/4.5.2/../../../../arm-none-eabi/include/c++/4.5.2/arm-none-eabi/thumb/bits/gthr-single.h **** FITNESS FOR A PARTICULAR PURPOSE.  See the GNU General Public License
  16:/opt/toolchains/arm-none-eabi/bin/../lib/gcc/arm-none-eabi/4.5.2/../../../../arm-none-eabi/include/c++/4.5.2/arm-none-eabi/thumb/bits/gthr-single.h **** for more details.
  17:/opt/toolchains/arm-none-eabi/bin/../lib/gcc/arm-none-eabi/4.5.2/../../../../arm-none-eabi/include/c++/4.5.2/arm-none-eabi/thumb/bits/gthr-single.h **** 
  18:/opt/toolchains/arm-none-eabi/bin/../lib/gcc/arm-none-eabi/4.5.2/../../../../arm-none-eabi/include/c++/4.5.2/arm-none-eabi/thumb/bits/gthr-single.h **** Under Section 7 of GPL version 3, you are granted additional
  19:/opt/toolchains/arm-none-eabi/bin/../lib/gcc/arm-none-eabi/4.5.2/../../../../arm-none-eabi/include/c++/4.5.2/arm-none-eabi/thumb/bits/gthr-single.h **** permissions described in the GCC Runtime Library Exception, version
  20:/opt/toolchains/arm-none-eabi/bin/../lib/gcc/arm-none-eabi/4.5.2/../../../../arm-none-eabi/include/c++/4.5.2/arm-none-eabi/thumb/bits/gthr-single.h **** 3.1, as published by the Free Software Foundation.
  21:/opt/toolchains/arm-none-eabi/bin/../lib/gcc/arm-none-eabi/4.5.2/../../../../arm-none-eabi/include/c++/4.5.2/arm-none-eabi/thumb/bits/gthr-single.h **** 
  22:/opt/toolchains/arm-none-eabi/bin/../lib/gcc/arm-none-eabi/4.5.2/../../../../arm-none-eabi/include/c++/4.5.2/arm-none-eabi/thumb/bits/gthr-single.h **** You should have received a copy of the GNU General Public License and
  23:/opt/toolchains/arm-none-eabi/bin/../lib/gcc/arm-none-eabi/4.5.2/../../../../arm-none-eabi/include/c++/4.5.2/arm-none-eabi/thumb/bits/gthr-single.h **** a copy of the GCC Runtime Library Exception along with this program;
  24:/opt/toolchains/arm-none-eabi/bin/../lib/gcc/arm-none-eabi/4.5.2/../../../../arm-none-eabi/include/c++/4.5.2/arm-none-eabi/thumb/bits/gthr-single.h **** see the files COPYING3 and COPYING.RUNTIME respectively.  If not, see
  25:/opt/toolchains/arm-none-eabi/bin/../lib/gcc/arm-none-eabi/4.5.2/../../../../arm-none-eabi/include/c++/4.5.2/arm-none-eabi/thumb/bits/gthr-single.h **** <http://www.gnu.org/licenses/>.  */
  26:/opt/toolchains/arm-none-eabi/bin/../lib/gcc/arm-none-eabi/4.5.2/../../../../arm-none-eabi/include/c++/4.5.2/arm-none-eabi/thumb/bits/gthr-single.h **** 
  27:/opt/toolchains/arm-none-eabi/bin/../lib/gcc/arm-none-eabi/4.5.2/../../../../arm-none-eabi/include/c++/4.5.2/arm-none-eabi/thumb/bits/gthr-single.h **** #ifndef _GLIBCXX_GCC_GTHR_SINGLE_H
  28:/opt/toolchains/arm-none-eabi/bin/../lib/gcc/arm-none-eabi/4.5.2/../../../../arm-none-eabi/include/c++/4.5.2/arm-none-eabi/thumb/bits/gthr-single.h **** #define _GLIBCXX_GCC_GTHR_SINGLE_H
  29:/opt/toolchains/arm-none-eabi/bin/../lib/gcc/arm-none-eabi/4.5.2/../../../../arm-none-eabi/include/c++/4.5.2/arm-none-eabi/thumb/bits/gthr-single.h **** 
  30:/opt/toolchains/arm-none-eabi/bin/../lib/gcc/arm-none-eabi/4.5.2/../../../../arm-none-eabi/include/c++/4.5.2/arm-none-eabi/thumb/bits/gthr-single.h **** /* Just provide compatibility for mutex handling.  */
  31:/opt/toolchains/arm-none-eabi/bin/../lib/gcc/arm-none-eabi/4.5.2/../../../../arm-none-eabi/include/c++/4.5.2/arm-none-eabi/thumb/bits/gthr-single.h **** 
  32:/opt/toolchains/arm-none-eabi/bin/../lib/gcc/arm-none-eabi/4.5.2/../../../../arm-none-eabi/include/c++/4.5.2/arm-none-eabi/thumb/bits/gthr-single.h **** typedef int __gthread_key_t;
  33:/opt/toolchains/arm-none-eabi/bin/../lib/gcc/arm-none-eabi/4.5.2/../../../../arm-none-eabi/include/c++/4.5.2/arm-none-eabi/thumb/bits/gthr-single.h **** typedef int __gthread_once_t;
  34:/opt/toolchains/arm-none-eabi/bin/../lib/gcc/arm-none-eabi/4.5.2/../../../../arm-none-eabi/include/c++/4.5.2/arm-none-eabi/thumb/bits/gthr-single.h **** typedef int __gthread_mutex_t;
  35:/opt/toolchains/arm-none-eabi/bin/../lib/gcc/arm-none-eabi/4.5.2/../../../../arm-none-eabi/include/c++/4.5.2/arm-none-eabi/thumb/bits/gthr-single.h **** typedef int __gthread_recursive_mutex_t;
  36:/opt/toolchains/arm-none-eabi/bin/../lib/gcc/arm-none-eabi/4.5.2/../../../../arm-none-eabi/include/c++/4.5.2/arm-none-eabi/thumb/bits/gthr-single.h **** 
  37:/opt/toolchains/arm-none-eabi/bin/../lib/gcc/arm-none-eabi/4.5.2/../../../../arm-none-eabi/include/c++/4.5.2/arm-none-eabi/thumb/bits/gthr-single.h **** #define __GTHREAD_ONCE_INIT 0
  38:/opt/toolchains/arm-none-eabi/bin/../lib/gcc/arm-none-eabi/4.5.2/../../../../arm-none-eabi/include/c++/4.5.2/arm-none-eabi/thumb/bits/gthr-single.h **** #define __GTHREAD_MUTEX_INIT 0
  39:/opt/toolchains/arm-none-eabi/bin/../lib/gcc/arm-none-eabi/4.5.2/../../../../arm-none-eabi/include/c++/4.5.2/arm-none-eabi/thumb/bits/gthr-single.h **** #define __GTHREAD_RECURSIVE_MUTEX_INIT 0
  40:/opt/toolchains/arm-none-eabi/bin/../lib/gcc/arm-none-eabi/4.5.2/../../../../arm-none-eabi/include/c++/4.5.2/arm-none-eabi/thumb/bits/gthr-single.h **** 
  41:/opt/toolchains/arm-none-eabi/bin/../lib/gcc/arm-none-eabi/4.5.2/../../../../arm-none-eabi/include/c++/4.5.2/arm-none-eabi/thumb/bits/gthr-single.h **** #define _GLIBCXX_UNUSED __attribute__((unused))
  42:/opt/toolchains/arm-none-eabi/bin/../lib/gcc/arm-none-eabi/4.5.2/../../../../arm-none-eabi/include/c++/4.5.2/arm-none-eabi/thumb/bits/gthr-single.h **** 
  43:/opt/toolchains/arm-none-eabi/bin/../lib/gcc/arm-none-eabi/4.5.2/../../../../arm-none-eabi/include/c++/4.5.2/arm-none-eabi/thumb/bits/gthr-single.h **** #ifdef _LIBOBJC
  44:/opt/toolchains/arm-none-eabi/bin/../lib/gcc/arm-none-eabi/4.5.2/../../../../arm-none-eabi/include/c++/4.5.2/arm-none-eabi/thumb/bits/gthr-single.h **** 
  45:/opt/toolchains/arm-none-eabi/bin/../lib/gcc/arm-none-eabi/4.5.2/../../../../arm-none-eabi/include/c++/4.5.2/arm-none-eabi/thumb/bits/gthr-single.h **** /* Thread local storage for a single thread */
  46:/opt/toolchains/arm-none-eabi/bin/../lib/gcc/arm-none-eabi/4.5.2/../../../../arm-none-eabi/include/c++/4.5.2/arm-none-eabi/thumb/bits/gthr-single.h **** static void *thread_local_storage = NULL;
  47:/opt/toolchains/arm-none-eabi/bin/../lib/gcc/arm-none-eabi/4.5.2/../../../../arm-none-eabi/include/c++/4.5.2/arm-none-eabi/thumb/bits/gthr-single.h **** 
  48:/opt/toolchains/arm-none-eabi/bin/../lib/gcc/arm-none-eabi/4.5.2/../../../../arm-none-eabi/include/c++/4.5.2/arm-none-eabi/thumb/bits/gthr-single.h **** /* Backend initialization functions */
  49:/opt/toolchains/arm-none-eabi/bin/../lib/gcc/arm-none-eabi/4.5.2/../../../../arm-none-eabi/include/c++/4.5.2/arm-none-eabi/thumb/bits/gthr-single.h **** 
  50:/opt/toolchains/arm-none-eabi/bin/../lib/gcc/arm-none-eabi/4.5.2/../../../../arm-none-eabi/include/c++/4.5.2/arm-none-eabi/thumb/bits/gthr-single.h **** /* Initialize the threads subsystem.  */
  51:/opt/toolchains/arm-none-eabi/bin/../lib/gcc/arm-none-eabi/4.5.2/../../../../arm-none-eabi/include/c++/4.5.2/arm-none-eabi/thumb/bits/gthr-single.h **** static inline int
  52:/opt/toolchains/arm-none-eabi/bin/../lib/gcc/arm-none-eabi/4.5.2/../../../../arm-none-eabi/include/c++/4.5.2/arm-none-eabi/thumb/bits/gthr-single.h **** __gthread_objc_init_thread_system (void)
  53:/opt/toolchains/arm-none-eabi/bin/../lib/gcc/arm-none-eabi/4.5.2/../../../../arm-none-eabi/include/c++/4.5.2/arm-none-eabi/thumb/bits/gthr-single.h **** {
  54:/opt/toolchains/arm-none-eabi/bin/../lib/gcc/arm-none-eabi/4.5.2/../../../../arm-none-eabi/include/c++/4.5.2/arm-none-eabi/thumb/bits/gthr-single.h ****   /* No thread support available */
  55:/opt/toolchains/arm-none-eabi/bin/../lib/gcc/arm-none-eabi/4.5.2/../../../../arm-none-eabi/include/c++/4.5.2/arm-none-eabi/thumb/bits/gthr-single.h ****   return -1;
  56:/opt/toolchains/arm-none-eabi/bin/../lib/gcc/arm-none-eabi/4.5.2/../../../../arm-none-eabi/include/c++/4.5.2/arm-none-eabi/thumb/bits/gthr-single.h **** }
  57:/opt/toolchains/arm-none-eabi/bin/../lib/gcc/arm-none-eabi/4.5.2/../../../../arm-none-eabi/include/c++/4.5.2/arm-none-eabi/thumb/bits/gthr-single.h **** 
  58:/opt/toolchains/arm-none-eabi/bin/../lib/gcc/arm-none-eabi/4.5.2/../../../../arm-none-eabi/include/c++/4.5.2/arm-none-eabi/thumb/bits/gthr-single.h **** /* Close the threads subsystem.  */
  59:/opt/toolchains/arm-none-eabi/bin/../lib/gcc/arm-none-eabi/4.5.2/../../../../arm-none-eabi/include/c++/4.5.2/arm-none-eabi/thumb/bits/gthr-single.h **** static inline int
  60:/opt/toolchains/arm-none-eabi/bin/../lib/gcc/arm-none-eabi/4.5.2/../../../../arm-none-eabi/include/c++/4.5.2/arm-none-eabi/thumb/bits/gthr-single.h **** __gthread_objc_close_thread_system (void)
  61:/opt/toolchains/arm-none-eabi/bin/../lib/gcc/arm-none-eabi/4.5.2/../../../../arm-none-eabi/include/c++/4.5.2/arm-none-eabi/thumb/bits/gthr-single.h **** {
  62:/opt/toolchains/arm-none-eabi/bin/../lib/gcc/arm-none-eabi/4.5.2/../../../../arm-none-eabi/include/c++/4.5.2/arm-none-eabi/thumb/bits/gthr-single.h ****   /* No thread support available */
  63:/opt/toolchains/arm-none-eabi/bin/../lib/gcc/arm-none-eabi/4.5.2/../../../../arm-none-eabi/include/c++/4.5.2/arm-none-eabi/thumb/bits/gthr-single.h ****   return -1;
  64:/opt/toolchains/arm-none-eabi/bin/../lib/gcc/arm-none-eabi/4.5.2/../../../../arm-none-eabi/include/c++/4.5.2/arm-none-eabi/thumb/bits/gthr-single.h **** }
  65:/opt/toolchains/arm-none-eabi/bin/../lib/gcc/arm-none-eabi/4.5.2/../../../../arm-none-eabi/include/c++/4.5.2/arm-none-eabi/thumb/bits/gthr-single.h **** 
  66:/opt/toolchains/arm-none-eabi/bin/../lib/gcc/arm-none-eabi/4.5.2/../../../../arm-none-eabi/include/c++/4.5.2/arm-none-eabi/thumb/bits/gthr-single.h **** /* Backend thread functions */
  67:/opt/toolchains/arm-none-eabi/bin/../lib/gcc/arm-none-eabi/4.5.2/../../../../arm-none-eabi/include/c++/4.5.2/arm-none-eabi/thumb/bits/gthr-single.h **** 
  68:/opt/toolchains/arm-none-eabi/bin/../lib/gcc/arm-none-eabi/4.5.2/../../../../arm-none-eabi/include/c++/4.5.2/arm-none-eabi/thumb/bits/gthr-single.h **** /* Create a new thread of execution.  */
  69:/opt/toolchains/arm-none-eabi/bin/../lib/gcc/arm-none-eabi/4.5.2/../../../../arm-none-eabi/include/c++/4.5.2/arm-none-eabi/thumb/bits/gthr-single.h **** static inline objc_thread_t
  70:/opt/toolchains/arm-none-eabi/bin/../lib/gcc/arm-none-eabi/4.5.2/../../../../arm-none-eabi/include/c++/4.5.2/arm-none-eabi/thumb/bits/gthr-single.h **** __gthread_objc_thread_detach (void (* func)(void *), void * arg _GLIBCXX_UNUSED)
  71:/opt/toolchains/arm-none-eabi/bin/../lib/gcc/arm-none-eabi/4.5.2/../../../../arm-none-eabi/include/c++/4.5.2/arm-none-eabi/thumb/bits/gthr-single.h **** {
  72:/opt/toolchains/arm-none-eabi/bin/../lib/gcc/arm-none-eabi/4.5.2/../../../../arm-none-eabi/include/c++/4.5.2/arm-none-eabi/thumb/bits/gthr-single.h ****   /* No thread support available */
  73:/opt/toolchains/arm-none-eabi/bin/../lib/gcc/arm-none-eabi/4.5.2/../../../../arm-none-eabi/include/c++/4.5.2/arm-none-eabi/thumb/bits/gthr-single.h ****   return NULL;
  74:/opt/toolchains/arm-none-eabi/bin/../lib/gcc/arm-none-eabi/4.5.2/../../../../arm-none-eabi/include/c++/4.5.2/arm-none-eabi/thumb/bits/gthr-single.h **** }
  75:/opt/toolchains/arm-none-eabi/bin/../lib/gcc/arm-none-eabi/4.5.2/../../../../arm-none-eabi/include/c++/4.5.2/arm-none-eabi/thumb/bits/gthr-single.h **** 
  76:/opt/toolchains/arm-none-eabi/bin/../lib/gcc/arm-none-eabi/4.5.2/../../../../arm-none-eabi/include/c++/4.5.2/arm-none-eabi/thumb/bits/gthr-single.h **** /* Set the current thread's priority.  */
  77:/opt/toolchains/arm-none-eabi/bin/../lib/gcc/arm-none-eabi/4.5.2/../../../../arm-none-eabi/include/c++/4.5.2/arm-none-eabi/thumb/bits/gthr-single.h **** static inline int
  78:/opt/toolchains/arm-none-eabi/bin/../lib/gcc/arm-none-eabi/4.5.2/../../../../arm-none-eabi/include/c++/4.5.2/arm-none-eabi/thumb/bits/gthr-single.h **** __gthread_objc_thread_set_priority (int priority _GLIBCXX_UNUSED)
  79:/opt/toolchains/arm-none-eabi/bin/../lib/gcc/arm-none-eabi/4.5.2/../../../../arm-none-eabi/include/c++/4.5.2/arm-none-eabi/thumb/bits/gthr-single.h **** {
  80:/opt/toolchains/arm-none-eabi/bin/../lib/gcc/arm-none-eabi/4.5.2/../../../../arm-none-eabi/include/c++/4.5.2/arm-none-eabi/thumb/bits/gthr-single.h ****   /* No thread support available */
  81:/opt/toolchains/arm-none-eabi/bin/../lib/gcc/arm-none-eabi/4.5.2/../../../../arm-none-eabi/include/c++/4.5.2/arm-none-eabi/thumb/bits/gthr-single.h ****   return -1;
  82:/opt/toolchains/arm-none-eabi/bin/../lib/gcc/arm-none-eabi/4.5.2/../../../../arm-none-eabi/include/c++/4.5.2/arm-none-eabi/thumb/bits/gthr-single.h **** }
  83:/opt/toolchains/arm-none-eabi/bin/../lib/gcc/arm-none-eabi/4.5.2/../../../../arm-none-eabi/include/c++/4.5.2/arm-none-eabi/thumb/bits/gthr-single.h **** 
  84:/opt/toolchains/arm-none-eabi/bin/../lib/gcc/arm-none-eabi/4.5.2/../../../../arm-none-eabi/include/c++/4.5.2/arm-none-eabi/thumb/bits/gthr-single.h **** /* Return the current thread's priority.  */
  85:/opt/toolchains/arm-none-eabi/bin/../lib/gcc/arm-none-eabi/4.5.2/../../../../arm-none-eabi/include/c++/4.5.2/arm-none-eabi/thumb/bits/gthr-single.h **** static inline int
  86:/opt/toolchains/arm-none-eabi/bin/../lib/gcc/arm-none-eabi/4.5.2/../../../../arm-none-eabi/include/c++/4.5.2/arm-none-eabi/thumb/bits/gthr-single.h **** __gthread_objc_thread_get_priority (void)
  87:/opt/toolchains/arm-none-eabi/bin/../lib/gcc/arm-none-eabi/4.5.2/../../../../arm-none-eabi/include/c++/4.5.2/arm-none-eabi/thumb/bits/gthr-single.h **** {
  88:/opt/toolchains/arm-none-eabi/bin/../lib/gcc/arm-none-eabi/4.5.2/../../../../arm-none-eabi/include/c++/4.5.2/arm-none-eabi/thumb/bits/gthr-single.h ****   return OBJC_THREAD_INTERACTIVE_PRIORITY;
  89:/opt/toolchains/arm-none-eabi/bin/../lib/gcc/arm-none-eabi/4.5.2/../../../../arm-none-eabi/include/c++/4.5.2/arm-none-eabi/thumb/bits/gthr-single.h **** }
  90:/opt/toolchains/arm-none-eabi/bin/../lib/gcc/arm-none-eabi/4.5.2/../../../../arm-none-eabi/include/c++/4.5.2/arm-none-eabi/thumb/bits/gthr-single.h **** 
  91:/opt/toolchains/arm-none-eabi/bin/../lib/gcc/arm-none-eabi/4.5.2/../../../../arm-none-eabi/include/c++/4.5.2/arm-none-eabi/thumb/bits/gthr-single.h **** /* Yield our process time to another thread.  */
  92:/opt/toolchains/arm-none-eabi/bin/../lib/gcc/arm-none-eabi/4.5.2/../../../../arm-none-eabi/include/c++/4.5.2/arm-none-eabi/thumb/bits/gthr-single.h **** static inline void
  93:/opt/toolchains/arm-none-eabi/bin/../lib/gcc/arm-none-eabi/4.5.2/../../../../arm-none-eabi/include/c++/4.5.2/arm-none-eabi/thumb/bits/gthr-single.h **** __gthread_objc_thread_yield (void)
  94:/opt/toolchains/arm-none-eabi/bin/../lib/gcc/arm-none-eabi/4.5.2/../../../../arm-none-eabi/include/c++/4.5.2/arm-none-eabi/thumb/bits/gthr-single.h **** {
  95:/opt/toolchains/arm-none-eabi/bin/../lib/gcc/arm-none-eabi/4.5.2/../../../../arm-none-eabi/include/c++/4.5.2/arm-none-eabi/thumb/bits/gthr-single.h ****   return;
  96:/opt/toolchains/arm-none-eabi/bin/../lib/gcc/arm-none-eabi/4.5.2/../../../../arm-none-eabi/include/c++/4.5.2/arm-none-eabi/thumb/bits/gthr-single.h **** }
  97:/opt/toolchains/arm-none-eabi/bin/../lib/gcc/arm-none-eabi/4.5.2/../../../../arm-none-eabi/include/c++/4.5.2/arm-none-eabi/thumb/bits/gthr-single.h **** 
  98:/opt/toolchains/arm-none-eabi/bin/../lib/gcc/arm-none-eabi/4.5.2/../../../../arm-none-eabi/include/c++/4.5.2/arm-none-eabi/thumb/bits/gthr-single.h **** /* Terminate the current thread.  */
  99:/opt/toolchains/arm-none-eabi/bin/../lib/gcc/arm-none-eabi/4.5.2/../../../../arm-none-eabi/include/c++/4.5.2/arm-none-eabi/thumb/bits/gthr-single.h **** static inline int
 100:/opt/toolchains/arm-none-eabi/bin/../lib/gcc/arm-none-eabi/4.5.2/../../../../arm-none-eabi/include/c++/4.5.2/arm-none-eabi/thumb/bits/gthr-single.h **** __gthread_objc_thread_exit (void)
 101:/opt/toolchains/arm-none-eabi/bin/../lib/gcc/arm-none-eabi/4.5.2/../../../../arm-none-eabi/include/c++/4.5.2/arm-none-eabi/thumb/bits/gthr-single.h **** {
 102:/opt/toolchains/arm-none-eabi/bin/../lib/gcc/arm-none-eabi/4.5.2/../../../../arm-none-eabi/include/c++/4.5.2/arm-none-eabi/thumb/bits/gthr-single.h ****   /* No thread support available */
 103:/opt/toolchains/arm-none-eabi/bin/../lib/gcc/arm-none-eabi/4.5.2/../../../../arm-none-eabi/include/c++/4.5.2/arm-none-eabi/thumb/bits/gthr-single.h ****   /* Should we really exit the program */
 104:/opt/toolchains/arm-none-eabi/bin/../lib/gcc/arm-none-eabi/4.5.2/../../../../arm-none-eabi/include/c++/4.5.2/arm-none-eabi/thumb/bits/gthr-single.h ****   /* exit (&__objc_thread_exit_status); */
 105:/opt/toolchains/arm-none-eabi/bin/../lib/gcc/arm-none-eabi/4.5.2/../../../../arm-none-eabi/include/c++/4.5.2/arm-none-eabi/thumb/bits/gthr-single.h ****   return -1;
 106:/opt/toolchains/arm-none-eabi/bin/../lib/gcc/arm-none-eabi/4.5.2/../../../../arm-none-eabi/include/c++/4.5.2/arm-none-eabi/thumb/bits/gthr-single.h **** }
 107:/opt/toolchains/arm-none-eabi/bin/../lib/gcc/arm-none-eabi/4.5.2/../../../../arm-none-eabi/include/c++/4.5.2/arm-none-eabi/thumb/bits/gthr-single.h **** 
 108:/opt/toolchains/arm-none-eabi/bin/../lib/gcc/arm-none-eabi/4.5.2/../../../../arm-none-eabi/include/c++/4.5.2/arm-none-eabi/thumb/bits/gthr-single.h **** /* Returns an integer value which uniquely describes a thread.  */
 109:/opt/toolchains/arm-none-eabi/bin/../lib/gcc/arm-none-eabi/4.5.2/../../../../arm-none-eabi/include/c++/4.5.2/arm-none-eabi/thumb/bits/gthr-single.h **** static inline objc_thread_t
 110:/opt/toolchains/arm-none-eabi/bin/../lib/gcc/arm-none-eabi/4.5.2/../../../../arm-none-eabi/include/c++/4.5.2/arm-none-eabi/thumb/bits/gthr-single.h **** __gthread_objc_thread_id (void)
 111:/opt/toolchains/arm-none-eabi/bin/../lib/gcc/arm-none-eabi/4.5.2/../../../../arm-none-eabi/include/c++/4.5.2/arm-none-eabi/thumb/bits/gthr-single.h **** {
 112:/opt/toolchains/arm-none-eabi/bin/../lib/gcc/arm-none-eabi/4.5.2/../../../../arm-none-eabi/include/c++/4.5.2/arm-none-eabi/thumb/bits/gthr-single.h ****   /* No thread support, use 1.  */
 113:/opt/toolchains/arm-none-eabi/bin/../lib/gcc/arm-none-eabi/4.5.2/../../../../arm-none-eabi/include/c++/4.5.2/arm-none-eabi/thumb/bits/gthr-single.h ****   return (objc_thread_t) 1;
 114:/opt/toolchains/arm-none-eabi/bin/../lib/gcc/arm-none-eabi/4.5.2/../../../../arm-none-eabi/include/c++/4.5.2/arm-none-eabi/thumb/bits/gthr-single.h **** }
 115:/opt/toolchains/arm-none-eabi/bin/../lib/gcc/arm-none-eabi/4.5.2/../../../../arm-none-eabi/include/c++/4.5.2/arm-none-eabi/thumb/bits/gthr-single.h **** 
 116:/opt/toolchains/arm-none-eabi/bin/../lib/gcc/arm-none-eabi/4.5.2/../../../../arm-none-eabi/include/c++/4.5.2/arm-none-eabi/thumb/bits/gthr-single.h **** /* Sets the thread's local storage pointer.  */
 117:/opt/toolchains/arm-none-eabi/bin/../lib/gcc/arm-none-eabi/4.5.2/../../../../arm-none-eabi/include/c++/4.5.2/arm-none-eabi/thumb/bits/gthr-single.h **** static inline int
 118:/opt/toolchains/arm-none-eabi/bin/../lib/gcc/arm-none-eabi/4.5.2/../../../../arm-none-eabi/include/c++/4.5.2/arm-none-eabi/thumb/bits/gthr-single.h **** __gthread_objc_thread_set_data (void *value)
 119:/opt/toolchains/arm-none-eabi/bin/../lib/gcc/arm-none-eabi/4.5.2/../../../../arm-none-eabi/include/c++/4.5.2/arm-none-eabi/thumb/bits/gthr-single.h **** {
 120:/opt/toolchains/arm-none-eabi/bin/../lib/gcc/arm-none-eabi/4.5.2/../../../../arm-none-eabi/include/c++/4.5.2/arm-none-eabi/thumb/bits/gthr-single.h ****   thread_local_storage = value;
 121:/opt/toolchains/arm-none-eabi/bin/../lib/gcc/arm-none-eabi/4.5.2/../../../../arm-none-eabi/include/c++/4.5.2/arm-none-eabi/thumb/bits/gthr-single.h ****   return 0;
 122:/opt/toolchains/arm-none-eabi/bin/../lib/gcc/arm-none-eabi/4.5.2/../../../../arm-none-eabi/include/c++/4.5.2/arm-none-eabi/thumb/bits/gthr-single.h **** }
 123:/opt/toolchains/arm-none-eabi/bin/../lib/gcc/arm-none-eabi/4.5.2/../../../../arm-none-eabi/include/c++/4.5.2/arm-none-eabi/thumb/bits/gthr-single.h **** 
 124:/opt/toolchains/arm-none-eabi/bin/../lib/gcc/arm-none-eabi/4.5.2/../../../../arm-none-eabi/include/c++/4.5.2/arm-none-eabi/thumb/bits/gthr-single.h **** /* Returns the thread's local storage pointer.  */
 125:/opt/toolchains/arm-none-eabi/bin/../lib/gcc/arm-none-eabi/4.5.2/../../../../arm-none-eabi/include/c++/4.5.2/arm-none-eabi/thumb/bits/gthr-single.h **** static inline void *
 126:/opt/toolchains/arm-none-eabi/bin/../lib/gcc/arm-none-eabi/4.5.2/../../../../arm-none-eabi/include/c++/4.5.2/arm-none-eabi/thumb/bits/gthr-single.h **** __gthread_objc_thread_get_data (void)
 127:/opt/toolchains/arm-none-eabi/bin/../lib/gcc/arm-none-eabi/4.5.2/../../../../arm-none-eabi/include/c++/4.5.2/arm-none-eabi/thumb/bits/gthr-single.h **** {
 128:/opt/toolchains/arm-none-eabi/bin/../lib/gcc/arm-none-eabi/4.5.2/../../../../arm-none-eabi/include/c++/4.5.2/arm-none-eabi/thumb/bits/gthr-single.h ****   return thread_local_storage;
 129:/opt/toolchains/arm-none-eabi/bin/../lib/gcc/arm-none-eabi/4.5.2/../../../../arm-none-eabi/include/c++/4.5.2/arm-none-eabi/thumb/bits/gthr-single.h **** }
 130:/opt/toolchains/arm-none-eabi/bin/../lib/gcc/arm-none-eabi/4.5.2/../../../../arm-none-eabi/include/c++/4.5.2/arm-none-eabi/thumb/bits/gthr-single.h **** 
 131:/opt/toolchains/arm-none-eabi/bin/../lib/gcc/arm-none-eabi/4.5.2/../../../../arm-none-eabi/include/c++/4.5.2/arm-none-eabi/thumb/bits/gthr-single.h **** /* Backend mutex functions */
 132:/opt/toolchains/arm-none-eabi/bin/../lib/gcc/arm-none-eabi/4.5.2/../../../../arm-none-eabi/include/c++/4.5.2/arm-none-eabi/thumb/bits/gthr-single.h **** 
 133:/opt/toolchains/arm-none-eabi/bin/../lib/gcc/arm-none-eabi/4.5.2/../../../../arm-none-eabi/include/c++/4.5.2/arm-none-eabi/thumb/bits/gthr-single.h **** /* Allocate a mutex.  */
 134:/opt/toolchains/arm-none-eabi/bin/../lib/gcc/arm-none-eabi/4.5.2/../../../../arm-none-eabi/include/c++/4.5.2/arm-none-eabi/thumb/bits/gthr-single.h **** static inline int
 135:/opt/toolchains/arm-none-eabi/bin/../lib/gcc/arm-none-eabi/4.5.2/../../../../arm-none-eabi/include/c++/4.5.2/arm-none-eabi/thumb/bits/gthr-single.h **** __gthread_objc_mutex_allocate (objc_mutex_t mutex _GLIBCXX_UNUSED)
 136:/opt/toolchains/arm-none-eabi/bin/../lib/gcc/arm-none-eabi/4.5.2/../../../../arm-none-eabi/include/c++/4.5.2/arm-none-eabi/thumb/bits/gthr-single.h **** {
 137:/opt/toolchains/arm-none-eabi/bin/../lib/gcc/arm-none-eabi/4.5.2/../../../../arm-none-eabi/include/c++/4.5.2/arm-none-eabi/thumb/bits/gthr-single.h ****   return 0;
 138:/opt/toolchains/arm-none-eabi/bin/../lib/gcc/arm-none-eabi/4.5.2/../../../../arm-none-eabi/include/c++/4.5.2/arm-none-eabi/thumb/bits/gthr-single.h **** }
 139:/opt/toolchains/arm-none-eabi/bin/../lib/gcc/arm-none-eabi/4.5.2/../../../../arm-none-eabi/include/c++/4.5.2/arm-none-eabi/thumb/bits/gthr-single.h **** 
 140:/opt/toolchains/arm-none-eabi/bin/../lib/gcc/arm-none-eabi/4.5.2/../../../../arm-none-eabi/include/c++/4.5.2/arm-none-eabi/thumb/bits/gthr-single.h **** /* Deallocate a mutex.  */
 141:/opt/toolchains/arm-none-eabi/bin/../lib/gcc/arm-none-eabi/4.5.2/../../../../arm-none-eabi/include/c++/4.5.2/arm-none-eabi/thumb/bits/gthr-single.h **** static inline int
 142:/opt/toolchains/arm-none-eabi/bin/../lib/gcc/arm-none-eabi/4.5.2/../../../../arm-none-eabi/include/c++/4.5.2/arm-none-eabi/thumb/bits/gthr-single.h **** __gthread_objc_mutex_deallocate (objc_mutex_t mutex _GLIBCXX_UNUSED)
 143:/opt/toolchains/arm-none-eabi/bin/../lib/gcc/arm-none-eabi/4.5.2/../../../../arm-none-eabi/include/c++/4.5.2/arm-none-eabi/thumb/bits/gthr-single.h **** {
 144:/opt/toolchains/arm-none-eabi/bin/../lib/gcc/arm-none-eabi/4.5.2/../../../../arm-none-eabi/include/c++/4.5.2/arm-none-eabi/thumb/bits/gthr-single.h ****   return 0;
 145:/opt/toolchains/arm-none-eabi/bin/../lib/gcc/arm-none-eabi/4.5.2/../../../../arm-none-eabi/include/c++/4.5.2/arm-none-eabi/thumb/bits/gthr-single.h **** }
 146:/opt/toolchains/arm-none-eabi/bin/../lib/gcc/arm-none-eabi/4.5.2/../../../../arm-none-eabi/include/c++/4.5.2/arm-none-eabi/thumb/bits/gthr-single.h **** 
 147:/opt/toolchains/arm-none-eabi/bin/../lib/gcc/arm-none-eabi/4.5.2/../../../../arm-none-eabi/include/c++/4.5.2/arm-none-eabi/thumb/bits/gthr-single.h **** /* Grab a lock on a mutex.  */
 148:/opt/toolchains/arm-none-eabi/bin/../lib/gcc/arm-none-eabi/4.5.2/../../../../arm-none-eabi/include/c++/4.5.2/arm-none-eabi/thumb/bits/gthr-single.h **** static inline int
 149:/opt/toolchains/arm-none-eabi/bin/../lib/gcc/arm-none-eabi/4.5.2/../../../../arm-none-eabi/include/c++/4.5.2/arm-none-eabi/thumb/bits/gthr-single.h **** __gthread_objc_mutex_lock (objc_mutex_t mutex _GLIBCXX_UNUSED)
 150:/opt/toolchains/arm-none-eabi/bin/../lib/gcc/arm-none-eabi/4.5.2/../../../../arm-none-eabi/include/c++/4.5.2/arm-none-eabi/thumb/bits/gthr-single.h **** {
 151:/opt/toolchains/arm-none-eabi/bin/../lib/gcc/arm-none-eabi/4.5.2/../../../../arm-none-eabi/include/c++/4.5.2/arm-none-eabi/thumb/bits/gthr-single.h ****   /* There can only be one thread, so we always get the lock */
 152:/opt/toolchains/arm-none-eabi/bin/../lib/gcc/arm-none-eabi/4.5.2/../../../../arm-none-eabi/include/c++/4.5.2/arm-none-eabi/thumb/bits/gthr-single.h ****   return 0;
 153:/opt/toolchains/arm-none-eabi/bin/../lib/gcc/arm-none-eabi/4.5.2/../../../../arm-none-eabi/include/c++/4.5.2/arm-none-eabi/thumb/bits/gthr-single.h **** }
 154:/opt/toolchains/arm-none-eabi/bin/../lib/gcc/arm-none-eabi/4.5.2/../../../../arm-none-eabi/include/c++/4.5.2/arm-none-eabi/thumb/bits/gthr-single.h **** 
 155:/opt/toolchains/arm-none-eabi/bin/../lib/gcc/arm-none-eabi/4.5.2/../../../../arm-none-eabi/include/c++/4.5.2/arm-none-eabi/thumb/bits/gthr-single.h **** /* Try to grab a lock on a mutex.  */
 156:/opt/toolchains/arm-none-eabi/bin/../lib/gcc/arm-none-eabi/4.5.2/../../../../arm-none-eabi/include/c++/4.5.2/arm-none-eabi/thumb/bits/gthr-single.h **** static inline int
 157:/opt/toolchains/arm-none-eabi/bin/../lib/gcc/arm-none-eabi/4.5.2/../../../../arm-none-eabi/include/c++/4.5.2/arm-none-eabi/thumb/bits/gthr-single.h **** __gthread_objc_mutex_trylock (objc_mutex_t mutex _GLIBCXX_UNUSED)
 158:/opt/toolchains/arm-none-eabi/bin/../lib/gcc/arm-none-eabi/4.5.2/../../../../arm-none-eabi/include/c++/4.5.2/arm-none-eabi/thumb/bits/gthr-single.h **** {
 159:/opt/toolchains/arm-none-eabi/bin/../lib/gcc/arm-none-eabi/4.5.2/../../../../arm-none-eabi/include/c++/4.5.2/arm-none-eabi/thumb/bits/gthr-single.h ****   /* There can only be one thread, so we always get the lock */
 160:/opt/toolchains/arm-none-eabi/bin/../lib/gcc/arm-none-eabi/4.5.2/../../../../arm-none-eabi/include/c++/4.5.2/arm-none-eabi/thumb/bits/gthr-single.h ****   return 0;
 161:/opt/toolchains/arm-none-eabi/bin/../lib/gcc/arm-none-eabi/4.5.2/../../../../arm-none-eabi/include/c++/4.5.2/arm-none-eabi/thumb/bits/gthr-single.h **** }
 162:/opt/toolchains/arm-none-eabi/bin/../lib/gcc/arm-none-eabi/4.5.2/../../../../arm-none-eabi/include/c++/4.5.2/arm-none-eabi/thumb/bits/gthr-single.h **** 
 163:/opt/toolchains/arm-none-eabi/bin/../lib/gcc/arm-none-eabi/4.5.2/../../../../arm-none-eabi/include/c++/4.5.2/arm-none-eabi/thumb/bits/gthr-single.h **** /* Unlock the mutex */
 164:/opt/toolchains/arm-none-eabi/bin/../lib/gcc/arm-none-eabi/4.5.2/../../../../arm-none-eabi/include/c++/4.5.2/arm-none-eabi/thumb/bits/gthr-single.h **** static inline int
 165:/opt/toolchains/arm-none-eabi/bin/../lib/gcc/arm-none-eabi/4.5.2/../../../../arm-none-eabi/include/c++/4.5.2/arm-none-eabi/thumb/bits/gthr-single.h **** __gthread_objc_mutex_unlock (objc_mutex_t mutex _GLIBCXX_UNUSED)
 166:/opt/toolchains/arm-none-eabi/bin/../lib/gcc/arm-none-eabi/4.5.2/../../../../arm-none-eabi/include/c++/4.5.2/arm-none-eabi/thumb/bits/gthr-single.h **** {
 167:/opt/toolchains/arm-none-eabi/bin/../lib/gcc/arm-none-eabi/4.5.2/../../../../arm-none-eabi/include/c++/4.5.2/arm-none-eabi/thumb/bits/gthr-single.h ****   return 0;
 168:/opt/toolchains/arm-none-eabi/bin/../lib/gcc/arm-none-eabi/4.5.2/../../../../arm-none-eabi/include/c++/4.5.2/arm-none-eabi/thumb/bits/gthr-single.h **** }
 169:/opt/toolchains/arm-none-eabi/bin/../lib/gcc/arm-none-eabi/4.5.2/../../../../arm-none-eabi/include/c++/4.5.2/arm-none-eabi/thumb/bits/gthr-single.h **** 
 170:/opt/toolchains/arm-none-eabi/bin/../lib/gcc/arm-none-eabi/4.5.2/../../../../arm-none-eabi/include/c++/4.5.2/arm-none-eabi/thumb/bits/gthr-single.h **** /* Backend condition mutex functions */
 171:/opt/toolchains/arm-none-eabi/bin/../lib/gcc/arm-none-eabi/4.5.2/../../../../arm-none-eabi/include/c++/4.5.2/arm-none-eabi/thumb/bits/gthr-single.h **** 
 172:/opt/toolchains/arm-none-eabi/bin/../lib/gcc/arm-none-eabi/4.5.2/../../../../arm-none-eabi/include/c++/4.5.2/arm-none-eabi/thumb/bits/gthr-single.h **** /* Allocate a condition.  */
 173:/opt/toolchains/arm-none-eabi/bin/../lib/gcc/arm-none-eabi/4.5.2/../../../../arm-none-eabi/include/c++/4.5.2/arm-none-eabi/thumb/bits/gthr-single.h **** static inline int
 174:/opt/toolchains/arm-none-eabi/bin/../lib/gcc/arm-none-eabi/4.5.2/../../../../arm-none-eabi/include/c++/4.5.2/arm-none-eabi/thumb/bits/gthr-single.h **** __gthread_objc_condition_allocate (objc_condition_t condition _GLIBCXX_UNUSED)
 175:/opt/toolchains/arm-none-eabi/bin/../lib/gcc/arm-none-eabi/4.5.2/../../../../arm-none-eabi/include/c++/4.5.2/arm-none-eabi/thumb/bits/gthr-single.h **** {
 176:/opt/toolchains/arm-none-eabi/bin/../lib/gcc/arm-none-eabi/4.5.2/../../../../arm-none-eabi/include/c++/4.5.2/arm-none-eabi/thumb/bits/gthr-single.h ****   return 0;
 177:/opt/toolchains/arm-none-eabi/bin/../lib/gcc/arm-none-eabi/4.5.2/../../../../arm-none-eabi/include/c++/4.5.2/arm-none-eabi/thumb/bits/gthr-single.h **** }
 178:/opt/toolchains/arm-none-eabi/bin/../lib/gcc/arm-none-eabi/4.5.2/../../../../arm-none-eabi/include/c++/4.5.2/arm-none-eabi/thumb/bits/gthr-single.h **** 
 179:/opt/toolchains/arm-none-eabi/bin/../lib/gcc/arm-none-eabi/4.5.2/../../../../arm-none-eabi/include/c++/4.5.2/arm-none-eabi/thumb/bits/gthr-single.h **** /* Deallocate a condition.  */
 180:/opt/toolchains/arm-none-eabi/bin/../lib/gcc/arm-none-eabi/4.5.2/../../../../arm-none-eabi/include/c++/4.5.2/arm-none-eabi/thumb/bits/gthr-single.h **** static inline int
 181:/opt/toolchains/arm-none-eabi/bin/../lib/gcc/arm-none-eabi/4.5.2/../../../../arm-none-eabi/include/c++/4.5.2/arm-none-eabi/thumb/bits/gthr-single.h **** __gthread_objc_condition_deallocate (objc_condition_t condition _GLIBCXX_UNUSED)
 182:/opt/toolchains/arm-none-eabi/bin/../lib/gcc/arm-none-eabi/4.5.2/../../../../arm-none-eabi/include/c++/4.5.2/arm-none-eabi/thumb/bits/gthr-single.h **** {
 183:/opt/toolchains/arm-none-eabi/bin/../lib/gcc/arm-none-eabi/4.5.2/../../../../arm-none-eabi/include/c++/4.5.2/arm-none-eabi/thumb/bits/gthr-single.h ****   return 0;
 184:/opt/toolchains/arm-none-eabi/bin/../lib/gcc/arm-none-eabi/4.5.2/../../../../arm-none-eabi/include/c++/4.5.2/arm-none-eabi/thumb/bits/gthr-single.h **** }
 185:/opt/toolchains/arm-none-eabi/bin/../lib/gcc/arm-none-eabi/4.5.2/../../../../arm-none-eabi/include/c++/4.5.2/arm-none-eabi/thumb/bits/gthr-single.h **** 
 186:/opt/toolchains/arm-none-eabi/bin/../lib/gcc/arm-none-eabi/4.5.2/../../../../arm-none-eabi/include/c++/4.5.2/arm-none-eabi/thumb/bits/gthr-single.h **** /* Wait on the condition */
 187:/opt/toolchains/arm-none-eabi/bin/../lib/gcc/arm-none-eabi/4.5.2/../../../../arm-none-eabi/include/c++/4.5.2/arm-none-eabi/thumb/bits/gthr-single.h **** static inline int
 188:/opt/toolchains/arm-none-eabi/bin/../lib/gcc/arm-none-eabi/4.5.2/../../../../arm-none-eabi/include/c++/4.5.2/arm-none-eabi/thumb/bits/gthr-single.h **** __gthread_objc_condition_wait (objc_condition_t condition _GLIBCXX_UNUSED,
 189:/opt/toolchains/arm-none-eabi/bin/../lib/gcc/arm-none-eabi/4.5.2/../../../../arm-none-eabi/include/c++/4.5.2/arm-none-eabi/thumb/bits/gthr-single.h **** 			       objc_mutex_t mutex _GLIBCXX_UNUSED)
 190:/opt/toolchains/arm-none-eabi/bin/../lib/gcc/arm-none-eabi/4.5.2/../../../../arm-none-eabi/include/c++/4.5.2/arm-none-eabi/thumb/bits/gthr-single.h **** {
 191:/opt/toolchains/arm-none-eabi/bin/../lib/gcc/arm-none-eabi/4.5.2/../../../../arm-none-eabi/include/c++/4.5.2/arm-none-eabi/thumb/bits/gthr-single.h ****   return 0;
 192:/opt/toolchains/arm-none-eabi/bin/../lib/gcc/arm-none-eabi/4.5.2/../../../../arm-none-eabi/include/c++/4.5.2/arm-none-eabi/thumb/bits/gthr-single.h **** }
 193:/opt/toolchains/arm-none-eabi/bin/../lib/gcc/arm-none-eabi/4.5.2/../../../../arm-none-eabi/include/c++/4.5.2/arm-none-eabi/thumb/bits/gthr-single.h **** 
 194:/opt/toolchains/arm-none-eabi/bin/../lib/gcc/arm-none-eabi/4.5.2/../../../../arm-none-eabi/include/c++/4.5.2/arm-none-eabi/thumb/bits/gthr-single.h **** /* Wake up all threads waiting on this condition.  */
 195:/opt/toolchains/arm-none-eabi/bin/../lib/gcc/arm-none-eabi/4.5.2/../../../../arm-none-eabi/include/c++/4.5.2/arm-none-eabi/thumb/bits/gthr-single.h **** static inline int
 196:/opt/toolchains/arm-none-eabi/bin/../lib/gcc/arm-none-eabi/4.5.2/../../../../arm-none-eabi/include/c++/4.5.2/arm-none-eabi/thumb/bits/gthr-single.h **** __gthread_objc_condition_broadcast (objc_condition_t condition _GLIBCXX_UNUSED)
 197:/opt/toolchains/arm-none-eabi/bin/../lib/gcc/arm-none-eabi/4.5.2/../../../../arm-none-eabi/include/c++/4.5.2/arm-none-eabi/thumb/bits/gthr-single.h **** {
 198:/opt/toolchains/arm-none-eabi/bin/../lib/gcc/arm-none-eabi/4.5.2/../../../../arm-none-eabi/include/c++/4.5.2/arm-none-eabi/thumb/bits/gthr-single.h ****   return 0;
 199:/opt/toolchains/arm-none-eabi/bin/../lib/gcc/arm-none-eabi/4.5.2/../../../../arm-none-eabi/include/c++/4.5.2/arm-none-eabi/thumb/bits/gthr-single.h **** }
 200:/opt/toolchains/arm-none-eabi/bin/../lib/gcc/arm-none-eabi/4.5.2/../../../../arm-none-eabi/include/c++/4.5.2/arm-none-eabi/thumb/bits/gthr-single.h **** 
 201:/opt/toolchains/arm-none-eabi/bin/../lib/gcc/arm-none-eabi/4.5.2/../../../../arm-none-eabi/include/c++/4.5.2/arm-none-eabi/thumb/bits/gthr-single.h **** /* Wake up one thread waiting on this condition.  */
 202:/opt/toolchains/arm-none-eabi/bin/../lib/gcc/arm-none-eabi/4.5.2/../../../../arm-none-eabi/include/c++/4.5.2/arm-none-eabi/thumb/bits/gthr-single.h **** static inline int
 203:/opt/toolchains/arm-none-eabi/bin/../lib/gcc/arm-none-eabi/4.5.2/../../../../arm-none-eabi/include/c++/4.5.2/arm-none-eabi/thumb/bits/gthr-single.h **** __gthread_objc_condition_signal (objc_condition_t condition _GLIBCXX_UNUSED)
 204:/opt/toolchains/arm-none-eabi/bin/../lib/gcc/arm-none-eabi/4.5.2/../../../../arm-none-eabi/include/c++/4.5.2/arm-none-eabi/thumb/bits/gthr-single.h **** {
 205:/opt/toolchains/arm-none-eabi/bin/../lib/gcc/arm-none-eabi/4.5.2/../../../../arm-none-eabi/include/c++/4.5.2/arm-none-eabi/thumb/bits/gthr-single.h ****   return 0;
 206:/opt/toolchains/arm-none-eabi/bin/../lib/gcc/arm-none-eabi/4.5.2/../../../../arm-none-eabi/include/c++/4.5.2/arm-none-eabi/thumb/bits/gthr-single.h **** }
 207:/opt/toolchains/arm-none-eabi/bin/../lib/gcc/arm-none-eabi/4.5.2/../../../../arm-none-eabi/include/c++/4.5.2/arm-none-eabi/thumb/bits/gthr-single.h **** 
 208:/opt/toolchains/arm-none-eabi/bin/../lib/gcc/arm-none-eabi/4.5.2/../../../../arm-none-eabi/include/c++/4.5.2/arm-none-eabi/thumb/bits/gthr-single.h **** #else /* _LIBOBJC */
 209:/opt/toolchains/arm-none-eabi/bin/../lib/gcc/arm-none-eabi/4.5.2/../../../../arm-none-eabi/include/c++/4.5.2/arm-none-eabi/thumb/bits/gthr-single.h **** 
 210:/opt/toolchains/arm-none-eabi/bin/../lib/gcc/arm-none-eabi/4.5.2/../../../../arm-none-eabi/include/c++/4.5.2/arm-none-eabi/thumb/bits/gthr-single.h **** static inline int
 211:/opt/toolchains/arm-none-eabi/bin/../lib/gcc/arm-none-eabi/4.5.2/../../../../arm-none-eabi/include/c++/4.5.2/arm-none-eabi/thumb/bits/gthr-single.h **** __gthread_active_p (void)
 212:/opt/toolchains/arm-none-eabi/bin/../lib/gcc/arm-none-eabi/4.5.2/../../../../arm-none-eabi/include/c++/4.5.2/arm-none-eabi/thumb/bits/gthr-single.h **** {
 213:/opt/toolchains/arm-none-eabi/bin/../lib/gcc/arm-none-eabi/4.5.2/../../../../arm-none-eabi/include/c++/4.5.2/arm-none-eabi/thumb/bits/gthr-single.h ****   return 0;
 214:/opt/toolchains/arm-none-eabi/bin/../lib/gcc/arm-none-eabi/4.5.2/../../../../arm-none-eabi/include/c++/4.5.2/arm-none-eabi/thumb/bits/gthr-single.h **** }
 215:/opt/toolchains/arm-none-eabi/bin/../lib/gcc/arm-none-eabi/4.5.2/../../../../arm-none-eabi/include/c++/4.5.2/arm-none-eabi/thumb/bits/gthr-single.h **** 
 216:/opt/toolchains/arm-none-eabi/bin/../lib/gcc/arm-none-eabi/4.5.2/../../../../arm-none-eabi/include/c++/4.5.2/arm-none-eabi/thumb/bits/gthr-single.h **** static inline int
 217:/opt/toolchains/arm-none-eabi/bin/../lib/gcc/arm-none-eabi/4.5.2/../../../../arm-none-eabi/include/c++/4.5.2/arm-none-eabi/thumb/bits/gthr-single.h **** __gthread_once (__gthread_once_t *__once _GLIBCXX_UNUSED, void (*__func) (void) _GLIBCXX_UNUSED)
 218:/opt/toolchains/arm-none-eabi/bin/../lib/gcc/arm-none-eabi/4.5.2/../../../../arm-none-eabi/include/c++/4.5.2/arm-none-eabi/thumb/bits/gthr-single.h **** {
 219:/opt/toolchains/arm-none-eabi/bin/../lib/gcc/arm-none-eabi/4.5.2/../../../../arm-none-eabi/include/c++/4.5.2/arm-none-eabi/thumb/bits/gthr-single.h ****   return 0;
 220:/opt/toolchains/arm-none-eabi/bin/../lib/gcc/arm-none-eabi/4.5.2/../../../../arm-none-eabi/include/c++/4.5.2/arm-none-eabi/thumb/bits/gthr-single.h **** }
 221:/opt/toolchains/arm-none-eabi/bin/../lib/gcc/arm-none-eabi/4.5.2/../../../../arm-none-eabi/include/c++/4.5.2/arm-none-eabi/thumb/bits/gthr-single.h **** 
 222:/opt/toolchains/arm-none-eabi/bin/../lib/gcc/arm-none-eabi/4.5.2/../../../../arm-none-eabi/include/c++/4.5.2/arm-none-eabi/thumb/bits/gthr-single.h **** static inline int _GLIBCXX_UNUSED
 223:/opt/toolchains/arm-none-eabi/bin/../lib/gcc/arm-none-eabi/4.5.2/../../../../arm-none-eabi/include/c++/4.5.2/arm-none-eabi/thumb/bits/gthr-single.h **** __gthread_key_create (__gthread_key_t *__key _GLIBCXX_UNUSED, void (*__func) (void *) _GLIBCXX_UNUS
 224:/opt/toolchains/arm-none-eabi/bin/../lib/gcc/arm-none-eabi/4.5.2/../../../../arm-none-eabi/include/c++/4.5.2/arm-none-eabi/thumb/bits/gthr-single.h **** {
 225:/opt/toolchains/arm-none-eabi/bin/../lib/gcc/arm-none-eabi/4.5.2/../../../../arm-none-eabi/include/c++/4.5.2/arm-none-eabi/thumb/bits/gthr-single.h ****   return 0;
 226:/opt/toolchains/arm-none-eabi/bin/../lib/gcc/arm-none-eabi/4.5.2/../../../../arm-none-eabi/include/c++/4.5.2/arm-none-eabi/thumb/bits/gthr-single.h **** }
 227:/opt/toolchains/arm-none-eabi/bin/../lib/gcc/arm-none-eabi/4.5.2/../../../../arm-none-eabi/include/c++/4.5.2/arm-none-eabi/thumb/bits/gthr-single.h **** 
 228:/opt/toolchains/arm-none-eabi/bin/../lib/gcc/arm-none-eabi/4.5.2/../../../../arm-none-eabi/include/c++/4.5.2/arm-none-eabi/thumb/bits/gthr-single.h **** static int _GLIBCXX_UNUSED
 229:/opt/toolchains/arm-none-eabi/bin/../lib/gcc/arm-none-eabi/4.5.2/../../../../arm-none-eabi/include/c++/4.5.2/arm-none-eabi/thumb/bits/gthr-single.h **** __gthread_key_delete (__gthread_key_t __key _GLIBCXX_UNUSED)
 230:/opt/toolchains/arm-none-eabi/bin/../lib/gcc/arm-none-eabi/4.5.2/../../../../arm-none-eabi/include/c++/4.5.2/arm-none-eabi/thumb/bits/gthr-single.h **** {
 20116              		.loc 96 230 0
 20117              		.cfi_startproc
 20118              		@ args = 0, pretend = 0, frame = 8
 20119              		@ frame_needed = 1, uses_anonymous_args = 0
 20120              		@ link register save eliminated.
 20121 0000 80B4     		push	{r7}
 20122              	.LCFI0:
 20123              		.cfi_def_cfa_offset 4
 20124 0002 83B0     		sub	sp, sp, #12
 20125              	.LCFI1:
 20126              		.cfi_def_cfa_offset 16
 20127 0004 00AF     		add	r7, sp, #0
 20128              		.cfi_offset 7, -4
 20129              	.LCFI2:
 20130              		.cfi_def_cfa_register 7
 20131 0006 7860     		str	r0, [r7, #4]
 231:/opt/toolchains/arm-none-eabi/bin/../lib/gcc/arm-none-eabi/4.5.2/../../../../arm-none-eabi/include/c++/4.5.2/arm-none-eabi/thumb/bits/gthr-single.h ****   return 0;
 20132              		.loc 96 231 0
 20133 0008 4FF00003 		mov	r3, #0
 232:/opt/toolchains/arm-none-eabi/bin/../lib/gcc/arm-none-eabi/4.5.2/../../../../arm-none-eabi/include/c++/4.5.2/arm-none-eabi/thumb/bits/gthr-single.h **** }
 20134              		.loc 96 232 0
 20135 000c 1846     		mov	r0, r3
 20136 000e 07F10C07 		add	r7, r7, #12
 20137 0012 BD46     		mov	sp, r7
 20138 0014 80BC     		pop	{r7}
 20139 0016 7047     		bx	lr
 20140              		.cfi_endproc
 20141              	.LFE576:
 20143              		.section	.text._ZN15IPhyTransceiverC2Ev,"axG",%progbits,_ZN15IPhyTransceiverC5Ev,comdat
 20144              		.align	2
 20145              		.weak	_ZN15IPhyTransceiverC2Ev
 20146              		.thumb
 20147              		.thumb_func
 20149              	_ZN15IPhyTransceiverC2Ev:
 20150              	.LFB796:
   1:/home/desem/workspace/desenet/interfaces/iphytransceiver.h **** #pragma once
   2:/home/desem/workspace/desenet/interfaces/iphytransceiver.h **** #include <utils/Address>
   3:/home/desem/workspace/desenet/interfaces/iphytransceiver.h **** #include <stdint.h>
   4:/home/desem/workspace/desenet/interfaces/iphytransceiver.h **** class IPhyObserver;
   5:/home/desem/workspace/desenet/interfaces/iphytransceiver.h **** class Frame;
   6:/home/desem/workspace/desenet/interfaces/iphytransceiver.h **** 
   7:/home/desem/workspace/desenet/interfaces/iphytransceiver.h **** /**
   8:/home/desem/workspace/desenet/interfaces/iphytransceiver.h ****  * @ingroup interfaces
   9:/home/desem/workspace/desenet/interfaces/iphytransceiver.h ****  * @brief Abstracts the PHY+ hardware and driver needed to send frames using a shared medium or ove
  10:/home/desem/workspace/desenet/interfaces/iphytransceiver.h ****  *
  11:/home/desem/workspace/desenet/interfaces/iphytransceiver.h ****  * Note that the features the interface offers go beyond the standard PHY features, since the used 
  12:/home/desem/workspace/desenet/interfaces/iphytransceiver.h ****  * frame address decoding and automatic frame acknowledgment and retransmit and since these are rea
  13:/home/desem/workspace/desenet/interfaces/iphytransceiver.h ****  * it will be way more efficient and faster.
  14:/home/desem/workspace/desenet/interfaces/iphytransceiver.h ****  */
  15:/home/desem/workspace/desenet/interfaces/iphytransceiver.h **** class IPhyTransceiver
  16:/home/desem/workspace/desenet/interfaces/iphytransceiver.h **** {
  17:/home/desem/workspace/desenet/interfaces/iphytransceiver.h **** protected:
  18:/home/desem/workspace/desenet/interfaces/iphytransceiver.h **** 	// It is just an interface, so constructor and destructor should nor be public.
  19:/home/desem/workspace/desenet/interfaces/iphytransceiver.h **** 	IPhyTransceiver() {}
 20151              		.loc 35 19 0
 20152              		.cfi_startproc
 20153              		@ args = 0, pretend = 0, frame = 8
 20154              		@ frame_needed = 1, uses_anonymous_args = 0
 20155              		@ link register save eliminated.
 20156 0000 80B4     		push	{r7}
 20157              	.LCFI3:
 20158              		.cfi_def_cfa_offset 4
 20159 0002 83B0     		sub	sp, sp, #12
 20160              	.LCFI4:
 20161              		.cfi_def_cfa_offset 16
 20162 0004 00AF     		add	r7, sp, #0
 20163              		.cfi_offset 7, -4
 20164              	.LCFI5:
 20165              		.cfi_def_cfa_register 7
 20166 0006 7860     		str	r0, [r7, #4]
 20167              	.LBB2:
 20168              		.loc 35 19 0
 20169 0008 7B68     		ldr	r3, [r7, #4]
 20170 000a 044A     		ldr	r2, .L4
 20171 000c 1A60     		str	r2, [r3, #0]
 20172              	.LBE2:
 20173 000e 7B68     		ldr	r3, [r7, #4]
 20174 0010 1846     		mov	r0, r3
 20175 0012 07F10C07 		add	r7, r7, #12
 20176 0016 BD46     		mov	sp, r7
 20177 0018 80BC     		pop	{r7}
 20178 001a 7047     		bx	lr
 20179              	.L5:
 20180              		.align	2
 20181              	.L4:
 20182 001c 08000000 		.word	_ZTV15IPhyTransceiver+8
 20183              		.cfi_endproc
 20184              	.LFE796:
 20186              		.weak	_ZN15IPhyTransceiverC1Ev
 20187              		.thumb_set _ZN15IPhyTransceiverC1Ev,_ZN15IPhyTransceiverC2Ev
 20188              		.section	.text._ZN15IPhyTransceiverD2Ev,"axG",%progbits,_ZN15IPhyTransceiverD5Ev,comdat
 20189              		.align	2
 20190              		.weak	_ZN15IPhyTransceiverD2Ev
 20191              		.thumb
 20192              		.thumb_func
 20194              	_ZN15IPhyTransceiverD2Ev:
 20195              	.LFB799:
  20:/home/desem/workspace/desenet/interfaces/iphytransceiver.h **** 	virtual ~IPhyTransceiver() {}
 20196              		.loc 35 20 0
 20197              		.cfi_startproc
 20198              		@ args = 0, pretend = 0, frame = 8
 20199              		@ frame_needed = 1, uses_anonymous_args = 0
 20200 0000 80B5     		push	{r7, lr}
 20201              	.LCFI6:
 20202              		.cfi_def_cfa_offset 8
 20203 0002 82B0     		sub	sp, sp, #8
 20204              	.LCFI7:
 20205              		.cfi_def_cfa_offset 16
 20206 0004 00AF     		add	r7, sp, #0
 20207              		.cfi_offset 14, -4
 20208              		.cfi_offset 7, -8
 20209              	.LCFI8:
 20210              		.cfi_def_cfa_register 7
 20211 0006 7860     		str	r0, [r7, #4]
 20212              	.LBB3:
 20213              		.loc 35 20 0
 20214 0008 7B68     		ldr	r3, [r7, #4]
 20215 000a 094A     		ldr	r2, .L9
 20216 000c 1A60     		str	r2, [r3, #0]
 20217              	.LBE3:
 20218 000e 4FF00003 		mov	r3, #0
 20219 0012 03F00103 		and	r3, r3, #1
 20220 0016 DBB2     		uxtb	r3, r3
 20221 0018 002B     		cmp	r3, #0
 20222 001a 02D0     		beq	.L8
 20223              		.loc 35 20 0 is_stmt 0 discriminator 1
 20224 001c 7868     		ldr	r0, [r7, #4]
 20225 001e FFF7FEFF 		bl	_ZdlPv
 20226              	.L8:
 20227              		.loc 35 20 0 discriminator 2
 20228 0022 7B68     		ldr	r3, [r7, #4]
 20229 0024 1846     		mov	r0, r3
 20230 0026 07F10807 		add	r7, r7, #8
 20231 002a BD46     		mov	sp, r7
 20232 002c 80BD     		pop	{r7, pc}
 20233              	.L10:
 20234 002e 00BF     		.align	2
 20235              	.L9:
 20236 0030 08000000 		.word	_ZTV15IPhyTransceiver+8
 20237              		.cfi_endproc
 20238              	.LFE799:
 20240              		.weak	_ZN15IPhyTransceiverD1Ev
 20241              		.thumb_set _ZN15IPhyTransceiverD1Ev,_ZN15IPhyTransceiverD2Ev
 20242              		.section	.text._ZN15IPhyTransceiverD0Ev,"axG",%progbits,_ZN15IPhyTransceiverD5Ev,comdat
 20243              		.align	2
 20244              		.weak	_ZN15IPhyTransceiverD0Ev
 20245              		.thumb
 20246              		.thumb_func
 20248              	_ZN15IPhyTransceiverD0Ev:
 20249              	.LFB801:
 20250              		.loc 35 20 0 is_stmt 1
 20251              		.cfi_startproc
 20252              		@ args = 0, pretend = 0, frame = 8
 20253              		@ frame_needed = 1, uses_anonymous_args = 0
 20254 0000 80B5     		push	{r7, lr}
 20255              	.LCFI9:
 20256              		.cfi_def_cfa_offset 8
 20257 0002 82B0     		sub	sp, sp, #8
 20258              	.LCFI10:
 20259              		.cfi_def_cfa_offset 16
 20260 0004 00AF     		add	r7, sp, #0
 20261              		.cfi_offset 14, -4
 20262              		.cfi_offset 7, -8
 20263              	.LCFI11:
 20264              		.cfi_def_cfa_register 7
 20265 0006 7860     		str	r0, [r7, #4]
 20266              		.loc 35 20 0
 20267 0008 7868     		ldr	r0, [r7, #4]
 20268 000a FFF7FEFF 		bl	_ZN15IPhyTransceiverD1Ev
 20269 000e 7868     		ldr	r0, [r7, #4]
 20270 0010 FFF7FEFF 		bl	_ZdlPv
 20271 0014 7B68     		ldr	r3, [r7, #4]
 20272 0016 1846     		mov	r0, r3
 20273 0018 07F10807 		add	r7, r7, #8
 20274 001c BD46     		mov	sp, r7
 20275 001e 80BD     		pop	{r7, pc}
 20276              		.cfi_endproc
 20277              	.LFE801:
 20279              		.section	.text._ZN11EventStatusC2ENS_12eEventStatusE,"axG",%progbits,_ZN11EventStatusC5ENS_12eEven
 20280              		.align	2
 20281              		.weak	_ZN11EventStatusC2ENS_12eEventStatusE
 20282              		.thumb
 20283              		.thumb_func
 20285              	_ZN11EventStatusC2ENS_12eEventStatusE:
 20286              	.LFB1218:
   1:/home/desem/workspace/desenet/xf/xfeventstatus.h **** #ifndef XFEVENTSTATUS_H
   2:/home/desem/workspace/desenet/xf/xfeventstatus.h **** #define XFEVENTSTATUS_H
   3:/home/desem/workspace/desenet/xf/xfeventstatus.h **** 
   4:/home/desem/workspace/desenet/xf/xfeventstatus.h **** 
   5:/home/desem/workspace/desenet/xf/xfeventstatus.h **** /**
   6:/home/desem/workspace/desenet/xf/xfeventstatus.h ****  * @ingroup xf
   7:/home/desem/workspace/desenet/xf/xfeventstatus.h ****  * The EventStatus is used after consumption of an event. It gives an
   8:/home/desem/workspace/desenet/xf/xfeventstatus.h ****  * information on how the event was consument and how the framework should
   9:/home/desem/workspace/desenet/xf/xfeventstatus.h ****  * react.
  10:/home/desem/workspace/desenet/xf/xfeventstatus.h ****  */
  11:/home/desem/workspace/desenet/xf/xfeventstatus.h **** class EventStatus
  12:/home/desem/workspace/desenet/xf/xfeventstatus.h **** {
  13:/home/desem/workspace/desenet/xf/xfeventstatus.h **** public:
  14:/home/desem/workspace/desenet/xf/xfeventstatus.h **** 	/**
  15:/home/desem/workspace/desenet/xf/xfeventstatus.h **** 	 * Status values about the event processed.
  16:/home/desem/workspace/desenet/xf/xfeventstatus.h **** 	 *
  17:/home/desem/workspace/desenet/xf/xfeventstatus.h **** 	 * \see XFReactive::process
  18:/home/desem/workspace/desenet/xf/xfeventstatus.h **** 	 */
  19:/home/desem/workspace/desenet/xf/xfeventstatus.h **** 	typedef enum
  20:/home/desem/workspace/desenet/xf/xfeventstatus.h **** 	{
  21:/home/desem/workspace/desenet/xf/xfeventstatus.h **** 		Unknown			= 0,
  22:/home/desem/workspace/desenet/xf/xfeventstatus.h **** 		Consumed		= 0x0001,
  23:/home/desem/workspace/desenet/xf/xfeventstatus.h **** 		NotConsumed		= 0x0002,
  24:/home/desem/workspace/desenet/xf/xfeventstatus.h **** 		Terminate		= 0x0004
  25:/home/desem/workspace/desenet/xf/xfeventstatus.h **** 	} eEventStatus;
  26:/home/desem/workspace/desenet/xf/xfeventstatus.h **** 
  27:/home/desem/workspace/desenet/xf/xfeventstatus.h **** 	/**
  28:/home/desem/workspace/desenet/xf/xfeventstatus.h **** 	 * Constructor
  29:/home/desem/workspace/desenet/xf/xfeventstatus.h **** 	 *
  30:/home/desem/workspace/desenet/xf/xfeventstatus.h **** 	 * \param eventStatus Initial value of the event status.
  31:/home/desem/workspace/desenet/xf/xfeventstatus.h **** 	 */
  32:/home/desem/workspace/desenet/xf/xfeventstatus.h **** 	EventStatus(eEventStatus eventStatus = Unknown) : _status(eventStatus) {}
 20287              		.loc 127 32 0
 20288              		.cfi_startproc
 20289              		@ args = 0, pretend = 0, frame = 8
 20290              		@ frame_needed = 1, uses_anonymous_args = 0
 20291              		@ link register save eliminated.
 20292 0000 80B4     		push	{r7}
 20293              	.LCFI12:
 20294              		.cfi_def_cfa_offset 4
 20295 0002 83B0     		sub	sp, sp, #12
 20296              	.LCFI13:
 20297              		.cfi_def_cfa_offset 16
 20298 0004 00AF     		add	r7, sp, #0
 20299              		.cfi_offset 7, -4
 20300              	.LCFI14:
 20301              		.cfi_def_cfa_register 7
 20302 0006 7860     		str	r0, [r7, #4]
 20303 0008 0B46     		mov	r3, r1
 20304 000a FB70     		strb	r3, [r7, #3]
 20305              	.LBB4:
 20306              		.loc 127 32 0
 20307 000c 7B68     		ldr	r3, [r7, #4]
 20308 000e FA78     		ldrb	r2, [r7, #3]
 20309 0010 1A70     		strb	r2, [r3, #0]
 20310              	.LBE4:
 20311 0012 7B68     		ldr	r3, [r7, #4]
 20312 0014 1846     		mov	r0, r3
 20313 0016 07F10C07 		add	r7, r7, #12
 20314 001a BD46     		mov	sp, r7
 20315 001c 80BC     		pop	{r7}
 20316 001e 7047     		bx	lr
 20317              		.cfi_endproc
 20318              	.LFE1218:
 20320              		.weak	_ZN11EventStatusC1ENS_12eEventStatusE
 20321              		.thumb_set _ZN11EventStatusC1ENS_12eEventStatusE,_ZN11EventStatusC2ENS_12eEventStatusE
 20322              		.section	.text._ZNK6NrfSpi13isInitializedEv,"axG",%progbits,_ZNK6NrfSpi13isInitializedEv,comdat
 20323              		.align	2
 20324              		.weak	_ZNK6NrfSpi13isInitializedEv
 20325              		.thumb
 20326              		.thumb_func
 20328              	_ZNK6NrfSpi13isInitializedEv:
 20329              	.LFB1248:
   1:/home/desem/workspace/desenet/board/olimex-stm32f103-stk/board/transceiver/nrfspi.h **** #pragma once
   2:/home/desem/workspace/desenet/board/olimex-stm32f103-stk/board/transceiver/nrfspi.h **** 
   3:/home/desem/workspace/desenet/board/olimex-stm32f103-stk/board/transceiver/nrfspi.h **** #include <target.h>
   4:/home/desem/workspace/desenet/board/olimex-stm32f103-stk/board/transceiver/nrfspi.h **** #include <utils/Address>
   5:/home/desem/workspace/desenet/board/olimex-stm32f103-stk/board/transceiver/nrfspi.h **** #include <board/shared-spi/displaynrfsharedspi.h>
   6:/home/desem/workspace/desenet/board/olimex-stm32f103-stk/board/transceiver/nrfspi.h **** 
   7:/home/desem/workspace/desenet/board/olimex-stm32f103-stk/board/transceiver/nrfspi.h **** 
   8:/home/desem/workspace/desenet/board/olimex-stm32f103-stk/board/transceiver/nrfspi.h **** class Frame;
   9:/home/desem/workspace/desenet/board/olimex-stm32f103-stk/board/transceiver/nrfspi.h **** 
  10:/home/desem/workspace/desenet/board/olimex-stm32f103-stk/board/transceiver/nrfspi.h **** 
  11:/home/desem/workspace/desenet/board/olimex-stm32f103-stk/board/transceiver/nrfspi.h **** class NrfSpi
  12:/home/desem/workspace/desenet/board/olimex-stm32f103-stk/board/transceiver/nrfspi.h **** {
  13:/home/desem/workspace/desenet/board/olimex-stm32f103-stk/board/transceiver/nrfspi.h **** public:
  14:/home/desem/workspace/desenet/board/olimex-stm32f103-stk/board/transceiver/nrfspi.h **** 	NrfSpi(DisplayNrfSharedSpi & sharedSpi);
  15:/home/desem/workspace/desenet/board/olimex-stm32f103-stk/board/transceiver/nrfspi.h **** 	virtual ~NrfSpi();
  16:/home/desem/workspace/desenet/board/olimex-stm32f103-stk/board/transceiver/nrfspi.h **** 
  17:/home/desem/workspace/desenet/board/olimex-stm32f103-stk/board/transceiver/nrfspi.h **** 	bool initialize();													///< Initializes the NrfSpi. Should be called after construction.
  18:/home/desem/workspace/desenet/board/olimex-stm32f103-stk/board/transceiver/nrfspi.h **** 	inline bool isInitialized() const { return _bInitialized; }			///< Returns true if the #initialize
 20330              		.loc 136 18 0
 20331              		.cfi_startproc
 20332              		@ args = 0, pretend = 0, frame = 8
 20333              		@ frame_needed = 1, uses_anonymous_args = 0
 20334              		@ link register save eliminated.
 20335 0000 80B4     		push	{r7}
 20336              	.LCFI15:
 20337              		.cfi_def_cfa_offset 4
 20338 0002 83B0     		sub	sp, sp, #12
 20339              	.LCFI16:
 20340              		.cfi_def_cfa_offset 16
 20341 0004 00AF     		add	r7, sp, #0
 20342              		.cfi_offset 7, -4
 20343              	.LCFI17:
 20344              		.cfi_def_cfa_register 7
 20345 0006 7860     		str	r0, [r7, #4]
 20346              		.loc 136 18 0
 20347 0008 7B68     		ldr	r3, [r7, #4]
 20348 000a 1B79     		ldrb	r3, [r3, #4]	@ zero_extendqisi2
 20349 000c 1846     		mov	r0, r3
 20350 000e 07F10C07 		add	r7, r7, #12
 20351 0012 BD46     		mov	sp, r7
 20352 0014 80BC     		pop	{r7}
 20353 0016 7047     		bx	lr
 20354              		.cfi_endproc
 20355              	.LFE1248:
 20357              		.section	.text._ZNK6NrfSpi6sDelayEm,"axG",%progbits,_ZNK6NrfSpi6sDelayEm,comdat
 20358              		.align	2
 20359              		.weak	_ZNK6NrfSpi6sDelayEm
 20360              		.thumb
 20361              		.thumb_func
 20363              	_ZNK6NrfSpi6sDelayEm:
 20364              	.LFB1250:
  19:/home/desem/workspace/desenet/board/olimex-stm32f103-stk/board/transceiver/nrfspi.h **** 
  20:/home/desem/workspace/desenet/board/olimex-stm32f103-stk/board/transceiver/nrfspi.h **** 	typedef unsigned char tStatus;
  21:/home/desem/workspace/desenet/board/olimex-stm32f103-stk/board/transceiver/nrfspi.h **** 	typedef unsigned char tRegister;
  22:/home/desem/workspace/desenet/board/olimex-stm32f103-stk/board/transceiver/nrfspi.h **** 	typedef Address<4>	tAddress;		///< Type used for source and destination address
  23:/home/desem/workspace/desenet/board/olimex-stm32f103-stk/board/transceiver/nrfspi.h **** 	typedef enum
  24:/home/desem/workspace/desenet/board/olimex-stm32f103-stk/board/transceiver/nrfspi.h **** 	{
  25:/home/desem/workspace/desenet/board/olimex-stm32f103-stk/board/transceiver/nrfspi.h **** 		R_REGISTER			= 0x00,
  26:/home/desem/workspace/desenet/board/olimex-stm32f103-stk/board/transceiver/nrfspi.h **** 		W_REGISTER			= 0x01,
  27:/home/desem/workspace/desenet/board/olimex-stm32f103-stk/board/transceiver/nrfspi.h **** 		R_RX_PAYLOAD		= 0x61,
  28:/home/desem/workspace/desenet/board/olimex-stm32f103-stk/board/transceiver/nrfspi.h **** 		W_TX_PAYLOAD		= 0xA0,
  29:/home/desem/workspace/desenet/board/olimex-stm32f103-stk/board/transceiver/nrfspi.h **** 		FLUSH_TX 			= 0xE1,
  30:/home/desem/workspace/desenet/board/olimex-stm32f103-stk/board/transceiver/nrfspi.h **** 		FLUSH_RX			= 0xE2,
  31:/home/desem/workspace/desenet/board/olimex-stm32f103-stk/board/transceiver/nrfspi.h **** 		REUSE_TX_PL			= 0xE3,
  32:/home/desem/workspace/desenet/board/olimex-stm32f103-stk/board/transceiver/nrfspi.h **** 		ACTIVATE			= 0x50,
  33:/home/desem/workspace/desenet/board/olimex-stm32f103-stk/board/transceiver/nrfspi.h **** 		R_RX_PL_WID			= 0x60,
  34:/home/desem/workspace/desenet/board/olimex-stm32f103-stk/board/transceiver/nrfspi.h **** 		W_ACK_PAYLOAD		= 0xA1,		// Not complete. Use it as mask.
  35:/home/desem/workspace/desenet/board/olimex-stm32f103-stk/board/transceiver/nrfspi.h **** 		W_TX_PAYLOAD_NO_ACK	= 0xB0,
  36:/home/desem/workspace/desenet/board/olimex-stm32f103-stk/board/transceiver/nrfspi.h **** 		NOP					= 0xFF
  37:/home/desem/workspace/desenet/board/olimex-stm32f103-stk/board/transceiver/nrfspi.h **** 	} eNrfSpiCmd;
  38:/home/desem/workspace/desenet/board/olimex-stm32f103-stk/board/transceiver/nrfspi.h **** 
  39:/home/desem/workspace/desenet/board/olimex-stm32f103-stk/board/transceiver/nrfspi.h **** 	typedef enum
  40:/home/desem/workspace/desenet/board/olimex-stm32f103-stk/board/transceiver/nrfspi.h **** 	{
  41:/home/desem/workspace/desenet/board/olimex-stm32f103-stk/board/transceiver/nrfspi.h **** 		CONFIG			= 0x00,
  42:/home/desem/workspace/desenet/board/olimex-stm32f103-stk/board/transceiver/nrfspi.h **** 		EN_AA			= 0x01,
  43:/home/desem/workspace/desenet/board/olimex-stm32f103-stk/board/transceiver/nrfspi.h **** 		EN_RXADDR		= 0x02,
  44:/home/desem/workspace/desenet/board/olimex-stm32f103-stk/board/transceiver/nrfspi.h **** 		SETUP_AW		= 0x03,
  45:/home/desem/workspace/desenet/board/olimex-stm32f103-stk/board/transceiver/nrfspi.h **** 		SETUP_RETR		= 0x04,
  46:/home/desem/workspace/desenet/board/olimex-stm32f103-stk/board/transceiver/nrfspi.h **** 		RF_CH			= 0x05,
  47:/home/desem/workspace/desenet/board/olimex-stm32f103-stk/board/transceiver/nrfspi.h **** 		RF_SETUP		= 0x06,
  48:/home/desem/workspace/desenet/board/olimex-stm32f103-stk/board/transceiver/nrfspi.h **** 		STATUS			= 0x07,
  49:/home/desem/workspace/desenet/board/olimex-stm32f103-stk/board/transceiver/nrfspi.h **** 		OBSERVE_TX		= 0x08,
  50:/home/desem/workspace/desenet/board/olimex-stm32f103-stk/board/transceiver/nrfspi.h **** 		CD				= 0x09,
  51:/home/desem/workspace/desenet/board/olimex-stm32f103-stk/board/transceiver/nrfspi.h **** 		RX_ADDR_P0		= 0x0A,
  52:/home/desem/workspace/desenet/board/olimex-stm32f103-stk/board/transceiver/nrfspi.h **** 		RX_ADDR_P1		= 0x0B,
  53:/home/desem/workspace/desenet/board/olimex-stm32f103-stk/board/transceiver/nrfspi.h **** 		TX_ADDR			= 0x10,
  54:/home/desem/workspace/desenet/board/olimex-stm32f103-stk/board/transceiver/nrfspi.h **** 		RX_PW_P0		= 0x11,
  55:/home/desem/workspace/desenet/board/olimex-stm32f103-stk/board/transceiver/nrfspi.h **** 		RX_PW_P1		= 0x12,
  56:/home/desem/workspace/desenet/board/olimex-stm32f103-stk/board/transceiver/nrfspi.h **** 		FIFO_STATUS		= 0x17,
  57:/home/desem/workspace/desenet/board/olimex-stm32f103-stk/board/transceiver/nrfspi.h **** 		DYNPD			= 0x1C,
  58:/home/desem/workspace/desenet/board/olimex-stm32f103-stk/board/transceiver/nrfspi.h **** 		FEATURE			= 0x1D
  59:/home/desem/workspace/desenet/board/olimex-stm32f103-stk/board/transceiver/nrfspi.h **** 	} eNrfRegister;
  60:/home/desem/workspace/desenet/board/olimex-stm32f103-stk/board/transceiver/nrfspi.h **** 
  61:/home/desem/workspace/desenet/board/olimex-stm32f103-stk/board/transceiver/nrfspi.h **** 	static const unsigned char CONFIG_REG_PRIM_RX	= 0x01;
  62:/home/desem/workspace/desenet/board/olimex-stm32f103-stk/board/transceiver/nrfspi.h **** 	static const unsigned char CONFIG_REG_PWR_UP	= 0x02;
  63:/home/desem/workspace/desenet/board/olimex-stm32f103-stk/board/transceiver/nrfspi.h **** 	static const unsigned char CONFIG_REG_CRCO		= 0x04;
  64:/home/desem/workspace/desenet/board/olimex-stm32f103-stk/board/transceiver/nrfspi.h **** 	static const unsigned char CONFIG_REG_EN_CRC	= 0x08;
  65:/home/desem/workspace/desenet/board/olimex-stm32f103-stk/board/transceiver/nrfspi.h **** 
  66:/home/desem/workspace/desenet/board/olimex-stm32f103-stk/board/transceiver/nrfspi.h **** 	static const unsigned char STATUS_REG_TX_FULL	= 0x01;
  67:/home/desem/workspace/desenet/board/olimex-stm32f103-stk/board/transceiver/nrfspi.h **** 	static const unsigned char STATUS_REG_MAX_RT	= 0x10;
  68:/home/desem/workspace/desenet/board/olimex-stm32f103-stk/board/transceiver/nrfspi.h **** 	static const unsigned char STATUS_REG_RX_DR		= 0x40;
  69:/home/desem/workspace/desenet/board/olimex-stm32f103-stk/board/transceiver/nrfspi.h **** 	static const unsigned char STATUS_REG_TX_DS		= 0x20;
  70:/home/desem/workspace/desenet/board/olimex-stm32f103-stk/board/transceiver/nrfspi.h **** 
  71:/home/desem/workspace/desenet/board/olimex-stm32f103-stk/board/transceiver/nrfspi.h **** 	static const unsigned char FEATURE_REG_EN_DPL	= 0x04;
  72:/home/desem/workspace/desenet/board/olimex-stm32f103-stk/board/transceiver/nrfspi.h **** 	static const unsigned char ACTIVATE_DATA		= 0x73;
  73:/home/desem/workspace/desenet/board/olimex-stm32f103-stk/board/transceiver/nrfspi.h **** 
  74:/home/desem/workspace/desenet/board/olimex-stm32f103-stk/board/transceiver/nrfspi.h **** 	tStatus status();														///< Returns the status byte from the transceiver.
  75:/home/desem/workspace/desenet/board/olimex-stm32f103-stk/board/transceiver/nrfspi.h **** 
  76:/home/desem/workspace/desenet/board/olimex-stm32f103-stk/board/transceiver/nrfspi.h **** 	tStatus sendCmd(eNrfSpiCmd cmd);										///< Sends a command to the transceiver. See eNrfSpiCmd 
  77:/home/desem/workspace/desenet/board/olimex-stm32f103-stk/board/transceiver/nrfspi.h **** 	tStatus sendFrame(const Frame & frame);									///< Sends a frame to the transceiver.
  78:/home/desem/workspace/desenet/board/olimex-stm32f103-stk/board/transceiver/nrfspi.h **** 	tStatus readFrame(Frame & frame);										///< Reads n-bytes from RX FIFO according to the payloa
  79:/home/desem/workspace/desenet/board/olimex-stm32f103-stk/board/transceiver/nrfspi.h **** 
  80:/home/desem/workspace/desenet/board/olimex-stm32f103-stk/board/transceiver/nrfspi.h **** 	tRegister readRegister(eNrfRegister reg);								///< Used to read the transceivers registers (one
  81:/home/desem/workspace/desenet/board/olimex-stm32f103-stk/board/transceiver/nrfspi.h **** 	tStatus readRegister(eNrfRegister reg, tAddress & address);				///< Used to read the transceivers 
  82:/home/desem/workspace/desenet/board/olimex-stm32f103-stk/board/transceiver/nrfspi.h **** 
  83:/home/desem/workspace/desenet/board/olimex-stm32f103-stk/board/transceiver/nrfspi.h **** 	tStatus writeRegister(eNrfRegister reg, tRegister value);				///< Writes a value to the transceive
  84:/home/desem/workspace/desenet/board/olimex-stm32f103-stk/board/transceiver/nrfspi.h **** 	tStatus writeRegister(eNrfRegister reg, const tAddress & address);		///< Writes an address to the 
  85:/home/desem/workspace/desenet/board/olimex-stm32f103-stk/board/transceiver/nrfspi.h **** 
  86:/home/desem/workspace/desenet/board/olimex-stm32f103-stk/board/transceiver/nrfspi.h **** 	bool activateFeatures(bool enable);										///< Activates some features of the transceiver chip
  87:/home/desem/workspace/desenet/board/olimex-stm32f103-stk/board/transceiver/nrfspi.h **** 	inline bool featuresEnabled() const { return _bNrfFeaturesEnabled; }	///< Returns true if the feat
  88:/home/desem/workspace/desenet/board/olimex-stm32f103-stk/board/transceiver/nrfspi.h **** 
  89:/home/desem/workspace/desenet/board/olimex-stm32f103-stk/board/transceiver/nrfspi.h **** 	unsigned char getRXFramePipeNumber();									///< Returns the pipe number for the next waiting RX
  90:/home/desem/workspace/desenet/board/olimex-stm32f103-stk/board/transceiver/nrfspi.h **** 	size_t getRXFramePaylpoadSize(unsigned char pipeNumber);				///< Returns the size of the next wait
  91:/home/desem/workspace/desenet/board/olimex-stm32f103-stk/board/transceiver/nrfspi.h **** 
  92:/home/desem/workspace/desenet/board/olimex-stm32f103-stk/board/transceiver/nrfspi.h **** protected:
  93:/home/desem/workspace/desenet/board/olimex-stm32f103-stk/board/transceiver/nrfspi.h **** 	#define CSN_TIME      2
  94:/home/desem/workspace/desenet/board/olimex-stm32f103-stk/board/transceiver/nrfspi.h **** 	#define CE_HIGH_TIME  10000
  95:/home/desem/workspace/desenet/board/olimex-stm32f103-stk/board/transceiver/nrfspi.h **** 
  96:/home/desem/workspace/desenet/board/olimex-stm32f103-stk/board/transceiver/nrfspi.h **** 	inline void sDelay(unsigned long a) const { while (--a!=0); }
 20365              		.loc 136 96 0
 20366              		.cfi_startproc
 20367              		@ args = 0, pretend = 0, frame = 8
 20368              		@ frame_needed = 1, uses_anonymous_args = 0
 20369              		@ link register save eliminated.
 20370 0000 80B4     		push	{r7}
 20371              	.LCFI18:
 20372              		.cfi_def_cfa_offset 4
 20373 0002 83B0     		sub	sp, sp, #12
 20374              	.LCFI19:
 20375              		.cfi_def_cfa_offset 16
 20376 0004 00AF     		add	r7, sp, #0
 20377              		.cfi_offset 7, -4
 20378              	.LCFI20:
 20379              		.cfi_def_cfa_register 7
 20380 0006 7860     		str	r0, [r7, #4]
 20381 0008 3960     		str	r1, [r7, #0]
 20382              	.L17:
 20383              		.loc 136 96 0 discriminator 1
 20384 000a 3B68     		ldr	r3, [r7, #0]
 20385 000c 03F1FF33 		add	r3, r3, #-1
 20386 0010 3B60     		str	r3, [r7, #0]
 20387 0012 3B68     		ldr	r3, [r7, #0]
 20388 0014 002B     		cmp	r3, #0
 20389 0016 0CBF     		ite	eq
 20390 0018 0023     		moveq	r3, #0
 20391 001a 0123     		movne	r3, #1
 20392 001c DBB2     		uxtb	r3, r3
 20393 001e 002B     		cmp	r3, #0
 20394 0020 F3D1     		bne	.L17
 20395              		.loc 136 96 0 is_stmt 0
 20396 0022 07F10C07 		add	r7, r7, #12
 20397 0026 BD46     		mov	sp, r7
 20398 0028 80BC     		pop	{r7}
 20399 002a 7047     		bx	lr
 20400              		.cfi_endproc
 20401              	.LFE1250:
 20403              		.section	.text._ZNK6NrfSpi9disableCSEv,"axG",%progbits,_ZNK6NrfSpi9disableCSEv,comdat
 20404              		.align	2
 20405              		.weak	_ZNK6NrfSpi9disableCSEv
 20406              		.thumb
 20407              		.thumb_func
 20409              	_ZNK6NrfSpi9disableCSEv:
 20410              	.LFB1252:
  97:/home/desem/workspace/desenet/board/olimex-stm32f103-stk/board/transceiver/nrfspi.h **** 	inline void enableCS() const { sDelay(CSN_TIME); GPIO_WriteBit(GPIOA, GPIO_Pin_4, Bit_RESET); }		/
  98:/home/desem/workspace/desenet/board/olimex-stm32f103-stk/board/transceiver/nrfspi.h **** 	inline void disableCS() const { GPIO_WriteBit(GPIOA, GPIO_Pin_4, Bit_SET); }						///< Releases tr
 20411              		.loc 136 98 0 is_stmt 1
 20412              		.cfi_startproc
 20413              		@ args = 0, pretend = 0, frame = 8
 20414              		@ frame_needed = 1, uses_anonymous_args = 0
 20415 0000 80B5     		push	{r7, lr}
 20416              	.LCFI21:
 20417              		.cfi_def_cfa_offset 8
 20418 0002 82B0     		sub	sp, sp, #8
 20419              	.LCFI22:
 20420              		.cfi_def_cfa_offset 16
 20421 0004 00AF     		add	r7, sp, #0
 20422              		.cfi_offset 14, -4
 20423              		.cfi_offset 7, -8
 20424              	.LCFI23:
 20425              		.cfi_def_cfa_register 7
 20426 0006 7860     		str	r0, [r7, #4]
 20427              		.loc 136 98 0
 20428 0008 4FF40060 		mov	r0, #2048
 20429 000c C4F20100 		movt	r0, 16385
 20430 0010 4FF01001 		mov	r1, #16
 20431 0014 4FF00102 		mov	r2, #1
 20432 0018 FFF7FEFF 		bl	GPIO_WriteBit
 20433 001c 07F10807 		add	r7, r7, #8
 20434 0020 BD46     		mov	sp, r7
 20435 0022 80BD     		pop	{r7, pc}
 20436              		.cfi_endproc
 20437              	.LFE1252:
 20439              		.section	.text._ZNK6NrfSpi8enableCEEv,"axG",%progbits,_ZNK6NrfSpi8enableCEEv,comdat
 20440              		.align	2
 20441              		.weak	_ZNK6NrfSpi8enableCEEv
 20442              		.thumb
 20443              		.thumb_func
 20445              	_ZNK6NrfSpi8enableCEEv:
 20446              	.LFB1253:
  99:/home/desem/workspace/desenet/board/olimex-stm32f103-stk/board/transceiver/nrfspi.h **** 	inline void enableCE() const { GPIO_WriteBit(GPIOC, GPIO_Pin_8, Bit_SET);  sDelay(CE_HIGH_TIME); }
 20447              		.loc 136 99 0
 20448              		.cfi_startproc
 20449              		@ args = 0, pretend = 0, frame = 8
 20450              		@ frame_needed = 1, uses_anonymous_args = 0
 20451 0000 80B5     		push	{r7, lr}
 20452              	.LCFI24:
 20453              		.cfi_def_cfa_offset 8
 20454 0002 82B0     		sub	sp, sp, #8
 20455              	.LCFI25:
 20456              		.cfi_def_cfa_offset 16
 20457 0004 00AF     		add	r7, sp, #0
 20458              		.cfi_offset 14, -4
 20459              		.cfi_offset 7, -8
 20460              	.LCFI26:
 20461              		.cfi_def_cfa_register 7
 20462 0006 7860     		str	r0, [r7, #4]
 20463              		.loc 136 99 0
 20464 0008 4FF48050 		mov	r0, #4096
 20465 000c C4F20100 		movt	r0, 16385
 20466 0010 4FF48071 		mov	r1, #256
 20467 0014 4FF00102 		mov	r2, #1
 20468 0018 FFF7FEFF 		bl	GPIO_WriteBit
 20469 001c 7868     		ldr	r0, [r7, #4]
 20470 001e 42F21071 		movw	r1, #10000
 20471 0022 FFF7FEFF 		bl	_ZNK6NrfSpi6sDelayEm
 20472 0026 07F10807 		add	r7, r7, #8
 20473 002a BD46     		mov	sp, r7
 20474 002c 80BD     		pop	{r7, pc}
 20475              		.cfi_endproc
 20476              	.LFE1253:
 20478 002e 00BF     		.section	.text._ZNK6NrfSpi9disableCEEv,"axG",%progbits,_ZNK6NrfSpi9disableCEEv,comdat
 20479              		.align	2
 20480              		.weak	_ZNK6NrfSpi9disableCEEv
 20481              		.thumb
 20482              		.thumb_func
 20484              	_ZNK6NrfSpi9disableCEEv:
 20485              	.LFB1254:
 100:/home/desem/workspace/desenet/board/olimex-stm32f103-stk/board/transceiver/nrfspi.h **** 	inline void disableCE() const { GPIO_WriteBit(GPIOC, GPIO_Pin_8, Bit_RESET); }
 20486              		.loc 136 100 0
 20487              		.cfi_startproc
 20488              		@ args = 0, pretend = 0, frame = 8
 20489              		@ frame_needed = 1, uses_anonymous_args = 0
 20490 0000 80B5     		push	{r7, lr}
 20491              	.LCFI27:
 20492              		.cfi_def_cfa_offset 8
 20493 0002 82B0     		sub	sp, sp, #8
 20494              	.LCFI28:
 20495              		.cfi_def_cfa_offset 16
 20496 0004 00AF     		add	r7, sp, #0
 20497              		.cfi_offset 14, -4
 20498              		.cfi_offset 7, -8
 20499              	.LCFI29:
 20500              		.cfi_def_cfa_register 7
 20501 0006 7860     		str	r0, [r7, #4]
 20502              		.loc 136 100 0
 20503 0008 4FF48050 		mov	r0, #4096
 20504 000c C4F20100 		movt	r0, 16385
 20505 0010 4FF48071 		mov	r1, #256
 20506 0014 4FF00002 		mov	r2, #0
 20507 0018 FFF7FEFF 		bl	GPIO_WriteBit
 20508 001c 07F10807 		add	r7, r7, #8
 20509 0020 BD46     		mov	sp, r7
 20510 0022 80BD     		pop	{r7, pc}
 20511              		.cfi_endproc
 20512              	.LFE1254:
 20514              		.section	.text._ZN14NrfTransceiver11flushTxFifoEv,"axG",%progbits,_ZN14NrfTransceiver11flushTxFifo
 20515              		.align	2
 20516              		.weak	_ZN14NrfTransceiver11flushTxFifoEv
 20517              		.thumb
 20518              		.thumb_func
 20520              	_ZN14NrfTransceiver11flushTxFifoEv:
 20521              	.LFB1256:
   1:../board/olimex-stm32f103-stk/board/transceiver/nrftransceiver.h **** #pragma once
   2:../board/olimex-stm32f103-stk/board/transceiver/nrftransceiver.h **** 
   3:../board/olimex-stm32f103-stk/board/transceiver/nrftransceiver.h **** 
   4:../board/olimex-stm32f103-stk/board/transceiver/nrftransceiver.h **** #include <inc/config.h>				// Defines NRFTRANSCEIVER_TRACE_VERBOSE
   5:../board/olimex-stm32f103-stk/board/transceiver/nrftransceiver.h **** #include <stm32f10x_gpio.h>
   6:../board/olimex-stm32f103-stk/board/transceiver/nrftransceiver.h **** #include <IPhyTransceiver>
   7:../board/olimex-stm32f103-stk/board/transceiver/nrftransceiver.h **** #include <board/transceiver/nrfspi.h>
   8:../board/olimex-stm32f103-stk/board/transceiver/nrftransceiver.h **** #include <xf/xfreactive.h>
   9:../board/olimex-stm32f103-stk/board/transceiver/nrftransceiver.h **** 
  10:../board/olimex-stm32f103-stk/board/transceiver/nrftransceiver.h **** 
  11:../board/olimex-stm32f103-stk/board/transceiver/nrftransceiver.h **** /**
  12:../board/olimex-stm32f103-stk/board/transceiver/nrftransceiver.h ****  * Class abstracting the nRF24L01 chip. It is used to
  13:../board/olimex-stm32f103-stk/board/transceiver/nrftransceiver.h ****  * transmit and receive frames over the air. It has
  14:../board/olimex-stm32f103-stk/board/transceiver/nrftransceiver.h ****  * simple send and receive operations. To receive frames
  15:../board/olimex-stm32f103-stk/board/transceiver/nrftransceiver.h ****  * and status notifications register using the #setObserver
  16:../board/olimex-stm32f103-stk/board/transceiver/nrftransceiver.h ****  * method.
  17:../board/olimex-stm32f103-stk/board/transceiver/nrftransceiver.h ****  * Prior to enable the transceiver do not forget to initialize
  18:../board/olimex-stm32f103-stk/board/transceiver/nrftransceiver.h ****  * it using the #initialize method.
  19:../board/olimex-stm32f103-stk/board/transceiver/nrftransceiver.h ****  */
  20:../board/olimex-stm32f103-stk/board/transceiver/nrftransceiver.h **** class NrfTransceiver : public IPhyTransceiver,
  21:../board/olimex-stm32f103-stk/board/transceiver/nrftransceiver.h **** 					   public NrfSpi ,
  22:../board/olimex-stm32f103-stk/board/transceiver/nrftransceiver.h **** 					   public XFReactive
  23:../board/olimex-stm32f103-stk/board/transceiver/nrftransceiver.h **** {
  24:../board/olimex-stm32f103-stk/board/transceiver/nrftransceiver.h **** 	friend class NrfTransceiverTester;		// For test purpose only
  25:../board/olimex-stm32f103-stk/board/transceiver/nrftransceiver.h **** 	friend void EXTI9_5_IRQHandler();		// To call onIrq()
  26:../board/olimex-stm32f103-stk/board/transceiver/nrftransceiver.h **** 
  27:../board/olimex-stm32f103-stk/board/transceiver/nrftransceiver.h **** public:
  28:../board/olimex-stm32f103-stk/board/transceiver/nrftransceiver.h **** 	typedef NrfSpi::tAddress tAddress;		///< Type used for source and destination address
  29:../board/olimex-stm32f103-stk/board/transceiver/nrftransceiver.h **** 
  30:../board/olimex-stm32f103-stk/board/transceiver/nrftransceiver.h **** 	NrfTransceiver();
  31:../board/olimex-stm32f103-stk/board/transceiver/nrftransceiver.h **** 	virtual ~NrfTransceiver();
  32:../board/olimex-stm32f103-stk/board/transceiver/nrftransceiver.h **** 
  33:../board/olimex-stm32f103-stk/board/transceiver/nrftransceiver.h **** 	// IPhyTransceiver interface implementation.
  34:../board/olimex-stm32f103-stk/board/transceiver/nrftransceiver.h **** 	bool initialize();
  35:../board/olimex-stm32f103-stk/board/transceiver/nrftransceiver.h **** 	Mode mode() const;
  36:../board/olimex-stm32f103-stk/board/transceiver/nrftransceiver.h **** 	bool setMode(Mode mode);
  37:../board/olimex-stm32f103-stk/board/transceiver/nrftransceiver.h **** 	RadioChannel radioChannel() const;
  38:../board/olimex-stm32f103-stk/board/transceiver/nrftransceiver.h **** 
  39:../board/olimex-stm32f103-stk/board/transceiver/nrftransceiver.h **** 	/**
  40:../board/olimex-stm32f103-stk/board/transceiver/nrftransceiver.h **** 	 * Sets the RF channel for the transceiver. Hardware default is channel 2.
  41:../board/olimex-stm32f103-stk/board/transceiver/nrftransceiver.h **** 	 *
  42:../board/olimex-stm32f103-stk/board/transceiver/nrftransceiver.h **** 	 * \param channel Valid values are from 0 to 125 (total 126 RF channels)
  43:../board/olimex-stm32f103-stk/board/transceiver/nrftransceiver.h **** 	 */
  44:../board/olimex-stm32f103-stk/board/transceiver/nrftransceiver.h **** 	bool setRadioChannel(RadioChannel channel);
  45:../board/olimex-stm32f103-stk/board/transceiver/nrftransceiver.h **** 	FilterAddress receptionFilterAddress() const;
  46:../board/olimex-stm32f103-stk/board/transceiver/nrftransceiver.h **** 	bool setReceptionFilterAddress(const FilterAddress & address);
  47:../board/olimex-stm32f103-stk/board/transceiver/nrftransceiver.h **** 	bool autoAck() const;
  48:../board/olimex-stm32f103-stk/board/transceiver/nrftransceiver.h **** 	bool setAutoAck(bool autoAck);
  49:../board/olimex-stm32f103-stk/board/transceiver/nrftransceiver.h **** 
  50:../board/olimex-stm32f103-stk/board/transceiver/nrftransceiver.h **** 	bool setObserver(IPhyObserver * observer);
  51:../board/olimex-stm32f103-stk/board/transceiver/nrftransceiver.h **** 	bool send(const Frame & frame);
  52:../board/olimex-stm32f103-stk/board/transceiver/nrftransceiver.h **** 
  53:../board/olimex-stm32f103-stk/board/transceiver/nrftransceiver.h **** protected:
  54:../board/olimex-stm32f103-stk/board/transceiver/nrftransceiver.h **** 	void _initNrfTransceiverIrq() const;
  55:../board/olimex-stm32f103-stk/board/transceiver/nrftransceiver.h **** 	void onIrq();
  56:../board/olimex-stm32f103-stk/board/transceiver/nrftransceiver.h **** 	EventStatus processEvent();
  57:../board/olimex-stm32f103-stk/board/transceiver/nrftransceiver.h **** 
  58:../board/olimex-stm32f103-stk/board/transceiver/nrftransceiver.h **** 	/**
  59:../board/olimex-stm32f103-stk/board/transceiver/nrftransceiver.h **** 	 * Enables/disable transceiver. When enabling the transceiver
  60:../board/olimex-stm32f103-stk/board/transceiver/nrftransceiver.h **** 	 * it goes into RX mode.
  61:../board/olimex-stm32f103-stk/board/transceiver/nrftransceiver.h **** 	 *
  62:../board/olimex-stm32f103-stk/board/transceiver/nrftransceiver.h **** 	 * \param bEnable Set to true to enable transceiver
  63:../board/olimex-stm32f103-stk/board/transceiver/nrftransceiver.h **** 	 */
  64:../board/olimex-stm32f103-stk/board/transceiver/nrftransceiver.h **** 	bool enableTransceiver(bool bEnable);
  65:../board/olimex-stm32f103-stk/board/transceiver/nrftransceiver.h **** 	void enterTXMode();							///< Puts transceiver into TX mode
  66:../board/olimex-stm32f103-stk/board/transceiver/nrftransceiver.h **** 	void enterRXMode();							///< Puts transceiver into RX mode
  67:../board/olimex-stm32f103-stk/board/transceiver/nrftransceiver.h **** 
  68:../board/olimex-stm32f103-stk/board/transceiver/nrftransceiver.h **** 	void setDestinationAddress(tAddress address);
  69:../board/olimex-stm32f103-stk/board/transceiver/nrftransceiver.h **** 
  70:../board/olimex-stm32f103-stk/board/transceiver/nrftransceiver.h **** 	void setAddressWidth(unsigned char widthInByte);
  71:../board/olimex-stm32f103-stk/board/transceiver/nrftransceiver.h **** 	bool activateFeatures(bool enable);
  72:../board/olimex-stm32f103-stk/board/transceiver/nrftransceiver.h **** 	void enableDPL(bool enable, unsigned char pipeMask = 0x00);
  73:../board/olimex-stm32f103-stk/board/transceiver/nrftransceiver.h **** 	inline void flushTxFifo() { NrfSpi::sendCmd(NrfSpi::FLUSH_TX); }
 20522              		.loc 135 73 0
 20523              		.cfi_startproc
 20524              		@ args = 0, pretend = 0, frame = 8
 20525              		@ frame_needed = 1, uses_anonymous_args = 0
 20526 0000 80B5     		push	{r7, lr}
 20527              	.LCFI30:
 20528              		.cfi_def_cfa_offset 8
 20529 0002 82B0     		sub	sp, sp, #8
 20530              	.LCFI31:
 20531              		.cfi_def_cfa_offset 16
 20532 0004 00AF     		add	r7, sp, #0
 20533              		.cfi_offset 14, -4
 20534              		.cfi_offset 7, -8
 20535              	.LCFI32:
 20536              		.cfi_def_cfa_register 7
 20537 0006 7860     		str	r0, [r7, #4]
 20538              		.loc 135 73 0
 20539 0008 7B68     		ldr	r3, [r7, #4]
 20540 000a 03F10403 		add	r3, r3, #4
 20541 000e 1846     		mov	r0, r3
 20542 0010 4FF0E101 		mov	r1, #225
 20543 0014 FFF7FEFF 		bl	_ZN6NrfSpi7sendCmdENS_10eNrfSpiCmdE
 20544 0018 07F10807 		add	r7, r7, #8
 20545 001c BD46     		mov	sp, r7
 20546 001e 80BD     		pop	{r7, pc}
 20547              		.cfi_endproc
 20548              	.LFE1256:
 20550              		.section	.text._ZN14NrfTransceiver11flushRxFifoEv,"axG",%progbits,_ZN14NrfTransceiver11flushRxFifo
 20551              		.align	2
 20552              		.weak	_ZN14NrfTransceiver11flushRxFifoEv
 20553              		.thumb
 20554              		.thumb_func
 20556              	_ZN14NrfTransceiver11flushRxFifoEv:
 20557              	.LFB1257:
  74:../board/olimex-stm32f103-stk/board/transceiver/nrftransceiver.h **** 	inline void flushRxFifo() { NrfSpi::sendCmd(NrfSpi::FLUSH_RX); }
 20558              		.loc 135 74 0
 20559              		.cfi_startproc
 20560              		@ args = 0, pretend = 0, frame = 8
 20561              		@ frame_needed = 1, uses_anonymous_args = 0
 20562 0000 80B5     		push	{r7, lr}
 20563              	.LCFI33:
 20564              		.cfi_def_cfa_offset 8
 20565 0002 82B0     		sub	sp, sp, #8
 20566              	.LCFI34:
 20567              		.cfi_def_cfa_offset 16
 20568 0004 00AF     		add	r7, sp, #0
 20569              		.cfi_offset 14, -4
 20570              		.cfi_offset 7, -8
 20571              	.LCFI35:
 20572              		.cfi_def_cfa_register 7
 20573 0006 7860     		str	r0, [r7, #4]
 20574              		.loc 135 74 0
 20575 0008 7B68     		ldr	r3, [r7, #4]
 20576 000a 03F10403 		add	r3, r3, #4
 20577 000e 1846     		mov	r0, r3
 20578 0010 4FF0E201 		mov	r1, #226
 20579 0014 FFF7FEFF 		bl	_ZN6NrfSpi7sendCmdENS_10eNrfSpiCmdE
 20580 0018 07F10807 		add	r7, r7, #8
 20581 001c BD46     		mov	sp, r7
 20582 001e 80BD     		pop	{r7, pc}
 20583              		.cfi_endproc
 20584              	.LFE1257:
 20586              		.section	.text._ZN14NrfTransceiver8observerEv,"axG",%progbits,_ZN14NrfTransceiver8observerEv,comda
 20587              		.align	2
 20588              		.weak	_ZN14NrfTransceiver8observerEv
 20589              		.thumb
 20590              		.thumb_func
 20592              	_ZN14NrfTransceiver8observerEv:
 20593              	.LFB1258:
  75:../board/olimex-stm32f103-stk/board/transceiver/nrftransceiver.h **** 
  76:../board/olimex-stm32f103-stk/board/transceiver/nrftransceiver.h **** 	inline IPhyObserver & observer() { return *_pObserver; }
 20594              		.loc 135 76 0
 20595              		.cfi_startproc
 20596              		@ args = 0, pretend = 0, frame = 8
 20597              		@ frame_needed = 1, uses_anonymous_args = 0
 20598              		@ link register save eliminated.
 20599 0000 80B4     		push	{r7}
 20600              	.LCFI36:
 20601              		.cfi_def_cfa_offset 4
 20602 0002 83B0     		sub	sp, sp, #12
 20603              	.LCFI37:
 20604              		.cfi_def_cfa_offset 16
 20605 0004 00AF     		add	r7, sp, #0
 20606              		.cfi_offset 7, -4
 20607              	.LCFI38:
 20608              		.cfi_def_cfa_register 7
 20609 0006 7860     		str	r0, [r7, #4]
 20610              		.loc 135 76 0
 20611 0008 7B68     		ldr	r3, [r7, #4]
 20612 000a 1B6B     		ldr	r3, [r3, #48]
 20613 000c 1846     		mov	r0, r3
 20614 000e 07F10C07 		add	r7, r7, #12
 20615 0012 BD46     		mov	sp, r7
 20616 0014 80BC     		pop	{r7}
 20617 0016 7047     		bx	lr
 20618              		.cfi_endproc
 20619              	.LFE1258:
 20621              		.global	gFilterAddress01
 20622              		.section	.bss.gFilterAddress01,"aw",%nobits
 20623              		.align	2
 20626              	gFilterAddress01:
 20627 0000 00000000 		.space	8
 20627      00000000 
 20628              		.global	gFilterAddress02
 20629              		.section	.bss.gFilterAddress02,"aw",%nobits
 20630              		.align	2
 20633              	gFilterAddress02:
 20634 0000 00000000 		.space	8
 20634      00000000 
 20635              		.global	gDestinationAddress
 20636              		.section	.bss.gDestinationAddress,"aw",%nobits
 20637              		.align	2
 20640              	gDestinationAddress:
 20641 0000 00000000 		.space	8
 20641      00000000 
 20642              		.section	.text._ZN14NrfTransceiverC2Ev,"ax",%progbits
 20643              		.align	2
 20644              		.global	_ZN14NrfTransceiverC2Ev
 20645              		.thumb
 20646              		.thumb_func
 20648              	_ZN14NrfTransceiverC2Ev:
 20649              	.LFB1260:
   1:../board/olimex-stm32f103-stk/board/transceiver/nrftransceiver.cpp **** #include <target.h>
   2:../board/olimex-stm32f103-stk/board/transceiver/nrftransceiver.cpp **** #include <critical.h>
   3:../board/olimex-stm32f103-stk/board/transceiver/nrftransceiver.cpp **** #include <IPhyObserver>
   4:../board/olimex-stm32f103-stk/board/transceiver/nrftransceiver.cpp **** #include <phy/Frame>
   5:../board/olimex-stm32f103-stk/board/transceiver/nrftransceiver.cpp **** #include <trace/trace.h>
   6:../board/olimex-stm32f103-stk/board/transceiver/nrftransceiver.cpp **** #include <inc/factory.h>
   7:../board/olimex-stm32f103-stk/board/transceiver/nrftransceiver.cpp **** #if (NRFTRANSCEIVER_TRACE_VERBOSE != 0)
   8:../board/olimex-stm32f103-stk/board/transceiver/nrftransceiver.cpp **** 	#include <stdarg.h>
   9:../board/olimex-stm32f103-stk/board/transceiver/nrftransceiver.cpp **** 	#include <stdio.h>
  10:../board/olimex-stm32f103-stk/board/transceiver/nrftransceiver.cpp **** #endif
  11:../board/olimex-stm32f103-stk/board/transceiver/nrftransceiver.cpp **** #include "nrftransceiver.h"
  12:../board/olimex-stm32f103-stk/board/transceiver/nrftransceiver.cpp **** #include <xf/xfstaticevent.h>
  13:../board/olimex-stm32f103-stk/board/transceiver/nrftransceiver.cpp **** 
  14:../board/olimex-stm32f103-stk/board/transceiver/nrftransceiver.cpp **** 
  15:../board/olimex-stm32f103-stk/board/transceiver/nrftransceiver.cpp **** const unsigned char RX_ADDRESS_P0[4]  = {5,6,7,8};
  16:../board/olimex-stm32f103-stk/board/transceiver/nrftransceiver.cpp **** const unsigned char RX_ADDRESS_P1[4]  = {0,1,2,3};
  17:../board/olimex-stm32f103-stk/board/transceiver/nrftransceiver.cpp **** const unsigned char TX_ADDRESS[4]     = {5,6,7,8};
  18:../board/olimex-stm32f103-stk/board/transceiver/nrftransceiver.cpp **** 
  19:../board/olimex-stm32f103-stk/board/transceiver/nrftransceiver.cpp **** NrfTransceiver::tAddress gFilterAddress01(RX_ADDRESS_P0);
  20:../board/olimex-stm32f103-stk/board/transceiver/nrftransceiver.cpp **** NrfTransceiver::tAddress gFilterAddress02(RX_ADDRESS_P1);
  21:../board/olimex-stm32f103-stk/board/transceiver/nrftransceiver.cpp **** NrfTransceiver::tAddress gDestinationAddress(TX_ADDRESS);
  22:../board/olimex-stm32f103-stk/board/transceiver/nrftransceiver.cpp **** 
  23:../board/olimex-stm32f103-stk/board/transceiver/nrftransceiver.cpp **** 
  24:../board/olimex-stm32f103-stk/board/transceiver/nrftransceiver.cpp **** NrfTransceiver::NrfTransceiver()
 20650              		.loc 1 24 0
 20651              		.cfi_startproc
 20652              		@ args = 0, pretend = 0, frame = 8
 20653              		@ frame_needed = 1, uses_anonymous_args = 0
 20654 0000 90B5     		push	{r4, r7, lr}
 20655              	.LCFI39:
 20656              		.cfi_def_cfa_offset 12
 20657 0002 83B0     		sub	sp, sp, #12
 20658              	.LCFI40:
 20659              		.cfi_def_cfa_offset 24
 20660 0004 00AF     		add	r7, sp, #0
 20661              		.cfi_offset 14, -4
 20662              		.cfi_offset 7, -8
 20663              		.cfi_offset 4, -12
 20664              	.LCFI41:
 20665              		.cfi_def_cfa_register 7
 20666 0006 7860     		str	r0, [r7, #4]
 20667              	.LBB5:
  25:../board/olimex-stm32f103-stk/board/transceiver/nrftransceiver.cpp ****  : NrfSpi(Factory::instance().sharedSpi()),
  26:../board/olimex-stm32f103-stk/board/transceiver/nrftransceiver.cpp ****    _bInitialized(false),
  27:../board/olimex-stm32f103-stk/board/transceiver/nrftransceiver.cpp ****    _channel(2),			// Reset value given by register reset value (RF_CH register)
  28:../board/olimex-stm32f103-stk/board/transceiver/nrftransceiver.cpp ****    _pObserver(NULL),
  29:../board/olimex-stm32f103-stk/board/transceiver/nrftransceiver.cpp ****    _bEnabled(false),
  30:../board/olimex-stm32f103-stk/board/transceiver/nrftransceiver.cpp ****    _autoAck(true)		// Per default enabled by the NrfTransceiver hardware
 20668              		.loc 1 30 0
 20669 0008 7B68     		ldr	r3, [r7, #4]
 20670 000a 1846     		mov	r0, r3
 20671 000c FFF7FEFF 		bl	_ZN15IPhyTransceiverC2Ev
 20672 0010 7B68     		ldr	r3, [r7, #4]
 20673 0012 03F10404 		add	r4, r3, #4
  25:../board/olimex-stm32f103-stk/board/transceiver/nrftransceiver.cpp ****  : NrfSpi(Factory::instance().sharedSpi()),
 20674              		.loc 1 25 0
 20675 0016 FFF7FEFF 		bl	_ZN7Factory8instanceEv
 20676 001a 0346     		mov	r3, r0
 20677 001c 1846     		mov	r0, r3
 20678 001e FFF7FEFF 		bl	_ZN7Factory9sharedSpiEv
 20679 0022 0346     		mov	r3, r0
 20680              		.loc 1 30 0
 20681 0024 2046     		mov	r0, r4
 20682 0026 1946     		mov	r1, r3
 20683 0028 FFF7FEFF 		bl	_ZN6NrfSpiC2ER19DisplayNrfSharedSpi
 20684 002c 7B68     		ldr	r3, [r7, #4]
 20685 002e 03F11403 		add	r3, r3, #20
 20686 0032 1846     		mov	r0, r3
 20687 0034 4FF00001 		mov	r1, #0
 20688 0038 FFF7FEFF 		bl	_ZN10XFReactiveC2EP8XFThread
 20689 003c 7B68     		ldr	r3, [r7, #4]
 20690 003e 164A     		ldr	r2, .L26
 20691 0040 1A60     		str	r2, [r3, #0]
 20692 0042 7B68     		ldr	r3, [r7, #4]
 20693 0044 154A     		ldr	r2, .L26+4
 20694 0046 5A60     		str	r2, [r3, #4]
 20695 0048 7B68     		ldr	r3, [r7, #4]
 20696 004a 154A     		ldr	r2, .L26+8
 20697 004c 5A61     		str	r2, [r3, #20]
 20698 004e 7B68     		ldr	r3, [r7, #4]
 20699 0050 4FF00002 		mov	r2, #0
 20700 0054 83F82020 		strb	r2, [r3, #32]
 20701 0058 7B68     		ldr	r3, [r7, #4]
 20702 005a 03F12403 		add	r3, r3, #36
 20703 005e 1846     		mov	r0, r3
 20704 0060 FFF7FEFF 		bl	_ZN7AddressILj4EEC1Ev
 20705 0064 7B68     		ldr	r3, [r7, #4]
 20706 0066 4FF00202 		mov	r2, #2
 20707 006a 83F82C20 		strb	r2, [r3, #44]
 20708 006e 7B68     		ldr	r3, [r7, #4]
 20709 0070 4FF00002 		mov	r2, #0
 20710 0074 1A63     		str	r2, [r3, #48]
 20711 0076 7B68     		ldr	r3, [r7, #4]
 20712 0078 4FF00002 		mov	r2, #0
 20713 007c 83F83420 		strb	r2, [r3, #52]
 20714 0080 7B68     		ldr	r3, [r7, #4]
 20715 0082 4FF00102 		mov	r2, #1
 20716 0086 83F83520 		strb	r2, [r3, #53]
 20717              	.LBE5:
  31:../board/olimex-stm32f103-stk/board/transceiver/nrftransceiver.cpp **** {
  32:../board/olimex-stm32f103-stk/board/transceiver/nrftransceiver.cpp **** 
  33:../board/olimex-stm32f103-stk/board/transceiver/nrftransceiver.cpp **** }
 20718              		.loc 1 33 0
 20719 008a 7B68     		ldr	r3, [r7, #4]
 20720 008c 1846     		mov	r0, r3
 20721 008e 07F10C07 		add	r7, r7, #12
 20722 0092 BD46     		mov	sp, r7
 20723 0094 90BD     		pop	{r4, r7, pc}
 20724              	.L27:
 20725 0096 00BF     		.align	2
 20726              	.L26:
 20727 0098 08000000 		.word	_ZTV14NrfTransceiver+8
 20728 009c 48000000 		.word	_ZTV14NrfTransceiver+72
 20729 00a0 58000000 		.word	_ZTV14NrfTransceiver+88
 20730              		.cfi_endproc
 20731              	.LFE1260:
 20733              		.global	_ZN14NrfTransceiverC1Ev
 20734              		.thumb_set _ZN14NrfTransceiverC1Ev,_ZN14NrfTransceiverC2Ev
 20735              		.section	.text._ZN14NrfTransceiverD2Ev,"ax",%progbits
 20736              		.align	2
 20737              		.global	_ZN14NrfTransceiverD2Ev
 20738              		.thumb
 20739              		.thumb_func
 20741              	_ZN14NrfTransceiverD2Ev:
 20742              	.LFB1263:
  34:../board/olimex-stm32f103-stk/board/transceiver/nrftransceiver.cpp **** 
  35:../board/olimex-stm32f103-stk/board/transceiver/nrftransceiver.cpp **** NrfTransceiver::~NrfTransceiver()
 20743              		.loc 1 35 0
 20744              		.cfi_startproc
 20745              		@ args = 0, pretend = 0, frame = 8
 20746              		@ frame_needed = 1, uses_anonymous_args = 0
 20747 0000 80B5     		push	{r7, lr}
 20748              	.LCFI42:
 20749              		.cfi_def_cfa_offset 8
 20750 0002 82B0     		sub	sp, sp, #8
 20751              	.LCFI43:
 20752              		.cfi_def_cfa_offset 16
 20753 0004 00AF     		add	r7, sp, #0
 20754              		.cfi_offset 14, -4
 20755              		.cfi_offset 7, -8
 20756              	.LCFI44:
 20757              		.cfi_def_cfa_register 7
 20758 0006 7860     		str	r0, [r7, #4]
 20759              	.LBB6:
 20760              		.loc 1 35 0
 20761 0008 7B68     		ldr	r3, [r7, #4]
 20762 000a 174A     		ldr	r2, .L31
 20763 000c 1A60     		str	r2, [r3, #0]
 20764 000e 7B68     		ldr	r3, [r7, #4]
 20765 0010 164A     		ldr	r2, .L31+4
 20766 0012 5A60     		str	r2, [r3, #4]
 20767 0014 7B68     		ldr	r3, [r7, #4]
 20768 0016 164A     		ldr	r2, .L31+8
 20769 0018 5A61     		str	r2, [r3, #20]
 20770 001a 7B68     		ldr	r3, [r7, #4]
 20771 001c 03F12403 		add	r3, r3, #36
  36:../board/olimex-stm32f103-stk/board/transceiver/nrftransceiver.cpp **** {
  37:../board/olimex-stm32f103-stk/board/transceiver/nrftransceiver.cpp **** 
  38:../board/olimex-stm32f103-stk/board/transceiver/nrftransceiver.cpp **** }
 20772              		.loc 1 38 0
 20773 0020 1846     		mov	r0, r3
 20774 0022 FFF7FEFF 		bl	_ZN7AddressILj4EED1Ev
  35:../board/olimex-stm32f103-stk/board/transceiver/nrftransceiver.cpp **** NrfTransceiver::~NrfTransceiver()
 20775              		.loc 1 35 0
 20776 0026 7B68     		ldr	r3, [r7, #4]
 20777 0028 03F11403 		add	r3, r3, #20
 20778              		.loc 1 38 0
 20779 002c 1846     		mov	r0, r3
 20780 002e FFF7FEFF 		bl	_ZN10XFReactiveD2Ev
  35:../board/olimex-stm32f103-stk/board/transceiver/nrftransceiver.cpp **** NrfTransceiver::~NrfTransceiver()
 20781              		.loc 1 35 0
 20782 0032 7B68     		ldr	r3, [r7, #4]
 20783 0034 03F10403 		add	r3, r3, #4
 20784              		.loc 1 38 0
 20785 0038 1846     		mov	r0, r3
 20786 003a FFF7FEFF 		bl	_ZN6NrfSpiD2Ev
  35:../board/olimex-stm32f103-stk/board/transceiver/nrftransceiver.cpp **** NrfTransceiver::~NrfTransceiver()
 20787              		.loc 1 35 0
 20788 003e 7B68     		ldr	r3, [r7, #4]
 20789              		.loc 1 38 0
 20790 0040 1846     		mov	r0, r3
 20791 0042 FFF7FEFF 		bl	_ZN15IPhyTransceiverD2Ev
 20792              	.LBE6:
 20793 0046 4FF00003 		mov	r3, #0
 20794 004a 03F00103 		and	r3, r3, #1
 20795 004e DBB2     		uxtb	r3, r3
 20796 0050 002B     		cmp	r3, #0
 20797 0052 02D0     		beq	.L30
 20798              		.loc 1 38 0 is_stmt 0 discriminator 2
 20799 0054 7868     		ldr	r0, [r7, #4]
 20800 0056 FFF7FEFF 		bl	_ZdlPv
 20801              	.L30:
 20802              		.loc 1 38 0 discriminator 3
 20803 005a 7B68     		ldr	r3, [r7, #4]
 20804 005c 1846     		mov	r0, r3
 20805 005e 07F10807 		add	r7, r7, #8
 20806 0062 BD46     		mov	sp, r7
 20807 0064 80BD     		pop	{r7, pc}
 20808              	.L32:
 20809 0066 00BF     		.align	2
 20810              	.L31:
 20811 0068 08000000 		.word	_ZTV14NrfTransceiver+8
 20812 006c 48000000 		.word	_ZTV14NrfTransceiver+72
 20813 0070 58000000 		.word	_ZTV14NrfTransceiver+88
 20814              		.cfi_endproc
 20815              	.LFE1263:
 20817              		.global	_ZN14NrfTransceiverD1Ev
 20818              		.thumb_set _ZN14NrfTransceiverD1Ev,_ZN14NrfTransceiverD2Ev
 20819              		.thumb_set .LTHUNK0,_ZN14NrfTransceiverD1Ev
 20820              		.section	.text._ZThn20_N14NrfTransceiverD1Ev,"ax",%progbits
 20821              		.align	2
 20822              		.global	_ZThn20_N14NrfTransceiverD1Ev
 20823              		.thumb
 20824              		.thumb_func
 20826              	_ZThn20_N14NrfTransceiverD1Ev:
 20827 0000 A0F11400 		sub	r0, r0, #20
 20828 0004 FFF7FEBF 		b	.LTHUNK0
 20830              		.thumb_set .LTHUNK1,_ZN14NrfTransceiverD1Ev
 20831              		.section	.text._ZThn4_N14NrfTransceiverD1Ev,"ax",%progbits
 20832              		.align	2
 20833              		.global	_ZThn4_N14NrfTransceiverD1Ev
 20834              		.thumb
 20835              		.thumb_func
 20837              	_ZThn4_N14NrfTransceiverD1Ev:
 20838 0000 A0F10400 		sub	r0, r0, #4
 20839 0004 FFF7FEBF 		b	.LTHUNK1
 20841              		.section	.text._ZN14NrfTransceiverD0Ev,"ax",%progbits
 20842              		.align	2
 20843              		.global	_ZN14NrfTransceiverD0Ev
 20844              		.thumb
 20845              		.thumb_func
 20847              	_ZN14NrfTransceiverD0Ev:
 20848              	.LFB1265:
  35:../board/olimex-stm32f103-stk/board/transceiver/nrftransceiver.cpp **** NrfTransceiver::~NrfTransceiver()
 20849              		.loc 1 35 0 is_stmt 1
 20850              		.cfi_startproc
 20851              		@ args = 0, pretend = 0, frame = 8
 20852              		@ frame_needed = 1, uses_anonymous_args = 0
 20853 0000 80B5     		push	{r7, lr}
 20854              	.LCFI45:
 20855              		.cfi_def_cfa_offset 8
 20856 0002 82B0     		sub	sp, sp, #8
 20857              	.LCFI46:
 20858              		.cfi_def_cfa_offset 16
 20859 0004 00AF     		add	r7, sp, #0
 20860              		.cfi_offset 14, -4
 20861              		.cfi_offset 7, -8
 20862              	.LCFI47:
 20863              		.cfi_def_cfa_register 7
 20864 0006 7860     		str	r0, [r7, #4]
 20865              		.loc 1 38 0
 20866 0008 7868     		ldr	r0, [r7, #4]
 20867 000a FFF7FEFF 		bl	_ZN14NrfTransceiverD1Ev
 20868 000e 7868     		ldr	r0, [r7, #4]
 20869 0010 FFF7FEFF 		bl	_ZdlPv
 20870 0014 7B68     		ldr	r3, [r7, #4]
 20871 0016 1846     		mov	r0, r3
 20872 0018 07F10807 		add	r7, r7, #8
 20873 001c BD46     		mov	sp, r7
 20874 001e 80BD     		pop	{r7, pc}
 20875              		.cfi_endproc
 20876              	.LFE1265:
 20878              		.thumb_set .LTHUNK2,_ZN14NrfTransceiverD0Ev
 20879              		.section	.text._ZThn20_N14NrfTransceiverD0Ev,"ax",%progbits
 20880              		.align	2
 20881              		.global	_ZThn20_N14NrfTransceiverD0Ev
 20882              		.thumb
 20883              		.thumb_func
 20885              	_ZThn20_N14NrfTransceiverD0Ev:
 20886 0000 A0F11400 		sub	r0, r0, #20
 20887 0004 FFF7FEBF 		b	.LTHUNK2
 20889              		.thumb_set .LTHUNK3,_ZN14NrfTransceiverD0Ev
 20890              		.section	.text._ZThn4_N14NrfTransceiverD0Ev,"ax",%progbits
 20891              		.align	2
 20892              		.global	_ZThn4_N14NrfTransceiverD0Ev
 20893              		.thumb
 20894              		.thumb_func
 20896              	_ZThn4_N14NrfTransceiverD0Ev:
 20897 0000 A0F10400 		sub	r0, r0, #4
 20898 0004 FFF7FEBF 		b	.LTHUNK3
 20900              		.section	.rodata
 20901              		.align	2
 20902              	.LC0:
 20903 0000 2E2E2F62 		.ascii	"../board/olimex-stm32f103-stk/board/transceiver/nrf"
 20903      6F617264 
 20903      2F6F6C69 
 20903      6D65782D 
 20903      73746D33 
 20904 0033 7472616E 		.ascii	"transceiver.cpp\000"
 20904      73636569 
 20904      7665722E 
 20904      63707000 
 20905 0043 00       		.align	2
 20906              	.LC1:
 20907 0044 2873697A 		.ascii	"(size_t)(NrfSpi::readRegister(NrfSpi::SETUP_AW) + 2"
 20907      655F7429 
 20907      284E7266 
 20907      5370693A 
 20907      3A726561 
 20908 0077 29203D3D 		.ascii	") == tAddress::addressSize()\000"
 20908      20744164 
 20908      64726573 
 20908      733A3A61 
 20908      64647265 
 20909              		.align	2
 20910              	.LC2:
 20911 0094 284E7266 		.ascii	"(NrfSpi::readRegister(NrfSpi::FEATURE) & NrfSpi::FE"
 20911      5370693A 
 20911      3A726561 
 20911      64526567 
 20911      69737465 
 20912 00c7 41545552 		.ascii	"ATURE_REG_EN_DPL) == FEATURE_REG_EN_DPL\000"
 20912      455F5245 
 20912      475F454E 
 20912      5F44504C 
 20912      29203D3D 
 20913              		.section	.text._ZN14NrfTransceiver10initializeEv,"ax",%progbits
 20914              		.align	2
 20915              		.global	_ZN14NrfTransceiver10initializeEv
 20916              		.thumb
 20917              		.thumb_func
 20919              	_ZN14NrfTransceiver10initializeEv:
 20920              	.LFB1266:
  39:../board/olimex-stm32f103-stk/board/transceiver/nrftransceiver.cpp **** 
  40:../board/olimex-stm32f103-stk/board/transceiver/nrftransceiver.cpp **** bool NrfTransceiver::initialize()
  41:../board/olimex-stm32f103-stk/board/transceiver/nrftransceiver.cpp **** {
 20921              		.loc 1 41 0
 20922              		.cfi_startproc
 20923              		@ args = 0, pretend = 0, frame = 16
 20924              		@ frame_needed = 1, uses_anonymous_args = 0
 20925 0000 90B5     		push	{r4, r7, lr}
 20926              	.LCFI48:
 20927              		.cfi_def_cfa_offset 12
 20928 0002 85B0     		sub	sp, sp, #20
 20929              	.LCFI49:
 20930              		.cfi_def_cfa_offset 32
 20931 0004 00AF     		add	r7, sp, #0
 20932              		.cfi_offset 14, -4
 20933              		.cfi_offset 7, -8
 20934              		.cfi_offset 4, -12
 20935              	.LCFI50:
 20936              		.cfi_def_cfa_register 7
 20937 0006 7860     		str	r0, [r7, #4]
 20938              	.LBB7:
 20939              	.LBB8:
  42:../board/olimex-stm32f103-stk/board/transceiver/nrftransceiver.cpp **** 	if (!_bInitialized)
 20940              		.loc 1 42 0
 20941 0008 7B68     		ldr	r3, [r7, #4]
 20942 000a 93F82030 		ldrb	r3, [r3, #32]	@ zero_extendqisi2
 20943 000e 83F00103 		eor	r3, r3, #1
 20944 0012 DBB2     		uxtb	r3, r3
 20945 0014 002B     		cmp	r3, #0
 20946 0016 00F0BB80 		beq	.L36
 20947              	.LBB9:
  43:../board/olimex-stm32f103-stk/board/transceiver/nrftransceiver.cpp **** 	{
  44:../board/olimex-stm32f103-stk/board/transceiver/nrftransceiver.cpp **** 		unsigned char status;
  45:../board/olimex-stm32f103-stk/board/transceiver/nrftransceiver.cpp **** 		GPIO_InitTypeDef gpioInitStructure;
  46:../board/olimex-stm32f103-stk/board/transceiver/nrftransceiver.cpp **** 
  47:../board/olimex-stm32f103-stk/board/transceiver/nrftransceiver.cpp **** 		_bInitialized = true;
 20948              		.loc 1 47 0
 20949 001a 7B68     		ldr	r3, [r7, #4]
 20950 001c 4FF00102 		mov	r2, #1
 20951 0020 83F82020 		strb	r2, [r3, #32]
  48:../board/olimex-stm32f103-stk/board/transceiver/nrftransceiver.cpp **** 
  49:../board/olimex-stm32f103-stk/board/transceiver/nrftransceiver.cpp **** 		RCC_APB2PeriphClockCmd(RCC_APB2Periph_GPIOC, ENABLE);
 20952              		.loc 1 49 0
 20953 0024 4FF01000 		mov	r0, #16
 20954 0028 4FF00101 		mov	r1, #1
 20955 002c FFF7FEFF 		bl	RCC_APB2PeriphClockCmd
  50:../board/olimex-stm32f103-stk/board/transceiver/nrftransceiver.cpp **** 
  51:../board/olimex-stm32f103-stk/board/transceiver/nrftransceiver.cpp **** 		// Chip enable (NRF_CE)
  52:../board/olimex-stm32f103-stk/board/transceiver/nrftransceiver.cpp **** 		gpioInitStructure.GPIO_Pin = GPIO_Pin_8;
 20956              		.loc 1 52 0
 20957 0030 4FF48073 		mov	r3, #256
 20958 0034 3B81     		strh	r3, [r7, #8]	@ movhi
  53:../board/olimex-stm32f103-stk/board/transceiver/nrftransceiver.cpp **** 		gpioInitStructure.GPIO_Speed = GPIO_Speed_50MHz;
 20959              		.loc 1 53 0
 20960 0036 4FF00303 		mov	r3, #3
 20961 003a BB72     		strb	r3, [r7, #10]
  54:../board/olimex-stm32f103-stk/board/transceiver/nrftransceiver.cpp **** 		gpioInitStructure.GPIO_Mode = GPIO_Mode_Out_PP;
 20962              		.loc 1 54 0
 20963 003c 4FF01003 		mov	r3, #16
 20964 0040 FB72     		strb	r3, [r7, #11]
  55:../board/olimex-stm32f103-stk/board/transceiver/nrftransceiver.cpp **** 		GPIO_Init(GPIOC, &gpioInitStructure);
 20965              		.loc 1 55 0
 20966 0042 07F10803 		add	r3, r7, #8
 20967 0046 4FF48050 		mov	r0, #4096
 20968 004a C4F20100 		movt	r0, 16385
 20969 004e 1946     		mov	r1, r3
 20970 0050 FFF7FEFF 		bl	GPIO_Init
  56:../board/olimex-stm32f103-stk/board/transceiver/nrftransceiver.cpp **** 
  57:../board/olimex-stm32f103-stk/board/transceiver/nrftransceiver.cpp **** 		// Initialize SPI used for NrfTransceiver
  58:../board/olimex-stm32f103-stk/board/transceiver/nrftransceiver.cpp **** 		NrfSpi::initialize();
 20971              		.loc 1 58 0
 20972 0054 7B68     		ldr	r3, [r7, #4]
 20973 0056 03F10403 		add	r3, r3, #4
 20974 005a 1846     		mov	r0, r3
 20975 005c FFF7FEFF 		bl	_ZN6NrfSpi10initializeEv
  59:../board/olimex-stm32f103-stk/board/transceiver/nrftransceiver.cpp **** 
  60:../board/olimex-stm32f103-stk/board/transceiver/nrftransceiver.cpp **** 		//
  61:../board/olimex-stm32f103-stk/board/transceiver/nrftransceiver.cpp **** 		// Now the nRF transceiver can be accessed correctly
  62:../board/olimex-stm32f103-stk/board/transceiver/nrftransceiver.cpp **** 		//
  63:../board/olimex-stm32f103-stk/board/transceiver/nrftransceiver.cpp **** 
  64:../board/olimex-stm32f103-stk/board/transceiver/nrftransceiver.cpp **** 		NrfSpi::disableCS();		// Release transceiver
 20976              		.loc 1 64 0
 20977 0060 7B68     		ldr	r3, [r7, #4]
 20978 0062 03F10403 		add	r3, r3, #4
 20979 0066 1846     		mov	r0, r3
 20980 0068 FFF7FEFF 		bl	_ZNK6NrfSpi9disableCSEv
  65:../board/olimex-stm32f103-stk/board/transceiver/nrftransceiver.cpp **** 		NrfSpi::disableCE();		// Discard transmission
 20981              		.loc 1 65 0
 20982 006c 7B68     		ldr	r3, [r7, #4]
 20983 006e 03F10403 		add	r3, r3, #4
 20984 0072 1846     		mov	r0, r3
 20985 0074 FFF7FEFF 		bl	_ZNK6NrfSpi9disableCEEv
  66:../board/olimex-stm32f103-stk/board/transceiver/nrftransceiver.cpp **** 
  67:../board/olimex-stm32f103-stk/board/transceiver/nrftransceiver.cpp **** 		// Reset FIFOs
  68:../board/olimex-stm32f103-stk/board/transceiver/nrftransceiver.cpp **** 		flushTxFifo();
 20986              		.loc 1 68 0
 20987 0078 7868     		ldr	r0, [r7, #4]
 20988 007a FFF7FEFF 		bl	_ZN14NrfTransceiver11flushTxFifoEv
  69:../board/olimex-stm32f103-stk/board/transceiver/nrftransceiver.cpp **** 		flushRxFifo();
 20989              		.loc 1 69 0
 20990 007e 7868     		ldr	r0, [r7, #4]
 20991 0080 FFF7FEFF 		bl	_ZN14NrfTransceiver11flushRxFifoEv
  70:../board/olimex-stm32f103-stk/board/transceiver/nrftransceiver.cpp **** 
  71:../board/olimex-stm32f103-stk/board/transceiver/nrftransceiver.cpp **** 		// Reset NRF IRQ status bits
  72:../board/olimex-stm32f103-stk/board/transceiver/nrftransceiver.cpp **** 		status = NrfSpi::writeRegister(NrfSpi::STATUS, (NrfSpi::STATUS_REG_RX_DR | NrfSpi::STATUS_REG_TX_
 20992              		.loc 1 72 0
 20993 0084 7B68     		ldr	r3, [r7, #4]
 20994 0086 03F10403 		add	r3, r3, #4
 20995 008a 1846     		mov	r0, r3
 20996 008c 4FF00701 		mov	r1, #7
 20997 0090 4FF07002 		mov	r2, #112
 20998 0094 FFF7FEFF 		bl	_ZN6NrfSpi13writeRegisterENS_12eNrfRegisterEh
 20999 0098 0346     		mov	r3, r0
 21000 009a FB73     		strb	r3, [r7, #15]
  73:../board/olimex-stm32f103-stk/board/transceiver/nrftransceiver.cpp **** 
  74:../board/olimex-stm32f103-stk/board/transceiver/nrftransceiver.cpp **** 		// Set address width used
  75:../board/olimex-stm32f103-stk/board/transceiver/nrftransceiver.cpp **** 		setAddressWidth(tAddress::addressSize());
 21001              		.loc 1 75 0
 21002 009c FFF7FEFF 		bl	_ZN7AddressILj4EE11addressSizeEv
 21003 00a0 0346     		mov	r3, r0
 21004 00a2 DBB2     		uxtb	r3, r3
 21005 00a4 7868     		ldr	r0, [r7, #4]
 21006 00a6 1946     		mov	r1, r3
 21007 00a8 FFF7FEFF 		bl	_ZN14NrfTransceiver15setAddressWidthEh
  76:../board/olimex-stm32f103-stk/board/transceiver/nrftransceiver.cpp **** 		assert((size_t)(NrfSpi::readRegister(NrfSpi::SETUP_AW) + 2) == tAddress::addressSize());
 21008              		.loc 1 76 0
 21009 00ac 7B68     		ldr	r3, [r7, #4]
 21010 00ae 03F10403 		add	r3, r3, #4
 21011 00b2 1846     		mov	r0, r3
 21012 00b4 4FF00301 		mov	r1, #3
 21013 00b8 FFF7FEFF 		bl	_ZN6NrfSpi12readRegisterENS_12eNrfRegisterE
 21014 00bc 0346     		mov	r3, r0
 21015 00be 03F10203 		add	r3, r3, #2
 21016 00c2 1C46     		mov	r4, r3
 21017 00c4 FFF7FEFF 		bl	_ZN7AddressILj4EE11addressSizeEv
 21018 00c8 0346     		mov	r3, r0
 21019 00ca 9C42     		cmp	r4, r3
 21020 00cc 0FD0     		beq	.L37
 21021              		.loc 1 76 0 is_stmt 0 discriminator 1
 21022 00ce 40F20000 		movw	r0, #:lower16:.LC0
 21023 00d2 C0F20000 		movt	r0, #:upper16:.LC0
 21024 00d6 4FF04C01 		mov	r1, #76
 21025 00da 40F20002 		movw	r2, #:lower16:_ZZN14NrfTransceiver10initializeEvE19__PRETTY_FUNCTION__
 21026 00de C0F20002 		movt	r2, #:upper16:_ZZN14NrfTransceiver10initializeEvE19__PRETTY_FUNCTION__
 21027 00e2 40F20003 		movw	r3, #:lower16:.LC1
 21028 00e6 C0F20003 		movt	r3, #:upper16:.LC1
 21029 00ea FFF7FEFF 		bl	__assert_func
 21030              	.L37:
  77:../board/olimex-stm32f103-stk/board/transceiver/nrftransceiver.cpp **** 
  78:../board/olimex-stm32f103-stk/board/transceiver/nrftransceiver.cpp **** 		// Write RX_ADDR_P0 register -> Set receive address data Pipe0 -> address in RX_ADDRESS_P0 array
  79:../board/olimex-stm32f103-stk/board/transceiver/nrftransceiver.cpp **** //		setReceptionFilterAddress(gFilterAddress01);
  80:../board/olimex-stm32f103-stk/board/transceiver/nrftransceiver.cpp **** 
  81:../board/olimex-stm32f103-stk/board/transceiver/nrftransceiver.cpp **** 		// Write RX_ADDR_P1 register -> Set receive address data Pipe1 -> address in RX_ADDRESS_P1 array
  82:../board/olimex-stm32f103-stk/board/transceiver/nrftransceiver.cpp **** //		NrfSpi::writeRegister(NrfSpi::RX_ADDR_P1, gFilterAddress02);
  83:../board/olimex-stm32f103-stk/board/transceiver/nrftransceiver.cpp **** 
  84:../board/olimex-stm32f103-stk/board/transceiver/nrftransceiver.cpp **** 		// Write TX_ADDR register -> Transmit address. Used for a PTX device only. Address in TX_ADDRESS 
  85:../board/olimex-stm32f103-stk/board/transceiver/nrftransceiver.cpp **** //		setDestinationAddress(gDestinationAddress);
  86:../board/olimex-stm32f103-stk/board/transceiver/nrftransceiver.cpp **** 
  87:../board/olimex-stm32f103-stk/board/transceiver/nrftransceiver.cpp **** 		activateFeatures(true);
 21031              		.loc 1 87 0 is_stmt 1
 21032 00ee 7868     		ldr	r0, [r7, #4]
 21033 00f0 4FF00101 		mov	r1, #1
 21034 00f4 FFF7FEFF 		bl	_ZN14NrfTransceiver16activateFeaturesEb
  88:../board/olimex-stm32f103-stk/board/transceiver/nrftransceiver.cpp **** 		enableDPL(true, 0x03);		// Enable dynamic payload size
 21035              		.loc 1 88 0
 21036 00f8 7868     		ldr	r0, [r7, #4]
 21037 00fa 4FF00101 		mov	r1, #1
 21038 00fe 4FF00302 		mov	r2, #3
 21039 0102 FFF7FEFF 		bl	_ZN14NrfTransceiver9enableDPLEbh
  89:../board/olimex-stm32f103-stk/board/transceiver/nrftransceiver.cpp **** 		assert((NrfSpi::readRegister(NrfSpi::FEATURE) & NrfSpi::FEATURE_REG_EN_DPL) == FEATURE_REG_EN_DPL
 21040              		.loc 1 89 0
 21041 0106 7B68     		ldr	r3, [r7, #4]
 21042 0108 03F10403 		add	r3, r3, #4
 21043 010c 1846     		mov	r0, r3
 21044 010e 4FF01D01 		mov	r1, #29
 21045 0112 FFF7FEFF 		bl	_ZN6NrfSpi12readRegisterENS_12eNrfRegisterE
 21046 0116 0346     		mov	r3, r0
 21047 0118 03F00403 		and	r3, r3, #4
 21048 011c 002B     		cmp	r3, #0
 21049 011e 0FD1     		bne	.L38
 21050              		.loc 1 89 0 is_stmt 0 discriminator 1
 21051 0120 40F20000 		movw	r0, #:lower16:.LC0
 21052 0124 C0F20000 		movt	r0, #:upper16:.LC0
 21053 0128 4FF05901 		mov	r1, #89
 21054 012c 40F20002 		movw	r2, #:lower16:_ZZN14NrfTransceiver10initializeEvE19__PRETTY_FUNCTION__
 21055 0130 C0F20002 		movt	r2, #:upper16:_ZZN14NrfTransceiver10initializeEvE19__PRETTY_FUNCTION__
 21056 0134 40F20003 		movw	r3, #:lower16:.LC2
 21057 0138 C0F20003 		movt	r3, #:upper16:.LC2
 21058 013c FFF7FEFF 		bl	__assert_func
 21059              	.L38:
  90:../board/olimex-stm32f103-stk/board/transceiver/nrftransceiver.cpp **** 
  91:../board/olimex-stm32f103-stk/board/transceiver/nrftransceiver.cpp **** 		// Basic configuration for CONFIG register: Enable CRC
  92:../board/olimex-stm32f103-stk/board/transceiver/nrftransceiver.cpp **** 		NrfSpi::writeRegister(NrfSpi::CONFIG, NrfSpi::CONFIG_REG_EN_CRC);
 21060              		.loc 1 92 0 is_stmt 1
 21061 0140 7B68     		ldr	r3, [r7, #4]
 21062 0142 03F10403 		add	r3, r3, #4
 21063 0146 1846     		mov	r0, r3
 21064 0148 4FF00001 		mov	r1, #0
 21065 014c 4FF00802 		mov	r2, #8
 21066 0150 FFF7FEFF 		bl	_ZN6NrfSpi13writeRegisterENS_12eNrfRegisterEh
  93:../board/olimex-stm32f103-stk/board/transceiver/nrftransceiver.cpp **** 
  94:../board/olimex-stm32f103-stk/board/transceiver/nrftransceiver.cpp **** 		// Initialize and enable IRQ for the NRF_IRQ line (GPIO RC9)
  95:../board/olimex-stm32f103-stk/board/transceiver/nrftransceiver.cpp **** 		_initNrfTransceiverIrq();
 21067              		.loc 1 95 0
 21068 0154 7868     		ldr	r0, [r7, #4]
 21069 0156 FFF7FEFF 		bl	_ZNK14NrfTransceiver22_initNrfTransceiverIrqEv
  96:../board/olimex-stm32f103-stk/board/transceiver/nrftransceiver.cpp **** 
  97:../board/olimex-stm32f103-stk/board/transceiver/nrftransceiver.cpp **** 		// Set (again) hardware default values of the Nrf chip
  98:../board/olimex-stm32f103-stk/board/transceiver/nrftransceiver.cpp **** 		setRadioChannel(2);
 21070              		.loc 1 98 0
 21071 015a 7B68     		ldr	r3, [r7, #4]
 21072 015c 1B68     		ldr	r3, [r3, #0]
 21073 015e 03F11803 		add	r3, r3, #24
 21074 0162 1B68     		ldr	r3, [r3, #0]
 21075 0164 7868     		ldr	r0, [r7, #4]
 21076 0166 4FF00201 		mov	r1, #2
 21077 016a 9847     		blx	r3
  99:../board/olimex-stm32f103-stk/board/transceiver/nrftransceiver.cpp **** 		setAutoAck(true);
 21078              		.loc 1 99 0
 21079 016c 7B68     		ldr	r3, [r7, #4]
 21080 016e 1B68     		ldr	r3, [r3, #0]
 21081 0170 03F12803 		add	r3, r3, #40
 21082 0174 1B68     		ldr	r3, [r3, #0]
 21083 0176 7868     		ldr	r0, [r7, #4]
 21084 0178 4FF00101 		mov	r1, #1
 21085 017c 9847     		blx	r3
 100:../board/olimex-stm32f103-stk/board/transceiver/nrftransceiver.cpp **** 
 101:../board/olimex-stm32f103-stk/board/transceiver/nrftransceiver.cpp **** 		// Enable transceiver (and enter RX mode)
 102:../board/olimex-stm32f103-stk/board/transceiver/nrftransceiver.cpp **** 		setMode(Active);
 21086              		.loc 1 102 0
 21087 017e 7B68     		ldr	r3, [r7, #4]
 21088 0180 1B68     		ldr	r3, [r3, #0]
 21089 0182 03F11003 		add	r3, r3, #16
 21090 0186 1B68     		ldr	r3, [r3, #0]
 21091 0188 7868     		ldr	r0, [r7, #4]
 21092 018a 4FF00201 		mov	r1, #2
 21093 018e 9847     		blx	r3
 21094              	.L36:
 21095              	.LBE9:
 21096              	.LBE8:
 103:../board/olimex-stm32f103-stk/board/transceiver/nrftransceiver.cpp **** 	}
 104:../board/olimex-stm32f103-stk/board/transceiver/nrftransceiver.cpp **** 
 105:../board/olimex-stm32f103-stk/board/transceiver/nrftransceiver.cpp **** 	return true;
 21097              		.loc 1 105 0
 21098 0190 4FF00103 		mov	r3, #1
 21099              	.LBE7:
 106:../board/olimex-stm32f103-stk/board/transceiver/nrftransceiver.cpp **** }
 21100              		.loc 1 106 0
 21101 0194 1846     		mov	r0, r3
 21102 0196 07F11407 		add	r7, r7, #20
 21103 019a BD46     		mov	sp, r7
 21104 019c 90BD     		pop	{r4, r7, pc}
 21105              		.cfi_endproc
 21106              	.LFE1266:
 21108 019e 00BF     		.section	.text._ZNK14NrfTransceiver22_initNrfTransceiverIrqEv,"ax",%progbits
 21109              		.align	2
 21110              		.global	_ZNK14NrfTransceiver22_initNrfTransceiverIrqEv
 21111              		.thumb
 21112              		.thumb_func
 21114              	_ZNK14NrfTransceiver22_initNrfTransceiverIrqEv:
 21115              	.LFB1267:
 107:../board/olimex-stm32f103-stk/board/transceiver/nrftransceiver.cpp **** 
 108:../board/olimex-stm32f103-stk/board/transceiver/nrftransceiver.cpp **** void NrfTransceiver::_initNrfTransceiverIrq() const
 109:../board/olimex-stm32f103-stk/board/transceiver/nrftransceiver.cpp **** {
 21116              		.loc 1 109 0
 21117              		.cfi_startproc
 21118              		@ args = 0, pretend = 0, frame = 24
 21119              		@ frame_needed = 1, uses_anonymous_args = 0
 21120 0000 80B5     		push	{r7, lr}
 21121              	.LCFI51:
 21122              		.cfi_def_cfa_offset 8
 21123 0002 86B0     		sub	sp, sp, #24
 21124              	.LCFI52:
 21125              		.cfi_def_cfa_offset 32
 21126 0004 00AF     		add	r7, sp, #0
 21127              		.cfi_offset 14, -4
 21128              		.cfi_offset 7, -8
 21129              	.LCFI53:
 21130              		.cfi_def_cfa_register 7
 21131 0006 7860     		str	r0, [r7, #4]
 21132              	.LBB10:
 110:../board/olimex-stm32f103-stk/board/transceiver/nrftransceiver.cpp **** 	GPIO_InitTypeDef gpioInitStructure;
 111:../board/olimex-stm32f103-stk/board/transceiver/nrftransceiver.cpp **** 	EXTI_InitTypeDef extiInitStructure;
 112:../board/olimex-stm32f103-stk/board/transceiver/nrftransceiver.cpp **** 	NVIC_InitTypeDef nvicInitStructure;
 113:../board/olimex-stm32f103-stk/board/transceiver/nrftransceiver.cpp **** 
 114:../board/olimex-stm32f103-stk/board/transceiver/nrftransceiver.cpp **** 	// Enable needed clocks
 115:../board/olimex-stm32f103-stk/board/transceiver/nrftransceiver.cpp **** 	RCC_APB2PeriphClockCmd(RCC_APB2Periph_AFIO  | RCC_APB2Periph_GPIOC, ENABLE);
 21133              		.loc 1 115 0
 21134 0008 4FF01100 		mov	r0, #17
 21135 000c 4FF00101 		mov	r1, #1
 21136 0010 FFF7FEFF 		bl	RCC_APB2PeriphClockCmd
 116:../board/olimex-stm32f103-stk/board/transceiver/nrftransceiver.cpp **** 
 117:../board/olimex-stm32f103-stk/board/transceiver/nrftransceiver.cpp ****     // Configure nRF interrupt pin as input floating
 118:../board/olimex-stm32f103-stk/board/transceiver/nrftransceiver.cpp **** 	gpioInitStructure.GPIO_Mode = GPIO_Mode_IN_FLOATING;
 21137              		.loc 1 118 0
 21138 0014 4FF00403 		mov	r3, #4
 21139 0018 FB75     		strb	r3, [r7, #23]
 119:../board/olimex-stm32f103-stk/board/transceiver/nrftransceiver.cpp **** 	gpioInitStructure.GPIO_Pin = GPIO_Pin_9;
 21140              		.loc 1 119 0
 21141 001a 4FF40073 		mov	r3, #512
 21142 001e BB82     		strh	r3, [r7, #20]	@ movhi
 120:../board/olimex-stm32f103-stk/board/transceiver/nrftransceiver.cpp **** 	GPIO_Init(GPIOC, &gpioInitStructure);
 21143              		.loc 1 120 0
 21144 0020 07F11403 		add	r3, r7, #20
 21145 0024 4FF48050 		mov	r0, #4096
 21146 0028 C4F20100 		movt	r0, 16385
 21147 002c 1946     		mov	r1, r3
 21148 002e FFF7FEFF 		bl	GPIO_Init
 121:../board/olimex-stm32f103-stk/board/transceiver/nrftransceiver.cpp **** 
 122:../board/olimex-stm32f103-stk/board/transceiver/nrftransceiver.cpp **** 	// Define GPIO to
 123:../board/olimex-stm32f103-stk/board/transceiver/nrftransceiver.cpp **** 	GPIO_EXTILineConfig(GPIO_PortSourceGPIOC, GPIO_PinSource9);
 21149              		.loc 1 123 0
 21150 0032 4FF00200 		mov	r0, #2
 21151 0036 4FF00901 		mov	r1, #9
 21152 003a FFF7FEFF 		bl	GPIO_EXTILineConfig
 124:../board/olimex-stm32f103-stk/board/transceiver/nrftransceiver.cpp **** 
 125:../board/olimex-stm32f103-stk/board/transceiver/nrftransceiver.cpp **** 	// Configure external interrupt for PC9
 126:../board/olimex-stm32f103-stk/board/transceiver/nrftransceiver.cpp **** 	EXTI_ClearITPendingBit(EXTI_Line9);
 21153              		.loc 1 126 0
 21154 003e 4FF40070 		mov	r0, #512
 21155 0042 FFF7FEFF 		bl	EXTI_ClearITPendingBit
 127:../board/olimex-stm32f103-stk/board/transceiver/nrftransceiver.cpp **** 	extiInitStructure.EXTI_Line = EXTI_Line9;
 21156              		.loc 1 127 0
 21157 0046 4FF40073 		mov	r3, #512
 21158 004a FB60     		str	r3, [r7, #12]
 128:../board/olimex-stm32f103-stk/board/transceiver/nrftransceiver.cpp **** 	extiInitStructure.EXTI_Mode = EXTI_Mode_Interrupt;
 21159              		.loc 1 128 0
 21160 004c 4FF00003 		mov	r3, #0
 21161 0050 3B74     		strb	r3, [r7, #16]
 129:../board/olimex-stm32f103-stk/board/transceiver/nrftransceiver.cpp **** 	extiInitStructure.EXTI_Trigger = EXTI_Trigger_Falling;
 21162              		.loc 1 129 0
 21163 0052 4FF00C03 		mov	r3, #12
 21164 0056 7B74     		strb	r3, [r7, #17]
 130:../board/olimex-stm32f103-stk/board/transceiver/nrftransceiver.cpp **** 	extiInitStructure.EXTI_LineCmd = ENABLE;
 21165              		.loc 1 130 0
 21166 0058 4FF00103 		mov	r3, #1
 21167 005c BB74     		strb	r3, [r7, #18]
 131:../board/olimex-stm32f103-stk/board/transceiver/nrftransceiver.cpp **** 	EXTI_Init(&extiInitStructure);
 21168              		.loc 1 131 0
 21169 005e 07F10C03 		add	r3, r7, #12
 21170 0062 1846     		mov	r0, r3
 21171 0064 FFF7FEFF 		bl	EXTI_Init
 132:../board/olimex-stm32f103-stk/board/transceiver/nrftransceiver.cpp **** 
 133:../board/olimex-stm32f103-stk/board/transceiver/nrftransceiver.cpp **** 	// Enable EXTI interrupt for PC9
 134:../board/olimex-stm32f103-stk/board/transceiver/nrftransceiver.cpp **** 	nvicInitStructure.NVIC_IRQChannel = EXTI9_5_IRQn;
 21172              		.loc 1 134 0
 21173 0068 4FF01703 		mov	r3, #23
 21174 006c 3B72     		strb	r3, [r7, #8]
 135:../board/olimex-stm32f103-stk/board/transceiver/nrftransceiver.cpp **** 	nvicInitStructure.NVIC_IRQChannelPreemptionPriority = 0x03;
 21175              		.loc 1 135 0
 21176 006e 4FF00303 		mov	r3, #3
 21177 0072 7B72     		strb	r3, [r7, #9]
 136:../board/olimex-stm32f103-stk/board/transceiver/nrftransceiver.cpp **** 	nvicInitStructure.NVIC_IRQChannelSubPriority = 0x00;
 21178              		.loc 1 136 0
 21179 0074 4FF00003 		mov	r3, #0
 21180 0078 BB72     		strb	r3, [r7, #10]
 137:../board/olimex-stm32f103-stk/board/transceiver/nrftransceiver.cpp **** 	nvicInitStructure.NVIC_IRQChannelCmd = ENABLE;
 21181              		.loc 1 137 0
 21182 007a 4FF00103 		mov	r3, #1
 21183 007e FB72     		strb	r3, [r7, #11]
 138:../board/olimex-stm32f103-stk/board/transceiver/nrftransceiver.cpp **** 	NVIC_Init(&nvicInitStructure);
 21184              		.loc 1 138 0
 21185 0080 07F10803 		add	r3, r7, #8
 21186 0084 1846     		mov	r0, r3
 21187 0086 FFF7FEFF 		bl	NVIC_Init
 21188              	.LBE10:
 139:../board/olimex-stm32f103-stk/board/transceiver/nrftransceiver.cpp **** }
 21189              		.loc 1 139 0
 21190 008a 07F11807 		add	r7, r7, #24
 21191 008e BD46     		mov	sp, r7
 21192 0090 80BD     		pop	{r7, pc}
 21193              		.cfi_endproc
 21194              	.LFE1267:
 21196 0092 00BF     		.section	.bss._ZGVZN14NrfTransceiver5onIrqEvE8irqEvent,"aw",%nobits
 21197              		.align	2
 21200              	_ZGVZN14NrfTransceiver5onIrqEvE8irqEvent:
 21201 0000 00000000 		.space	4
 21202              		.section	.text._ZN14NrfTransceiver5onIrqEv,"ax",%progbits
 21203              		.align	2
 21204              		.global	_ZN14NrfTransceiver5onIrqEv
 21205              		.thumb
 21206              		.thumb_func
 21208              	_ZN14NrfTransceiver5onIrqEv:
 21209              	.LFB1268:
 140:../board/olimex-stm32f103-stk/board/transceiver/nrftransceiver.cpp **** 
 141:../board/olimex-stm32f103-stk/board/transceiver/nrftransceiver.cpp **** /**
 142:../board/olimex-stm32f103-stk/board/transceiver/nrftransceiver.cpp ****  * Called out of the interrupt service routine. Is called when
 143:../board/olimex-stm32f103-stk/board/transceiver/nrftransceiver.cpp ****  * nRF24L01 chip is lowering the NRF_IRQ line.
 144:../board/olimex-stm32f103-stk/board/transceiver/nrftransceiver.cpp ****  * The code insight this method is executed in an ISR!
 145:../board/olimex-stm32f103-stk/board/transceiver/nrftransceiver.cpp ****  */
 146:../board/olimex-stm32f103-stk/board/transceiver/nrftransceiver.cpp **** void NrfTransceiver::onIrq()
 147:../board/olimex-stm32f103-stk/board/transceiver/nrftransceiver.cpp **** {
 21210              		.loc 1 147 0
 21211              		.cfi_startproc
 21212              		@ args = 0, pretend = 0, frame = 8
 21213              		@ frame_needed = 1, uses_anonymous_args = 0
 21214 0000 80B5     		push	{r7, lr}
 21215              	.LCFI54:
 21216              		.cfi_def_cfa_offset 8
 21217 0002 82B0     		sub	sp, sp, #8
 21218              	.LCFI55:
 21219              		.cfi_def_cfa_offset 16
 21220 0004 00AF     		add	r7, sp, #0
 21221              		.cfi_offset 14, -4
 21222              		.cfi_offset 7, -8
 21223              	.LCFI56:
 21224              		.cfi_def_cfa_register 7
 21225 0006 7860     		str	r0, [r7, #4]
 21226              	.LBB11:
 148:../board/olimex-stm32f103-stk/board/transceiver/nrftransceiver.cpp **** 	static XFStaticEvent irqEvent( 0 , this );
 21227              		.loc 1 148 0
 21228 0008 40F20003 		movw	r3, #:lower16:_ZGVZN14NrfTransceiver5onIrqEvE8irqEvent
 21229 000c C0F20003 		movt	r3, #:upper16:_ZGVZN14NrfTransceiver5onIrqEvE8irqEvent
 21230 0010 1B68     		ldr	r3, [r3, #0]
 21231 0012 03F00103 		and	r3, r3, #1
 21232 0016 002B     		cmp	r3, #0
 21233 0018 2ED1     		bne	.L41
 21234              		.loc 1 148 0 is_stmt 0 discriminator 1
 21235 001a 40F20000 		movw	r0, #:lower16:_ZGVZN14NrfTransceiver5onIrqEvE8irqEvent
 21236 001e C0F20000 		movt	r0, #:upper16:_ZGVZN14NrfTransceiver5onIrqEvE8irqEvent
 21237 0022 FFF7FEFF 		bl	__cxa_guard_acquire
 21238 0026 0346     		mov	r3, r0
 21239 0028 002B     		cmp	r3, #0
 21240 002a 0CBF     		ite	eq
 21241 002c 0023     		moveq	r3, #0
 21242 002e 0123     		movne	r3, #1
 21243 0030 DBB2     		uxtb	r3, r3
 21244 0032 002B     		cmp	r3, #0
 21245 0034 20D0     		beq	.L41
 21246              		.loc 1 148 0 discriminator 2
 21247 0036 7B68     		ldr	r3, [r7, #4]
 21248 0038 03F11403 		add	r3, r3, #20
 21249 003c 40F20000 		movw	r0, #:lower16:_ZZN14NrfTransceiver5onIrqEvE8irqEvent
 21250 0040 C0F20000 		movt	r0, #:upper16:_ZZN14NrfTransceiver5onIrqEvE8irqEvent
 21251 0044 4FF00001 		mov	r1, #0
 21252 0048 1A46     		mov	r2, r3
 21253 004a FFF7FEFF 		bl	_ZN13XFStaticEventC1EiP11IXFReactive
 21254 004e 40F20000 		movw	r0, #:lower16:_ZGVZN14NrfTransceiver5onIrqEvE8irqEvent
 21255 0052 C0F20000 		movt	r0, #:upper16:_ZGVZN14NrfTransceiver5onIrqEvE8irqEvent
 21256 0056 FFF7FEFF 		bl	__cxa_guard_release
 21257 005a 40F20003 		movw	r3, #:lower16:_ZN13XFStaticEventD1Ev
 21258 005e C0F20003 		movt	r3, #:upper16:_ZN13XFStaticEventD1Ev
 21259 0062 40F20000 		movw	r0, #:lower16:_ZZN14NrfTransceiver5onIrqEvE8irqEvent
 21260 0066 C0F20000 		movt	r0, #:upper16:_ZZN14NrfTransceiver5onIrqEvE8irqEvent
 21261 006a 1946     		mov	r1, r3
 21262 006c 40F20002 		movw	r2, #:lower16:__dso_handle
 21263 0070 C0F20002 		movt	r2, #:upper16:__dso_handle
 21264 0074 FFF7FEFF 		bl	__aeabi_atexit
 21265              	.L41:
 149:../board/olimex-stm32f103-stk/board/transceiver/nrftransceiver.cpp **** 
 150:../board/olimex-stm32f103-stk/board/transceiver/nrftransceiver.cpp **** 	enterISR();
 21266              		.loc 1 150 0 is_stmt 1
 21267 0078 40F20003 		movw	r3, #:lower16:bInISR
 21268 007c C0F20003 		movt	r3, #:upper16:bInISR
 21269 0080 4FF00102 		mov	r2, #1
 21270 0084 1A70     		strb	r2, [r3, #0]
 151:../board/olimex-stm32f103-stk/board/transceiver/nrftransceiver.cpp **** 	pushEvent( &irqEvent );
 21271              		.loc 1 151 0
 21272 0086 7B68     		ldr	r3, [r7, #4]
 21273 0088 5B69     		ldr	r3, [r3, #20]
 21274 008a 03F10C03 		add	r3, r3, #12
 21275 008e 1B68     		ldr	r3, [r3, #0]
 21276 0090 7A68     		ldr	r2, [r7, #4]
 21277 0092 02F11402 		add	r2, r2, #20
 21278 0096 1046     		mov	r0, r2
 21279 0098 40F20001 		movw	r1, #:lower16:_ZZN14NrfTransceiver5onIrqEvE8irqEvent
 21280 009c C0F20001 		movt	r1, #:upper16:_ZZN14NrfTransceiver5onIrqEvE8irqEvent
 21281 00a0 9847     		blx	r3
 152:../board/olimex-stm32f103-stk/board/transceiver/nrftransceiver.cpp **** 	exitISR();
 21282              		.loc 1 152 0
 21283 00a2 40F20003 		movw	r3, #:lower16:bInISR
 21284 00a6 C0F20003 		movt	r3, #:upper16:bInISR
 21285 00aa 4FF00002 		mov	r2, #0
 21286 00ae 1A70     		strb	r2, [r3, #0]
 21287              	.LBE11:
 153:../board/olimex-stm32f103-stk/board/transceiver/nrftransceiver.cpp **** }
 21288              		.loc 1 153 0
 21289 00b0 07F10807 		add	r7, r7, #8
 21290 00b4 BD46     		mov	sp, r7
 21291 00b6 80BD     		pop	{r7, pc}
 21292              		.cfi_endproc
 21293              	.LFE1268:
 21295              		.section	.rodata
 21296 00ef 00       		.align	2
 21297              	.LC3:
 21298 00f0 6972713A 		.ascii	"irq:FLUSH_TX\000"
 21298      464C5553 
 21298      485F5458 
 21298      00
 21299 00fd 000000   		.align	2
 21300              	.LC4:
 21301 0100 4E72663A 		.ascii	"Nrf: RX Frame (size %d): %s\000"
 21301      20525820 
 21301      4672616D 
 21301      65202873 
 21301      697A6520 
 21302              		.align	2
 21303              	.LC5:
 21304 011c 4E726620 		.ascii	"Nrf Irq: Observer not set\000"
 21304      4972713A 
 21304      204F6273 
 21304      65727665 
 21304      72206E6F 
 21305 0136 0000     		.align	2
 21306              	.LC6:
 21307 0138 4E726620 		.ascii	"Nrf Irq: Rxed Frame with zero length!\000"
 21307      4972713A 
 21307      20527865 
 21307      64204672 
 21307      616D6520 
 21308 015e 0000     		.align	2
 21309              	.LC7:
 21310 0160 4E726620 		.ascii	"Nrf Irq: Flushing RX FIFO!\000"
 21310      4972713A 
 21310      20466C75 
 21310      7368696E 
 21310      67205258 
 21311 017b 00       		.align	2
 21312              	.LC8:
 21313 017c 6972713A 		.ascii	"irq::TX_DS\000"
 21313      3A54585F 
 21313      445300
 21314 0187 00       		.align	2
 21315              	.LC9:
 21316 0188 6972713A 		.ascii	"irq:MAX_RT\000"
 21316      4D41585F 
 21316      525400
 21317              		.section	.text._ZN14NrfTransceiver12processEventEv,"ax",%progbits
 21318              		.align	2
 21319              		.global	_ZN14NrfTransceiver12processEventEv
 21320              		.thumb
 21321              		.thumb_func
 21323              	_ZN14NrfTransceiver12processEventEv:
 21324              	.LFB1269:
 154:../board/olimex-stm32f103-stk/board/transceiver/nrftransceiver.cpp **** 
 155:../board/olimex-stm32f103-stk/board/transceiver/nrftransceiver.cpp **** EventStatus NrfTransceiver::processEvent()
 156:../board/olimex-stm32f103-stk/board/transceiver/nrftransceiver.cpp **** {
 21325              		.loc 1 156 0
 21326              		.cfi_startproc
 21327              		@ args = 0, pretend = 0, frame = 32
 21328              		@ frame_needed = 1, uses_anonymous_args = 0
 21329 0000 90B5     		push	{r4, r7, lr}
 21330              	.LCFI57:
 21331              		.cfi_def_cfa_offset 12
 21332 0002 89B0     		sub	sp, sp, #36
 21333              	.LCFI58:
 21334              		.cfi_def_cfa_offset 48
 21335 0004 00AF     		add	r7, sp, #0
 21336              		.cfi_offset 14, -4
 21337              		.cfi_offset 7, -8
 21338              		.cfi_offset 4, -12
 21339              	.LCFI59:
 21340              		.cfi_def_cfa_register 7
 21341 0006 7860     		str	r0, [r7, #4]
 21342              	.LBB12:
 157:../board/olimex-stm32f103-stk/board/transceiver/nrftransceiver.cpp **** 	unsigned char status;
 158:../board/olimex-stm32f103-stk/board/transceiver/nrftransceiver.cpp **** 
 159:../board/olimex-stm32f103-stk/board/transceiver/nrftransceiver.cpp **** 	if (!NrfSpi::isInitialized())
 21343              		.loc 1 159 0
 21344 0008 7B68     		ldr	r3, [r7, #4]
 21345 000a 03F10403 		add	r3, r3, #4
 21346 000e 1846     		mov	r0, r3
 21347 0010 FFF7FEFF 		bl	_ZNK6NrfSpi13isInitializedEv
 21348 0014 0346     		mov	r3, r0
 21349 0016 83F00103 		eor	r3, r3, #1
 21350 001a DBB2     		uxtb	r3, r3
 21351 001c 002B     		cmp	r3, #0
 21352 001e 08D0     		beq	.L43
 160:../board/olimex-stm32f103-stk/board/transceiver/nrftransceiver.cpp **** 	{
 161:../board/olimex-stm32f103-stk/board/transceiver/nrftransceiver.cpp **** 		return EventStatus::NotConsumed;
 21353              		.loc 1 161 0
 21354 0020 07F11003 		add	r3, r7, #16
 21355 0024 1846     		mov	r0, r3
 21356 0026 4FF00201 		mov	r1, #2
 21357 002a FFF7FEFF 		bl	_ZN11EventStatusC1ENS_12eEventStatusE
 21358 002e 3B7C     		ldrb	r3, [r7, #16]
 21359 0030 EFE0     		b	.L44
 21360              	.L43:
 162:../board/olimex-stm32f103-stk/board/transceiver/nrftransceiver.cpp **** 	}
 163:../board/olimex-stm32f103-stk/board/transceiver/nrftransceiver.cpp **** 
 164:../board/olimex-stm32f103-stk/board/transceiver/nrftransceiver.cpp **** 	status = NrfSpi::status();
 21361              		.loc 1 164 0
 21362 0032 7B68     		ldr	r3, [r7, #4]
 21363 0034 03F10403 		add	r3, r3, #4
 21364 0038 1846     		mov	r0, r3
 21365 003a FFF7FEFF 		bl	_ZN6NrfSpi6statusEv
 21366 003e 0346     		mov	r3, r0
 21367 0040 FB77     		strb	r3, [r7, #31]
 165:../board/olimex-stm32f103-stk/board/transceiver/nrftransceiver.cpp **** 
 166:../board/olimex-stm32f103-stk/board/transceiver/nrftransceiver.cpp **** 	if ((status & NrfSpi::STATUS_REG_TX_FULL) == NrfSpi::STATUS_REG_TX_FULL)
 21368              		.loc 1 166 0
 21369 0042 FB7F     		ldrb	r3, [r7, #31]	@ zero_extendqisi2
 21370 0044 03F00103 		and	r3, r3, #1
 21371 0048 DBB2     		uxtb	r3, r3
 21372 004a 002B     		cmp	r3, #0
 21373 004c 08D0     		beq	.L45
 167:../board/olimex-stm32f103-stk/board/transceiver/nrftransceiver.cpp **** 	{
 168:../board/olimex-stm32f103-stk/board/transceiver/nrftransceiver.cpp **** 		// Flush TX fifo
 169:../board/olimex-stm32f103-stk/board/transceiver/nrftransceiver.cpp **** 		flushTxFifo();
 21374              		.loc 1 169 0
 21375 004e 7868     		ldr	r0, [r7, #4]
 21376 0050 FFF7FEFF 		bl	_ZN14NrfTransceiver11flushTxFifoEv
 170:../board/olimex-stm32f103-stk/board/transceiver/nrftransceiver.cpp **** 		traceOut("irq:FLUSH_TX");
 21377              		.loc 1 170 0
 21378 0054 40F20000 		movw	r0, #:lower16:.LC3
 21379 0058 C0F20000 		movt	r0, #:upper16:.LC3
 21380 005c FFF7FEFF 		bl	_ZN14NrfTransceiver8traceOutEPKcz
 21381              	.L45:
 21382              	.LBB13:
 171:../board/olimex-stm32f103-stk/board/transceiver/nrftransceiver.cpp **** 	}
 172:../board/olimex-stm32f103-stk/board/transceiver/nrftransceiver.cpp **** 
 173:../board/olimex-stm32f103-stk/board/transceiver/nrftransceiver.cpp **** 	if ((status & NrfSpi::STATUS_REG_RX_DR) == NrfSpi::STATUS_REG_RX_DR)
 21383              		.loc 1 173 0
 21384 0060 FB7F     		ldrb	r3, [r7, #31]	@ zero_extendqisi2
 21385 0062 03F04003 		and	r3, r3, #64
 21386 0066 002B     		cmp	r3, #0
 21387 0068 76D0     		beq	.L46
 21388              	.LBB14:
 174:../board/olimex-stm32f103-stk/board/transceiver/nrftransceiver.cpp **** 	{
 175:../board/olimex-stm32f103-stk/board/transceiver/nrftransceiver.cpp **** 		unsigned char pipe = NrfSpi::getRXFramePipeNumber();
 21389              		.loc 1 175 0
 21390 006a 7B68     		ldr	r3, [r7, #4]
 21391 006c 03F10403 		add	r3, r3, #4
 21392 0070 1846     		mov	r0, r3
 21393 0072 FFF7FEFF 		bl	_ZN6NrfSpi20getRXFramePipeNumberEv
 21394 0076 0346     		mov	r3, r0
 21395 0078 BB77     		strb	r3, [r7, #30]
 176:../board/olimex-stm32f103-stk/board/transceiver/nrftransceiver.cpp **** 		size_t size = NrfSpi::getRXFramePaylpoadSize(pipe);
 21396              		.loc 1 176 0
 21397 007a 7B68     		ldr	r3, [r7, #4]
 21398 007c 03F10402 		add	r2, r3, #4
 21399 0080 BB7F     		ldrb	r3, [r7, #30]	@ zero_extendqisi2
 21400 0082 1046     		mov	r0, r2
 21401 0084 1946     		mov	r1, r3
 21402 0086 FFF7FEFF 		bl	_ZN6NrfSpi22getRXFramePaylpoadSizeEh
 21403 008a B861     		str	r0, [r7, #24]
 21404              	.LBB15:
 177:../board/olimex-stm32f103-stk/board/transceiver/nrftransceiver.cpp **** 
 178:../board/olimex-stm32f103-stk/board/transceiver/nrftransceiver.cpp **** 		if (size)
 21405              		.loc 1 178 0
 21406 008c BB69     		ldr	r3, [r7, #24]
 21407 008e 002B     		cmp	r3, #0
 21408 0090 44D0     		beq	.L47
 21409              	.LBB16:
 179:../board/olimex-stm32f103-stk/board/transceiver/nrftransceiver.cpp **** 		{
 180:../board/olimex-stm32f103-stk/board/transceiver/nrftransceiver.cpp **** 			Frame frame;
 21410              		.loc 1 180 0
 21411 0092 07F10803 		add	r3, r7, #8
 21412 0096 1846     		mov	r0, r3
 21413 0098 FFF7FEFF 		bl	_ZN5FrameC1Ev
 181:../board/olimex-stm32f103-stk/board/transceiver/nrftransceiver.cpp **** 
 182:../board/olimex-stm32f103-stk/board/transceiver/nrftransceiver.cpp **** 			frame.setPayloadSize(size);
 21414              		.loc 1 182 0
 21415 009c 07F10803 		add	r3, r7, #8
 21416 00a0 1846     		mov	r0, r3
 21417 00a2 B969     		ldr	r1, [r7, #24]
 21418 00a4 FFF7FEFF 		bl	_ZN5Frame14setPayloadSizeEj
 183:../board/olimex-stm32f103-stk/board/transceiver/nrftransceiver.cpp **** 
 184:../board/olimex-stm32f103-stk/board/transceiver/nrftransceiver.cpp **** 			// Read payload data
 185:../board/olimex-stm32f103-stk/board/transceiver/nrftransceiver.cpp **** 			NrfSpi::readFrame(frame);
 21419              		.loc 1 185 0
 21420 00a8 7B68     		ldr	r3, [r7, #4]
 21421 00aa 03F10402 		add	r2, r3, #4
 21422 00ae 07F10803 		add	r3, r7, #8
 21423 00b2 1046     		mov	r0, r2
 21424 00b4 1946     		mov	r1, r3
 21425 00b6 FFF7FEFF 		bl	_ZN6NrfSpi9readFrameER5Frame
 186:../board/olimex-stm32f103-stk/board/transceiver/nrftransceiver.cpp **** 
 187:../board/olimex-stm32f103-stk/board/transceiver/nrftransceiver.cpp **** 			traceOut("Nrf: RX Frame (size %d): %s", frame.payloadSize(), frame.toString());
 21426              		.loc 1 187 0
 21427 00ba 07F10803 		add	r3, r7, #8
 21428 00be 1846     		mov	r0, r3
 21429 00c0 FFF7FEFF 		bl	_ZNK5Frame11payloadSizeEv
 21430 00c4 0446     		mov	r4, r0
 21431 00c6 07F10803 		add	r3, r7, #8
 21432 00ca 1846     		mov	r0, r3
 21433 00cc FFF7FEFF 		bl	_ZNK5Frame8toStringEv
 21434 00d0 0346     		mov	r3, r0
 21435 00d2 40F20000 		movw	r0, #:lower16:.LC4
 21436 00d6 C0F20000 		movt	r0, #:upper16:.LC4
 21437 00da 2146     		mov	r1, r4
 21438 00dc 1A46     		mov	r2, r3
 21439 00de FFF7FEFF 		bl	_ZN14NrfTransceiver8traceOutEPKcz
 188:../board/olimex-stm32f103-stk/board/transceiver/nrftransceiver.cpp **** 
 189:../board/olimex-stm32f103-stk/board/transceiver/nrftransceiver.cpp **** 			if (_pObserver)
 21440              		.loc 1 189 0
 21441 00e2 7B68     		ldr	r3, [r7, #4]
 21442 00e4 1B6B     		ldr	r3, [r3, #48]
 21443 00e6 002B     		cmp	r3, #0
 21444 00e8 0CD0     		beq	.L48
 190:../board/olimex-stm32f103-stk/board/transceiver/nrftransceiver.cpp **** 			{
 191:../board/olimex-stm32f103-stk/board/transceiver/nrftransceiver.cpp **** 				observer().onReceive(frame);
 21445              		.loc 1 191 0
 21446 00ea 7868     		ldr	r0, [r7, #4]
 21447 00ec FFF7FEFF 		bl	_ZN14NrfTransceiver8observerEv
 21448 00f0 0346     		mov	r3, r0
 21449 00f2 1A68     		ldr	r2, [r3, #0]
 21450 00f4 02F10802 		add	r2, r2, #8
 21451 00f8 1268     		ldr	r2, [r2, #0]
 21452 00fa 07F10801 		add	r1, r7, #8
 21453 00fe 1846     		mov	r0, r3
 21454 0100 9047     		blx	r2
 21455 0102 05E0     		b	.L49
 21456              	.L48:
 192:../board/olimex-stm32f103-stk/board/transceiver/nrftransceiver.cpp **** 			}
 193:../board/olimex-stm32f103-stk/board/transceiver/nrftransceiver.cpp **** 			else
 194:../board/olimex-stm32f103-stk/board/transceiver/nrftransceiver.cpp **** 			{
 195:../board/olimex-stm32f103-stk/board/transceiver/nrftransceiver.cpp **** 				traceOut("Nrf Irq: Observer not set");
 21457              		.loc 1 195 0
 21458 0104 40F20000 		movw	r0, #:lower16:.LC5
 21459 0108 C0F20000 		movt	r0, #:upper16:.LC5
 21460 010c FFF7FEFF 		bl	_ZN14NrfTransceiver8traceOutEPKcz
 21461              	.L49:
 180:../board/olimex-stm32f103-stk/board/transceiver/nrftransceiver.cpp **** 			Frame frame;
 21462              		.loc 1 180 0
 21463 0110 07F10803 		add	r3, r7, #8
 196:../board/olimex-stm32f103-stk/board/transceiver/nrftransceiver.cpp **** 			}
 21464              		.loc 1 196 0
 21465 0114 1846     		mov	r0, r3
 21466 0116 FFF7FEFF 		bl	_ZN5FrameD1Ev
 21467 011a 0EE0     		b	.L50
 21468              	.L47:
 21469              	.LBE16:
 197:../board/olimex-stm32f103-stk/board/transceiver/nrftransceiver.cpp **** 		}
 198:../board/olimex-stm32f103-stk/board/transceiver/nrftransceiver.cpp **** 		else
 199:../board/olimex-stm32f103-stk/board/transceiver/nrftransceiver.cpp **** 		{
 200:../board/olimex-stm32f103-stk/board/transceiver/nrftransceiver.cpp **** 			traceOut("Nrf Irq: Rxed Frame with zero length!");
 21470              		.loc 1 200 0
 21471 011c 40F20000 		movw	r0, #:lower16:.LC6
 21472 0120 C0F20000 		movt	r0, #:upper16:.LC6
 21473 0124 FFF7FEFF 		bl	_ZN14NrfTransceiver8traceOutEPKcz
 201:../board/olimex-stm32f103-stk/board/transceiver/nrftransceiver.cpp **** 
 202:../board/olimex-stm32f103-stk/board/transceiver/nrftransceiver.cpp **** 			// Test: Flushing RX FIFO
 203:../board/olimex-stm32f103-stk/board/transceiver/nrftransceiver.cpp **** 			traceOut("Nrf Irq: Flushing RX FIFO!");
 21474              		.loc 1 203 0
 21475 0128 40F20000 		movw	r0, #:lower16:.LC7
 21476 012c C0F20000 		movt	r0, #:upper16:.LC7
 21477 0130 FFF7FEFF 		bl	_ZN14NrfTransceiver8traceOutEPKcz
 204:../board/olimex-stm32f103-stk/board/transceiver/nrftransceiver.cpp **** 			flushRxFifo();
 21478              		.loc 1 204 0
 21479 0134 7868     		ldr	r0, [r7, #4]
 21480 0136 FFF7FEFF 		bl	_ZN14NrfTransceiver11flushRxFifoEv
 21481              	.L50:
 21482              	.LBE15:
 205:../board/olimex-stm32f103-stk/board/transceiver/nrftransceiver.cpp **** 		}
 206:../board/olimex-stm32f103-stk/board/transceiver/nrftransceiver.cpp **** 
 207:../board/olimex-stm32f103-stk/board/transceiver/nrftransceiver.cpp **** 		// Clear RX_DR bit in status register
 208:../board/olimex-stm32f103-stk/board/transceiver/nrftransceiver.cpp **** 		status = NrfSpi::writeRegister(NrfSpi::STATUS, (status | NrfSpi::STATUS_REG_RX_DR));
 21483              		.loc 1 208 0
 21484 013a 7B68     		ldr	r3, [r7, #4]
 21485 013c 03F10402 		add	r2, r3, #4
 21486 0140 FB7F     		ldrb	r3, [r7, #31]
 21487 0142 43F04003 		orr	r3, r3, #64
 21488 0146 DBB2     		uxtb	r3, r3
 21489 0148 1046     		mov	r0, r2
 21490 014a 4FF00701 		mov	r1, #7
 21491 014e 1A46     		mov	r2, r3
 21492 0150 FFF7FEFF 		bl	_ZN6NrfSpi13writeRegisterENS_12eNrfRegisterEh
 21493 0154 0346     		mov	r3, r0
 21494 0156 FB77     		strb	r3, [r7, #31]
 21495              	.L46:
 21496              	.LBE14:
 21497              	.LBE13:
 209:../board/olimex-stm32f103-stk/board/transceiver/nrftransceiver.cpp **** 	}
 210:../board/olimex-stm32f103-stk/board/transceiver/nrftransceiver.cpp **** 
 211:../board/olimex-stm32f103-stk/board/transceiver/nrftransceiver.cpp **** 	if ((status & NrfSpi::STATUS_REG_TX_DS) == NrfSpi::STATUS_REG_TX_DS)
 21498              		.loc 1 211 0
 21499 0158 FB7F     		ldrb	r3, [r7, #31]	@ zero_extendqisi2
 21500 015a 03F02003 		and	r3, r3, #32
 21501 015e 002B     		cmp	r3, #0
 21502 0160 23D0     		beq	.L51
 212:../board/olimex-stm32f103-stk/board/transceiver/nrftransceiver.cpp **** 	{
 213:../board/olimex-stm32f103-stk/board/transceiver/nrftransceiver.cpp **** 		traceOut("irq::TX_DS");
 21503              		.loc 1 213 0
 21504 0162 40F20000 		movw	r0, #:lower16:.LC8
 21505 0166 C0F20000 		movt	r0, #:upper16:.LC8
 21506 016a FFF7FEFF 		bl	_ZN14NrfTransceiver8traceOutEPKcz
 214:../board/olimex-stm32f103-stk/board/transceiver/nrftransceiver.cpp **** 
 215:../board/olimex-stm32f103-stk/board/transceiver/nrftransceiver.cpp **** 		// Clear TX_DS bit in status register
 216:../board/olimex-stm32f103-stk/board/transceiver/nrftransceiver.cpp **** 		status = NrfSpi::writeRegister(NrfSpi::STATUS, (status | NrfSpi::STATUS_REG_TX_DS));
 21507              		.loc 1 216 0
 21508 016e 7B68     		ldr	r3, [r7, #4]
 21509 0170 03F10402 		add	r2, r3, #4
 21510 0174 FB7F     		ldrb	r3, [r7, #31]
 21511 0176 43F02003 		orr	r3, r3, #32
 21512 017a DBB2     		uxtb	r3, r3
 21513 017c 1046     		mov	r0, r2
 21514 017e 4FF00701 		mov	r1, #7
 21515 0182 1A46     		mov	r2, r3
 21516 0184 FFF7FEFF 		bl	_ZN6NrfSpi13writeRegisterENS_12eNrfRegisterEh
 21517 0188 0346     		mov	r3, r0
 21518 018a FB77     		strb	r3, [r7, #31]
 217:../board/olimex-stm32f103-stk/board/transceiver/nrftransceiver.cpp **** 
 218:../board/olimex-stm32f103-stk/board/transceiver/nrftransceiver.cpp **** 		observer().onSendStatus(IPhyObserver::Delivered);
 21519              		.loc 1 218 0
 21520 018c 7868     		ldr	r0, [r7, #4]
 21521 018e FFF7FEFF 		bl	_ZN14NrfTransceiver8observerEv
 21522 0192 0346     		mov	r3, r0
 21523 0194 1A68     		ldr	r2, [r3, #0]
 21524 0196 02F10C02 		add	r2, r2, #12
 21525 019a 1268     		ldr	r2, [r2, #0]
 21526 019c 1846     		mov	r0, r3
 21527 019e 4FF00101 		mov	r1, #1
 21528 01a2 9047     		blx	r2
 219:../board/olimex-stm32f103-stk/board/transceiver/nrftransceiver.cpp **** 
 220:../board/olimex-stm32f103-stk/board/transceiver/nrftransceiver.cpp **** 		// Change from TX to RX mode
 221:../board/olimex-stm32f103-stk/board/transceiver/nrftransceiver.cpp **** 		enterRXMode();
 21529              		.loc 1 221 0
 21530 01a4 7868     		ldr	r0, [r7, #4]
 21531 01a6 FFF7FEFF 		bl	_ZN14NrfTransceiver11enterRXModeEv
 21532              	.L51:
 222:../board/olimex-stm32f103-stk/board/transceiver/nrftransceiver.cpp **** 	}
 223:../board/olimex-stm32f103-stk/board/transceiver/nrftransceiver.cpp **** 
 224:../board/olimex-stm32f103-stk/board/transceiver/nrftransceiver.cpp **** 	if ((status & NrfSpi::STATUS_REG_MAX_RT) == NrfSpi::STATUS_REG_MAX_RT)
 21533              		.loc 1 224 0
 21534 01aa FB7F     		ldrb	r3, [r7, #31]	@ zero_extendqisi2
 21535 01ac 03F01003 		and	r3, r3, #16
 21536 01b0 002B     		cmp	r3, #0
 21537 01b2 26D0     		beq	.L52
 225:../board/olimex-stm32f103-stk/board/transceiver/nrftransceiver.cpp **** 	{
 226:../board/olimex-stm32f103-stk/board/transceiver/nrftransceiver.cpp **** 		traceOut("irq:MAX_RT");
 21538              		.loc 1 226 0
 21539 01b4 40F20000 		movw	r0, #:lower16:.LC9
 21540 01b8 C0F20000 		movt	r0, #:upper16:.LC9
 21541 01bc FFF7FEFF 		bl	_ZN14NrfTransceiver8traceOutEPKcz
 227:../board/olimex-stm32f103-stk/board/transceiver/nrftransceiver.cpp **** 
 228:../board/olimex-stm32f103-stk/board/transceiver/nrftransceiver.cpp **** 		// Discard frame by flushing TX fifo
 229:../board/olimex-stm32f103-stk/board/transceiver/nrftransceiver.cpp **** 		// See nRF24L01 datasheet on page 43, last paragraph
 230:../board/olimex-stm32f103-stk/board/transceiver/nrftransceiver.cpp **** 		flushTxFifo();
 21542              		.loc 1 230 0
 21543 01c0 7868     		ldr	r0, [r7, #4]
 21544 01c2 FFF7FEFF 		bl	_ZN14NrfTransceiver11flushTxFifoEv
 231:../board/olimex-stm32f103-stk/board/transceiver/nrftransceiver.cpp **** 
 232:../board/olimex-stm32f103-stk/board/transceiver/nrftransceiver.cpp **** 		// Clear max RT
 233:../board/olimex-stm32f103-stk/board/transceiver/nrftransceiver.cpp **** 		status = NrfSpi::writeRegister(NrfSpi::STATUS, (status | NrfSpi::STATUS_REG_MAX_RT));
 21545              		.loc 1 233 0
 21546 01c6 7B68     		ldr	r3, [r7, #4]
 21547 01c8 03F10402 		add	r2, r3, #4
 21548 01cc FB7F     		ldrb	r3, [r7, #31]
 21549 01ce 43F01003 		orr	r3, r3, #16
 21550 01d2 DBB2     		uxtb	r3, r3
 21551 01d4 1046     		mov	r0, r2
 21552 01d6 4FF00701 		mov	r1, #7
 21553 01da 1A46     		mov	r2, r3
 21554 01dc FFF7FEFF 		bl	_ZN6NrfSpi13writeRegisterENS_12eNrfRegisterEh
 21555 01e0 0346     		mov	r3, r0
 21556 01e2 FB77     		strb	r3, [r7, #31]
 234:../board/olimex-stm32f103-stk/board/transceiver/nrftransceiver.cpp **** 
 235:../board/olimex-stm32f103-stk/board/transceiver/nrftransceiver.cpp **** 		observer().onSendStatus(IPhyObserver::NotDelivered);
 21557              		.loc 1 235 0
 21558 01e4 7868     		ldr	r0, [r7, #4]
 21559 01e6 FFF7FEFF 		bl	_ZN14NrfTransceiver8observerEv
 21560 01ea 0346     		mov	r3, r0
 21561 01ec 1A68     		ldr	r2, [r3, #0]
 21562 01ee 02F10C02 		add	r2, r2, #12
 21563 01f2 1268     		ldr	r2, [r2, #0]
 21564 01f4 1846     		mov	r0, r3
 21565 01f6 4FF00301 		mov	r1, #3
 21566 01fa 9047     		blx	r2
 236:../board/olimex-stm32f103-stk/board/transceiver/nrftransceiver.cpp **** 
 237:../board/olimex-stm32f103-stk/board/transceiver/nrftransceiver.cpp **** 		// Change from TX to RX mode
 238:../board/olimex-stm32f103-stk/board/transceiver/nrftransceiver.cpp **** 		enterRXMode();
 21567              		.loc 1 238 0
 21568 01fc 7868     		ldr	r0, [r7, #4]
 21569 01fe FFF7FEFF 		bl	_ZN14NrfTransceiver11enterRXModeEv
 21570              	.L52:
 239:../board/olimex-stm32f103-stk/board/transceiver/nrftransceiver.cpp **** 	}
 240:../board/olimex-stm32f103-stk/board/transceiver/nrftransceiver.cpp **** 
 241:../board/olimex-stm32f103-stk/board/transceiver/nrftransceiver.cpp **** 	return EventStatus::Consumed;
 21571              		.loc 1 241 0
 21572 0202 07F11403 		add	r3, r7, #20
 21573 0206 1846     		mov	r0, r3
 21574 0208 4FF00101 		mov	r1, #1
 21575 020c FFF7FEFF 		bl	_ZN11EventStatusC1ENS_12eEventStatusE
 21576 0210 3B7D     		ldrb	r3, [r7, #20]
 21577              	.L44:
 21578              	.LBE12:
 242:../board/olimex-stm32f103-stk/board/transceiver/nrftransceiver.cpp **** }
 21579              		.loc 1 242 0
 21580 0212 1846     		mov	r0, r3
 21581 0214 07F12407 		add	r7, r7, #36
 21582 0218 BD46     		mov	sp, r7
 21583 021a 90BD     		pop	{r4, r7, pc}
 21584              		.cfi_endproc
 21585              	.LFE1269:
 21587              		.thumb_set .LTHUNK4,_ZN14NrfTransceiver12processEventEv
 21588              		.section	.text._ZThn20_N14NrfTransceiver12processEventEv,"ax",%progbits
 21589              		.align	2
 21590              		.global	_ZThn20_N14NrfTransceiver12processEventEv
 21591              		.thumb
 21592              		.thumb_func
 21594              	_ZThn20_N14NrfTransceiver12processEventEv:
 21595 0000 A0F11400 		sub	r0, r0, #20
 21596 0004 FFF7FEBF 		b	.LTHUNK4
 21598              		.section	.text._ZN14NrfTransceiver21setDestinationAddressE7AddressILj4EE,"ax",%progbits
 21599              		.align	2
 21600              		.global	_ZN14NrfTransceiver21setDestinationAddressE7AddressILj4EE
 21601              		.thumb
 21602              		.thumb_func
 21604              	_ZN14NrfTransceiver21setDestinationAddressE7AddressILj4EE:
 21605              	.LFB1270:
 243:../board/olimex-stm32f103-stk/board/transceiver/nrftransceiver.cpp **** 
 244:../board/olimex-stm32f103-stk/board/transceiver/nrftransceiver.cpp **** void NrfTransceiver::setDestinationAddress(tAddress address)
 245:../board/olimex-stm32f103-stk/board/transceiver/nrftransceiver.cpp **** {
 21606              		.loc 1 245 0
 21607              		.cfi_startproc
 21608              		@ args = 0, pretend = 0, frame = 8
 21609              		@ frame_needed = 1, uses_anonymous_args = 0
 21610 0000 80B5     		push	{r7, lr}
 21611              	.LCFI60:
 21612              		.cfi_def_cfa_offset 8
 21613 0002 82B0     		sub	sp, sp, #8
 21614              	.LCFI61:
 21615              		.cfi_def_cfa_offset 16
 21616 0004 00AF     		add	r7, sp, #0
 21617              		.cfi_offset 14, -4
 21618              		.cfi_offset 7, -8
 21619              	.LCFI62:
 21620              		.cfi_def_cfa_register 7
 21621 0006 7860     		str	r0, [r7, #4]
 21622 0008 3960     		str	r1, [r7, #0]
 246:../board/olimex-stm32f103-stk/board/transceiver/nrftransceiver.cpp **** 	NrfSpi::writeRegister(NrfSpi::TX_ADDR, address);
 21623              		.loc 1 246 0
 21624 000a 7B68     		ldr	r3, [r7, #4]
 21625 000c 03F10403 		add	r3, r3, #4
 21626 0010 1846     		mov	r0, r3
 21627 0012 4FF01001 		mov	r1, #16
 21628 0016 3A68     		ldr	r2, [r7, #0]
 21629 0018 FFF7FEFF 		bl	_ZN6NrfSpi13writeRegisterENS_12eNrfRegisterERK7AddressILj4EE
 247:../board/olimex-stm32f103-stk/board/transceiver/nrftransceiver.cpp **** }
 21630              		.loc 1 247 0
 21631 001c 07F10807 		add	r7, r7, #8
 21632 0020 BD46     		mov	sp, r7
 21633 0022 80BD     		pop	{r7, pc}
 21634              		.cfi_endproc
 21635              	.LFE1270:
 21637              		.section	.rodata
 21638 0193 00       		.align	2
 21639              	.LC10:
 21640 0194 77696474 		.ascii	"widthInByte == 3 || widthInByte == 4 || widthInByte"
 21640      68496E42 
 21640      79746520 
 21640      3D3D2033 
 21640      207C7C20 
 21641 01c7 203D3D20 		.ascii	" == 5\000"
 21641      3500
 21642              		.section	.text._ZN14NrfTransceiver15setAddressWidthEh,"ax",%progbits
 21643              		.align	2
 21644              		.global	_ZN14NrfTransceiver15setAddressWidthEh
 21645              		.thumb
 21646              		.thumb_func
 21648              	_ZN14NrfTransceiver15setAddressWidthEh:
 21649              	.LFB1271:
 248:../board/olimex-stm32f103-stk/board/transceiver/nrftransceiver.cpp **** 
 249:../board/olimex-stm32f103-stk/board/transceiver/nrftransceiver.cpp **** void NrfTransceiver::setAddressWidth(unsigned char widthInByte)
 250:../board/olimex-stm32f103-stk/board/transceiver/nrftransceiver.cpp **** {
 21650              		.loc 1 250 0
 21651              		.cfi_startproc
 21652              		@ args = 0, pretend = 0, frame = 8
 21653              		@ frame_needed = 1, uses_anonymous_args = 0
 21654 0000 80B5     		push	{r7, lr}
 21655              	.LCFI63:
 21656              		.cfi_def_cfa_offset 8
 21657 0002 82B0     		sub	sp, sp, #8
 21658              	.LCFI64:
 21659              		.cfi_def_cfa_offset 16
 21660 0004 00AF     		add	r7, sp, #0
 21661              		.cfi_offset 14, -4
 21662              		.cfi_offset 7, -8
 21663              	.LCFI65:
 21664              		.cfi_def_cfa_register 7
 21665 0006 7860     		str	r0, [r7, #4]
 21666 0008 0B46     		mov	r3, r1
 21667 000a FB70     		strb	r3, [r7, #3]
 21668              	.LBB17:
 251:../board/olimex-stm32f103-stk/board/transceiver/nrftransceiver.cpp **** 	assert(widthInByte == 3 || widthInByte == 4 || widthInByte == 5);
 21669              		.loc 1 251 0
 21670 000c FB78     		ldrb	r3, [r7, #3]	@ zero_extendqisi2
 21671 000e 032B     		cmp	r3, #3
 21672 0010 15D0     		beq	.L55
 21673              		.loc 1 251 0 is_stmt 0 discriminator 1
 21674 0012 FB78     		ldrb	r3, [r7, #3]	@ zero_extendqisi2
 21675 0014 042B     		cmp	r3, #4
 21676 0016 12D0     		beq	.L55
 21677              		.loc 1 251 0 discriminator 2
 21678 0018 FB78     		ldrb	r3, [r7, #3]	@ zero_extendqisi2
 21679 001a 052B     		cmp	r3, #5
 21680 001c 0FD0     		beq	.L55
 21681              		.loc 1 251 0 discriminator 3
 21682 001e 40F20000 		movw	r0, #:lower16:.LC0
 21683 0022 C0F20000 		movt	r0, #:upper16:.LC0
 21684 0026 4FF0FB01 		mov	r1, #251
 21685 002a 40F20002 		movw	r2, #:lower16:_ZZN14NrfTransceiver15setAddressWidthEhE19__PRETTY_FUNCTION__
 21686 002e C0F20002 		movt	r2, #:upper16:_ZZN14NrfTransceiver15setAddressWidthEhE19__PRETTY_FUNCTION__
 21687 0032 40F20003 		movw	r3, #:lower16:.LC10
 21688 0036 C0F20003 		movt	r3, #:upper16:.LC10
 21689 003a FFF7FEFF 		bl	__assert_func
 21690              	.L55:
 252:../board/olimex-stm32f103-stk/board/transceiver/nrftransceiver.cpp **** 
 253:../board/olimex-stm32f103-stk/board/transceiver/nrftransceiver.cpp **** 	NrfSpi::writeRegister(NrfSpi::SETUP_AW, widthInByte - 2);
 21691              		.loc 1 253 0 is_stmt 1
 21692 003e 7B68     		ldr	r3, [r7, #4]
 21693 0040 03F10402 		add	r2, r3, #4
 21694 0044 FB78     		ldrb	r3, [r7, #3]
 21695 0046 A3F10203 		sub	r3, r3, #2
 21696 004a DBB2     		uxtb	r3, r3
 21697 004c 1046     		mov	r0, r2
 21698 004e 4FF00301 		mov	r1, #3
 21699 0052 1A46     		mov	r2, r3
 21700 0054 FFF7FEFF 		bl	_ZN6NrfSpi13writeRegisterENS_12eNrfRegisterEh
 21701              	.LBE17:
 254:../board/olimex-stm32f103-stk/board/transceiver/nrftransceiver.cpp **** }
 21702              		.loc 1 254 0
 21703 0058 07F10807 		add	r7, r7, #8
 21704 005c BD46     		mov	sp, r7
 21705 005e 80BD     		pop	{r7, pc}
 21706              		.cfi_endproc
 21707              	.LFE1271:
 21709              		.section	.text._ZN14NrfTransceiver16activateFeaturesEb,"ax",%progbits
 21710              		.align	2
 21711              		.global	_ZN14NrfTransceiver16activateFeaturesEb
 21712              		.thumb
 21713              		.thumb_func
 21715              	_ZN14NrfTransceiver16activateFeaturesEb:
 21716              	.LFB1272:
 255:../board/olimex-stm32f103-stk/board/transceiver/nrftransceiver.cpp **** 
 256:../board/olimex-stm32f103-stk/board/transceiver/nrftransceiver.cpp **** bool NrfTransceiver::activateFeatures(bool enable)
 257:../board/olimex-stm32f103-stk/board/transceiver/nrftransceiver.cpp **** {
 21717              		.loc 1 257 0
 21718              		.cfi_startproc
 21719              		@ args = 0, pretend = 0, frame = 8
 21720              		@ frame_needed = 1, uses_anonymous_args = 0
 21721 0000 80B5     		push	{r7, lr}
 21722              	.LCFI66:
 21723              		.cfi_def_cfa_offset 8
 21724 0002 82B0     		sub	sp, sp, #8
 21725              	.LCFI67:
 21726              		.cfi_def_cfa_offset 16
 21727 0004 00AF     		add	r7, sp, #0
 21728              		.cfi_offset 14, -4
 21729              		.cfi_offset 7, -8
 21730              	.LCFI68:
 21731              		.cfi_def_cfa_register 7
 21732 0006 7860     		str	r0, [r7, #4]
 21733 0008 0B46     		mov	r3, r1
 21734 000a FB70     		strb	r3, [r7, #3]
 258:../board/olimex-stm32f103-stk/board/transceiver/nrftransceiver.cpp **** 	return NrfSpi::activateFeatures(enable);
 21735              		.loc 1 258 0
 21736 000c 7B68     		ldr	r3, [r7, #4]
 21737 000e 03F10402 		add	r2, r3, #4
 21738 0012 FB78     		ldrb	r3, [r7, #3]	@ zero_extendqisi2
 21739 0014 1046     		mov	r0, r2
 21740 0016 1946     		mov	r1, r3
 21741 0018 FFF7FEFF 		bl	_ZN6NrfSpi16activateFeaturesEb
 21742 001c 0346     		mov	r3, r0
 259:../board/olimex-stm32f103-stk/board/transceiver/nrftransceiver.cpp **** }
 21743              		.loc 1 259 0
 21744 001e 1846     		mov	r0, r3
 21745 0020 07F10807 		add	r7, r7, #8
 21746 0024 BD46     		mov	sp, r7
 21747 0026 80BD     		pop	{r7, pc}
 21748              		.cfi_endproc
 21749              	.LFE1272:
 21751              		.section	.rodata
 21752 01cd 000000   		.align	2
 21753              	.LC11:
 21754 01d0 5F624E72 		.ascii	"_bNrfFeaturesEnabled\000"
 21754      66466561 
 21754      74757265 
 21754      73456E61 
 21754      626C6564 
 21755 01e5 000000   		.align	2
 21756              	.LC12:
 21757 01e8 70697065 		.ascii	"pipeMask\000"
 21757      4D61736B 
 21757      00
 21758              		.section	.text._ZN14NrfTransceiver9enableDPLEbh,"ax",%progbits
 21759              		.align	2
 21760              		.global	_ZN14NrfTransceiver9enableDPLEbh
 21761              		.thumb
 21762              		.thumb_func
 21764              	_ZN14NrfTransceiver9enableDPLEbh:
 21765              	.LFB1273:
 260:../board/olimex-stm32f103-stk/board/transceiver/nrftransceiver.cpp **** 
 261:../board/olimex-stm32f103-stk/board/transceiver/nrftransceiver.cpp **** /**
 262:../board/olimex-stm32f103-stk/board/transceiver/nrftransceiver.cpp ****  * Enable/disable dynamic payload length (DPL).
 263:../board/olimex-stm32f103-stk/board/transceiver/nrftransceiver.cpp ****  *
 264:../board/olimex-stm32f103-stk/board/transceiver/nrftransceiver.cpp ****  * \enable Set to true to enable DPL
 265:../board/olimex-stm32f103-stk/board/transceiver/nrftransceiver.cpp ****  * \pipeMask Bitmask to define for which RX pipe DPL should be enabled. The LSB corresponds to pipe
 266:../board/olimex-stm32f103-stk/board/transceiver/nrftransceiver.cpp ****  *
 267:../board/olimex-stm32f103-stk/board/transceiver/nrftransceiver.cpp ****  * Attention:
 268:../board/olimex-stm32f103-stk/board/transceiver/nrftransceiver.cpp ****  *  - You need to enable first call activateFeatues() in order to use
 269:../board/olimex-stm32f103-stk/board/transceiver/nrftransceiver.cpp ****  *    the DPL feature.
 270:../board/olimex-stm32f103-stk/board/transceiver/nrftransceiver.cpp ****  *  - You also need to enable <em>Enhanced ShockBurst</em>.
 271:../board/olimex-stm32f103-stk/board/transceiver/nrftransceiver.cpp ****  */
 272:../board/olimex-stm32f103-stk/board/transceiver/nrftransceiver.cpp **** void NrfTransceiver::enableDPL(bool enable, unsigned char pipeMask /* = 0x00 */)
 273:../board/olimex-stm32f103-stk/board/transceiver/nrftransceiver.cpp **** {
 21766              		.loc 1 273 0
 21767              		.cfi_startproc
 21768              		@ args = 0, pretend = 0, frame = 16
 21769              		@ frame_needed = 1, uses_anonymous_args = 0
 21770 0000 80B5     		push	{r7, lr}
 21771              	.LCFI69:
 21772              		.cfi_def_cfa_offset 8
 21773 0002 84B0     		sub	sp, sp, #16
 21774              	.LCFI70:
 21775              		.cfi_def_cfa_offset 24
 21776 0004 00AF     		add	r7, sp, #0
 21777              		.cfi_offset 14, -4
 21778              		.cfi_offset 7, -8
 21779              	.LCFI71:
 21780              		.cfi_def_cfa_register 7
 21781 0006 7860     		str	r0, [r7, #4]
 21782 0008 1346     		mov	r3, r2
 21783 000a 0A46     		mov	r2, r1
 21784 000c FA70     		strb	r2, [r7, #3]
 21785 000e BB70     		strb	r3, [r7, #2]
 21786              	.LBB18:
 274:../board/olimex-stm32f103-stk/board/transceiver/nrftransceiver.cpp **** 	NrfSpi::tRegister reg;
 275:../board/olimex-stm32f103-stk/board/transceiver/nrftransceiver.cpp **** 	assert(_bNrfFeaturesEnabled);	// Call activateFeatues first
 21787              		.loc 1 275 0
 21788 0010 7B68     		ldr	r3, [r7, #4]
 21789 0012 1B7C     		ldrb	r3, [r3, #16]	@ zero_extendqisi2
 21790 0014 002B     		cmp	r3, #0
 21791 0016 0FD1     		bne	.L58
 21792              		.loc 1 275 0 is_stmt 0 discriminator 1
 21793 0018 40F20000 		movw	r0, #:lower16:.LC0
 21794 001c C0F20000 		movt	r0, #:upper16:.LC0
 21795 0020 40F21311 		movw	r1, #275
 21796 0024 40F20002 		movw	r2, #:lower16:_ZZN14NrfTransceiver9enableDPLEbhE19__PRETTY_FUNCTION__
 21797 0028 C0F20002 		movt	r2, #:upper16:_ZZN14NrfTransceiver9enableDPLEbhE19__PRETTY_FUNCTION__
 21798 002c 40F20003 		movw	r3, #:lower16:.LC11
 21799 0030 C0F20003 		movt	r3, #:upper16:.LC11
 21800 0034 FFF7FEFF 		bl	__assert_func
 21801              	.L58:
 276:../board/olimex-stm32f103-stk/board/transceiver/nrftransceiver.cpp **** 
 277:../board/olimex-stm32f103-stk/board/transceiver/nrftransceiver.cpp **** 	reg = NrfSpi::readRegister(FEATURE);
 21802              		.loc 1 277 0 is_stmt 1
 21803 0038 7B68     		ldr	r3, [r7, #4]
 21804 003a 03F10403 		add	r3, r3, #4
 21805 003e 1846     		mov	r0, r3
 21806 0040 4FF01D01 		mov	r1, #29
 21807 0044 FFF7FEFF 		bl	_ZN6NrfSpi12readRegisterENS_12eNrfRegisterE
 21808 0048 0346     		mov	r3, r0
 21809 004a FB73     		strb	r3, [r7, #15]
 278:../board/olimex-stm32f103-stk/board/transceiver/nrftransceiver.cpp **** 
 279:../board/olimex-stm32f103-stk/board/transceiver/nrftransceiver.cpp **** 	if (enable)
 21810              		.loc 1 279 0
 21811 004c FB78     		ldrb	r3, [r7, #3]	@ zero_extendqisi2
 21812 004e 002B     		cmp	r3, #0
 21813 0050 17D0     		beq	.L59
 280:../board/olimex-stm32f103-stk/board/transceiver/nrftransceiver.cpp **** 	{
 281:../board/olimex-stm32f103-stk/board/transceiver/nrftransceiver.cpp **** 		assert(pipeMask);		// Set at least to 0x01 (DPL on pipe0)
 21814              		.loc 1 281 0
 21815 0052 BB78     		ldrb	r3, [r7, #2]	@ zero_extendqisi2
 21816 0054 002B     		cmp	r3, #0
 21817 0056 0FD1     		bne	.L60
 21818              		.loc 1 281 0 is_stmt 0 discriminator 1
 21819 0058 40F20000 		movw	r0, #:lower16:.LC0
 21820 005c C0F20000 		movt	r0, #:upper16:.LC0
 21821 0060 40F21911 		movw	r1, #281
 21822 0064 40F20002 		movw	r2, #:lower16:_ZZN14NrfTransceiver9enableDPLEbhE19__PRETTY_FUNCTION__
 21823 0068 C0F20002 		movt	r2, #:upper16:_ZZN14NrfTransceiver9enableDPLEbhE19__PRETTY_FUNCTION__
 21824 006c 40F20003 		movw	r3, #:lower16:.LC12
 21825 0070 C0F20003 		movt	r3, #:upper16:.LC12
 21826 0074 FFF7FEFF 		bl	__assert_func
 21827              	.L60:
 282:../board/olimex-stm32f103-stk/board/transceiver/nrftransceiver.cpp **** 
 283:../board/olimex-stm32f103-stk/board/transceiver/nrftransceiver.cpp **** 		reg |= FEATURE_REG_EN_DPL;
 21828              		.loc 1 283 0 is_stmt 1
 21829 0078 FB7B     		ldrb	r3, [r7, #15]
 21830 007a 43F00403 		orr	r3, r3, #4
 21831 007e FB73     		strb	r3, [r7, #15]
 21832 0080 03E0     		b	.L61
 21833              	.L59:
 284:../board/olimex-stm32f103-stk/board/transceiver/nrftransceiver.cpp **** 	}
 285:../board/olimex-stm32f103-stk/board/transceiver/nrftransceiver.cpp **** 	else
 286:../board/olimex-stm32f103-stk/board/transceiver/nrftransceiver.cpp **** 	{
 287:../board/olimex-stm32f103-stk/board/transceiver/nrftransceiver.cpp **** 		reg &= ~FEATURE_REG_EN_DPL;
 21834              		.loc 1 287 0
 21835 0082 FB7B     		ldrb	r3, [r7, #15]
 21836 0084 23F00403 		bic	r3, r3, #4
 21837 0088 FB73     		strb	r3, [r7, #15]
 21838              	.L61:
 288:../board/olimex-stm32f103-stk/board/transceiver/nrftransceiver.cpp **** 	}
 289:../board/olimex-stm32f103-stk/board/transceiver/nrftransceiver.cpp **** 
 290:../board/olimex-stm32f103-stk/board/transceiver/nrftransceiver.cpp **** 	NrfSpi::writeRegister(FEATURE, reg);
 21839              		.loc 1 290 0
 21840 008a 7B68     		ldr	r3, [r7, #4]
 21841 008c 03F10402 		add	r2, r3, #4
 21842 0090 FB7B     		ldrb	r3, [r7, #15]	@ zero_extendqisi2
 21843 0092 1046     		mov	r0, r2
 21844 0094 4FF01D01 		mov	r1, #29
 21845 0098 1A46     		mov	r2, r3
 21846 009a FFF7FEFF 		bl	_ZN6NrfSpi13writeRegisterENS_12eNrfRegisterEh
 291:../board/olimex-stm32f103-stk/board/transceiver/nrftransceiver.cpp **** 
 292:../board/olimex-stm32f103-stk/board/transceiver/nrftransceiver.cpp **** 	if (enable)
 21847              		.loc 1 292 0
 21848 009e FB78     		ldrb	r3, [r7, #3]	@ zero_extendqisi2
 21849 00a0 002B     		cmp	r3, #0
 21850 00a2 09D0     		beq	.L57
 293:../board/olimex-stm32f103-stk/board/transceiver/nrftransceiver.cpp **** 	{
 294:../board/olimex-stm32f103-stk/board/transceiver/nrftransceiver.cpp **** 		// Enable DPL on corresponding pipes
 295:../board/olimex-stm32f103-stk/board/transceiver/nrftransceiver.cpp **** 		NrfSpi::writeRegister(NrfSpi::DYNPD, pipeMask);
 21851              		.loc 1 295 0
 21852 00a4 7B68     		ldr	r3, [r7, #4]
 21853 00a6 03F10402 		add	r2, r3, #4
 21854 00aa BB78     		ldrb	r3, [r7, #2]	@ zero_extendqisi2
 21855 00ac 1046     		mov	r0, r2
 21856 00ae 4FF01C01 		mov	r1, #28
 21857 00b2 1A46     		mov	r2, r3
 21858 00b4 FFF7FEFF 		bl	_ZN6NrfSpi13writeRegisterENS_12eNrfRegisterEh
 21859              	.L57:
 21860              	.LBE18:
 296:../board/olimex-stm32f103-stk/board/transceiver/nrftransceiver.cpp **** 	}
 297:../board/olimex-stm32f103-stk/board/transceiver/nrftransceiver.cpp **** }
 21861              		.loc 1 297 0
 21862 00b8 07F11007 		add	r7, r7, #16
 21863 00bc BD46     		mov	sp, r7
 21864 00be 80BD     		pop	{r7, pc}
 21865              		.cfi_endproc
 21866              	.LFE1273:
 21868              		.section	.rodata
 21869 01f1 000000   		.align	2
 21870              	.LC13:
 21871 01f4 7374726C 		.ascii	"strlen(str) < 128\000"
 21871      656E2873 
 21871      74722920 
 21871      3C203132 
 21871      3800
 21872              		.section	.text._ZN14NrfTransceiver8traceOutEPKcz,"ax",%progbits
 21873              		.align	2
 21874              		.global	_ZN14NrfTransceiver8traceOutEPKcz
 21875              		.thumb
 21876              		.thumb_func
 21878              	_ZN14NrfTransceiver8traceOutEPKcz:
 21879              	.LFB1274:
 298:../board/olimex-stm32f103-stk/board/transceiver/nrftransceiver.cpp **** 
 299:../board/olimex-stm32f103-stk/board/transceiver/nrftransceiver.cpp **** void NrfTransceiver::traceOut(const char * const format, ...)
 300:../board/olimex-stm32f103-stk/board/transceiver/nrftransceiver.cpp **** {
 21880              		.loc 1 300 0
 21881              		.cfi_startproc
 21882              		@ args = 4, pretend = 16, frame = 8
 21883              		@ frame_needed = 1, uses_anonymous_args = 1
 21884 0000 0FB4     		push	{r0, r1, r2, r3}
 21885              	.LCFI72:
 21886              		.cfi_def_cfa_offset 16
 21887 0002 80B5     		push	{r7, lr}
 21888              	.LCFI73:
 21889              		.cfi_def_cfa_offset 24
 21890 0004 82B0     		sub	sp, sp, #8
 21891              	.LCFI74:
 21892              		.cfi_def_cfa_offset 32
 21893 0006 00AF     		add	r7, sp, #0
 21894              		.cfi_offset 14, -20
 21895              		.cfi_offset 7, -24
 21896              		.cfi_offset 3, -4
 21897              		.cfi_offset 2, -8
 21898              		.cfi_offset 1, -12
 21899              		.cfi_offset 0, -16
 21900              	.LCFI75:
 21901              		.cfi_def_cfa_register 7
 21902              	.LBB19:
 301:../board/olimex-stm32f103-stk/board/transceiver/nrftransceiver.cpp **** #if (NRFTRANSCEIVER_TRACE_VERBOSE != 0)
 302:../board/olimex-stm32f103-stk/board/transceiver/nrftransceiver.cpp **** 	static char str[128];
 303:../board/olimex-stm32f103-stk/board/transceiver/nrftransceiver.cpp **** 
 304:../board/olimex-stm32f103-stk/board/transceiver/nrftransceiver.cpp **** 	va_list args;
 305:../board/olimex-stm32f103-stk/board/transceiver/nrftransceiver.cpp **** 
 306:../board/olimex-stm32f103-stk/board/transceiver/nrftransceiver.cpp **** 	va_start(args, format);
 21903              		.loc 1 306 0
 21904 0008 07F11403 		add	r3, r7, #20
 21905 000c 7B60     		str	r3, [r7, #4]
 307:../board/olimex-stm32f103-stk/board/transceiver/nrftransceiver.cpp **** 	vsiprintf(str, format, args);
 21906              		.loc 1 307 0
 21907 000e 40F20000 		movw	r0, #:lower16:_ZZN14NrfTransceiver8traceOutEPKczE3str
 21908 0012 C0F20000 		movt	r0, #:upper16:_ZZN14NrfTransceiver8traceOutEPKczE3str
 21909 0016 3969     		ldr	r1, [r7, #16]
 21910 0018 7A68     		ldr	r2, [r7, #4]
 21911 001a FFF7FEFF 		bl	vsiprintf
 308:../board/olimex-stm32f103-stk/board/transceiver/nrftransceiver.cpp **** 	va_end(args);
 309:../board/olimex-stm32f103-stk/board/transceiver/nrftransceiver.cpp **** 
 310:../board/olimex-stm32f103-stk/board/transceiver/nrftransceiver.cpp **** 	assert(strlen(str) < 128);		// Uups! str is too small
 21912              		.loc 1 310 0
 21913 001e 40F20000 		movw	r0, #:lower16:_ZZN14NrfTransceiver8traceOutEPKczE3str
 21914 0022 C0F20000 		movt	r0, #:upper16:_ZZN14NrfTransceiver8traceOutEPKczE3str
 21915 0026 FFF7FEFF 		bl	strlen
 21916 002a 0346     		mov	r3, r0
 21917 002c 7F2B     		cmp	r3, #127
 21918 002e 0FD9     		bls	.L64
 21919              		.loc 1 310 0 is_stmt 0 discriminator 1
 21920 0030 40F20000 		movw	r0, #:lower16:.LC0
 21921 0034 C0F20000 		movt	r0, #:upper16:.LC0
 21922 0038 4FF49B71 		mov	r1, #310
 21923 003c 40F20002 		movw	r2, #:lower16:_ZZN14NrfTransceiver8traceOutEPKczE19__PRETTY_FUNCTION__
 21924 0040 C0F20002 		movt	r2, #:upper16:_ZZN14NrfTransceiver8traceOutEPKczE19__PRETTY_FUNCTION__
 21925 0044 40F20003 		movw	r3, #:lower16:.LC13
 21926 0048 C0F20003 		movt	r3, #:upper16:.LC13
 21927 004c FFF7FEFF 		bl	__assert_func
 21928              	.L64:
 311:../board/olimex-stm32f103-stk/board/transceiver/nrftransceiver.cpp **** 
 312:../board/olimex-stm32f103-stk/board/transceiver/nrftransceiver.cpp **** 	Trace::out(str);
 21929              		.loc 1 312 0 is_stmt 1
 21930 0050 40F20000 		movw	r0, #:lower16:_ZZN14NrfTransceiver8traceOutEPKczE3str
 21931 0054 C0F20000 		movt	r0, #:upper16:_ZZN14NrfTransceiver8traceOutEPKczE3str
 21932 0058 FFF7FEFF 		bl	_ZN5Trace3outEPKcz
 21933              	.LBE19:
 313:../board/olimex-stm32f103-stk/board/transceiver/nrftransceiver.cpp **** #endif
 314:../board/olimex-stm32f103-stk/board/transceiver/nrftransceiver.cpp **** }
 21934              		.loc 1 314 0
 21935 005c 07F10807 		add	r7, r7, #8
 21936 0060 BD46     		mov	sp, r7
 21937 0062 BDE88040 		pop	{r7, lr}
 21938 0066 04B0     		add	sp, sp, #16
 21939 0068 7047     		bx	lr
 21940              		.cfi_endproc
 21941              	.LFE1274:
 21943 006a 00BF     		.section	.text._ZNK14NrfTransceiver4modeEv,"ax",%progbits
 21944              		.align	2
 21945              		.global	_ZNK14NrfTransceiver4modeEv
 21946              		.thumb
 21947              		.thumb_func
 21949              	_ZNK14NrfTransceiver4modeEv:
 21950              	.LFB1275:
 315:../board/olimex-stm32f103-stk/board/transceiver/nrftransceiver.cpp **** 
 316:../board/olimex-stm32f103-stk/board/transceiver/nrftransceiver.cpp **** IPhyTransceiver::Mode NrfTransceiver::mode() const
 317:../board/olimex-stm32f103-stk/board/transceiver/nrftransceiver.cpp **** {
 21951              		.loc 1 317 0
 21952              		.cfi_startproc
 21953              		@ args = 0, pretend = 0, frame = 8
 21954              		@ frame_needed = 1, uses_anonymous_args = 0
 21955              		@ link register save eliminated.
 21956 0000 80B4     		push	{r7}
 21957              	.LCFI76:
 21958              		.cfi_def_cfa_offset 4
 21959 0002 83B0     		sub	sp, sp, #12
 21960              	.LCFI77:
 21961              		.cfi_def_cfa_offset 16
 21962 0004 00AF     		add	r7, sp, #0
 21963              		.cfi_offset 7, -4
 21964              	.LCFI78:
 21965              		.cfi_def_cfa_register 7
 21966 0006 7860     		str	r0, [r7, #4]
 318:../board/olimex-stm32f103-stk/board/transceiver/nrftransceiver.cpp **** 	return (_bEnabled) ? Active : Inactive;
 21967              		.loc 1 318 0
 21968 0008 7B68     		ldr	r3, [r7, #4]
 21969 000a 93F83430 		ldrb	r3, [r3, #52]	@ zero_extendqisi2
 21970 000e 002B     		cmp	r3, #0
 21971 0010 02D0     		beq	.L66
 21972              		.loc 1 318 0 is_stmt 0 discriminator 1
 21973 0012 4FF00203 		mov	r3, #2
 21974 0016 01E0     		b	.L67
 21975              	.L66:
 21976              		.loc 1 318 0 discriminator 2
 21977 0018 4FF00103 		mov	r3, #1
 21978              	.L67:
 319:../board/olimex-stm32f103-stk/board/transceiver/nrftransceiver.cpp **** }
 21979              		.loc 1 319 0 is_stmt 1 discriminator 3
 21980 001c 1846     		mov	r0, r3
 21981 001e 07F10C07 		add	r7, r7, #12
 21982 0022 BD46     		mov	sp, r7
 21983 0024 80BC     		pop	{r7}
 21984 0026 7047     		bx	lr
 21985              		.cfi_endproc
 21986              	.LFE1275:
 21988              		.section	.rodata
 21989 0206 0000     		.align	2
 21990              	.LC14:
 21991 0208 4E726653 		.ascii	"NrfSpi::isInitialized()\000"
 21991      70693A3A 
 21991      6973496E 
 21991      69746961 
 21991      6C697A65 
 21992              		.section	.text._ZN14NrfTransceiver7setModeEN15IPhyTransceiver4ModeE,"ax",%progbits
 21993              		.align	2
 21994              		.global	_ZN14NrfTransceiver7setModeEN15IPhyTransceiver4ModeE
 21995              		.thumb
 21996              		.thumb_func
 21998              	_ZN14NrfTransceiver7setModeEN15IPhyTransceiver4ModeE:
 21999              	.LFB1276:
 320:../board/olimex-stm32f103-stk/board/transceiver/nrftransceiver.cpp **** 
 321:../board/olimex-stm32f103-stk/board/transceiver/nrftransceiver.cpp **** bool NrfTransceiver::setMode(Mode mode)
 322:../board/olimex-stm32f103-stk/board/transceiver/nrftransceiver.cpp **** {
 22000              		.loc 1 322 0
 22001              		.cfi_startproc
 22002              		@ args = 0, pretend = 0, frame = 8
 22003              		@ frame_needed = 1, uses_anonymous_args = 0
 22004 0000 80B5     		push	{r7, lr}
 22005              	.LCFI79:
 22006              		.cfi_def_cfa_offset 8
 22007 0002 82B0     		sub	sp, sp, #8
 22008              	.LCFI80:
 22009              		.cfi_def_cfa_offset 16
 22010 0004 00AF     		add	r7, sp, #0
 22011              		.cfi_offset 14, -4
 22012              		.cfi_offset 7, -8
 22013              	.LCFI81:
 22014              		.cfi_def_cfa_register 7
 22015 0006 7860     		str	r0, [r7, #4]
 22016 0008 0B46     		mov	r3, r1
 22017 000a FB70     		strb	r3, [r7, #3]
 22018              	.LBB20:
 323:../board/olimex-stm32f103-stk/board/transceiver/nrftransceiver.cpp **** 	assert(NrfSpi::isInitialized());	// Call initialize() first!
 22019              		.loc 1 323 0
 22020 000c 7B68     		ldr	r3, [r7, #4]
 22021 000e 03F10403 		add	r3, r3, #4
 22022 0012 1846     		mov	r0, r3
 22023 0014 FFF7FEFF 		bl	_ZNK6NrfSpi13isInitializedEv
 22024 0018 0346     		mov	r3, r0
 22025 001a 002B     		cmp	r3, #0
 22026 001c 0FD1     		bne	.L69
 22027              		.loc 1 323 0 is_stmt 0 discriminator 1
 22028 001e 40F20000 		movw	r0, #:lower16:.LC0
 22029 0022 C0F20000 		movt	r0, #:upper16:.LC0
 22030 0026 40F24311 		movw	r1, #323
 22031 002a 40F20002 		movw	r2, #:lower16:_ZZN14NrfTransceiver7setModeEN15IPhyTransceiver4ModeEE19__PRETTY_FUNCTION__
 22032 002e C0F20002 		movt	r2, #:upper16:_ZZN14NrfTransceiver7setModeEN15IPhyTransceiver4ModeEE19__PRETTY_FUNCTION__
 22033 0032 40F20003 		movw	r3, #:lower16:.LC14
 22034 0036 C0F20003 		movt	r3, #:upper16:.LC14
 22035 003a FFF7FEFF 		bl	__assert_func
 22036              	.L69:
 324:../board/olimex-stm32f103-stk/board/transceiver/nrftransceiver.cpp **** 
 325:../board/olimex-stm32f103-stk/board/transceiver/nrftransceiver.cpp **** 	return enableTransceiver((mode == Active) ? true : false);
 22037              		.loc 1 325 0 is_stmt 1
 22038 003e FB78     		ldrb	r3, [r7, #3]	@ zero_extendqisi2
 22039 0040 022B     		cmp	r3, #2
 22040 0042 14BF     		ite	ne
 22041 0044 0023     		movne	r3, #0
 22042 0046 0123     		moveq	r3, #1
 22043 0048 DBB2     		uxtb	r3, r3
 22044 004a 7868     		ldr	r0, [r7, #4]
 22045 004c 1946     		mov	r1, r3
 22046 004e FFF7FEFF 		bl	_ZN14NrfTransceiver17enableTransceiverEb
 22047 0052 0346     		mov	r3, r0
 22048              	.LBE20:
 326:../board/olimex-stm32f103-stk/board/transceiver/nrftransceiver.cpp **** }
 22049              		.loc 1 326 0
 22050 0054 1846     		mov	r0, r3
 22051 0056 07F10807 		add	r7, r7, #8
 22052 005a BD46     		mov	sp, r7
 22053 005c 80BD     		pop	{r7, pc}
 22054              		.cfi_endproc
 22055              	.LFE1276:
 22057 005e 00BF     		.section	.text._ZN14NrfTransceiver17enableTransceiverEb,"ax",%progbits
 22058              		.align	2
 22059              		.global	_ZN14NrfTransceiver17enableTransceiverEb
 22060              		.thumb
 22061              		.thumb_func
 22063              	_ZN14NrfTransceiver17enableTransceiverEb:
 22064              	.LFB1277:
 327:../board/olimex-stm32f103-stk/board/transceiver/nrftransceiver.cpp **** 
 328:../board/olimex-stm32f103-stk/board/transceiver/nrftransceiver.cpp **** bool NrfTransceiver::enableTransceiver(bool bEnable)
 329:../board/olimex-stm32f103-stk/board/transceiver/nrftransceiver.cpp **** {
 22065              		.loc 1 329 0
 22066              		.cfi_startproc
 22067              		@ args = 0, pretend = 0, frame = 16
 22068              		@ frame_needed = 1, uses_anonymous_args = 0
 22069 0000 80B5     		push	{r7, lr}
 22070              	.LCFI82:
 22071              		.cfi_def_cfa_offset 8
 22072 0002 84B0     		sub	sp, sp, #16
 22073              	.LCFI83:
 22074              		.cfi_def_cfa_offset 24
 22075 0004 00AF     		add	r7, sp, #0
 22076              		.cfi_offset 14, -4
 22077              		.cfi_offset 7, -8
 22078              	.LCFI84:
 22079              		.cfi_def_cfa_register 7
 22080 0006 7860     		str	r0, [r7, #4]
 22081 0008 0B46     		mov	r3, r1
 22082 000a FB70     		strb	r3, [r7, #3]
 22083              	.LBB21:
 22084              	.LBB22:
 330:../board/olimex-stm32f103-stk/board/transceiver/nrftransceiver.cpp **** 	if (_bEnabled != bEnable)
 22085              		.loc 1 330 0
 22086 000c 7B68     		ldr	r3, [r7, #4]
 22087 000e 93F83430 		ldrb	r3, [r3, #52]	@ zero_extendqisi2
 22088 0012 FA78     		ldrb	r2, [r7, #3]	@ zero_extendqisi2
 22089 0014 9A42     		cmp	r2, r3
 22090 0016 3DD0     		beq	.L71
 22091              	.LBB23:
 331:../board/olimex-stm32f103-stk/board/transceiver/nrftransceiver.cpp **** 	{
 332:../board/olimex-stm32f103-stk/board/transceiver/nrftransceiver.cpp **** 		unsigned char status, config;
 333:../board/olimex-stm32f103-stk/board/transceiver/nrftransceiver.cpp **** 
 334:../board/olimex-stm32f103-stk/board/transceiver/nrftransceiver.cpp **** 		_bEnabled = bEnable;
 22092              		.loc 1 334 0
 22093 0018 7B68     		ldr	r3, [r7, #4]
 22094 001a FA78     		ldrb	r2, [r7, #3]
 22095 001c 83F83420 		strb	r2, [r3, #52]
 335:../board/olimex-stm32f103-stk/board/transceiver/nrftransceiver.cpp **** 
 336:../board/olimex-stm32f103-stk/board/transceiver/nrftransceiver.cpp **** 		config = NrfSpi::readRegister(NrfSpi::CONFIG);
 22096              		.loc 1 336 0
 22097 0020 7B68     		ldr	r3, [r7, #4]
 22098 0022 03F10403 		add	r3, r3, #4
 22099 0026 1846     		mov	r0, r3
 22100 0028 4FF00001 		mov	r1, #0
 22101 002c FFF7FEFF 		bl	_ZN6NrfSpi12readRegisterENS_12eNrfRegisterE
 22102 0030 0346     		mov	r3, r0
 22103 0032 FB73     		strb	r3, [r7, #15]
 337:../board/olimex-stm32f103-stk/board/transceiver/nrftransceiver.cpp **** 
 338:../board/olimex-stm32f103-stk/board/transceiver/nrftransceiver.cpp **** 		if (bEnable)
 22104              		.loc 1 338 0
 22105 0034 FB78     		ldrb	r3, [r7, #3]	@ zero_extendqisi2
 22106 0036 002B     		cmp	r3, #0
 22107 0038 16D0     		beq	.L72
 339:../board/olimex-stm32f103-stk/board/transceiver/nrftransceiver.cpp **** 		{
 340:../board/olimex-stm32f103-stk/board/transceiver/nrftransceiver.cpp **** 			// power-up, RX
 341:../board/olimex-stm32f103-stk/board/transceiver/nrftransceiver.cpp **** 			config |= NrfSpi::CONFIG_REG_PWR_UP |
 342:../board/olimex-stm32f103-stk/board/transceiver/nrftransceiver.cpp **** 					  NrfSpi::CONFIG_REG_PRIM_RX;
 22108              		.loc 1 342 0
 22109 003a FB7B     		ldrb	r3, [r7, #15]
 22110 003c 43F00303 		orr	r3, r3, #3
 22111 0040 FB73     		strb	r3, [r7, #15]
 343:../board/olimex-stm32f103-stk/board/transceiver/nrftransceiver.cpp **** 			status = NrfSpi::writeRegister(NrfSpi::CONFIG, config);
 22112              		.loc 1 343 0
 22113 0042 7B68     		ldr	r3, [r7, #4]
 22114 0044 03F10402 		add	r2, r3, #4
 22115 0048 FB7B     		ldrb	r3, [r7, #15]	@ zero_extendqisi2
 22116 004a 1046     		mov	r0, r2
 22117 004c 4FF00001 		mov	r1, #0
 22118 0050 1A46     		mov	r2, r3
 22119 0052 FFF7FEFF 		bl	_ZN6NrfSpi13writeRegisterENS_12eNrfRegisterEh
 22120 0056 0346     		mov	r3, r0
 22121 0058 BB73     		strb	r3, [r7, #14]
 344:../board/olimex-stm32f103-stk/board/transceiver/nrftransceiver.cpp **** 
 345:../board/olimex-stm32f103-stk/board/transceiver/nrftransceiver.cpp **** 			// Enable transceiver
 346:../board/olimex-stm32f103-stk/board/transceiver/nrftransceiver.cpp **** 			NrfSpi::enableCE();
 22122              		.loc 1 346 0
 22123 005a 7B68     		ldr	r3, [r7, #4]
 22124 005c 03F10403 		add	r3, r3, #4
 22125 0060 1846     		mov	r0, r3
 22126 0062 FFF7FEFF 		bl	_ZNK6NrfSpi8enableCEEv
 22127 0066 15E0     		b	.L71
 22128              	.L72:
 347:../board/olimex-stm32f103-stk/board/transceiver/nrftransceiver.cpp **** 		}
 348:../board/olimex-stm32f103-stk/board/transceiver/nrftransceiver.cpp **** 		else
 349:../board/olimex-stm32f103-stk/board/transceiver/nrftransceiver.cpp **** 		{
 350:../board/olimex-stm32f103-stk/board/transceiver/nrftransceiver.cpp **** 			// Power down the chip
 351:../board/olimex-stm32f103-stk/board/transceiver/nrftransceiver.cpp **** 			config &= ~NrfSpi::CONFIG_REG_PWR_UP;
 22129              		.loc 1 351 0
 22130 0068 FB7B     		ldrb	r3, [r7, #15]
 22131 006a 23F00203 		bic	r3, r3, #2
 22132 006e FB73     		strb	r3, [r7, #15]
 352:../board/olimex-stm32f103-stk/board/transceiver/nrftransceiver.cpp **** 			status = NrfSpi::writeRegister(NrfSpi::CONFIG, config);
 22133              		.loc 1 352 0
 22134 0070 7B68     		ldr	r3, [r7, #4]
 22135 0072 03F10402 		add	r2, r3, #4
 22136 0076 FB7B     		ldrb	r3, [r7, #15]	@ zero_extendqisi2
 22137 0078 1046     		mov	r0, r2
 22138 007a 4FF00001 		mov	r1, #0
 22139 007e 1A46     		mov	r2, r3
 22140 0080 FFF7FEFF 		bl	_ZN6NrfSpi13writeRegisterENS_12eNrfRegisterEh
 22141 0084 0346     		mov	r3, r0
 22142 0086 BB73     		strb	r3, [r7, #14]
 353:../board/olimex-stm32f103-stk/board/transceiver/nrftransceiver.cpp **** 
 354:../board/olimex-stm32f103-stk/board/transceiver/nrftransceiver.cpp **** 			// Disable transceiver
 355:../board/olimex-stm32f103-stk/board/transceiver/nrftransceiver.cpp **** 			NrfSpi::disableCE();
 22143              		.loc 1 355 0
 22144 0088 7B68     		ldr	r3, [r7, #4]
 22145 008a 03F10403 		add	r3, r3, #4
 22146 008e 1846     		mov	r0, r3
 22147 0090 FFF7FEFF 		bl	_ZNK6NrfSpi9disableCEEv
 22148              	.L71:
 22149              	.LBE23:
 22150              	.LBE22:
 356:../board/olimex-stm32f103-stk/board/transceiver/nrftransceiver.cpp **** 		}
 357:../board/olimex-stm32f103-stk/board/transceiver/nrftransceiver.cpp **** 
 358:../board/olimex-stm32f103-stk/board/transceiver/nrftransceiver.cpp **** 		// read
 359:../board/olimex-stm32f103-stk/board/transceiver/nrftransceiver.cpp **** 		//config = NrfSpi::readRegister(NrfSpi::CONFIG);
 360:../board/olimex-stm32f103-stk/board/transceiver/nrftransceiver.cpp **** 	}
 361:../board/olimex-stm32f103-stk/board/transceiver/nrftransceiver.cpp **** 	return true;
 22151              		.loc 1 361 0
 22152 0094 4FF00103 		mov	r3, #1
 22153              	.LBE21:
 362:../board/olimex-stm32f103-stk/board/transceiver/nrftransceiver.cpp **** }
 22154              		.loc 1 362 0
 22155 0098 1846     		mov	r0, r3
 22156 009a 07F11007 		add	r7, r7, #16
 22157 009e BD46     		mov	sp, r7
 22158 00a0 80BD     		pop	{r7, pc}
 22159              		.cfi_endproc
 22160              	.LFE1277:
 22162 00a2 00BF     		.section	.text._ZN14NrfTransceiver11enterTXModeEv,"ax",%progbits
 22163              		.align	2
 22164              		.global	_ZN14NrfTransceiver11enterTXModeEv
 22165              		.thumb
 22166              		.thumb_func
 22168              	_ZN14NrfTransceiver11enterTXModeEv:
 22169              	.LFB1278:
 363:../board/olimex-stm32f103-stk/board/transceiver/nrftransceiver.cpp **** 
 364:../board/olimex-stm32f103-stk/board/transceiver/nrftransceiver.cpp **** void NrfTransceiver::enterTXMode()
 365:../board/olimex-stm32f103-stk/board/transceiver/nrftransceiver.cpp **** {
 22170              		.loc 1 365 0
 22171              		.cfi_startproc
 22172              		@ args = 0, pretend = 0, frame = 16
 22173              		@ frame_needed = 1, uses_anonymous_args = 0
 22174 0000 80B5     		push	{r7, lr}
 22175              	.LCFI85:
 22176              		.cfi_def_cfa_offset 8
 22177 0002 84B0     		sub	sp, sp, #16
 22178              	.LCFI86:
 22179              		.cfi_def_cfa_offset 24
 22180 0004 00AF     		add	r7, sp, #0
 22181              		.cfi_offset 14, -4
 22182              		.cfi_offset 7, -8
 22183              	.LCFI87:
 22184              		.cfi_def_cfa_register 7
 22185 0006 7860     		str	r0, [r7, #4]
 22186              	.LBB24:
 366:../board/olimex-stm32f103-stk/board/transceiver/nrftransceiver.cpp **** 	unsigned char config, status;
 367:../board/olimex-stm32f103-stk/board/transceiver/nrftransceiver.cpp **** 
 368:../board/olimex-stm32f103-stk/board/transceiver/nrftransceiver.cpp **** 	// Enter RX mode
 369:../board/olimex-stm32f103-stk/board/transceiver/nrftransceiver.cpp **** 	config = NrfSpi::readRegister(NrfSpi::CONFIG);
 22187              		.loc 1 369 0
 22188 0008 7B68     		ldr	r3, [r7, #4]
 22189 000a 03F10403 		add	r3, r3, #4
 22190 000e 1846     		mov	r0, r3
 22191 0010 4FF00001 		mov	r1, #0
 22192 0014 FFF7FEFF 		bl	_ZN6NrfSpi12readRegisterENS_12eNrfRegisterE
 22193 0018 0346     		mov	r3, r0
 22194 001a FB73     		strb	r3, [r7, #15]
 370:../board/olimex-stm32f103-stk/board/transceiver/nrftransceiver.cpp **** 	config &= ~NrfSpi::CONFIG_REG_PRIM_RX;		// Clear PRIM_RX_BIT to enter TX mode
 22195              		.loc 1 370 0
 22196 001c FB7B     		ldrb	r3, [r7, #15]
 22197 001e 23F00103 		bic	r3, r3, #1
 22198 0022 FB73     		strb	r3, [r7, #15]
 371:../board/olimex-stm32f103-stk/board/transceiver/nrftransceiver.cpp **** 	// Write new value to config register
 372:../board/olimex-stm32f103-stk/board/transceiver/nrftransceiver.cpp ****     status = NrfSpi::writeRegister(NrfSpi::CONFIG, config);
 22199              		.loc 1 372 0
 22200 0024 7B68     		ldr	r3, [r7, #4]
 22201 0026 03F10402 		add	r2, r3, #4
 22202 002a FB7B     		ldrb	r3, [r7, #15]	@ zero_extendqisi2
 22203 002c 1046     		mov	r0, r2
 22204 002e 4FF00001 		mov	r1, #0
 22205 0032 1A46     		mov	r2, r3
 22206 0034 FFF7FEFF 		bl	_ZN6NrfSpi13writeRegisterENS_12eNrfRegisterEh
 22207 0038 0346     		mov	r3, r0
 22208 003a BB73     		strb	r3, [r7, #14]
 22209              	.LBE24:
 373:../board/olimex-stm32f103-stk/board/transceiver/nrftransceiver.cpp **** }
 22210              		.loc 1 373 0
 22211 003c 07F11007 		add	r7, r7, #16
 22212 0040 BD46     		mov	sp, r7
 22213 0042 80BD     		pop	{r7, pc}
 22214              		.cfi_endproc
 22215              	.LFE1278:
 22217              		.section	.text._ZN14NrfTransceiver11enterRXModeEv,"ax",%progbits
 22218              		.align	2
 22219              		.global	_ZN14NrfTransceiver11enterRXModeEv
 22220              		.thumb
 22221              		.thumb_func
 22223              	_ZN14NrfTransceiver11enterRXModeEv:
 22224              	.LFB1279:
 374:../board/olimex-stm32f103-stk/board/transceiver/nrftransceiver.cpp **** 
 375:../board/olimex-stm32f103-stk/board/transceiver/nrftransceiver.cpp **** void NrfTransceiver::enterRXMode()
 376:../board/olimex-stm32f103-stk/board/transceiver/nrftransceiver.cpp **** {
 22225              		.loc 1 376 0
 22226              		.cfi_startproc
 22227              		@ args = 0, pretend = 0, frame = 16
 22228              		@ frame_needed = 1, uses_anonymous_args = 0
 22229 0000 80B5     		push	{r7, lr}
 22230              	.LCFI88:
 22231              		.cfi_def_cfa_offset 8
 22232 0002 84B0     		sub	sp, sp, #16
 22233              	.LCFI89:
 22234              		.cfi_def_cfa_offset 24
 22235 0004 00AF     		add	r7, sp, #0
 22236              		.cfi_offset 14, -4
 22237              		.cfi_offset 7, -8
 22238              	.LCFI90:
 22239              		.cfi_def_cfa_register 7
 22240 0006 7860     		str	r0, [r7, #4]
 22241              	.LBB25:
 377:../board/olimex-stm32f103-stk/board/transceiver/nrftransceiver.cpp **** 	unsigned char config, status;
 378:../board/olimex-stm32f103-stk/board/transceiver/nrftransceiver.cpp **** 
 379:../board/olimex-stm32f103-stk/board/transceiver/nrftransceiver.cpp **** 	// Enter RX mode
 380:../board/olimex-stm32f103-stk/board/transceiver/nrftransceiver.cpp **** 	config = NrfSpi::readRegister(NrfSpi::CONFIG);
 22242              		.loc 1 380 0
 22243 0008 7B68     		ldr	r3, [r7, #4]
 22244 000a 03F10403 		add	r3, r3, #4
 22245 000e 1846     		mov	r0, r3
 22246 0010 4FF00001 		mov	r1, #0
 22247 0014 FFF7FEFF 		bl	_ZN6NrfSpi12readRegisterENS_12eNrfRegisterE
 22248 0018 0346     		mov	r3, r0
 22249 001a FB73     		strb	r3, [r7, #15]
 381:../board/olimex-stm32f103-stk/board/transceiver/nrftransceiver.cpp **** 	config |= NrfSpi::CONFIG_REG_PRIM_RX;		// Set PRIM_RX_BIT to enter RX mode
 22250              		.loc 1 381 0
 22251 001c FB7B     		ldrb	r3, [r7, #15]
 22252 001e 43F00103 		orr	r3, r3, #1
 22253 0022 FB73     		strb	r3, [r7, #15]
 382:../board/olimex-stm32f103-stk/board/transceiver/nrftransceiver.cpp **** 	// Write new value to config register
 383:../board/olimex-stm32f103-stk/board/transceiver/nrftransceiver.cpp ****     status = NrfSpi::writeRegister(NrfSpi::CONFIG, config);
 22254              		.loc 1 383 0
 22255 0024 7B68     		ldr	r3, [r7, #4]
 22256 0026 03F10402 		add	r2, r3, #4
 22257 002a FB7B     		ldrb	r3, [r7, #15]	@ zero_extendqisi2
 22258 002c 1046     		mov	r0, r2
 22259 002e 4FF00001 		mov	r1, #0
 22260 0032 1A46     		mov	r2, r3
 22261 0034 FFF7FEFF 		bl	_ZN6NrfSpi13writeRegisterENS_12eNrfRegisterEh
 22262 0038 0346     		mov	r3, r0
 22263 003a BB73     		strb	r3, [r7, #14]
 22264              	.LBE25:
 384:../board/olimex-stm32f103-stk/board/transceiver/nrftransceiver.cpp **** }
 22265              		.loc 1 384 0
 22266 003c 07F11007 		add	r7, r7, #16
 22267 0040 BD46     		mov	sp, r7
 22268 0042 80BD     		pop	{r7, pc}
 22269              		.cfi_endproc
 22270              	.LFE1279:
 22272              		.section	.text._ZNK14NrfTransceiver12radioChannelEv,"ax",%progbits
 22273              		.align	2
 22274              		.global	_ZNK14NrfTransceiver12radioChannelEv
 22275              		.thumb
 22276              		.thumb_func
 22278              	_ZNK14NrfTransceiver12radioChannelEv:
 22279              	.LFB1280:
 385:../board/olimex-stm32f103-stk/board/transceiver/nrftransceiver.cpp **** 
 386:../board/olimex-stm32f103-stk/board/transceiver/nrftransceiver.cpp **** IPhyTransceiver::RadioChannel NrfTransceiver::radioChannel() const
 387:../board/olimex-stm32f103-stk/board/transceiver/nrftransceiver.cpp **** {
 22280              		.loc 1 387 0
 22281              		.cfi_startproc
 22282              		@ args = 0, pretend = 0, frame = 8
 22283              		@ frame_needed = 1, uses_anonymous_args = 0
 22284              		@ link register save eliminated.
 22285 0000 80B4     		push	{r7}
 22286              	.LCFI91:
 22287              		.cfi_def_cfa_offset 4
 22288 0002 83B0     		sub	sp, sp, #12
 22289              	.LCFI92:
 22290              		.cfi_def_cfa_offset 16
 22291 0004 00AF     		add	r7, sp, #0
 22292              		.cfi_offset 7, -4
 22293              	.LCFI93:
 22294              		.cfi_def_cfa_register 7
 22295 0006 7860     		str	r0, [r7, #4]
 388:../board/olimex-stm32f103-stk/board/transceiver/nrftransceiver.cpp **** 	return _channel;
 22296              		.loc 1 388 0
 22297 0008 7B68     		ldr	r3, [r7, #4]
 22298 000a 93F82C30 		ldrb	r3, [r3, #44]	@ zero_extendqisi2
 389:../board/olimex-stm32f103-stk/board/transceiver/nrftransceiver.cpp **** }
 22299              		.loc 1 389 0
 22300 000e 1846     		mov	r0, r3
 22301 0010 07F10C07 		add	r7, r7, #12
 22302 0014 BD46     		mov	sp, r7
 22303 0016 80BC     		pop	{r7}
 22304 0018 7047     		bx	lr
 22305              		.cfi_endproc
 22306              	.LFE1280:
 22308 001a 00BF     		.section	.rodata
 22309              		.align	2
 22310              	.LC15:
 22311 0220 4E72663A 		.ascii	"Nrf: Changed radio channel: %d\000"
 22311      20436861 
 22311      6E676564 
 22311      20726164 
 22311      696F2063 
 22312              		.section	.text._ZN14NrfTransceiver15setRadioChannelEh,"ax",%progbits
 22313              		.align	2
 22314              		.global	_ZN14NrfTransceiver15setRadioChannelEh
 22315              		.thumb
 22316              		.thumb_func
 22318              	_ZN14NrfTransceiver15setRadioChannelEh:
 22319              	.LFB1281:
 390:../board/olimex-stm32f103-stk/board/transceiver/nrftransceiver.cpp **** 
 391:../board/olimex-stm32f103-stk/board/transceiver/nrftransceiver.cpp **** bool NrfTransceiver::setRadioChannel(RadioChannel channel)
 392:../board/olimex-stm32f103-stk/board/transceiver/nrftransceiver.cpp **** {
 22320              		.loc 1 392 0
 22321              		.cfi_startproc
 22322              		@ args = 0, pretend = 0, frame = 8
 22323              		@ frame_needed = 1, uses_anonymous_args = 0
 22324 0000 80B5     		push	{r7, lr}
 22325              	.LCFI94:
 22326              		.cfi_def_cfa_offset 8
 22327 0002 82B0     		sub	sp, sp, #8
 22328              	.LCFI95:
 22329              		.cfi_def_cfa_offset 16
 22330 0004 00AF     		add	r7, sp, #0
 22331              		.cfi_offset 14, -4
 22332              		.cfi_offset 7, -8
 22333              	.LCFI96:
 22334              		.cfi_def_cfa_register 7
 22335 0006 7860     		str	r0, [r7, #4]
 22336 0008 0B46     		mov	r3, r1
 22337 000a FB70     		strb	r3, [r7, #3]
 22338              	.LBB26:
 393:../board/olimex-stm32f103-stk/board/transceiver/nrftransceiver.cpp **** 	assert(NrfSpi::isInitialized());	// Call initialize() first!
 22339              		.loc 1 393 0
 22340 000c 7B68     		ldr	r3, [r7, #4]
 22341 000e 03F10403 		add	r3, r3, #4
 22342 0012 1846     		mov	r0, r3
 22343 0014 FFF7FEFF 		bl	_ZNK6NrfSpi13isInitializedEv
 22344 0018 0346     		mov	r3, r0
 22345 001a 002B     		cmp	r3, #0
 22346 001c 0FD1     		bne	.L77
 22347              		.loc 1 393 0 is_stmt 0 discriminator 1
 22348 001e 40F20000 		movw	r0, #:lower16:.LC0
 22349 0022 C0F20000 		movt	r0, #:upper16:.LC0
 22350 0026 40F28911 		movw	r1, #393
 22351 002a 40F20002 		movw	r2, #:lower16:_ZZN14NrfTransceiver15setRadioChannelEhE19__PRETTY_FUNCTION__
 22352 002e C0F20002 		movt	r2, #:upper16:_ZZN14NrfTransceiver15setRadioChannelEhE19__PRETTY_FUNCTION__
 22353 0032 40F20003 		movw	r3, #:lower16:.LC14
 22354 0036 C0F20003 		movt	r3, #:upper16:.LC14
 22355 003a FFF7FEFF 		bl	__assert_func
 22356              	.L77:
 394:../board/olimex-stm32f103-stk/board/transceiver/nrftransceiver.cpp **** 
 395:../board/olimex-stm32f103-stk/board/transceiver/nrftransceiver.cpp **** 	// Only values from 0 to 125 are allowed
 396:../board/olimex-stm32f103-stk/board/transceiver/nrftransceiver.cpp **** 	if (channel < 126)
 22357              		.loc 1 396 0 is_stmt 1
 22358 003e FB78     		ldrb	r3, [r7, #3]	@ zero_extendqisi2
 22359 0040 7D2B     		cmp	r3, #125
 22360 0042 20D8     		bhi	.L78
 397:../board/olimex-stm32f103-stk/board/transceiver/nrftransceiver.cpp **** 	{
 398:../board/olimex-stm32f103-stk/board/transceiver/nrftransceiver.cpp **** 		if (_channel != channel)
 22361              		.loc 1 398 0
 22362 0044 7B68     		ldr	r3, [r7, #4]
 22363 0046 93F82C30 		ldrb	r3, [r3, #44]	@ zero_extendqisi2
 22364 004a FA78     		ldrb	r2, [r7, #3]	@ zero_extendqisi2
 22365 004c 9A42     		cmp	r2, r3
 22366 004e 17D0     		beq	.L79
 399:../board/olimex-stm32f103-stk/board/transceiver/nrftransceiver.cpp **** 		{
 400:../board/olimex-stm32f103-stk/board/transceiver/nrftransceiver.cpp **** 			_channel = channel;
 22367              		.loc 1 400 0
 22368 0050 7B68     		ldr	r3, [r7, #4]
 22369 0052 FA78     		ldrb	r2, [r7, #3]
 22370 0054 83F82C20 		strb	r2, [r3, #44]
 401:../board/olimex-stm32f103-stk/board/transceiver/nrftransceiver.cpp **** 
 402:../board/olimex-stm32f103-stk/board/transceiver/nrftransceiver.cpp **** 			traceOut("Nrf: Changed radio channel: %d", _channel);
 22371              		.loc 1 402 0
 22372 0058 7B68     		ldr	r3, [r7, #4]
 22373 005a 93F82C30 		ldrb	r3, [r3, #44]	@ zero_extendqisi2
 22374 005e 40F20000 		movw	r0, #:lower16:.LC15
 22375 0062 C0F20000 		movt	r0, #:upper16:.LC15
 22376 0066 1946     		mov	r1, r3
 22377 0068 FFF7FEFF 		bl	_ZN14NrfTransceiver8traceOutEPKcz
 403:../board/olimex-stm32f103-stk/board/transceiver/nrftransceiver.cpp **** 
 404:../board/olimex-stm32f103-stk/board/transceiver/nrftransceiver.cpp **** 			NrfSpi::writeRegister(NrfSpi::RF_CH, channel);
 22378              		.loc 1 404 0
 22379 006c 7B68     		ldr	r3, [r7, #4]
 22380 006e 03F10402 		add	r2, r3, #4
 22381 0072 FB78     		ldrb	r3, [r7, #3]	@ zero_extendqisi2
 22382 0074 1046     		mov	r0, r2
 22383 0076 4FF00501 		mov	r1, #5
 22384 007a 1A46     		mov	r2, r3
 22385 007c FFF7FEFF 		bl	_ZN6NrfSpi13writeRegisterENS_12eNrfRegisterEh
 22386              	.L79:
 405:../board/olimex-stm32f103-stk/board/transceiver/nrftransceiver.cpp **** 		}
 406:../board/olimex-stm32f103-stk/board/transceiver/nrftransceiver.cpp **** 		return true;
 22387              		.loc 1 406 0
 22388 0080 4FF00103 		mov	r3, #1
 22389 0084 01E0     		b	.L80
 22390              	.L78:
 407:../board/olimex-stm32f103-stk/board/transceiver/nrftransceiver.cpp **** 	}
 408:../board/olimex-stm32f103-stk/board/transceiver/nrftransceiver.cpp **** 	return false;
 22391              		.loc 1 408 0
 22392 0086 4FF00003 		mov	r3, #0
 22393              	.L80:
 22394              	.LBE26:
 409:../board/olimex-stm32f103-stk/board/transceiver/nrftransceiver.cpp **** }
 22395              		.loc 1 409 0
 22396 008a 1846     		mov	r0, r3
 22397 008c 07F10807 		add	r7, r7, #8
 22398 0090 BD46     		mov	sp, r7
 22399 0092 80BD     		pop	{r7, pc}
 22400              		.cfi_endproc
 22401              	.LFE1281:
 22403              		.section	.text._ZN7AddressILj4EEC2ERKS0_,"axG",%progbits,_ZN7AddressILj4EEC5ERKS0_,comdat
 22404              		.align	2
 22405              		.weak	_ZN7AddressILj4EEC2ERKS0_
 22406              		.thumb
 22407              		.thumb_func
 22409              	_ZN7AddressILj4EEC2ERKS0_:
 22410              	.LFB1284:
   1:/home/desem/workspace/desenet/utils/address.hpp **** #pragma once
   2:/home/desem/workspace/desenet/utils/address.hpp **** #include <cstring>
   3:/home/desem/workspace/desenet/utils/address.hpp **** #include <stdint.h>
   4:/home/desem/workspace/desenet/utils/address.hpp **** #include <algorithm>
   5:/home/desem/workspace/desenet/utils/address.hpp **** #include <string>
   6:/home/desem/workspace/desenet/utils/address.hpp **** #include <assert.h>
   7:/home/desem/workspace/desenet/utils/address.hpp **** #include <cstdio>
   8:/home/desem/workspace/desenet/utils/address.hpp **** #include <trace/Trace>
   9:/home/desem/workspace/desenet/utils/address.hpp **** 
  10:/home/desem/workspace/desenet/utils/address.hpp **** /**
  11:/home/desem/workspace/desenet/utils/address.hpp ****  * @defgroup utils Utils
  12:/home/desem/workspace/desenet/utils/address.hpp ****  * @brief Utility classes.
  13:/home/desem/workspace/desenet/utils/address.hpp ****  * @{
  14:/home/desem/workspace/desenet/utils/address.hpp ****  *
  15:/home/desem/workspace/desenet/utils/address.hpp ****  * @section utils_cd Class Diagram
  16:/home/desem/workspace/desenet/utils/address.hpp ****  * The Utils package contains classes that do not fit into other packages, so the classes inside th
  17:/home/desem/workspace/desenet/utils/address.hpp ****  * coupled that hard.
  18:/home/desem/workspace/desenet/utils/address.hpp ****  * @image html Utils.png
  19:/home/desem/workspace/desenet/utils/address.hpp ****  * The template class Address is a storage for any kind of address or id with a fixed size.
  20:/home/desem/workspace/desenet/utils/address.hpp ****  *
  21:/home/desem/workspace/desenet/utils/address.hpp ****  * The ObjectPool template offers a simple way to get objects of ANYkind from a pre-allocated poo
  22:/home/desem/workspace/desenet/utils/address.hpp ****  *
  23:/home/desem/workspace/desenet/utils/address.hpp ****  * The MonochromeDisplayPainter class enables transparent painting into monochrome displays, whatev
  24:/home/desem/workspace/desenet/utils/address.hpp ****  * drawing methods the display offers. This is handy to decoupe high-level code from the low-level 
  25:/home/desem/workspace/desenet/utils/address.hpp ****  * and offers the reuse of existing code.
  26:/home/desem/workspace/desenet/utils/address.hpp ****  */
  27:/home/desem/workspace/desenet/utils/address.hpp **** 
  28:/home/desem/workspace/desenet/utils/address.hpp **** 
  29:/home/desem/workspace/desenet/utils/address.hpp **** /**
  30:/home/desem/workspace/desenet/utils/address.hpp ****  * @brief Template class to use as a base for PHY/MAC/Network addresses or any other multi-byte ide
  31:/home/desem/workspace/desenet/utils/address.hpp ****  */
  32:/home/desem/workspace/desenet/utils/address.hpp **** template<size_t size>
  33:/home/desem/workspace/desenet/utils/address.hpp **** class Address
  34:/home/desem/workspace/desenet/utils/address.hpp **** {
 22411              		.loc 37 34 0
 22412              		.cfi_startproc
 22413              		@ args = 0, pretend = 0, frame = 8
 22414              		@ frame_needed = 1, uses_anonymous_args = 0
 22415              		@ link register save eliminated.
 22416 0000 80B4     		push	{r7}
 22417              	.LCFI97:
 22418              		.cfi_def_cfa_offset 4
 22419 0002 83B0     		sub	sp, sp, #12
 22420              	.LCFI98:
 22421              		.cfi_def_cfa_offset 16
 22422 0004 00AF     		add	r7, sp, #0
 22423              		.cfi_offset 7, -4
 22424              	.LCFI99:
 22425              		.cfi_def_cfa_register 7
 22426 0006 7860     		str	r0, [r7, #4]
 22427 0008 3960     		str	r1, [r7, #0]
 22428              	.LBB27:
 22429              		.loc 37 34 0
 22430 000a 7B68     		ldr	r3, [r7, #4]
 22431 000c 064A     		ldr	r2, .L83
 22432 000e 1A60     		str	r2, [r3, #0]
 22433 0010 7B68     		ldr	r3, [r7, #4]
 22434 0012 3A68     		ldr	r2, [r7, #0]
 22435 0014 5268     		ldr	r2, [r2, #4]
 22436 0016 5A60     		str	r2, [r3, #4]
 22437              	.LBE27:
 22438 0018 7B68     		ldr	r3, [r7, #4]
 22439 001a 1846     		mov	r0, r3
 22440 001c 07F10C07 		add	r7, r7, #12
 22441 0020 BD46     		mov	sp, r7
 22442 0022 80BC     		pop	{r7}
 22443 0024 7047     		bx	lr
 22444              	.L84:
 22445 0026 00BF     		.align	2
 22446              	.L83:
 22447 0028 08000000 		.word	_ZTV7AddressILj4EE+8
 22448              		.cfi_endproc
 22449              	.LFE1284:
 22451              		.weak	_ZN7AddressILj4EEC1ERKS0_
 22452              		.thumb_set _ZN7AddressILj4EEC1ERKS0_,_ZN7AddressILj4EEC2ERKS0_
 22453              		.section	.text._ZNK14NrfTransceiver22receptionFilterAddressEv,"ax",%progbits
 22454              		.align	2
 22455              		.global	_ZNK14NrfTransceiver22receptionFilterAddressEv
 22456              		.thumb
 22457              		.thumb_func
 22459              	_ZNK14NrfTransceiver22receptionFilterAddressEv:
 22460              	.LFB1282:
 410:../board/olimex-stm32f103-stk/board/transceiver/nrftransceiver.cpp **** 
 411:../board/olimex-stm32f103-stk/board/transceiver/nrftransceiver.cpp **** IPhyTransceiver::FilterAddress NrfTransceiver::receptionFilterAddress() const
 412:../board/olimex-stm32f103-stk/board/transceiver/nrftransceiver.cpp **** {
 22461              		.loc 1 412 0
 22462              		.cfi_startproc
 22463              		@ args = 0, pretend = 0, frame = 8
 22464              		@ frame_needed = 1, uses_anonymous_args = 0
 22465 0000 90B5     		push	{r4, r7, lr}
 22466              	.LCFI100:
 22467              		.cfi_def_cfa_offset 12
 22468 0002 83B0     		sub	sp, sp, #12
 22469              	.LCFI101:
 22470              		.cfi_def_cfa_offset 24
 22471 0004 00AF     		add	r7, sp, #0
 22472              		.cfi_offset 14, -4
 22473              		.cfi_offset 7, -8
 22474              		.cfi_offset 4, -12
 22475              	.LCFI102:
 22476              		.cfi_def_cfa_register 7
 22477 0006 0446     		mov	r4, r0
 22478 0008 7960     		str	r1, [r7, #4]
 413:../board/olimex-stm32f103-stk/board/transceiver/nrftransceiver.cpp **** 	return _filterAddress;
 22479              		.loc 1 413 0
 22480 000a 2246     		mov	r2, r4
 22481 000c 7B68     		ldr	r3, [r7, #4]
 22482 000e 03F12403 		add	r3, r3, #36
 22483 0012 1046     		mov	r0, r2
 22484 0014 1946     		mov	r1, r3
 22485 0016 FFF7FEFF 		bl	_ZN7AddressILj4EEC1ERKS0_
 414:../board/olimex-stm32f103-stk/board/transceiver/nrftransceiver.cpp **** }
 22486              		.loc 1 414 0
 22487 001a 2046     		mov	r0, r4
 22488 001c 2046     		mov	r0, r4
 22489 001e 07F10C07 		add	r7, r7, #12
 22490 0022 BD46     		mov	sp, r7
 22491 0024 90BD     		pop	{r4, r7, pc}
 22492              		.cfi_endproc
 22493              	.LFE1282:
 22495 0026 00BF     		.section	.text._ZN7AddressILj4EEaSERKS0_,"axG",%progbits,_ZN7AddressILj4EEaSERKS0_,comdat
 22496              		.align	2
 22497              		.weak	_ZN7AddressILj4EEaSERKS0_
 22498              		.thumb
 22499              		.thumb_func
 22501              	_ZN7AddressILj4EEaSERKS0_:
 22502              	.LFB1287:
 22503              		.loc 37 34 0
 22504              		.cfi_startproc
 22505              		@ args = 0, pretend = 0, frame = 8
 22506              		@ frame_needed = 1, uses_anonymous_args = 0
 22507              		@ link register save eliminated.
 22508 0000 80B4     		push	{r7}
 22509              	.LCFI103:
 22510              		.cfi_def_cfa_offset 4
 22511 0002 83B0     		sub	sp, sp, #12
 22512              	.LCFI104:
 22513              		.cfi_def_cfa_offset 16
 22514 0004 00AF     		add	r7, sp, #0
 22515              		.cfi_offset 7, -4
 22516              	.LCFI105:
 22517              		.cfi_def_cfa_register 7
 22518 0006 7860     		str	r0, [r7, #4]
 22519 0008 3960     		str	r1, [r7, #0]
 22520              		.loc 37 34 0
 22521 000a 7B68     		ldr	r3, [r7, #4]
 22522 000c 3A68     		ldr	r2, [r7, #0]
 22523 000e 5268     		ldr	r2, [r2, #4]
 22524 0010 5A60     		str	r2, [r3, #4]
 22525 0012 7B68     		ldr	r3, [r7, #4]
 22526 0014 1846     		mov	r0, r3
 22527 0016 07F10C07 		add	r7, r7, #12
 22528 001a BD46     		mov	sp, r7
 22529 001c 80BC     		pop	{r7}
 22530 001e 7047     		bx	lr
 22531              		.cfi_endproc
 22532              	.LFE1287:
 22534              		.section	.text._ZN14NrfTransceiver25setReceptionFilterAddressERK7AddressILj4EE,"ax",%progbits
 22535              		.align	2
 22536              		.global	_ZN14NrfTransceiver25setReceptionFilterAddressERK7AddressILj4EE
 22537              		.thumb
 22538              		.thumb_func
 22540              	_ZN14NrfTransceiver25setReceptionFilterAddressERK7AddressILj4EE:
 22541              	.LFB1286:
 415:../board/olimex-stm32f103-stk/board/transceiver/nrftransceiver.cpp **** 
 416:../board/olimex-stm32f103-stk/board/transceiver/nrftransceiver.cpp **** bool NrfTransceiver::setReceptionFilterAddress(const FilterAddress & address)
 417:../board/olimex-stm32f103-stk/board/transceiver/nrftransceiver.cpp **** {
 22542              		.loc 1 417 0
 22543              		.cfi_startproc
 22544              		@ args = 0, pretend = 0, frame = 8
 22545              		@ frame_needed = 1, uses_anonymous_args = 0
 22546 0000 80B5     		push	{r7, lr}
 22547              	.LCFI106:
 22548              		.cfi_def_cfa_offset 8
 22549 0002 82B0     		sub	sp, sp, #8
 22550              	.LCFI107:
 22551              		.cfi_def_cfa_offset 16
 22552 0004 00AF     		add	r7, sp, #0
 22553              		.cfi_offset 14, -4
 22554              		.cfi_offset 7, -8
 22555              	.LCFI108:
 22556              		.cfi_def_cfa_register 7
 22557 0006 7860     		str	r0, [r7, #4]
 22558 0008 3960     		str	r1, [r7, #0]
 418:../board/olimex-stm32f103-stk/board/transceiver/nrftransceiver.cpp **** 	if (_filterAddress != address)
 22559              		.loc 1 418 0
 22560 000a 7B68     		ldr	r3, [r7, #4]
 22561 000c 03F12403 		add	r3, r3, #36
 22562 0010 1846     		mov	r0, r3
 22563 0012 3968     		ldr	r1, [r7, #0]
 22564 0014 FFF7FEFF 		bl	_ZNK7AddressILj4EEneERKS0_
 22565 0018 0346     		mov	r3, r0
 22566 001a 002B     		cmp	r3, #0
 22567 001c 0FD0     		beq	.L88
 419:../board/olimex-stm32f103-stk/board/transceiver/nrftransceiver.cpp **** 	{
 420:../board/olimex-stm32f103-stk/board/transceiver/nrftransceiver.cpp **** 		_filterAddress = address;
 22568              		.loc 1 420 0
 22569 001e 7B68     		ldr	r3, [r7, #4]
 22570 0020 03F12403 		add	r3, r3, #36
 22571 0024 1846     		mov	r0, r3
 22572 0026 3968     		ldr	r1, [r7, #0]
 22573 0028 FFF7FEFF 		bl	_ZN7AddressILj4EEaSERKS0_
 421:../board/olimex-stm32f103-stk/board/transceiver/nrftransceiver.cpp **** 		NrfSpi::writeRegister(NrfSpi::RX_ADDR_P0, address);
 22574              		.loc 1 421 0
 22575 002c 7B68     		ldr	r3, [r7, #4]
 22576 002e 03F10403 		add	r3, r3, #4
 22577 0032 1846     		mov	r0, r3
 22578 0034 4FF00A01 		mov	r1, #10
 22579 0038 3A68     		ldr	r2, [r7, #0]
 22580 003a FFF7FEFF 		bl	_ZN6NrfSpi13writeRegisterENS_12eNrfRegisterERK7AddressILj4EE
 22581              	.L88:
 422:../board/olimex-stm32f103-stk/board/transceiver/nrftransceiver.cpp **** 	}
 423:../board/olimex-stm32f103-stk/board/transceiver/nrftransceiver.cpp **** 	return true;
 22582              		.loc 1 423 0
 22583 003e 4FF00103 		mov	r3, #1
 424:../board/olimex-stm32f103-stk/board/transceiver/nrftransceiver.cpp **** }
 22584              		.loc 1 424 0
 22585 0042 1846     		mov	r0, r3
 22586 0044 07F10807 		add	r7, r7, #8
 22587 0048 BD46     		mov	sp, r7
 22588 004a 80BD     		pop	{r7, pc}
 22589              		.cfi_endproc
 22590              	.LFE1286:
 22592              		.section	.text._ZNK14NrfTransceiver7autoAckEv,"ax",%progbits
 22593              		.align	2
 22594              		.global	_ZNK14NrfTransceiver7autoAckEv
 22595              		.thumb
 22596              		.thumb_func
 22598              	_ZNK14NrfTransceiver7autoAckEv:
 22599              	.LFB1288:
 425:../board/olimex-stm32f103-stk/board/transceiver/nrftransceiver.cpp **** 
 426:../board/olimex-stm32f103-stk/board/transceiver/nrftransceiver.cpp **** bool NrfTransceiver::autoAck() const
 427:../board/olimex-stm32f103-stk/board/transceiver/nrftransceiver.cpp **** {
 22600              		.loc 1 427 0
 22601              		.cfi_startproc
 22602              		@ args = 0, pretend = 0, frame = 8
 22603              		@ frame_needed = 1, uses_anonymous_args = 0
 22604              		@ link register save eliminated.
 22605 0000 80B4     		push	{r7}
 22606              	.LCFI109:
 22607              		.cfi_def_cfa_offset 4
 22608 0002 83B0     		sub	sp, sp, #12
 22609              	.LCFI110:
 22610              		.cfi_def_cfa_offset 16
 22611 0004 00AF     		add	r7, sp, #0
 22612              		.cfi_offset 7, -4
 22613              	.LCFI111:
 22614              		.cfi_def_cfa_register 7
 22615 0006 7860     		str	r0, [r7, #4]
 428:../board/olimex-stm32f103-stk/board/transceiver/nrftransceiver.cpp **** 	return _autoAck;
 22616              		.loc 1 428 0
 22617 0008 7B68     		ldr	r3, [r7, #4]
 22618 000a 93F83530 		ldrb	r3, [r3, #53]	@ zero_extendqisi2
 429:../board/olimex-stm32f103-stk/board/transceiver/nrftransceiver.cpp **** }
 22619              		.loc 1 429 0
 22620 000e 1846     		mov	r0, r3
 22621 0010 07F10C07 		add	r7, r7, #12
 22622 0014 BD46     		mov	sp, r7
 22623 0016 80BC     		pop	{r7}
 22624 0018 7047     		bx	lr
 22625              		.cfi_endproc
 22626              	.LFE1288:
 22628 001a 00BF     		.section	.rodata
 22629 023f 00       		.align	2
 22630              	.LC16:
 22631 0240 4E72663A 		.ascii	"Nrf: Enabled AutoACK\000"
 22631      20456E61 
 22631      626C6564 
 22631      20417574 
 22631      6F41434B 
 22632 0255 000000   		.align	2
 22633              	.LC17:
 22634 0258 4E72663A 		.ascii	"Nrf: Disabled AutoACK\000"
 22634      20446973 
 22634      61626C65 
 22634      64204175 
 22634      746F4143 
 22635              		.section	.text._ZN14NrfTransceiver10setAutoAckEb,"ax",%progbits
 22636              		.align	2
 22637              		.global	_ZN14NrfTransceiver10setAutoAckEb
 22638              		.thumb
 22639              		.thumb_func
 22641              	_ZN14NrfTransceiver10setAutoAckEb:
 22642              	.LFB1289:
 430:../board/olimex-stm32f103-stk/board/transceiver/nrftransceiver.cpp **** 
 431:../board/olimex-stm32f103-stk/board/transceiver/nrftransceiver.cpp **** bool NrfTransceiver::setAutoAck(bool autoAck)
 432:../board/olimex-stm32f103-stk/board/transceiver/nrftransceiver.cpp **** {
 22643              		.loc 1 432 0
 22644              		.cfi_startproc
 22645              		@ args = 0, pretend = 0, frame = 16
 22646              		@ frame_needed = 1, uses_anonymous_args = 0
 22647 0000 80B5     		push	{r7, lr}
 22648              	.LCFI112:
 22649              		.cfi_def_cfa_offset 8
 22650 0002 84B0     		sub	sp, sp, #16
 22651              	.LCFI113:
 22652              		.cfi_def_cfa_offset 24
 22653 0004 00AF     		add	r7, sp, #0
 22654              		.cfi_offset 14, -4
 22655              		.cfi_offset 7, -8
 22656              	.LCFI114:
 22657              		.cfi_def_cfa_register 7
 22658 0006 7860     		str	r0, [r7, #4]
 22659 0008 0B46     		mov	r3, r1
 22660 000a FB70     		strb	r3, [r7, #3]
 22661              	.LBB28:
 22662              	.LBB29:
 433:../board/olimex-stm32f103-stk/board/transceiver/nrftransceiver.cpp **** 	if (_autoAck != autoAck)
 22663              		.loc 1 433 0
 22664 000c 7B68     		ldr	r3, [r7, #4]
 22665 000e 93F83530 		ldrb	r3, [r3, #53]	@ zero_extendqisi2
 22666 0012 FA78     		ldrb	r2, [r7, #3]	@ zero_extendqisi2
 22667 0014 9A42     		cmp	r2, r3
 22668 0016 2BD0     		beq	.L91
 22669              	.LBB30:
 434:../board/olimex-stm32f103-stk/board/transceiver/nrftransceiver.cpp **** 	{
 435:../board/olimex-stm32f103-stk/board/transceiver/nrftransceiver.cpp **** 		tRegister regValue = 0x3F;	// Keeps the other data pipes autoACK enabled
 22670              		.loc 1 435 0
 22671 0018 4FF03F03 		mov	r3, #63
 22672 001c FB73     		strb	r3, [r7, #15]
 436:../board/olimex-stm32f103-stk/board/transceiver/nrftransceiver.cpp **** 
 437:../board/olimex-stm32f103-stk/board/transceiver/nrftransceiver.cpp **** 		_autoAck = autoAck;			// Store value in object
 22673              		.loc 1 437 0
 22674 001e 7B68     		ldr	r3, [r7, #4]
 22675 0020 FA78     		ldrb	r2, [r7, #3]
 22676 0022 83F83520 		strb	r2, [r3, #53]
 438:../board/olimex-stm32f103-stk/board/transceiver/nrftransceiver.cpp **** 
 439:../board/olimex-stm32f103-stk/board/transceiver/nrftransceiver.cpp **** 		if (autoAck)
 22677              		.loc 1 439 0
 22678 0026 FB78     		ldrb	r3, [r7, #3]	@ zero_extendqisi2
 22679 0028 002B     		cmp	r3, #0
 22680 002a 0AD0     		beq	.L92
 440:../board/olimex-stm32f103-stk/board/transceiver/nrftransceiver.cpp **** 		{
 441:../board/olimex-stm32f103-stk/board/transceiver/nrftransceiver.cpp **** 			traceOut("Nrf: Enabled AutoACK");
 22681              		.loc 1 441 0
 22682 002c 40F20000 		movw	r0, #:lower16:.LC16
 22683 0030 C0F20000 		movt	r0, #:upper16:.LC16
 22684 0034 FFF7FEFF 		bl	_ZN14NrfTransceiver8traceOutEPKcz
 442:../board/olimex-stm32f103-stk/board/transceiver/nrftransceiver.cpp **** 			regValue |= 0x01;		// Set bit to enable AutoACK on data pipe 0
 22685              		.loc 1 442 0
 22686 0038 FB7B     		ldrb	r3, [r7, #15]
 22687 003a 43F00103 		orr	r3, r3, #1
 22688 003e FB73     		strb	r3, [r7, #15]
 22689 0040 09E0     		b	.L93
 22690              	.L92:
 443:../board/olimex-stm32f103-stk/board/transceiver/nrftransceiver.cpp **** 		}
 444:../board/olimex-stm32f103-stk/board/transceiver/nrftransceiver.cpp **** 		else
 445:../board/olimex-stm32f103-stk/board/transceiver/nrftransceiver.cpp **** 		{
 446:../board/olimex-stm32f103-stk/board/transceiver/nrftransceiver.cpp **** 			traceOut("Nrf: Disabled AutoACK");
 22691              		.loc 1 446 0
 22692 0042 40F20000 		movw	r0, #:lower16:.LC17
 22693 0046 C0F20000 		movt	r0, #:upper16:.LC17
 22694 004a FFF7FEFF 		bl	_ZN14NrfTransceiver8traceOutEPKcz
 447:../board/olimex-stm32f103-stk/board/transceiver/nrftransceiver.cpp **** 			regValue &= ~0x01;		// Clear bit to disable AutoACK on data pipe 0
 22695              		.loc 1 447 0
 22696 004e FB7B     		ldrb	r3, [r7, #15]
 22697 0050 23F00103 		bic	r3, r3, #1
 22698 0054 FB73     		strb	r3, [r7, #15]
 22699              	.L93:
 448:../board/olimex-stm32f103-stk/board/transceiver/nrftransceiver.cpp **** 		}
 449:../board/olimex-stm32f103-stk/board/transceiver/nrftransceiver.cpp **** 
 450:../board/olimex-stm32f103-stk/board/transceiver/nrftransceiver.cpp **** 		NrfSpi::writeRegister(NrfSpi::EN_AA, regValue);
 22700              		.loc 1 450 0
 22701 0056 7B68     		ldr	r3, [r7, #4]
 22702 0058 03F10402 		add	r2, r3, #4
 22703 005c FB7B     		ldrb	r3, [r7, #15]	@ zero_extendqisi2
 22704 005e 1046     		mov	r0, r2
 22705 0060 4FF00101 		mov	r1, #1
 22706 0064 1A46     		mov	r2, r3
 22707 0066 FFF7FEFF 		bl	_ZN6NrfSpi13writeRegisterENS_12eNrfRegisterEh
 451:../board/olimex-stm32f103-stk/board/transceiver/nrftransceiver.cpp **** 		return true;
 22708              		.loc 1 451 0
 22709 006a 4FF00103 		mov	r3, #1
 22710 006e 01E0     		b	.L94
 22711              	.L91:
 22712              	.LBE30:
 22713              	.LBE29:
 452:../board/olimex-stm32f103-stk/board/transceiver/nrftransceiver.cpp **** 	}
 453:../board/olimex-stm32f103-stk/board/transceiver/nrftransceiver.cpp **** 	return false;
 22714              		.loc 1 453 0
 22715 0070 4FF00003 		mov	r3, #0
 22716              	.L94:
 22717              	.LBE28:
 454:../board/olimex-stm32f103-stk/board/transceiver/nrftransceiver.cpp **** }
 22718              		.loc 1 454 0
 22719 0074 1846     		mov	r0, r3
 22720 0076 07F11007 		add	r7, r7, #16
 22721 007a BD46     		mov	sp, r7
 22722 007c 80BD     		pop	{r7, pc}
 22723              		.cfi_endproc
 22724              	.LFE1289:
 22726 007e 00BF     		.section	.rodata
 22727 026e 0000     		.align	2
 22728              	.LC18:
 22729 0270 5F704F62 		.ascii	"_pObserver\000"
 22729      73657276 
 22729      657200
 22730              		.section	.text._ZN14NrfTransceiver11setObserverEP12IPhyObserver,"ax",%progbits
 22731              		.align	2
 22732              		.global	_ZN14NrfTransceiver11setObserverEP12IPhyObserver
 22733              		.thumb
 22734              		.thumb_func
 22736              	_ZN14NrfTransceiver11setObserverEP12IPhyObserver:
 22737              	.LFB1290:
 455:../board/olimex-stm32f103-stk/board/transceiver/nrftransceiver.cpp **** 
 456:../board/olimex-stm32f103-stk/board/transceiver/nrftransceiver.cpp **** bool NrfTransceiver::setObserver(IPhyObserver * observer)
 457:../board/olimex-stm32f103-stk/board/transceiver/nrftransceiver.cpp **** {
 22738              		.loc 1 457 0
 22739              		.cfi_startproc
 22740              		@ args = 0, pretend = 0, frame = 8
 22741              		@ frame_needed = 1, uses_anonymous_args = 0
 22742 0000 80B5     		push	{r7, lr}
 22743              	.LCFI115:
 22744              		.cfi_def_cfa_offset 8
 22745 0002 82B0     		sub	sp, sp, #8
 22746              	.LCFI116:
 22747              		.cfi_def_cfa_offset 16
 22748 0004 00AF     		add	r7, sp, #0
 22749              		.cfi_offset 14, -4
 22750              		.cfi_offset 7, -8
 22751              	.LCFI117:
 22752              		.cfi_def_cfa_register 7
 22753 0006 7860     		str	r0, [r7, #4]
 22754 0008 3960     		str	r1, [r7, #0]
 22755              	.LBB31:
 458:../board/olimex-stm32f103-stk/board/transceiver/nrftransceiver.cpp **** 	if (!_pObserver)
 22756              		.loc 1 458 0
 22757 000a 7B68     		ldr	r3, [r7, #4]
 22758 000c 1B6B     		ldr	r3, [r3, #48]
 22759 000e 002B     		cmp	r3, #0
 22760 0010 19D1     		bne	.L96
 459:../board/olimex-stm32f103-stk/board/transceiver/nrftransceiver.cpp **** 	{
 460:../board/olimex-stm32f103-stk/board/transceiver/nrftransceiver.cpp **** 		_pObserver = observer;
 22761              		.loc 1 460 0
 22762 0012 7B68     		ldr	r3, [r7, #4]
 22763 0014 3A68     		ldr	r2, [r7, #0]
 22764 0016 1A63     		str	r2, [r3, #48]
 461:../board/olimex-stm32f103-stk/board/transceiver/nrftransceiver.cpp **** 		assert(_pObserver);
 22765              		.loc 1 461 0
 22766 0018 7B68     		ldr	r3, [r7, #4]
 22767 001a 1B6B     		ldr	r3, [r3, #48]
 22768 001c 002B     		cmp	r3, #0
 22769 001e 0FD1     		bne	.L97
 22770              		.loc 1 461 0 is_stmt 0 discriminator 1
 22771 0020 40F20000 		movw	r0, #:lower16:.LC0
 22772 0024 C0F20000 		movt	r0, #:upper16:.LC0
 22773 0028 40F2CD11 		movw	r1, #461
 22774 002c 40F20002 		movw	r2, #:lower16:_ZZN14NrfTransceiver11setObserverEP12IPhyObserverE19__PRETTY_FUNCTION__
 22775 0030 C0F20002 		movt	r2, #:upper16:_ZZN14NrfTransceiver11setObserverEP12IPhyObserverE19__PRETTY_FUNCTION__
 22776 0034 40F20003 		movw	r3, #:lower16:.LC18
 22777 0038 C0F20003 		movt	r3, #:upper16:.LC18
 22778 003c FFF7FEFF 		bl	__assert_func
 22779              	.L97:
 462:../board/olimex-stm32f103-stk/board/transceiver/nrftransceiver.cpp **** 		return true;
 22780              		.loc 1 462 0 is_stmt 1
 22781 0040 4FF00103 		mov	r3, #1
 22782 0044 01E0     		b	.L98
 22783              	.L96:
 463:../board/olimex-stm32f103-stk/board/transceiver/nrftransceiver.cpp **** 	}
 464:../board/olimex-stm32f103-stk/board/transceiver/nrftransceiver.cpp **** 	return false;
 22784              		.loc 1 464 0
 22785 0046 4FF00003 		mov	r3, #0
 22786              	.L98:
 22787              	.LBE31:
 465:../board/olimex-stm32f103-stk/board/transceiver/nrftransceiver.cpp **** }
 22788              		.loc 1 465 0
 22789 004a 1846     		mov	r0, r3
 22790 004c 07F10807 		add	r7, r7, #8
 22791 0050 BD46     		mov	sp, r7
 22792 0052 80BD     		pop	{r7, pc}
 22793              		.cfi_endproc
 22794              	.LFE1290:
 22796              		.section	.rodata
 22797 027b 00       		.align	2
 22798              	.LC19:
 22799 027c 66616C73 		.ascii	"false\000"
 22799      6500
 22800 0282 0000     		.align	2
 22801              	.LC20:
 22802 0284 4E72663A 		.ascii	"Nrf: TX Frame (size %d): %s\000"
 22802      20545820 
 22802      4672616D 
 22802      65202873 
 22802      697A6520 
 22803              		.section	.text._ZN14NrfTransceiver4sendERK5Frame,"ax",%progbits
 22804              		.align	2
 22805              		.global	_ZN14NrfTransceiver4sendERK5Frame
 22806              		.thumb
 22807              		.thumb_func
 22809              	_ZN14NrfTransceiver4sendERK5Frame:
 22810              	.LFB1291:
 466:../board/olimex-stm32f103-stk/board/transceiver/nrftransceiver.cpp **** 
 467:../board/olimex-stm32f103-stk/board/transceiver/nrftransceiver.cpp **** bool NrfTransceiver::send(const Frame & frame)
 468:../board/olimex-stm32f103-stk/board/transceiver/nrftransceiver.cpp **** {
 22811              		.loc 1 468 0
 22812              		.cfi_startproc
 22813              		@ args = 0, pretend = 0, frame = 24
 22814              		@ frame_needed = 1, uses_anonymous_args = 0
 22815 0000 90B5     		push	{r4, r7, lr}
 22816              	.LCFI118:
 22817              		.cfi_def_cfa_offset 12
 22818 0002 87B0     		sub	sp, sp, #28
 22819              	.LCFI119:
 22820              		.cfi_def_cfa_offset 40
 22821 0004 00AF     		add	r7, sp, #0
 22822              		.cfi_offset 14, -4
 22823              		.cfi_offset 7, -8
 22824              		.cfi_offset 4, -12
 22825              	.LCFI120:
 22826              		.cfi_def_cfa_register 7
 22827 0006 7860     		str	r0, [r7, #4]
 22828 0008 3960     		str	r1, [r7, #0]
 22829              	.LBB32:
 469:../board/olimex-stm32f103-stk/board/transceiver/nrftransceiver.cpp **** 	unsigned char status;
 470:../board/olimex-stm32f103-stk/board/transceiver/nrftransceiver.cpp **** 
 471:../board/olimex-stm32f103-stk/board/transceiver/nrftransceiver.cpp **** 	assert(NrfSpi::isInitialized());	// Call initialize() first!
 22830              		.loc 1 471 0
 22831 000a 7B68     		ldr	r3, [r7, #4]
 22832 000c 03F10403 		add	r3, r3, #4
 22833 0010 1846     		mov	r0, r3
 22834 0012 FFF7FEFF 		bl	_ZNK6NrfSpi13isInitializedEv
 22835 0016 0346     		mov	r3, r0
 22836 0018 002B     		cmp	r3, #0
 22837 001a 0FD1     		bne	.L100
 22838              		.loc 1 471 0 is_stmt 0 discriminator 1
 22839 001c 40F20000 		movw	r0, #:lower16:.LC0
 22840 0020 C0F20000 		movt	r0, #:upper16:.LC0
 22841 0024 40F2D711 		movw	r1, #471
 22842 0028 40F20002 		movw	r2, #:lower16:_ZZN14NrfTransceiver4sendERK5FrameE19__PRETTY_FUNCTION__
 22843 002c C0F20002 		movt	r2, #:upper16:_ZZN14NrfTransceiver4sendERK5FrameE19__PRETTY_FUNCTION__
 22844 0030 40F20003 		movw	r3, #:lower16:.LC14
 22845 0034 C0F20003 		movt	r3, #:upper16:.LC14
 22846 0038 FFF7FEFF 		bl	__assert_func
 22847              	.L100:
 472:../board/olimex-stm32f103-stk/board/transceiver/nrftransceiver.cpp **** 
 473:../board/olimex-stm32f103-stk/board/transceiver/nrftransceiver.cpp **** 	if (!frame.payloadSize())
 22848              		.loc 1 473 0 is_stmt 1
 22849 003c 3868     		ldr	r0, [r7, #0]
 22850 003e FFF7FEFF 		bl	_ZNK5Frame11payloadSizeEv
 22851 0042 0346     		mov	r3, r0
 22852 0044 002B     		cmp	r3, #0
 22853 0046 14BF     		ite	ne
 22854 0048 0023     		movne	r3, #0
 22855 004a 0123     		moveq	r3, #1
 22856 004c DBB2     		uxtb	r3, r3
 22857 004e 002B     		cmp	r3, #0
 22858 0050 0FD0     		beq	.L101
 474:../board/olimex-stm32f103-stk/board/transceiver/nrftransceiver.cpp **** 	{
 475:../board/olimex-stm32f103-stk/board/transceiver/nrftransceiver.cpp **** 		assert(false);	// Really wont to send frame with zero length?!
 22859              		.loc 1 475 0
 22860 0052 40F20000 		movw	r0, #:lower16:.LC0
 22861 0056 C0F20000 		movt	r0, #:upper16:.LC0
 22862 005a 40F2DB11 		movw	r1, #475
 22863 005e 40F20002 		movw	r2, #:lower16:_ZZN14NrfTransceiver4sendERK5FrameE19__PRETTY_FUNCTION__
 22864 0062 C0F20002 		movt	r2, #:upper16:_ZZN14NrfTransceiver4sendERK5FrameE19__PRETTY_FUNCTION__
 22865 0066 40F20003 		movw	r3, #:lower16:.LC19
 22866 006a C0F20003 		movt	r3, #:upper16:.LC19
 22867 006e FFF7FEFF 		bl	__assert_func
 22868              	.L101:
 476:../board/olimex-stm32f103-stk/board/transceiver/nrftransceiver.cpp **** 		return false;
 477:../board/olimex-stm32f103-stk/board/transceiver/nrftransceiver.cpp **** 	}
 478:../board/olimex-stm32f103-stk/board/transceiver/nrftransceiver.cpp **** 
 479:../board/olimex-stm32f103-stk/board/transceiver/nrftransceiver.cpp **** 	// Set destination address
 480:../board/olimex-stm32f103-stk/board/transceiver/nrftransceiver.cpp **** 	setDestinationAddress(frame.address());
 22869              		.loc 1 480 0
 22870 0072 07F10C03 		add	r3, r7, #12
 22871 0076 1846     		mov	r0, r3
 22872 0078 3968     		ldr	r1, [r7, #0]
 22873 007a FFF7FEFF 		bl	_ZNK5Frame7addressEv
 22874 007e 07F10C03 		add	r3, r7, #12
 22875 0082 7868     		ldr	r0, [r7, #4]
 22876 0084 1946     		mov	r1, r3
 22877 0086 FFF7FEFF 		bl	_ZN14NrfTransceiver21setDestinationAddressE7AddressILj4EE
 22878 008a 07F10C03 		add	r3, r7, #12
 22879 008e 1846     		mov	r0, r3
 22880 0090 FFF7FEFF 		bl	_ZN7AddressILj4EED1Ev
 481:../board/olimex-stm32f103-stk/board/transceiver/nrftransceiver.cpp **** 
 482:../board/olimex-stm32f103-stk/board/transceiver/nrftransceiver.cpp **** 	traceOut("Nrf: TX Frame (size %d): %s", frame.payloadSize(), frame.toString());
 22881              		.loc 1 482 0
 22882 0094 3868     		ldr	r0, [r7, #0]
 22883 0096 FFF7FEFF 		bl	_ZNK5Frame11payloadSizeEv
 22884 009a 0446     		mov	r4, r0
 22885 009c 3868     		ldr	r0, [r7, #0]
 22886 009e FFF7FEFF 		bl	_ZNK5Frame8toStringEv
 22887 00a2 0346     		mov	r3, r0
 22888 00a4 40F20000 		movw	r0, #:lower16:.LC20
 22889 00a8 C0F20000 		movt	r0, #:upper16:.LC20
 22890 00ac 2146     		mov	r1, r4
 22891 00ae 1A46     		mov	r2, r3
 22892 00b0 FFF7FEFF 		bl	_ZN14NrfTransceiver8traceOutEPKcz
 483:../board/olimex-stm32f103-stk/board/transceiver/nrftransceiver.cpp **** 
 484:../board/olimex-stm32f103-stk/board/transceiver/nrftransceiver.cpp **** 	NrfSpi::disableCE();
 22893              		.loc 1 484 0
 22894 00b4 7B68     		ldr	r3, [r7, #4]
 22895 00b6 03F10403 		add	r3, r3, #4
 22896 00ba 1846     		mov	r0, r3
 22897 00bc FFF7FEFF 		bl	_ZNK6NrfSpi9disableCEEv
 485:../board/olimex-stm32f103-stk/board/transceiver/nrftransceiver.cpp **** 
 486:../board/olimex-stm32f103-stk/board/transceiver/nrftransceiver.cpp **** 	// Send payload - send any data
 487:../board/olimex-stm32f103-stk/board/transceiver/nrftransceiver.cpp **** 	status = NrfSpi::sendFrame(frame);
 22898              		.loc 1 487 0
 22899 00c0 7B68     		ldr	r3, [r7, #4]
 22900 00c2 03F10403 		add	r3, r3, #4
 22901 00c6 1846     		mov	r0, r3
 22902 00c8 3968     		ldr	r1, [r7, #0]
 22903 00ca FFF7FEFF 		bl	_ZN6NrfSpi9sendFrameERK5Frame
 22904 00ce 0346     		mov	r3, r0
 22905 00d0 FB75     		strb	r3, [r7, #23]
 488:../board/olimex-stm32f103-stk/board/transceiver/nrftransceiver.cpp **** 
 489:../board/olimex-stm32f103-stk/board/transceiver/nrftransceiver.cpp ****     enterTXMode();
 22906              		.loc 1 489 0
 22907 00d2 7868     		ldr	r0, [r7, #4]
 22908 00d4 FFF7FEFF 		bl	_ZN14NrfTransceiver11enterTXModeEv
 490:../board/olimex-stm32f103-stk/board/transceiver/nrftransceiver.cpp **** 
 491:../board/olimex-stm32f103-stk/board/transceiver/nrftransceiver.cpp **** 	// Enable CE -> Starts the transmission
 492:../board/olimex-stm32f103-stk/board/transceiver/nrftransceiver.cpp ****     NrfSpi::enableCE();
 22909              		.loc 1 492 0
 22910 00d8 7B68     		ldr	r3, [r7, #4]
 22911 00da 03F10403 		add	r3, r3, #4
 22912 00de 1846     		mov	r0, r3
 22913 00e0 FFF7FEFF 		bl	_ZNK6NrfSpi8enableCEEv
 493:../board/olimex-stm32f103-stk/board/transceiver/nrftransceiver.cpp **** //	NrfSpi::disableCE();
 494:../board/olimex-stm32f103-stk/board/transceiver/nrftransceiver.cpp **** // Do not pulse
 495:../board/olimex-stm32f103-stk/board/transceiver/nrftransceiver.cpp **** 
 496:../board/olimex-stm32f103-stk/board/transceiver/nrftransceiver.cpp **** 	return true;
 22914              		.loc 1 496 0
 22915 00e4 4FF00103 		mov	r3, #1
 22916              	.LBE32:
 497:../board/olimex-stm32f103-stk/board/transceiver/nrftransceiver.cpp **** }
 22917              		.loc 1 497 0
 22918 00e8 1846     		mov	r0, r3
 22919 00ea 07F11C07 		add	r7, r7, #28
 22920 00ee BD46     		mov	sp, r7
 22921 00f0 90BD     		pop	{r4, r7, pc}
 22922              		.cfi_endproc
 22923              	.LFE1291:
 22925 00f2 00BF     		.section	.text._ZN7AddressILj4EEC2EPKh,"axG",%progbits,_ZN7AddressILj4EEC5EPKh,comdat
 22926              		.align	2
 22927              		.weak	_ZN7AddressILj4EEC2EPKh
 22928              		.thumb
 22929              		.thumb_func
 22931              	_ZN7AddressILj4EEC2EPKh:
 22932              	.LFB1304:
  35:/home/desem/workspace/desenet/utils/address.hpp **** public:
  36:/home/desem/workspace/desenet/utils/address.hpp **** 	/**
  37:/home/desem/workspace/desenet/utils/address.hpp **** 	 * @brief Creates an invalid (all bytes to 0 is considered invalid) address.
  38:/home/desem/workspace/desenet/utils/address.hpp **** 	 */
  39:/home/desem/workspace/desenet/utils/address.hpp **** 	explicit Address()
  40:/home/desem/workspace/desenet/utils/address.hpp **** 	{
  41:/home/desem/workspace/desenet/utils/address.hpp **** 		// Initialize address to default value of all bytes equal 0.
  42:/home/desem/workspace/desenet/utils/address.hpp **** 		memset( _address , 0 , size );
  43:/home/desem/workspace/desenet/utils/address.hpp **** 	}
  44:/home/desem/workspace/desenet/utils/address.hpp **** 
  45:/home/desem/workspace/desenet/utils/address.hpp **** 	/**
  46:/home/desem/workspace/desenet/utils/address.hpp **** 	 * @brief Creates an address with the data taken from the memory region pointed by from.
  47:/home/desem/workspace/desenet/utils/address.hpp **** 	 *
  48:/home/desem/workspace/desenet/utils/address.hpp **** 	 * Note that it is your responsibility to ensure that there are enough bytes for the address size.
  49:/home/desem/workspace/desenet/utils/address.hpp **** 	 *
  50:/home/desem/workspace/desenet/utils/address.hpp **** 	 * @param from Pointer to the memory region holding the address.
  51:/home/desem/workspace/desenet/utils/address.hpp **** 	 */
  52:/home/desem/workspace/desenet/utils/address.hpp **** 	explicit Address( const uint8_t * const from )
 22933              		.loc 37 52 0
 22934              		.cfi_startproc
 22935              		@ args = 0, pretend = 0, frame = 8
 22936              		@ frame_needed = 1, uses_anonymous_args = 0
 22937 0000 80B5     		push	{r7, lr}
 22938              	.LCFI121:
 22939              		.cfi_def_cfa_offset 8
 22940 0002 82B0     		sub	sp, sp, #8
 22941              	.LCFI122:
 22942              		.cfi_def_cfa_offset 16
 22943 0004 00AF     		add	r7, sp, #0
 22944              		.cfi_offset 14, -4
 22945              		.cfi_offset 7, -8
 22946              	.LCFI123:
 22947              		.cfi_def_cfa_register 7
 22948 0006 7860     		str	r0, [r7, #4]
 22949 0008 3960     		str	r1, [r7, #0]
 22950              	.LBB33:
  53:/home/desem/workspace/desenet/utils/address.hpp **** 	{
 22951              		.loc 37 53 0
 22952 000a 7B68     		ldr	r3, [r7, #4]
 22953 000c 054A     		ldr	r2, .L104
 22954 000e 1A60     		str	r2, [r3, #0]
  54:/home/desem/workspace/desenet/utils/address.hpp **** 		copyFrom( from );
 22955              		.loc 37 54 0
 22956 0010 7868     		ldr	r0, [r7, #4]
 22957 0012 3968     		ldr	r1, [r7, #0]
 22958 0014 FFF7FEFF 		bl	_ZN7AddressILj4EE8copyFromEPKh
 22959              	.LBE33:
 22960 0018 7B68     		ldr	r3, [r7, #4]
  55:/home/desem/workspace/desenet/utils/address.hpp **** 	}
 22961              		.loc 37 55 0
 22962 001a 1846     		mov	r0, r3
 22963 001c 07F10807 		add	r7, r7, #8
 22964 0020 BD46     		mov	sp, r7
 22965 0022 80BD     		pop	{r7, pc}
 22966              	.L105:
 22967              		.align	2
 22968              	.L104:
 22969 0024 08000000 		.word	_ZTV7AddressILj4EE+8
 22970              		.cfi_endproc
 22971              	.LFE1304:
 22973              		.weak	_ZN7AddressILj4EEC1EPKh
 22974              		.thumb_set _ZN7AddressILj4EEC1EPKh,_ZN7AddressILj4EEC2EPKh
 22975              		.section	.text._ZN7AddressILj4EEC2Ev,"axG",%progbits,_ZN7AddressILj4EEC5Ev,comdat
 22976              		.align	2
 22977              		.weak	_ZN7AddressILj4EEC2Ev
 22978              		.thumb
 22979              		.thumb_func
 22981              	_ZN7AddressILj4EEC2Ev:
 22982              	.LFB1307:
  39:/home/desem/workspace/desenet/utils/address.hpp **** 	explicit Address()
 22983              		.loc 37 39 0
 22984              		.cfi_startproc
 22985              		@ args = 0, pretend = 0, frame = 8
 22986              		@ frame_needed = 1, uses_anonymous_args = 0
 22987 0000 80B5     		push	{r7, lr}
 22988              	.LCFI124:
 22989              		.cfi_def_cfa_offset 8
 22990 0002 82B0     		sub	sp, sp, #8
 22991              	.LCFI125:
 22992              		.cfi_def_cfa_offset 16
 22993 0004 00AF     		add	r7, sp, #0
 22994              		.cfi_offset 14, -4
 22995              		.cfi_offset 7, -8
 22996              	.LCFI126:
 22997              		.cfi_def_cfa_register 7
 22998 0006 7860     		str	r0, [r7, #4]
 22999              	.LBB34:
  40:/home/desem/workspace/desenet/utils/address.hpp **** 	{
 23000              		.loc 37 40 0
 23001 0008 7B68     		ldr	r3, [r7, #4]
 23002 000a 094A     		ldr	r2, .L108
 23003 000c 1A60     		str	r2, [r3, #0]
  42:/home/desem/workspace/desenet/utils/address.hpp **** 		memset( _address , 0 , size );
 23004              		.loc 37 42 0
 23005 000e 7B68     		ldr	r3, [r7, #4]
 23006 0010 03F10403 		add	r3, r3, #4
 23007 0014 1846     		mov	r0, r3
 23008 0016 4FF00001 		mov	r1, #0
 23009 001a 4FF00402 		mov	r2, #4
 23010 001e FFF7FEFF 		bl	memset
 23011              	.LBE34:
 23012 0022 7B68     		ldr	r3, [r7, #4]
  43:/home/desem/workspace/desenet/utils/address.hpp **** 	}
 23013              		.loc 37 43 0
 23014 0024 1846     		mov	r0, r3
 23015 0026 07F10807 		add	r7, r7, #8
 23016 002a BD46     		mov	sp, r7
 23017 002c 80BD     		pop	{r7, pc}
 23018              	.L109:
 23019 002e 00BF     		.align	2
 23020              	.L108:
 23021 0030 08000000 		.word	_ZTV7AddressILj4EE+8
 23022              		.cfi_endproc
 23023              	.LFE1307:
 23025              		.weak	_ZN7AddressILj4EEC1Ev
 23026              		.thumb_set _ZN7AddressILj4EEC1Ev,_ZN7AddressILj4EEC2Ev
 23027              		.section	.text._ZN7AddressILj4EED2Ev,"axG",%progbits,_ZN7AddressILj4EED5Ev,comdat
 23028              		.align	2
 23029              		.weak	_ZN7AddressILj4EED2Ev
 23030              		.thumb
 23031              		.thumb_func
 23033              	_ZN7AddressILj4EED2Ev:
 23034              	.LFB1310:
  56:/home/desem/workspace/desenet/utils/address.hpp **** 
  57:/home/desem/workspace/desenet/utils/address.hpp **** 	/**
  58:/home/desem/workspace/desenet/utils/address.hpp **** 	 * @brief Destructor, actually it does nothing @ all.
  59:/home/desem/workspace/desenet/utils/address.hpp **** 	 */
  60:/home/desem/workspace/desenet/utils/address.hpp **** 	virtual ~Address()
 23035              		.loc 37 60 0
 23036              		.cfi_startproc
 23037              		@ args = 0, pretend = 0, frame = 8
 23038              		@ frame_needed = 1, uses_anonymous_args = 0
 23039 0000 80B5     		push	{r7, lr}
 23040              	.LCFI127:
 23041              		.cfi_def_cfa_offset 8
 23042 0002 82B0     		sub	sp, sp, #8
 23043              	.LCFI128:
 23044              		.cfi_def_cfa_offset 16
 23045 0004 00AF     		add	r7, sp, #0
 23046              		.cfi_offset 14, -4
 23047              		.cfi_offset 7, -8
 23048              	.LCFI129:
 23049              		.cfi_def_cfa_register 7
 23050 0006 7860     		str	r0, [r7, #4]
 23051              	.LBB35:
  61:/home/desem/workspace/desenet/utils/address.hpp **** 	{}
 23052              		.loc 37 61 0
 23053 0008 7B68     		ldr	r3, [r7, #4]
 23054 000a 094A     		ldr	r2, .L113
 23055 000c 1A60     		str	r2, [r3, #0]
 23056              	.LBE35:
 23057 000e 4FF00003 		mov	r3, #0
 23058 0012 03F00103 		and	r3, r3, #1
 23059 0016 DBB2     		uxtb	r3, r3
 23060 0018 002B     		cmp	r3, #0
 23061 001a 02D0     		beq	.L112
 23062              		.loc 37 61 0 is_stmt 0 discriminator 1
 23063 001c 7868     		ldr	r0, [r7, #4]
 23064 001e FFF7FEFF 		bl	_ZdlPv
 23065              	.L112:
 23066              		.loc 37 61 0 discriminator 2
 23067 0022 7B68     		ldr	r3, [r7, #4]
 23068 0024 1846     		mov	r0, r3
 23069 0026 07F10807 		add	r7, r7, #8
 23070 002a BD46     		mov	sp, r7
 23071 002c 80BD     		pop	{r7, pc}
 23072              	.L114:
 23073 002e 00BF     		.align	2
 23074              	.L113:
 23075 0030 08000000 		.word	_ZTV7AddressILj4EE+8
 23076              		.cfi_endproc
 23077              	.LFE1310:
 23079              		.weak	_ZN7AddressILj4EED1Ev
 23080              		.thumb_set _ZN7AddressILj4EED1Ev,_ZN7AddressILj4EED2Ev
 23081              		.section	.text._ZN7AddressILj4EED0Ev,"axG",%progbits,_ZN7AddressILj4EED5Ev,comdat
 23082              		.align	2
 23083              		.weak	_ZN7AddressILj4EED0Ev
 23084              		.thumb
 23085              		.thumb_func
 23087              	_ZN7AddressILj4EED0Ev:
 23088              	.LFB1312:
  60:/home/desem/workspace/desenet/utils/address.hpp **** 	virtual ~Address()
 23089              		.loc 37 60 0 is_stmt 1
 23090              		.cfi_startproc
 23091              		@ args = 0, pretend = 0, frame = 8
 23092              		@ frame_needed = 1, uses_anonymous_args = 0
 23093 0000 80B5     		push	{r7, lr}
 23094              	.LCFI130:
 23095              		.cfi_def_cfa_offset 8
 23096 0002 82B0     		sub	sp, sp, #8
 23097              	.LCFI131:
 23098              		.cfi_def_cfa_offset 16
 23099 0004 00AF     		add	r7, sp, #0
 23100              		.cfi_offset 14, -4
 23101              		.cfi_offset 7, -8
 23102              	.LCFI132:
 23103              		.cfi_def_cfa_register 7
 23104 0006 7860     		str	r0, [r7, #4]
 23105              		.loc 37 61 0
 23106 0008 7868     		ldr	r0, [r7, #4]
 23107 000a FFF7FEFF 		bl	_ZN7AddressILj4EED1Ev
 23108 000e 7868     		ldr	r0, [r7, #4]
 23109 0010 FFF7FEFF 		bl	_ZdlPv
 23110 0014 7B68     		ldr	r3, [r7, #4]
 23111 0016 1846     		mov	r0, r3
 23112 0018 07F10807 		add	r7, r7, #8
 23113 001c BD46     		mov	sp, r7
 23114 001e 80BD     		pop	{r7, pc}
 23115              		.cfi_endproc
 23116              	.LFE1312:
 23118              		.section	.text._ZN7AddressILj4EE11addressSizeEv,"axG",%progbits,_ZN7AddressILj4EE11addressSizeEv,c
 23119              		.align	2
 23120              		.weak	_ZN7AddressILj4EE11addressSizeEv
 23121              		.thumb
 23122              		.thumb_func
 23124              	_ZN7AddressILj4EE11addressSizeEv:
 23125              	.LFB1313:
  62:/home/desem/workspace/desenet/utils/address.hpp **** 
  63:/home/desem/workspace/desenet/utils/address.hpp **** 	/**
  64:/home/desem/workspace/desenet/utils/address.hpp **** 	 * @brief Returns true if the address is considered as valid (An address is invalid if all bytes a
  65:/home/desem/workspace/desenet/utils/address.hpp **** 	 *
  66:/home/desem/workspace/desenet/utils/address.hpp **** 	 * @return True if the address is valid, false otherwise.
  67:/home/desem/workspace/desenet/utils/address.hpp **** 	 */
  68:/home/desem/workspace/desenet/utils/address.hpp **** 	bool isValid() const
  69:/home/desem/workspace/desenet/utils/address.hpp **** 	{
  70:/home/desem/workspace/desenet/utils/address.hpp **** 		//An address is considered valid, if it is not the equal the default address.
  71:/home/desem/workspace/desenet/utils/address.hpp **** 		for ( size_t i = 0 ; i < size ; ++i )
  72:/home/desem/workspace/desenet/utils/address.hpp **** 			if ( _address[i] )
  73:/home/desem/workspace/desenet/utils/address.hpp **** 				return true;
  74:/home/desem/workspace/desenet/utils/address.hpp **** 
  75:/home/desem/workspace/desenet/utils/address.hpp **** 		return false;
  76:/home/desem/workspace/desenet/utils/address.hpp **** 	}
  77:/home/desem/workspace/desenet/utils/address.hpp **** 
  78:/home/desem/workspace/desenet/utils/address.hpp **** 	/**
  79:/home/desem/workspace/desenet/utils/address.hpp **** 	 * @brief Returns actual with of address in byte (default ist 4).
  80:/home/desem/workspace/desenet/utils/address.hpp **** 	 *
  81:/home/desem/workspace/desenet/utils/address.hpp **** 	 * @return Address size in byte
  82:/home/desem/workspace/desenet/utils/address.hpp **** 	 */
  83:/home/desem/workspace/desenet/utils/address.hpp **** 	static size_t addressSize()
 23126              		.loc 37 83 0
 23127              		.cfi_startproc
 23128              		@ args = 0, pretend = 0, frame = 0
 23129              		@ frame_needed = 1, uses_anonymous_args = 0
 23130              		@ link register save eliminated.
 23131 0000 80B4     		push	{r7}
 23132              	.LCFI133:
 23133              		.cfi_def_cfa_offset 4
 23134 0002 00AF     		add	r7, sp, #0
 23135              		.cfi_offset 7, -4
 23136              	.LCFI134:
 23137              		.cfi_def_cfa_register 7
  84:/home/desem/workspace/desenet/utils/address.hpp **** 	{
  85:/home/desem/workspace/desenet/utils/address.hpp **** 		return size;
 23138              		.loc 37 85 0
 23139 0004 4FF00403 		mov	r3, #4
  86:/home/desem/workspace/desenet/utils/address.hpp **** 	}
 23140              		.loc 37 86 0
 23141 0008 1846     		mov	r0, r3
 23142 000a BD46     		mov	sp, r7
 23143 000c 80BC     		pop	{r7}
 23144 000e 7047     		bx	lr
 23145              		.cfi_endproc
 23146              	.LFE1313:
 23148              		.section	.text._ZNK7AddressILj4EEneERKS0_,"axG",%progbits,_ZNK7AddressILj4EEneERKS0_,comdat
 23149              		.align	2
 23150              		.weak	_ZNK7AddressILj4EEneERKS0_
 23151              		.thumb
 23152              		.thumb_func
