   1              		.syntax unified
   2              		.cpu cortex-m3
   3              		.fpu softvfp
   4              		.eabi_attribute 20, 1
   5              		.eabi_attribute 21, 1
   6              		.eabi_attribute 23, 3
   7              		.eabi_attribute 24, 1
   8              		.eabi_attribute 25, 1
   9              		.eabi_attribute 26, 1
  10              		.eabi_attribute 30, 6
  11              		.eabi_attribute 18, 4
  12              		.thumb
  13              		.file	"stm32f10x_tim.c"
  23              	.Ltext0:
  24              		.file 1 "../target/stm32/stdperiph/src/stm32f10x_tim.c"
 17127              		.align	2
 17128              		.global	TIM_DeInit
 17129              		.thumb
 17130              		.thumb_func
 17132              	TIM_DeInit:
 17133              	.LFB29:
   1:../target/stm32/stdperiph/src/stm32f10x_tim.c **** /**
   2:../target/stm32/stdperiph/src/stm32f10x_tim.c ****   ******************************************************************************
   3:../target/stm32/stdperiph/src/stm32f10x_tim.c ****   * @file    stm32f10x_tim.c
   4:../target/stm32/stdperiph/src/stm32f10x_tim.c ****   * @author  MCD Application Team
   5:../target/stm32/stdperiph/src/stm32f10x_tim.c ****   * @version V3.4.0
   6:../target/stm32/stdperiph/src/stm32f10x_tim.c ****   * @date    10/15/2010
   7:../target/stm32/stdperiph/src/stm32f10x_tim.c ****   * @brief   This file provides all the TIM firmware functions.
   8:../target/stm32/stdperiph/src/stm32f10x_tim.c ****   ******************************************************************************
   9:../target/stm32/stdperiph/src/stm32f10x_tim.c ****   * @copy
  10:../target/stm32/stdperiph/src/stm32f10x_tim.c ****   *
  11:../target/stm32/stdperiph/src/stm32f10x_tim.c ****   * THE PRESENT FIRMWARE WHICH IS FOR GUIDANCE ONLY AIMS AT PROVIDING CUSTOMERS
  12:../target/stm32/stdperiph/src/stm32f10x_tim.c ****   * WITH CODING INFORMATION REGARDING THEIR PRODUCTS IN ORDER FOR THEM TO SAVE
  13:../target/stm32/stdperiph/src/stm32f10x_tim.c ****   * TIME. AS A RESULT, STMICROELECTRONICS SHALL NOT BE HELD LIABLE FOR ANY
  14:../target/stm32/stdperiph/src/stm32f10x_tim.c ****   * DIRECT, INDIRECT OR CONSEQUENTIAL DAMAGES WITH RESPECT TO ANY CLAIMS ARISING
  15:../target/stm32/stdperiph/src/stm32f10x_tim.c ****   * FROM THE CONTENT OF SUCH FIRMWARE AND/OR THE USE MADE BY CUSTOMERS OF THE
  16:../target/stm32/stdperiph/src/stm32f10x_tim.c ****   * CODING INFORMATION CONTAINED HEREIN IN CONNECTION WITH THEIR PRODUCTS.
  17:../target/stm32/stdperiph/src/stm32f10x_tim.c ****   *
  18:../target/stm32/stdperiph/src/stm32f10x_tim.c ****   * <h2><center>&copy; COPYRIGHT 2010 STMicroelectronics</center></h2>
  19:../target/stm32/stdperiph/src/stm32f10x_tim.c ****   */ 
  20:../target/stm32/stdperiph/src/stm32f10x_tim.c **** 
  21:../target/stm32/stdperiph/src/stm32f10x_tim.c **** /* Includes ------------------------------------------------------------------*/
  22:../target/stm32/stdperiph/src/stm32f10x_tim.c **** #include "stm32f10x_tim.h"
  23:../target/stm32/stdperiph/src/stm32f10x_tim.c **** #include "stm32f10x_rcc.h"
  24:../target/stm32/stdperiph/src/stm32f10x_tim.c **** 
  25:../target/stm32/stdperiph/src/stm32f10x_tim.c **** /** @addtogroup STM32F10x_StdPeriph_Driver
  26:../target/stm32/stdperiph/src/stm32f10x_tim.c ****   * @{
  27:../target/stm32/stdperiph/src/stm32f10x_tim.c ****   */
  28:../target/stm32/stdperiph/src/stm32f10x_tim.c **** 
  29:../target/stm32/stdperiph/src/stm32f10x_tim.c **** /** @defgroup TIM 
  30:../target/stm32/stdperiph/src/stm32f10x_tim.c ****   * @brief TIM driver modules
  31:../target/stm32/stdperiph/src/stm32f10x_tim.c ****   * @{
  32:../target/stm32/stdperiph/src/stm32f10x_tim.c ****   */
  33:../target/stm32/stdperiph/src/stm32f10x_tim.c **** 
  34:../target/stm32/stdperiph/src/stm32f10x_tim.c **** /** @defgroup TIM_Private_TypesDefinitions
  35:../target/stm32/stdperiph/src/stm32f10x_tim.c ****   * @{
  36:../target/stm32/stdperiph/src/stm32f10x_tim.c ****   */
  37:../target/stm32/stdperiph/src/stm32f10x_tim.c **** 
  38:../target/stm32/stdperiph/src/stm32f10x_tim.c **** /**
  39:../target/stm32/stdperiph/src/stm32f10x_tim.c ****   * @}
  40:../target/stm32/stdperiph/src/stm32f10x_tim.c ****   */
  41:../target/stm32/stdperiph/src/stm32f10x_tim.c **** 
  42:../target/stm32/stdperiph/src/stm32f10x_tim.c **** /** @defgroup TIM_Private_Defines
  43:../target/stm32/stdperiph/src/stm32f10x_tim.c ****   * @{
  44:../target/stm32/stdperiph/src/stm32f10x_tim.c ****   */
  45:../target/stm32/stdperiph/src/stm32f10x_tim.c **** 
  46:../target/stm32/stdperiph/src/stm32f10x_tim.c **** /* ---------------------- TIM registers bit mask ------------------------ */
  47:../target/stm32/stdperiph/src/stm32f10x_tim.c **** #define SMCR_ETR_Mask               ((uint16_t)0x00FF) 
  48:../target/stm32/stdperiph/src/stm32f10x_tim.c **** #define CCMR_Offset                 ((uint16_t)0x0018)
  49:../target/stm32/stdperiph/src/stm32f10x_tim.c **** #define CCER_CCE_Set                ((uint16_t)0x0001)  
  50:../target/stm32/stdperiph/src/stm32f10x_tim.c **** #define	CCER_CCNE_Set               ((uint16_t)0x0004) 
  51:../target/stm32/stdperiph/src/stm32f10x_tim.c **** 
  52:../target/stm32/stdperiph/src/stm32f10x_tim.c **** /**
  53:../target/stm32/stdperiph/src/stm32f10x_tim.c ****   * @}
  54:../target/stm32/stdperiph/src/stm32f10x_tim.c ****   */
  55:../target/stm32/stdperiph/src/stm32f10x_tim.c **** 
  56:../target/stm32/stdperiph/src/stm32f10x_tim.c **** /** @defgroup TIM_Private_Macros
  57:../target/stm32/stdperiph/src/stm32f10x_tim.c ****   * @{
  58:../target/stm32/stdperiph/src/stm32f10x_tim.c ****   */
  59:../target/stm32/stdperiph/src/stm32f10x_tim.c **** 
  60:../target/stm32/stdperiph/src/stm32f10x_tim.c **** /**
  61:../target/stm32/stdperiph/src/stm32f10x_tim.c ****   * @}
  62:../target/stm32/stdperiph/src/stm32f10x_tim.c ****   */
  63:../target/stm32/stdperiph/src/stm32f10x_tim.c **** 
  64:../target/stm32/stdperiph/src/stm32f10x_tim.c **** /** @defgroup TIM_Private_Variables
  65:../target/stm32/stdperiph/src/stm32f10x_tim.c ****   * @{
  66:../target/stm32/stdperiph/src/stm32f10x_tim.c ****   */
  67:../target/stm32/stdperiph/src/stm32f10x_tim.c **** 
  68:../target/stm32/stdperiph/src/stm32f10x_tim.c **** /**
  69:../target/stm32/stdperiph/src/stm32f10x_tim.c ****   * @}
  70:../target/stm32/stdperiph/src/stm32f10x_tim.c ****   */
  71:../target/stm32/stdperiph/src/stm32f10x_tim.c **** 
  72:../target/stm32/stdperiph/src/stm32f10x_tim.c **** /** @defgroup TIM_Private_FunctionPrototypes
  73:../target/stm32/stdperiph/src/stm32f10x_tim.c ****   * @{
  74:../target/stm32/stdperiph/src/stm32f10x_tim.c ****   */
  75:../target/stm32/stdperiph/src/stm32f10x_tim.c **** 
  76:../target/stm32/stdperiph/src/stm32f10x_tim.c **** static void TI1_Config(TIM_TypeDef* TIMx, uint16_t TIM_ICPolarity, uint16_t TIM_ICSelection,
  77:../target/stm32/stdperiph/src/stm32f10x_tim.c ****                        uint16_t TIM_ICFilter);
  78:../target/stm32/stdperiph/src/stm32f10x_tim.c **** static void TI2_Config(TIM_TypeDef* TIMx, uint16_t TIM_ICPolarity, uint16_t TIM_ICSelection,
  79:../target/stm32/stdperiph/src/stm32f10x_tim.c ****                        uint16_t TIM_ICFilter);
  80:../target/stm32/stdperiph/src/stm32f10x_tim.c **** static void TI3_Config(TIM_TypeDef* TIMx, uint16_t TIM_ICPolarity, uint16_t TIM_ICSelection,
  81:../target/stm32/stdperiph/src/stm32f10x_tim.c ****                        uint16_t TIM_ICFilter);
  82:../target/stm32/stdperiph/src/stm32f10x_tim.c **** static void TI4_Config(TIM_TypeDef* TIMx, uint16_t TIM_ICPolarity, uint16_t TIM_ICSelection,
  83:../target/stm32/stdperiph/src/stm32f10x_tim.c ****                        uint16_t TIM_ICFilter);
  84:../target/stm32/stdperiph/src/stm32f10x_tim.c **** /**
  85:../target/stm32/stdperiph/src/stm32f10x_tim.c ****   * @}
  86:../target/stm32/stdperiph/src/stm32f10x_tim.c ****   */
  87:../target/stm32/stdperiph/src/stm32f10x_tim.c **** 
  88:../target/stm32/stdperiph/src/stm32f10x_tim.c **** /** @defgroup TIM_Private_Macros
  89:../target/stm32/stdperiph/src/stm32f10x_tim.c ****   * @{
  90:../target/stm32/stdperiph/src/stm32f10x_tim.c ****   */
  91:../target/stm32/stdperiph/src/stm32f10x_tim.c **** 
  92:../target/stm32/stdperiph/src/stm32f10x_tim.c **** /**
  93:../target/stm32/stdperiph/src/stm32f10x_tim.c ****   * @}
  94:../target/stm32/stdperiph/src/stm32f10x_tim.c ****   */
  95:../target/stm32/stdperiph/src/stm32f10x_tim.c **** 
  96:../target/stm32/stdperiph/src/stm32f10x_tim.c **** /** @defgroup TIM_Private_Variables
  97:../target/stm32/stdperiph/src/stm32f10x_tim.c ****   * @{
  98:../target/stm32/stdperiph/src/stm32f10x_tim.c ****   */
  99:../target/stm32/stdperiph/src/stm32f10x_tim.c **** 
 100:../target/stm32/stdperiph/src/stm32f10x_tim.c **** /**
 101:../target/stm32/stdperiph/src/stm32f10x_tim.c ****   * @}
 102:../target/stm32/stdperiph/src/stm32f10x_tim.c ****   */
 103:../target/stm32/stdperiph/src/stm32f10x_tim.c **** 
 104:../target/stm32/stdperiph/src/stm32f10x_tim.c **** /** @defgroup TIM_Private_FunctionPrototypes
 105:../target/stm32/stdperiph/src/stm32f10x_tim.c ****   * @{
 106:../target/stm32/stdperiph/src/stm32f10x_tim.c ****   */
 107:../target/stm32/stdperiph/src/stm32f10x_tim.c **** 
 108:../target/stm32/stdperiph/src/stm32f10x_tim.c **** /**
 109:../target/stm32/stdperiph/src/stm32f10x_tim.c ****   * @}
 110:../target/stm32/stdperiph/src/stm32f10x_tim.c ****   */
 111:../target/stm32/stdperiph/src/stm32f10x_tim.c **** 
 112:../target/stm32/stdperiph/src/stm32f10x_tim.c **** /** @defgroup TIM_Private_Functions
 113:../target/stm32/stdperiph/src/stm32f10x_tim.c ****   * @{
 114:../target/stm32/stdperiph/src/stm32f10x_tim.c ****   */
 115:../target/stm32/stdperiph/src/stm32f10x_tim.c **** 
 116:../target/stm32/stdperiph/src/stm32f10x_tim.c **** /**
 117:../target/stm32/stdperiph/src/stm32f10x_tim.c ****   * @brief  Deinitializes the TIMx peripheral registers to their default reset values.
 118:../target/stm32/stdperiph/src/stm32f10x_tim.c ****   * @param  TIMx: where x can be 1 to 17 to select the TIM peripheral.
 119:../target/stm32/stdperiph/src/stm32f10x_tim.c ****   * @retval None
 120:../target/stm32/stdperiph/src/stm32f10x_tim.c ****   */
 121:../target/stm32/stdperiph/src/stm32f10x_tim.c **** void TIM_DeInit(TIM_TypeDef* TIMx)
 122:../target/stm32/stdperiph/src/stm32f10x_tim.c **** {
 17134              		.loc 1 122 0
 17135              		.cfi_startproc
 17136              		@ args = 0, pretend = 0, frame = 8
 17137              		@ frame_needed = 1, uses_anonymous_args = 0
 17138 0000 80B5     		push	{r7, lr}
 17139              	.LCFI0:
 17140              		.cfi_def_cfa_offset 8
 17141 0002 82B0     		sub	sp, sp, #8
 17142              	.LCFI1:
 17143              		.cfi_def_cfa_offset 16
 17144 0004 00AF     		add	r7, sp, #0
 17145              		.cfi_offset 14, -4
 17146              		.cfi_offset 7, -8
 17147              	.LCFI2:
 17148              		.cfi_def_cfa_register 7
 17149 0006 7860     		str	r0, [r7, #4]
 123:../target/stm32/stdperiph/src/stm32f10x_tim.c ****   /* Check the parameters */
 124:../target/stm32/stdperiph/src/stm32f10x_tim.c ****   assert_param(IS_TIM_ALL_PERIPH(TIMx)); 
 125:../target/stm32/stdperiph/src/stm32f10x_tim.c ****  
 126:../target/stm32/stdperiph/src/stm32f10x_tim.c ****   if (TIMx == TIM1)
 17150              		.loc 1 126 0
 17151 0008 7A68     		ldr	r2, [r7, #4]
 17152 000a 4FF43053 		mov	r3, #11264
 17153 000e C4F20103 		movt	r3, 16385
 17154 0012 9A42     		cmp	r2, r3
 17155 0014 0CD1     		bne	.L2
 127:../target/stm32/stdperiph/src/stm32f10x_tim.c ****   {
 128:../target/stm32/stdperiph/src/stm32f10x_tim.c ****     RCC_APB2PeriphResetCmd(RCC_APB2Periph_TIM1, ENABLE);
 17156              		.loc 1 128 0
 17157 0016 4FF40060 		mov	r0, #2048
 17158 001a 4FF00101 		mov	r1, #1
 17159 001e FFF7FEFF 		bl	RCC_APB2PeriphResetCmd
 129:../target/stm32/stdperiph/src/stm32f10x_tim.c ****     RCC_APB2PeriphResetCmd(RCC_APB2Periph_TIM1, DISABLE);  
 17160              		.loc 1 129 0
 17161 0022 4FF40060 		mov	r0, #2048
 17162 0026 4FF00001 		mov	r1, #0
 17163 002a FFF7FEFF 		bl	RCC_APB2PeriphResetCmd
 17164 002e 3BE1     		b	.L1
 17165              	.L2:
 130:../target/stm32/stdperiph/src/stm32f10x_tim.c ****   }     
 131:../target/stm32/stdperiph/src/stm32f10x_tim.c ****   else if (TIMx == TIM2)
 17166              		.loc 1 131 0
 17167 0030 7B68     		ldr	r3, [r7, #4]
 17168 0032 B3F1804F 		cmp	r3, #1073741824
 17169 0036 0CD1     		bne	.L4
 132:../target/stm32/stdperiph/src/stm32f10x_tim.c ****   {
 133:../target/stm32/stdperiph/src/stm32f10x_tim.c ****     RCC_APB1PeriphResetCmd(RCC_APB1Periph_TIM2, ENABLE);
 17170              		.loc 1 133 0
 17171 0038 4FF00100 		mov	r0, #1
 17172 003c 4FF00101 		mov	r1, #1
 17173 0040 FFF7FEFF 		bl	RCC_APB1PeriphResetCmd
 134:../target/stm32/stdperiph/src/stm32f10x_tim.c ****     RCC_APB1PeriphResetCmd(RCC_APB1Periph_TIM2, DISABLE);
 17174              		.loc 1 134 0
 17175 0044 4FF00100 		mov	r0, #1
 17176 0048 4FF00001 		mov	r1, #0
 17177 004c FFF7FEFF 		bl	RCC_APB1PeriphResetCmd
 17178 0050 2AE1     		b	.L1
 17179              	.L4:
 135:../target/stm32/stdperiph/src/stm32f10x_tim.c ****   }
 136:../target/stm32/stdperiph/src/stm32f10x_tim.c ****   else if (TIMx == TIM3)
 17180              		.loc 1 136 0
 17181 0052 7A68     		ldr	r2, [r7, #4]
 17182 0054 4FF48063 		mov	r3, #1024
 17183 0058 C4F20003 		movt	r3, 16384
 17184 005c 9A42     		cmp	r2, r3
 17185 005e 0CD1     		bne	.L5
 137:../target/stm32/stdperiph/src/stm32f10x_tim.c ****   {
 138:../target/stm32/stdperiph/src/stm32f10x_tim.c ****     RCC_APB1PeriphResetCmd(RCC_APB1Periph_TIM3, ENABLE);
 17186              		.loc 1 138 0
 17187 0060 4FF00200 		mov	r0, #2
 17188 0064 4FF00101 		mov	r1, #1
 17189 0068 FFF7FEFF 		bl	RCC_APB1PeriphResetCmd
 139:../target/stm32/stdperiph/src/stm32f10x_tim.c ****     RCC_APB1PeriphResetCmd(RCC_APB1Periph_TIM3, DISABLE);
 17190              		.loc 1 139 0
 17191 006c 4FF00200 		mov	r0, #2
 17192 0070 4FF00001 		mov	r1, #0
 17193 0074 FFF7FEFF 		bl	RCC_APB1PeriphResetCmd
 17194 0078 16E1     		b	.L1
 17195              	.L5:
 140:../target/stm32/stdperiph/src/stm32f10x_tim.c ****   }
 141:../target/stm32/stdperiph/src/stm32f10x_tim.c ****   else if (TIMx == TIM4)
 17196              		.loc 1 141 0
 17197 007a 7A68     		ldr	r2, [r7, #4]
 17198 007c 4FF40063 		mov	r3, #2048
 17199 0080 C4F20003 		movt	r3, 16384
 17200 0084 9A42     		cmp	r2, r3
 17201 0086 0CD1     		bne	.L6
 142:../target/stm32/stdperiph/src/stm32f10x_tim.c ****   {
 143:../target/stm32/stdperiph/src/stm32f10x_tim.c ****     RCC_APB1PeriphResetCmd(RCC_APB1Periph_TIM4, ENABLE);
 17202              		.loc 1 143 0
 17203 0088 4FF00400 		mov	r0, #4
 17204 008c 4FF00101 		mov	r1, #1
 17205 0090 FFF7FEFF 		bl	RCC_APB1PeriphResetCmd
 144:../target/stm32/stdperiph/src/stm32f10x_tim.c ****     RCC_APB1PeriphResetCmd(RCC_APB1Periph_TIM4, DISABLE);
 17206              		.loc 1 144 0
 17207 0094 4FF00400 		mov	r0, #4
 17208 0098 4FF00001 		mov	r1, #0
 17209 009c FFF7FEFF 		bl	RCC_APB1PeriphResetCmd
 17210 00a0 02E1     		b	.L1
 17211              	.L6:
 145:../target/stm32/stdperiph/src/stm32f10x_tim.c ****   } 
 146:../target/stm32/stdperiph/src/stm32f10x_tim.c ****   else if (TIMx == TIM5)
 17212              		.loc 1 146 0
 17213 00a2 7A68     		ldr	r2, [r7, #4]
 17214 00a4 4FF44063 		mov	r3, #3072
 17215 00a8 C4F20003 		movt	r3, 16384
 17216 00ac 9A42     		cmp	r2, r3
 17217 00ae 0CD1     		bne	.L7
 147:../target/stm32/stdperiph/src/stm32f10x_tim.c ****   {
 148:../target/stm32/stdperiph/src/stm32f10x_tim.c ****     RCC_APB1PeriphResetCmd(RCC_APB1Periph_TIM5, ENABLE);
 17218              		.loc 1 148 0
 17219 00b0 4FF00800 		mov	r0, #8
 17220 00b4 4FF00101 		mov	r1, #1
 17221 00b8 FFF7FEFF 		bl	RCC_APB1PeriphResetCmd
 149:../target/stm32/stdperiph/src/stm32f10x_tim.c ****     RCC_APB1PeriphResetCmd(RCC_APB1Periph_TIM5, DISABLE);
 17222              		.loc 1 149 0
 17223 00bc 4FF00800 		mov	r0, #8
 17224 00c0 4FF00001 		mov	r1, #0
 17225 00c4 FFF7FEFF 		bl	RCC_APB1PeriphResetCmd
 17226 00c8 EEE0     		b	.L1
 17227              	.L7:
 150:../target/stm32/stdperiph/src/stm32f10x_tim.c ****   } 
 151:../target/stm32/stdperiph/src/stm32f10x_tim.c ****   else if (TIMx == TIM6)
 17228              		.loc 1 151 0
 17229 00ca 7A68     		ldr	r2, [r7, #4]
 17230 00cc 4FF48053 		mov	r3, #4096
 17231 00d0 C4F20003 		movt	r3, 16384
 17232 00d4 9A42     		cmp	r2, r3
 17233 00d6 0CD1     		bne	.L8
 152:../target/stm32/stdperiph/src/stm32f10x_tim.c ****   {
 153:../target/stm32/stdperiph/src/stm32f10x_tim.c ****     RCC_APB1PeriphResetCmd(RCC_APB1Periph_TIM6, ENABLE);
 17234              		.loc 1 153 0
 17235 00d8 4FF01000 		mov	r0, #16
 17236 00dc 4FF00101 		mov	r1, #1
 17237 00e0 FFF7FEFF 		bl	RCC_APB1PeriphResetCmd
 154:../target/stm32/stdperiph/src/stm32f10x_tim.c ****     RCC_APB1PeriphResetCmd(RCC_APB1Periph_TIM6, DISABLE);
 17238              		.loc 1 154 0
 17239 00e4 4FF01000 		mov	r0, #16
 17240 00e8 4FF00001 		mov	r1, #0
 17241 00ec FFF7FEFF 		bl	RCC_APB1PeriphResetCmd
 17242 00f0 DAE0     		b	.L1
 17243              	.L8:
 155:../target/stm32/stdperiph/src/stm32f10x_tim.c ****   } 
 156:../target/stm32/stdperiph/src/stm32f10x_tim.c ****   else if (TIMx == TIM7)
 17244              		.loc 1 156 0
 17245 00f2 7A68     		ldr	r2, [r7, #4]
 17246 00f4 4FF4A053 		mov	r3, #5120
 17247 00f8 C4F20003 		movt	r3, 16384
 17248 00fc 9A42     		cmp	r2, r3
 17249 00fe 0CD1     		bne	.L9
 157:../target/stm32/stdperiph/src/stm32f10x_tim.c ****   {
 158:../target/stm32/stdperiph/src/stm32f10x_tim.c ****     RCC_APB1PeriphResetCmd(RCC_APB1Periph_TIM7, ENABLE);
 17250              		.loc 1 158 0
 17251 0100 4FF02000 		mov	r0, #32
 17252 0104 4FF00101 		mov	r1, #1
 17253 0108 FFF7FEFF 		bl	RCC_APB1PeriphResetCmd
 159:../target/stm32/stdperiph/src/stm32f10x_tim.c ****     RCC_APB1PeriphResetCmd(RCC_APB1Periph_TIM7, DISABLE);
 17254              		.loc 1 159 0
 17255 010c 4FF02000 		mov	r0, #32
 17256 0110 4FF00001 		mov	r1, #0
 17257 0114 FFF7FEFF 		bl	RCC_APB1PeriphResetCmd
 17258 0118 C6E0     		b	.L1
 17259              	.L9:
 160:../target/stm32/stdperiph/src/stm32f10x_tim.c ****   } 
 161:../target/stm32/stdperiph/src/stm32f10x_tim.c ****   else if (TIMx == TIM8)
 17260              		.loc 1 161 0
 17261 011a 7A68     		ldr	r2, [r7, #4]
 17262 011c 4FF45053 		mov	r3, #13312
 17263 0120 C4F20103 		movt	r3, 16385
 17264 0124 9A42     		cmp	r2, r3
 17265 0126 0CD1     		bne	.L10
 162:../target/stm32/stdperiph/src/stm32f10x_tim.c ****   {
 163:../target/stm32/stdperiph/src/stm32f10x_tim.c ****     RCC_APB2PeriphResetCmd(RCC_APB2Periph_TIM8, ENABLE);
 17266              		.loc 1 163 0
 17267 0128 4FF40050 		mov	r0, #8192
 17268 012c 4FF00101 		mov	r1, #1
 17269 0130 FFF7FEFF 		bl	RCC_APB2PeriphResetCmd
 164:../target/stm32/stdperiph/src/stm32f10x_tim.c ****     RCC_APB2PeriphResetCmd(RCC_APB2Periph_TIM8, DISABLE);
 17270              		.loc 1 164 0
 17271 0134 4FF40050 		mov	r0, #8192
 17272 0138 4FF00001 		mov	r1, #0
 17273 013c FFF7FEFF 		bl	RCC_APB2PeriphResetCmd
 17274 0140 B2E0     		b	.L1
 17275              	.L10:
 165:../target/stm32/stdperiph/src/stm32f10x_tim.c ****   }
 166:../target/stm32/stdperiph/src/stm32f10x_tim.c ****   else if (TIMx == TIM9)
 17276              		.loc 1 166 0
 17277 0142 7A68     		ldr	r2, [r7, #4]
 17278 0144 4FF49843 		mov	r3, #19456
 17279 0148 C4F20103 		movt	r3, 16385
 17280 014c 9A42     		cmp	r2, r3
 17281 014e 0CD1     		bne	.L11
 167:../target/stm32/stdperiph/src/stm32f10x_tim.c ****   {      
 168:../target/stm32/stdperiph/src/stm32f10x_tim.c ****     RCC_APB2PeriphResetCmd(RCC_APB2Periph_TIM9, ENABLE);
 17282              		.loc 1 168 0
 17283 0150 4FF40020 		mov	r0, #524288
 17284 0154 4FF00101 		mov	r1, #1
 17285 0158 FFF7FEFF 		bl	RCC_APB2PeriphResetCmd
 169:../target/stm32/stdperiph/src/stm32f10x_tim.c ****     RCC_APB2PeriphResetCmd(RCC_APB2Periph_TIM9, DISABLE);  
 17286              		.loc 1 169 0
 17287 015c 4FF40020 		mov	r0, #524288
 17288 0160 4FF00001 		mov	r1, #0
 17289 0164 FFF7FEFF 		bl	RCC_APB2PeriphResetCmd
 17290 0168 9EE0     		b	.L1
 17291              	.L11:
 170:../target/stm32/stdperiph/src/stm32f10x_tim.c ****    }  
 171:../target/stm32/stdperiph/src/stm32f10x_tim.c ****   else if (TIMx == TIM10)
 17292              		.loc 1 171 0
 17293 016a 7A68     		ldr	r2, [r7, #4]
 17294 016c 4FF4A043 		mov	r3, #20480
 17295 0170 C4F20103 		movt	r3, 16385
 17296 0174 9A42     		cmp	r2, r3
 17297 0176 0CD1     		bne	.L12
 172:../target/stm32/stdperiph/src/stm32f10x_tim.c ****   {      
 173:../target/stm32/stdperiph/src/stm32f10x_tim.c ****     RCC_APB2PeriphResetCmd(RCC_APB2Periph_TIM10, ENABLE);
 17298              		.loc 1 173 0
 17299 0178 4FF48010 		mov	r0, #1048576
 17300 017c 4FF00101 		mov	r1, #1
 17301 0180 FFF7FEFF 		bl	RCC_APB2PeriphResetCmd
 174:../target/stm32/stdperiph/src/stm32f10x_tim.c ****     RCC_APB2PeriphResetCmd(RCC_APB2Periph_TIM10, DISABLE);  
 17302              		.loc 1 174 0
 17303 0184 4FF48010 		mov	r0, #1048576
 17304 0188 4FF00001 		mov	r1, #0
 17305 018c FFF7FEFF 		bl	RCC_APB2PeriphResetCmd
 17306 0190 8AE0     		b	.L1
 17307              	.L12:
 175:../target/stm32/stdperiph/src/stm32f10x_tim.c ****   }  
 176:../target/stm32/stdperiph/src/stm32f10x_tim.c ****   else if (TIMx == TIM11) 
 17308              		.loc 1 176 0
 17309 0192 7A68     		ldr	r2, [r7, #4]
 17310 0194 4FF4A843 		mov	r3, #21504
 17311 0198 C4F20103 		movt	r3, 16385
 17312 019c 9A42     		cmp	r2, r3
 17313 019e 0CD1     		bne	.L13
 177:../target/stm32/stdperiph/src/stm32f10x_tim.c ****   {     
 178:../target/stm32/stdperiph/src/stm32f10x_tim.c ****     RCC_APB2PeriphResetCmd(RCC_APB2Periph_TIM11, ENABLE);
 17314              		.loc 1 178 0
 17315 01a0 4FF40010 		mov	r0, #2097152
 17316 01a4 4FF00101 		mov	r1, #1
 17317 01a8 FFF7FEFF 		bl	RCC_APB2PeriphResetCmd
 179:../target/stm32/stdperiph/src/stm32f10x_tim.c ****     RCC_APB2PeriphResetCmd(RCC_APB2Periph_TIM11, DISABLE);  
 17318              		.loc 1 179 0
 17319 01ac 4FF40010 		mov	r0, #2097152
 17320 01b0 4FF00001 		mov	r1, #0
 17321 01b4 FFF7FEFF 		bl	RCC_APB2PeriphResetCmd
 17322 01b8 76E0     		b	.L1
 17323              	.L13:
 180:../target/stm32/stdperiph/src/stm32f10x_tim.c ****   }  
 181:../target/stm32/stdperiph/src/stm32f10x_tim.c ****   else if (TIMx == TIM12)
 17324              		.loc 1 181 0
 17325 01ba 7A68     		ldr	r2, [r7, #4]
 17326 01bc 4FF4C053 		mov	r3, #6144
 17327 01c0 C4F20003 		movt	r3, 16384
 17328 01c4 9A42     		cmp	r2, r3
 17329 01c6 0CD1     		bne	.L14
 182:../target/stm32/stdperiph/src/stm32f10x_tim.c ****   {      
 183:../target/stm32/stdperiph/src/stm32f10x_tim.c ****     RCC_APB1PeriphResetCmd(RCC_APB1Periph_TIM12, ENABLE);
 17330              		.loc 1 183 0
 17331 01c8 4FF04000 		mov	r0, #64
 17332 01cc 4FF00101 		mov	r1, #1
 17333 01d0 FFF7FEFF 		bl	RCC_APB1PeriphResetCmd
 184:../target/stm32/stdperiph/src/stm32f10x_tim.c ****     RCC_APB1PeriphResetCmd(RCC_APB1Periph_TIM12, DISABLE);  
 17334              		.loc 1 184 0
 17335 01d4 4FF04000 		mov	r0, #64
 17336 01d8 4FF00001 		mov	r1, #0
 17337 01dc FFF7FEFF 		bl	RCC_APB1PeriphResetCmd
 17338 01e0 62E0     		b	.L1
 17339              	.L14:
 185:../target/stm32/stdperiph/src/stm32f10x_tim.c ****   }  
 186:../target/stm32/stdperiph/src/stm32f10x_tim.c ****   else if (TIMx == TIM13) 
 17340              		.loc 1 186 0
 17341 01e2 7A68     		ldr	r2, [r7, #4]
 17342 01e4 4FF4E053 		mov	r3, #7168
 17343 01e8 C4F20003 		movt	r3, 16384
 17344 01ec 9A42     		cmp	r2, r3
 17345 01ee 0CD1     		bne	.L15
 187:../target/stm32/stdperiph/src/stm32f10x_tim.c ****   {       
 188:../target/stm32/stdperiph/src/stm32f10x_tim.c ****     RCC_APB1PeriphResetCmd(RCC_APB1Periph_TIM13, ENABLE);
 17346              		.loc 1 188 0
 17347 01f0 4FF08000 		mov	r0, #128
 17348 01f4 4FF00101 		mov	r1, #1
 17349 01f8 FFF7FEFF 		bl	RCC_APB1PeriphResetCmd
 189:../target/stm32/stdperiph/src/stm32f10x_tim.c ****     RCC_APB1PeriphResetCmd(RCC_APB1Periph_TIM13, DISABLE);  
 17350              		.loc 1 189 0
 17351 01fc 4FF08000 		mov	r0, #128
 17352 0200 4FF00001 		mov	r1, #0
 17353 0204 FFF7FEFF 		bl	RCC_APB1PeriphResetCmd
 17354 0208 4EE0     		b	.L1
 17355              	.L15:
 190:../target/stm32/stdperiph/src/stm32f10x_tim.c ****   }
 191:../target/stm32/stdperiph/src/stm32f10x_tim.c ****   else if (TIMx == TIM14) 
 17356              		.loc 1 191 0
 17357 020a 7A68     		ldr	r2, [r7, #4]
 17358 020c 4FF40053 		mov	r3, #8192
 17359 0210 C4F20003 		movt	r3, 16384
 17360 0214 9A42     		cmp	r2, r3
 17361 0216 0CD1     		bne	.L16
 192:../target/stm32/stdperiph/src/stm32f10x_tim.c ****   {       
 193:../target/stm32/stdperiph/src/stm32f10x_tim.c ****     RCC_APB1PeriphResetCmd(RCC_APB1Periph_TIM14, ENABLE);
 17362              		.loc 1 193 0
 17363 0218 4FF48070 		mov	r0, #256
 17364 021c 4FF00101 		mov	r1, #1
 17365 0220 FFF7FEFF 		bl	RCC_APB1PeriphResetCmd
 194:../target/stm32/stdperiph/src/stm32f10x_tim.c ****     RCC_APB1PeriphResetCmd(RCC_APB1Periph_TIM14, DISABLE);  
 17366              		.loc 1 194 0
 17367 0224 4FF48070 		mov	r0, #256
 17368 0228 4FF00001 		mov	r1, #0
 17369 022c FFF7FEFF 		bl	RCC_APB1PeriphResetCmd
 17370 0230 3AE0     		b	.L1
 17371              	.L16:
 195:../target/stm32/stdperiph/src/stm32f10x_tim.c ****   }        
 196:../target/stm32/stdperiph/src/stm32f10x_tim.c ****   else if (TIMx == TIM15)
 17372              		.loc 1 196 0
 17373 0232 7A68     		ldr	r2, [r7, #4]
 17374 0234 4FF48043 		mov	r3, #16384
 17375 0238 C4F20103 		movt	r3, 16385
 17376 023c 9A42     		cmp	r2, r3
 17377 023e 0CD1     		bne	.L17
 197:../target/stm32/stdperiph/src/stm32f10x_tim.c ****   {
 198:../target/stm32/stdperiph/src/stm32f10x_tim.c ****     RCC_APB2PeriphResetCmd(RCC_APB2Periph_TIM15, ENABLE);
 17378              		.loc 1 198 0
 17379 0240 4FF48030 		mov	r0, #65536
 17380 0244 4FF00101 		mov	r1, #1
 17381 0248 FFF7FEFF 		bl	RCC_APB2PeriphResetCmd
 199:../target/stm32/stdperiph/src/stm32f10x_tim.c ****     RCC_APB2PeriphResetCmd(RCC_APB2Periph_TIM15, DISABLE);
 17382              		.loc 1 199 0
 17383 024c 4FF48030 		mov	r0, #65536
 17384 0250 4FF00001 		mov	r1, #0
 17385 0254 FFF7FEFF 		bl	RCC_APB2PeriphResetCmd
 17386 0258 26E0     		b	.L1
 17387              	.L17:
 200:../target/stm32/stdperiph/src/stm32f10x_tim.c ****   } 
 201:../target/stm32/stdperiph/src/stm32f10x_tim.c ****   else if (TIMx == TIM16)
 17388              		.loc 1 201 0
 17389 025a 7A68     		ldr	r2, [r7, #4]
 17390 025c 4FF48843 		mov	r3, #17408
 17391 0260 C4F20103 		movt	r3, 16385
 17392 0264 9A42     		cmp	r2, r3
 17393 0266 0CD1     		bne	.L18
 202:../target/stm32/stdperiph/src/stm32f10x_tim.c ****   {
 203:../target/stm32/stdperiph/src/stm32f10x_tim.c ****     RCC_APB2PeriphResetCmd(RCC_APB2Periph_TIM16, ENABLE);
 17394              		.loc 1 203 0
 17395 0268 4FF40030 		mov	r0, #131072
 17396 026c 4FF00101 		mov	r1, #1
 17397 0270 FFF7FEFF 		bl	RCC_APB2PeriphResetCmd
 204:../target/stm32/stdperiph/src/stm32f10x_tim.c ****     RCC_APB2PeriphResetCmd(RCC_APB2Periph_TIM16, DISABLE);
 17398              		.loc 1 204 0
 17399 0274 4FF40030 		mov	r0, #131072
 17400 0278 4FF00001 		mov	r1, #0
 17401 027c FFF7FEFF 		bl	RCC_APB2PeriphResetCmd
 17402 0280 12E0     		b	.L1
 17403              	.L18:
 205:../target/stm32/stdperiph/src/stm32f10x_tim.c ****   } 
 206:../target/stm32/stdperiph/src/stm32f10x_tim.c ****   else
 207:../target/stm32/stdperiph/src/stm32f10x_tim.c ****   {
 208:../target/stm32/stdperiph/src/stm32f10x_tim.c ****     if (TIMx == TIM17)
 17404              		.loc 1 208 0
 17405 0282 7A68     		ldr	r2, [r7, #4]
 17406 0284 4FF49043 		mov	r3, #18432
 17407 0288 C4F20103 		movt	r3, 16385
 17408 028c 9A42     		cmp	r2, r3
 17409 028e 0BD1     		bne	.L1
 209:../target/stm32/stdperiph/src/stm32f10x_tim.c ****     {
 210:../target/stm32/stdperiph/src/stm32f10x_tim.c ****       RCC_APB2PeriphResetCmd(RCC_APB2Periph_TIM17, ENABLE);
 17410              		.loc 1 210 0
 17411 0290 4FF48020 		mov	r0, #262144
 17412 0294 4FF00101 		mov	r1, #1
 17413 0298 FFF7FEFF 		bl	RCC_APB2PeriphResetCmd
 211:../target/stm32/stdperiph/src/stm32f10x_tim.c ****       RCC_APB2PeriphResetCmd(RCC_APB2Periph_TIM17, DISABLE);
 17414              		.loc 1 211 0
 17415 029c 4FF48020 		mov	r0, #262144
 17416 02a0 4FF00001 		mov	r1, #0
 17417 02a4 FFF7FEFF 		bl	RCC_APB2PeriphResetCmd
 17418              	.L1:
 212:../target/stm32/stdperiph/src/stm32f10x_tim.c ****     }  
 213:../target/stm32/stdperiph/src/stm32f10x_tim.c ****   }
 214:../target/stm32/stdperiph/src/stm32f10x_tim.c **** }
 17419              		.loc 1 214 0
 17420 02a8 07F10807 		add	r7, r7, #8
 17421 02ac BD46     		mov	sp, r7
 17422 02ae 80BD     		pop	{r7, pc}
 17423              		.cfi_endproc
 17424              	.LFE29:
 17426              		.section	.text.TIM_TimeBaseInit,"ax",%progbits
 17427              		.align	2
 17428              		.global	TIM_TimeBaseInit
 17429              		.thumb
 17430              		.thumb_func
 17432              	TIM_TimeBaseInit:
 17433              	.LFB30:
 215:../target/stm32/stdperiph/src/stm32f10x_tim.c **** 
 216:../target/stm32/stdperiph/src/stm32f10x_tim.c **** /**
 217:../target/stm32/stdperiph/src/stm32f10x_tim.c ****   * @brief  Initializes the TIMx Time Base Unit peripheral according to 
 218:../target/stm32/stdperiph/src/stm32f10x_tim.c ****   *   the specified parameters in the TIM_TimeBaseInitStruct.
 219:../target/stm32/stdperiph/src/stm32f10x_tim.c ****   * @param  TIMx: where x can be 1 to 17 to select the TIM peripheral.
 220:../target/stm32/stdperiph/src/stm32f10x_tim.c ****   * @param  TIM_TimeBaseInitStruct: pointer to a TIM_TimeBaseInitTypeDef
 221:../target/stm32/stdperiph/src/stm32f10x_tim.c ****   *   structure that contains the configuration information for the specified TIM peripheral.
 222:../target/stm32/stdperiph/src/stm32f10x_tim.c ****   * @retval None
 223:../target/stm32/stdperiph/src/stm32f10x_tim.c ****   */
 224:../target/stm32/stdperiph/src/stm32f10x_tim.c **** void TIM_TimeBaseInit(TIM_TypeDef* TIMx, TIM_TimeBaseInitTypeDef* TIM_TimeBaseInitStruct)
 225:../target/stm32/stdperiph/src/stm32f10x_tim.c **** {
 17434              		.loc 1 225 0
 17435              		.cfi_startproc
 17436              		@ args = 0, pretend = 0, frame = 16
 17437              		@ frame_needed = 1, uses_anonymous_args = 0
 17438              		@ link register save eliminated.
 17439 0000 80B4     		push	{r7}
 17440              	.LCFI3:
 17441              		.cfi_def_cfa_offset 4
 17442 0002 85B0     		sub	sp, sp, #20
 17443              	.LCFI4:
 17444              		.cfi_def_cfa_offset 24
 17445 0004 00AF     		add	r7, sp, #0
 17446              		.cfi_offset 7, -4
 17447              	.LCFI5:
 17448              		.cfi_def_cfa_register 7
 17449 0006 7860     		str	r0, [r7, #4]
 17450 0008 3960     		str	r1, [r7, #0]
 226:../target/stm32/stdperiph/src/stm32f10x_tim.c ****   uint16_t tmpcr1 = 0;
 17451              		.loc 1 226 0
 17452 000a 4FF00003 		mov	r3, #0
 17453 000e FB81     		strh	r3, [r7, #14]	@ movhi
 227:../target/stm32/stdperiph/src/stm32f10x_tim.c **** 
 228:../target/stm32/stdperiph/src/stm32f10x_tim.c ****   /* Check the parameters */
 229:../target/stm32/stdperiph/src/stm32f10x_tim.c ****   assert_param(IS_TIM_ALL_PERIPH(TIMx)); 
 230:../target/stm32/stdperiph/src/stm32f10x_tim.c ****   assert_param(IS_TIM_COUNTER_MODE(TIM_TimeBaseInitStruct->TIM_CounterMode));
 231:../target/stm32/stdperiph/src/stm32f10x_tim.c ****   assert_param(IS_TIM_CKD_DIV(TIM_TimeBaseInitStruct->TIM_ClockDivision));
 232:../target/stm32/stdperiph/src/stm32f10x_tim.c **** 
 233:../target/stm32/stdperiph/src/stm32f10x_tim.c ****   tmpcr1 = TIMx->CR1;  
 17454              		.loc 1 233 0
 17455 0010 7B68     		ldr	r3, [r7, #4]
 17456 0012 1B88     		ldrh	r3, [r3, #0]	@ movhi
 17457 0014 FB81     		strh	r3, [r7, #14]	@ movhi
 234:../target/stm32/stdperiph/src/stm32f10x_tim.c **** 
 235:../target/stm32/stdperiph/src/stm32f10x_tim.c ****   if((TIMx == TIM1) || (TIMx == TIM8)|| (TIMx == TIM2) || (TIMx == TIM3)||
 17458              		.loc 1 235 0
 17459 0016 7A68     		ldr	r2, [r7, #4]
 17460 0018 4FF43053 		mov	r3, #11264
 17461 001c C4F20103 		movt	r3, 16385
 17462 0020 9A42     		cmp	r2, r3
 17463 0022 1FD0     		beq	.L20
 17464              		.loc 1 235 0 is_stmt 0 discriminator 1
 17465 0024 7A68     		ldr	r2, [r7, #4]
 17466 0026 4FF45053 		mov	r3, #13312
 17467 002a C4F20103 		movt	r3, 16385
 17468 002e 9A42     		cmp	r2, r3
 17469 0030 18D0     		beq	.L20
 17470 0032 7B68     		ldr	r3, [r7, #4]
 17471 0034 B3F1804F 		cmp	r3, #1073741824
 17472 0038 14D0     		beq	.L20
 17473 003a 7A68     		ldr	r2, [r7, #4]
 17474 003c 4FF48063 		mov	r3, #1024
 17475 0040 C4F20003 		movt	r3, 16384
 17476 0044 9A42     		cmp	r2, r3
 17477 0046 0DD0     		beq	.L20
 17478 0048 7A68     		ldr	r2, [r7, #4]
 17479 004a 4FF40063 		mov	r3, #2048
 17480 004e C4F20003 		movt	r3, 16384
 17481 0052 9A42     		cmp	r2, r3
 17482 0054 06D0     		beq	.L20
 236:../target/stm32/stdperiph/src/stm32f10x_tim.c ****      (TIMx == TIM4) || (TIMx == TIM5)) 
 17483              		.loc 1 236 0 is_stmt 1
 17484 0056 7A68     		ldr	r2, [r7, #4]
 17485 0058 4FF44063 		mov	r3, #3072
 17486 005c C4F20003 		movt	r3, 16384
 17487 0060 9A42     		cmp	r2, r3
 17488 0062 09D1     		bne	.L21
 17489              	.L20:
 237:../target/stm32/stdperiph/src/stm32f10x_tim.c ****   {
 238:../target/stm32/stdperiph/src/stm32f10x_tim.c ****     /* Select the Counter Mode */
 239:../target/stm32/stdperiph/src/stm32f10x_tim.c ****     tmpcr1 &= (uint16_t)(~((uint16_t)(TIM_CR1_DIR | TIM_CR1_CMS)));
 17490              		.loc 1 239 0
 17491 0064 FB89     		ldrh	r3, [r7, #14]	@ movhi
 17492 0066 23F07003 		bic	r3, r3, #112
 17493 006a FB81     		strh	r3, [r7, #14]	@ movhi
 240:../target/stm32/stdperiph/src/stm32f10x_tim.c ****     tmpcr1 |= (uint32_t)TIM_TimeBaseInitStruct->TIM_CounterMode;
 17494              		.loc 1 240 0
 17495 006c 3B68     		ldr	r3, [r7, #0]
 17496 006e 5A88     		ldrh	r2, [r3, #2]
 17497 0070 FB89     		ldrh	r3, [r7, #14]	@ movhi
 17498 0072 42EA0303 		orr	r3, r2, r3
 17499 0076 FB81     		strh	r3, [r7, #14]	@ movhi
 17500              	.L21:
 241:../target/stm32/stdperiph/src/stm32f10x_tim.c ****   }
 242:../target/stm32/stdperiph/src/stm32f10x_tim.c ****  
 243:../target/stm32/stdperiph/src/stm32f10x_tim.c ****   if((TIMx != TIM6) && (TIMx != TIM7))
 17501              		.loc 1 243 0
 17502 0078 7A68     		ldr	r2, [r7, #4]
 17503 007a 4FF48053 		mov	r3, #4096
 17504 007e C4F20003 		movt	r3, 16384
 17505 0082 9A42     		cmp	r2, r3
 17506 0084 10D0     		beq	.L22
 17507              		.loc 1 243 0 is_stmt 0 discriminator 1
 17508 0086 7A68     		ldr	r2, [r7, #4]
 17509 0088 4FF4A053 		mov	r3, #5120
 17510 008c C4F20003 		movt	r3, 16384
 17511 0090 9A42     		cmp	r2, r3
 17512 0092 09D0     		beq	.L22
 244:../target/stm32/stdperiph/src/stm32f10x_tim.c ****   {
 245:../target/stm32/stdperiph/src/stm32f10x_tim.c ****     /* Set the clock division */
 246:../target/stm32/stdperiph/src/stm32f10x_tim.c ****     tmpcr1 &= (uint16_t)(~((uint16_t)TIM_CR1_CKD));
 17513              		.loc 1 246 0 is_stmt 1
 17514 0094 FB89     		ldrh	r3, [r7, #14]	@ movhi
 17515 0096 23F44073 		bic	r3, r3, #768
 17516 009a FB81     		strh	r3, [r7, #14]	@ movhi
 247:../target/stm32/stdperiph/src/stm32f10x_tim.c ****     tmpcr1 |= (uint32_t)TIM_TimeBaseInitStruct->TIM_ClockDivision;
 17517              		.loc 1 247 0
 17518 009c 3B68     		ldr	r3, [r7, #0]
 17519 009e DA88     		ldrh	r2, [r3, #6]
 17520 00a0 FB89     		ldrh	r3, [r7, #14]	@ movhi
 17521 00a2 42EA0303 		orr	r3, r2, r3
 17522 00a6 FB81     		strh	r3, [r7, #14]	@ movhi
 17523              	.L22:
 248:../target/stm32/stdperiph/src/stm32f10x_tim.c ****   }
 249:../target/stm32/stdperiph/src/stm32f10x_tim.c **** 
 250:../target/stm32/stdperiph/src/stm32f10x_tim.c ****   TIMx->CR1 = tmpcr1;
 17524              		.loc 1 250 0
 17525 00a8 7B68     		ldr	r3, [r7, #4]
 17526 00aa FA89     		ldrh	r2, [r7, #14]	@ movhi
 17527 00ac 1A80     		strh	r2, [r3, #0]	@ movhi
 251:../target/stm32/stdperiph/src/stm32f10x_tim.c **** 
 252:../target/stm32/stdperiph/src/stm32f10x_tim.c ****   /* Set the Autoreload value */
 253:../target/stm32/stdperiph/src/stm32f10x_tim.c ****   TIMx->ARR = TIM_TimeBaseInitStruct->TIM_Period ;
 17528              		.loc 1 253 0
 17529 00ae 3B68     		ldr	r3, [r7, #0]
 17530 00b0 9A88     		ldrh	r2, [r3, #4]
 17531 00b2 7B68     		ldr	r3, [r7, #4]
 17532 00b4 9A85     		strh	r2, [r3, #44]	@ movhi
 254:../target/stm32/stdperiph/src/stm32f10x_tim.c ****  
 255:../target/stm32/stdperiph/src/stm32f10x_tim.c ****   /* Set the Prescaler value */
 256:../target/stm32/stdperiph/src/stm32f10x_tim.c ****   TIMx->PSC = TIM_TimeBaseInitStruct->TIM_Prescaler;
 17533              		.loc 1 256 0
 17534 00b6 3B68     		ldr	r3, [r7, #0]
 17535 00b8 1A88     		ldrh	r2, [r3, #0]
 17536 00ba 7B68     		ldr	r3, [r7, #4]
 17537 00bc 1A85     		strh	r2, [r3, #40]	@ movhi
 257:../target/stm32/stdperiph/src/stm32f10x_tim.c ****     
 258:../target/stm32/stdperiph/src/stm32f10x_tim.c ****   if ((TIMx == TIM1) || (TIMx == TIM8)|| (TIMx == TIM15)|| (TIMx == TIM16) || (TIMx == TIM17))  
 17538              		.loc 1 258 0
 17539 00be 7A68     		ldr	r2, [r7, #4]
 17540 00c0 4FF43053 		mov	r3, #11264
 17541 00c4 C4F20103 		movt	r3, 16385
 17542 00c8 9A42     		cmp	r2, r3
 17543 00ca 1BD0     		beq	.L23
 17544              		.loc 1 258 0 is_stmt 0 discriminator 1
 17545 00cc 7A68     		ldr	r2, [r7, #4]
 17546 00ce 4FF45053 		mov	r3, #13312
 17547 00d2 C4F20103 		movt	r3, 16385
 17548 00d6 9A42     		cmp	r2, r3
 17549 00d8 14D0     		beq	.L23
 17550 00da 7A68     		ldr	r2, [r7, #4]
 17551 00dc 4FF48043 		mov	r3, #16384
 17552 00e0 C4F20103 		movt	r3, 16385
 17553 00e4 9A42     		cmp	r2, r3
 17554 00e6 0DD0     		beq	.L23
 17555 00e8 7A68     		ldr	r2, [r7, #4]
 17556 00ea 4FF48843 		mov	r3, #17408
 17557 00ee C4F20103 		movt	r3, 16385
 17558 00f2 9A42     		cmp	r2, r3
 17559 00f4 06D0     		beq	.L23
 17560 00f6 7A68     		ldr	r2, [r7, #4]
 17561 00f8 4FF49043 		mov	r3, #18432
 17562 00fc C4F20103 		movt	r3, 16385
 17563 0100 9A42     		cmp	r2, r3
 17564 0102 04D1     		bne	.L24
 17565              	.L23:
 259:../target/stm32/stdperiph/src/stm32f10x_tim.c ****   {
 260:../target/stm32/stdperiph/src/stm32f10x_tim.c ****     /* Set the Repetition Counter value */
 261:../target/stm32/stdperiph/src/stm32f10x_tim.c ****     TIMx->RCR = TIM_TimeBaseInitStruct->TIM_RepetitionCounter;
 17566              		.loc 1 261 0 is_stmt 1
 17567 0104 3B68     		ldr	r3, [r7, #0]
 17568 0106 1B7A     		ldrb	r3, [r3, #8]	@ zero_extendqisi2
 17569 0108 1A46     		mov	r2, r3
 17570 010a 7B68     		ldr	r3, [r7, #4]
 17571 010c 1A86     		strh	r2, [r3, #48]	@ movhi
 17572              	.L24:
 262:../target/stm32/stdperiph/src/stm32f10x_tim.c ****   }
 263:../target/stm32/stdperiph/src/stm32f10x_tim.c **** 
 264:../target/stm32/stdperiph/src/stm32f10x_tim.c ****   /* Generate an update event to reload the Prescaler and the Repetition counter
 265:../target/stm32/stdperiph/src/stm32f10x_tim.c ****      values immediately */
 266:../target/stm32/stdperiph/src/stm32f10x_tim.c ****   TIMx->EGR = TIM_PSCReloadMode_Immediate;           
 17573              		.loc 1 266 0
 17574 010e 7B68     		ldr	r3, [r7, #4]
 17575 0110 4FF00102 		mov	r2, #1
 17576 0114 9A82     		strh	r2, [r3, #20]	@ movhi
 267:../target/stm32/stdperiph/src/stm32f10x_tim.c **** }
 17577              		.loc 1 267 0
 17578 0116 07F11407 		add	r7, r7, #20
 17579 011a BD46     		mov	sp, r7
 17580 011c 80BC     		pop	{r7}
 17581 011e 7047     		bx	lr
 17582              		.cfi_endproc
 17583              	.LFE30:
 17585              		.section	.text.TIM_OC1Init,"ax",%progbits
 17586              		.align	2
 17587              		.global	TIM_OC1Init
 17588              		.thumb
 17589              		.thumb_func
 17591              	TIM_OC1Init:
 17592              	.LFB31:
 268:../target/stm32/stdperiph/src/stm32f10x_tim.c **** 
 269:../target/stm32/stdperiph/src/stm32f10x_tim.c **** /**
 270:../target/stm32/stdperiph/src/stm32f10x_tim.c ****   * @brief  Initializes the TIMx Channel1 according to the specified
 271:../target/stm32/stdperiph/src/stm32f10x_tim.c ****   *   parameters in the TIM_OCInitStruct.
 272:../target/stm32/stdperiph/src/stm32f10x_tim.c ****   * @param  TIMx: where x can be  1 to 17 except 6 and 7 to select the TIM peripheral.
 273:../target/stm32/stdperiph/src/stm32f10x_tim.c ****   * @param  TIM_OCInitStruct: pointer to a TIM_OCInitTypeDef structure
 274:../target/stm32/stdperiph/src/stm32f10x_tim.c ****   *   that contains the configuration information for the specified TIM peripheral.
 275:../target/stm32/stdperiph/src/stm32f10x_tim.c ****   * @retval None
 276:../target/stm32/stdperiph/src/stm32f10x_tim.c ****   */
 277:../target/stm32/stdperiph/src/stm32f10x_tim.c **** void TIM_OC1Init(TIM_TypeDef* TIMx, TIM_OCInitTypeDef* TIM_OCInitStruct)
 278:../target/stm32/stdperiph/src/stm32f10x_tim.c **** {
 17593              		.loc 1 278 0
 17594              		.cfi_startproc
 17595              		@ args = 0, pretend = 0, frame = 16
 17596              		@ frame_needed = 1, uses_anonymous_args = 0
 17597              		@ link register save eliminated.
 17598 0000 80B4     		push	{r7}
 17599              	.LCFI6:
 17600              		.cfi_def_cfa_offset 4
 17601 0002 85B0     		sub	sp, sp, #20
 17602              	.LCFI7:
 17603              		.cfi_def_cfa_offset 24
 17604 0004 00AF     		add	r7, sp, #0
 17605              		.cfi_offset 7, -4
 17606              	.LCFI8:
 17607              		.cfi_def_cfa_register 7
 17608 0006 7860     		str	r0, [r7, #4]
 17609 0008 3960     		str	r1, [r7, #0]
 279:../target/stm32/stdperiph/src/stm32f10x_tim.c ****   uint16_t tmpccmrx = 0, tmpccer = 0, tmpcr2 = 0;
 17610              		.loc 1 279 0
 17611 000a 4FF00003 		mov	r3, #0
 17612 000e 7B81     		strh	r3, [r7, #10]	@ movhi
 17613 0010 4FF00003 		mov	r3, #0
 17614 0014 FB81     		strh	r3, [r7, #14]	@ movhi
 17615 0016 4FF00003 		mov	r3, #0
 17616 001a BB81     		strh	r3, [r7, #12]	@ movhi
 280:../target/stm32/stdperiph/src/stm32f10x_tim.c ****    
 281:../target/stm32/stdperiph/src/stm32f10x_tim.c ****   /* Check the parameters */
 282:../target/stm32/stdperiph/src/stm32f10x_tim.c ****   assert_param(IS_TIM_LIST8_PERIPH(TIMx));
 283:../target/stm32/stdperiph/src/stm32f10x_tim.c ****   assert_param(IS_TIM_OC_MODE(TIM_OCInitStruct->TIM_OCMode));
 284:../target/stm32/stdperiph/src/stm32f10x_tim.c ****   assert_param(IS_TIM_OUTPUT_STATE(TIM_OCInitStruct->TIM_OutputState));
 285:../target/stm32/stdperiph/src/stm32f10x_tim.c ****   assert_param(IS_TIM_OC_POLARITY(TIM_OCInitStruct->TIM_OCPolarity));   
 286:../target/stm32/stdperiph/src/stm32f10x_tim.c ****  /* Disable the Channel 1: Reset the CC1E Bit */
 287:../target/stm32/stdperiph/src/stm32f10x_tim.c ****   TIMx->CCER &= (uint16_t)(~(uint16_t)TIM_CCER_CC1E);
 17617              		.loc 1 287 0
 17618 001c 7B68     		ldr	r3, [r7, #4]
 17619 001e 1B8C     		ldrh	r3, [r3, #32]	@ movhi
 17620 0020 9BB2     		uxth	r3, r3
 17621 0022 23F00103 		bic	r3, r3, #1
 17622 0026 9AB2     		uxth	r2, r3
 17623 0028 7B68     		ldr	r3, [r7, #4]
 17624 002a 1A84     		strh	r2, [r3, #32]	@ movhi
 288:../target/stm32/stdperiph/src/stm32f10x_tim.c ****   /* Get the TIMx CCER register value */
 289:../target/stm32/stdperiph/src/stm32f10x_tim.c ****   tmpccer = TIMx->CCER;
 17625              		.loc 1 289 0
 17626 002c 7B68     		ldr	r3, [r7, #4]
 17627 002e 1B8C     		ldrh	r3, [r3, #32]	@ movhi
 17628 0030 FB81     		strh	r3, [r7, #14]	@ movhi
 290:../target/stm32/stdperiph/src/stm32f10x_tim.c ****   /* Get the TIMx CR2 register value */
 291:../target/stm32/stdperiph/src/stm32f10x_tim.c ****   tmpcr2 =  TIMx->CR2;
 17629              		.loc 1 291 0
 17630 0032 7B68     		ldr	r3, [r7, #4]
 17631 0034 9B88     		ldrh	r3, [r3, #4]	@ movhi
 17632 0036 BB81     		strh	r3, [r7, #12]	@ movhi
 292:../target/stm32/stdperiph/src/stm32f10x_tim.c ****   
 293:../target/stm32/stdperiph/src/stm32f10x_tim.c ****   /* Get the TIMx CCMR1 register value */
 294:../target/stm32/stdperiph/src/stm32f10x_tim.c ****   tmpccmrx = TIMx->CCMR1;
 17633              		.loc 1 294 0
 17634 0038 7B68     		ldr	r3, [r7, #4]
 17635 003a 1B8B     		ldrh	r3, [r3, #24]	@ movhi
 17636 003c 7B81     		strh	r3, [r7, #10]	@ movhi
 295:../target/stm32/stdperiph/src/stm32f10x_tim.c ****     
 296:../target/stm32/stdperiph/src/stm32f10x_tim.c ****   /* Reset the Output Compare Mode Bits */
 297:../target/stm32/stdperiph/src/stm32f10x_tim.c ****   tmpccmrx &= (uint16_t)(~((uint16_t)TIM_CCMR1_OC1M));
 17637              		.loc 1 297 0
 17638 003e 7B89     		ldrh	r3, [r7, #10]	@ movhi
 17639 0040 23F07003 		bic	r3, r3, #112
 17640 0044 7B81     		strh	r3, [r7, #10]	@ movhi
 298:../target/stm32/stdperiph/src/stm32f10x_tim.c ****   tmpccmrx &= (uint16_t)(~((uint16_t)TIM_CCMR1_CC1S));
 17641              		.loc 1 298 0
 17642 0046 7B89     		ldrh	r3, [r7, #10]	@ movhi
 17643 0048 23F00303 		bic	r3, r3, #3
 17644 004c 7B81     		strh	r3, [r7, #10]	@ movhi
 299:../target/stm32/stdperiph/src/stm32f10x_tim.c **** 
 300:../target/stm32/stdperiph/src/stm32f10x_tim.c ****   /* Select the Output Compare Mode */
 301:../target/stm32/stdperiph/src/stm32f10x_tim.c ****   tmpccmrx |= TIM_OCInitStruct->TIM_OCMode;
 17645              		.loc 1 301 0
 17646 004e 3B68     		ldr	r3, [r7, #0]
 17647 0050 1A88     		ldrh	r2, [r3, #0]
 17648 0052 7B89     		ldrh	r3, [r7, #10]	@ movhi
 17649 0054 42EA0303 		orr	r3, r2, r3
 17650 0058 7B81     		strh	r3, [r7, #10]	@ movhi
 302:../target/stm32/stdperiph/src/stm32f10x_tim.c ****   
 303:../target/stm32/stdperiph/src/stm32f10x_tim.c ****   /* Reset the Output Polarity level */
 304:../target/stm32/stdperiph/src/stm32f10x_tim.c ****   tmpccer &= (uint16_t)(~((uint16_t)TIM_CCER_CC1P));
 17651              		.loc 1 304 0
 17652 005a FB89     		ldrh	r3, [r7, #14]	@ movhi
 17653 005c 23F00203 		bic	r3, r3, #2
 17654 0060 FB81     		strh	r3, [r7, #14]	@ movhi
 305:../target/stm32/stdperiph/src/stm32f10x_tim.c ****   /* Set the Output Compare Polarity */
 306:../target/stm32/stdperiph/src/stm32f10x_tim.c ****   tmpccer |= TIM_OCInitStruct->TIM_OCPolarity;
 17655              		.loc 1 306 0
 17656 0062 3B68     		ldr	r3, [r7, #0]
 17657 0064 1A89     		ldrh	r2, [r3, #8]
 17658 0066 FB89     		ldrh	r3, [r7, #14]	@ movhi
 17659 0068 42EA0303 		orr	r3, r2, r3
 17660 006c FB81     		strh	r3, [r7, #14]	@ movhi
 307:../target/stm32/stdperiph/src/stm32f10x_tim.c ****   
 308:../target/stm32/stdperiph/src/stm32f10x_tim.c ****   /* Set the Output State */
 309:../target/stm32/stdperiph/src/stm32f10x_tim.c ****   tmpccer |= TIM_OCInitStruct->TIM_OutputState;
 17661              		.loc 1 309 0
 17662 006e 3B68     		ldr	r3, [r7, #0]
 17663 0070 5A88     		ldrh	r2, [r3, #2]
 17664 0072 FB89     		ldrh	r3, [r7, #14]	@ movhi
 17665 0074 42EA0303 		orr	r3, r2, r3
 17666 0078 FB81     		strh	r3, [r7, #14]	@ movhi
 310:../target/stm32/stdperiph/src/stm32f10x_tim.c ****     
 311:../target/stm32/stdperiph/src/stm32f10x_tim.c ****   if((TIMx == TIM1) || (TIMx == TIM8)|| (TIMx == TIM15)||
 17667              		.loc 1 311 0
 17668 007a 7A68     		ldr	r2, [r7, #4]
 17669 007c 4FF43053 		mov	r3, #11264
 17670 0080 C4F20103 		movt	r3, 16385
 17671 0084 9A42     		cmp	r2, r3
 17672 0086 1BD0     		beq	.L26
 17673              		.loc 1 311 0 is_stmt 0 discriminator 1
 17674 0088 7A68     		ldr	r2, [r7, #4]
 17675 008a 4FF45053 		mov	r3, #13312
 17676 008e C4F20103 		movt	r3, 16385
 17677 0092 9A42     		cmp	r2, r3
 17678 0094 14D0     		beq	.L26
 17679 0096 7A68     		ldr	r2, [r7, #4]
 17680 0098 4FF48043 		mov	r3, #16384
 17681 009c C4F20103 		movt	r3, 16385
 17682 00a0 9A42     		cmp	r2, r3
 17683 00a2 0DD0     		beq	.L26
 17684 00a4 7A68     		ldr	r2, [r7, #4]
 17685 00a6 4FF48843 		mov	r3, #17408
 17686 00aa C4F20103 		movt	r3, 16385
 17687 00ae 9A42     		cmp	r2, r3
 17688 00b0 06D0     		beq	.L26
 312:../target/stm32/stdperiph/src/stm32f10x_tim.c ****      (TIMx == TIM16)|| (TIMx == TIM17))
 17689              		.loc 1 312 0 is_stmt 1
 17690 00b2 7A68     		ldr	r2, [r7, #4]
 17691 00b4 4FF49043 		mov	r3, #18432
 17692 00b8 C4F20103 		movt	r3, 16385
 17693 00bc 9A42     		cmp	r2, r3
 17694 00be 27D1     		bne	.L27
 17695              	.L26:
 313:../target/stm32/stdperiph/src/stm32f10x_tim.c ****   {
 314:../target/stm32/stdperiph/src/stm32f10x_tim.c ****     assert_param(IS_TIM_OUTPUTN_STATE(TIM_OCInitStruct->TIM_OutputNState));
 315:../target/stm32/stdperiph/src/stm32f10x_tim.c ****     assert_param(IS_TIM_OCN_POLARITY(TIM_OCInitStruct->TIM_OCNPolarity));
 316:../target/stm32/stdperiph/src/stm32f10x_tim.c ****     assert_param(IS_TIM_OCNIDLE_STATE(TIM_OCInitStruct->TIM_OCNIdleState));
 317:../target/stm32/stdperiph/src/stm32f10x_tim.c ****     assert_param(IS_TIM_OCIDLE_STATE(TIM_OCInitStruct->TIM_OCIdleState));
 318:../target/stm32/stdperiph/src/stm32f10x_tim.c ****     
 319:../target/stm32/stdperiph/src/stm32f10x_tim.c ****     /* Reset the Output N Polarity level */
 320:../target/stm32/stdperiph/src/stm32f10x_tim.c ****     tmpccer &= (uint16_t)(~((uint16_t)TIM_CCER_CC1NP));
 17696              		.loc 1 320 0
 17697 00c0 FB89     		ldrh	r3, [r7, #14]	@ movhi
 17698 00c2 23F00803 		bic	r3, r3, #8
 17699 00c6 FB81     		strh	r3, [r7, #14]	@ movhi
 321:../target/stm32/stdperiph/src/stm32f10x_tim.c ****     /* Set the Output N Polarity */
 322:../target/stm32/stdperiph/src/stm32f10x_tim.c ****     tmpccer |= TIM_OCInitStruct->TIM_OCNPolarity;
 17700              		.loc 1 322 0
 17701 00c8 3B68     		ldr	r3, [r7, #0]
 17702 00ca 5A89     		ldrh	r2, [r3, #10]
 17703 00cc FB89     		ldrh	r3, [r7, #14]	@ movhi
 17704 00ce 42EA0303 		orr	r3, r2, r3
 17705 00d2 FB81     		strh	r3, [r7, #14]	@ movhi
 323:../target/stm32/stdperiph/src/stm32f10x_tim.c ****     
 324:../target/stm32/stdperiph/src/stm32f10x_tim.c ****     /* Reset the Output N State */
 325:../target/stm32/stdperiph/src/stm32f10x_tim.c ****     tmpccer &= (uint16_t)(~((uint16_t)TIM_CCER_CC1NE));    
 17706              		.loc 1 325 0
 17707 00d4 FB89     		ldrh	r3, [r7, #14]	@ movhi
 17708 00d6 23F00403 		bic	r3, r3, #4
 17709 00da FB81     		strh	r3, [r7, #14]	@ movhi
 326:../target/stm32/stdperiph/src/stm32f10x_tim.c ****     /* Set the Output N State */
 327:../target/stm32/stdperiph/src/stm32f10x_tim.c ****     tmpccer |= TIM_OCInitStruct->TIM_OutputNState;
 17710              		.loc 1 327 0
 17711 00dc 3B68     		ldr	r3, [r7, #0]
 17712 00de 9A88     		ldrh	r2, [r3, #4]
 17713 00e0 FB89     		ldrh	r3, [r7, #14]	@ movhi
 17714 00e2 42EA0303 		orr	r3, r2, r3
 17715 00e6 FB81     		strh	r3, [r7, #14]	@ movhi
 328:../target/stm32/stdperiph/src/stm32f10x_tim.c ****     
 329:../target/stm32/stdperiph/src/stm32f10x_tim.c ****     /* Reset the Ouput Compare and Output Compare N IDLE State */
 330:../target/stm32/stdperiph/src/stm32f10x_tim.c ****     tmpcr2 &= (uint16_t)(~((uint16_t)TIM_CR2_OIS1));
 17716              		.loc 1 330 0
 17717 00e8 BB89     		ldrh	r3, [r7, #12]	@ movhi
 17718 00ea 23F48073 		bic	r3, r3, #256
 17719 00ee BB81     		strh	r3, [r7, #12]	@ movhi
 331:../target/stm32/stdperiph/src/stm32f10x_tim.c ****     tmpcr2 &= (uint16_t)(~((uint16_t)TIM_CR2_OIS1N));
 17720              		.loc 1 331 0
 17721 00f0 BB89     		ldrh	r3, [r7, #12]	@ movhi
 17722 00f2 23F40073 		bic	r3, r3, #512
 17723 00f6 BB81     		strh	r3, [r7, #12]	@ movhi
 332:../target/stm32/stdperiph/src/stm32f10x_tim.c ****     
 333:../target/stm32/stdperiph/src/stm32f10x_tim.c ****     /* Set the Output Idle state */
 334:../target/stm32/stdperiph/src/stm32f10x_tim.c ****     tmpcr2 |= TIM_OCInitStruct->TIM_OCIdleState;
 17724              		.loc 1 334 0
 17725 00f8 3B68     		ldr	r3, [r7, #0]
 17726 00fa 9A89     		ldrh	r2, [r3, #12]
 17727 00fc BB89     		ldrh	r3, [r7, #12]	@ movhi
 17728 00fe 42EA0303 		orr	r3, r2, r3
 17729 0102 BB81     		strh	r3, [r7, #12]	@ movhi
 335:../target/stm32/stdperiph/src/stm32f10x_tim.c ****     /* Set the Output N Idle state */
 336:../target/stm32/stdperiph/src/stm32f10x_tim.c ****     tmpcr2 |= TIM_OCInitStruct->TIM_OCNIdleState;
 17730              		.loc 1 336 0
 17731 0104 3B68     		ldr	r3, [r7, #0]
 17732 0106 DA89     		ldrh	r2, [r3, #14]
 17733 0108 BB89     		ldrh	r3, [r7, #12]	@ movhi
 17734 010a 42EA0303 		orr	r3, r2, r3
 17735 010e BB81     		strh	r3, [r7, #12]	@ movhi
 17736              	.L27:
 337:../target/stm32/stdperiph/src/stm32f10x_tim.c ****   }
 338:../target/stm32/stdperiph/src/stm32f10x_tim.c ****   /* Write to TIMx CR2 */
 339:../target/stm32/stdperiph/src/stm32f10x_tim.c ****   TIMx->CR2 = tmpcr2;
 17737              		.loc 1 339 0
 17738 0110 7B68     		ldr	r3, [r7, #4]
 17739 0112 BA89     		ldrh	r2, [r7, #12]	@ movhi
 17740 0114 9A80     		strh	r2, [r3, #4]	@ movhi
 340:../target/stm32/stdperiph/src/stm32f10x_tim.c ****   
 341:../target/stm32/stdperiph/src/stm32f10x_tim.c ****   /* Write to TIMx CCMR1 */
 342:../target/stm32/stdperiph/src/stm32f10x_tim.c ****   TIMx->CCMR1 = tmpccmrx;
 17741              		.loc 1 342 0
 17742 0116 7B68     		ldr	r3, [r7, #4]
 17743 0118 7A89     		ldrh	r2, [r7, #10]	@ movhi
 17744 011a 1A83     		strh	r2, [r3, #24]	@ movhi
 343:../target/stm32/stdperiph/src/stm32f10x_tim.c **** 
 344:../target/stm32/stdperiph/src/stm32f10x_tim.c ****   /* Set the Capture Compare Register value */
 345:../target/stm32/stdperiph/src/stm32f10x_tim.c ****   TIMx->CCR1 = TIM_OCInitStruct->TIM_Pulse; 
 17745              		.loc 1 345 0
 17746 011c 3B68     		ldr	r3, [r7, #0]
 17747 011e DA88     		ldrh	r2, [r3, #6]
 17748 0120 7B68     		ldr	r3, [r7, #4]
 17749 0122 9A86     		strh	r2, [r3, #52]	@ movhi
 346:../target/stm32/stdperiph/src/stm32f10x_tim.c ****  
 347:../target/stm32/stdperiph/src/stm32f10x_tim.c ****   /* Write to TIMx CCER */
 348:../target/stm32/stdperiph/src/stm32f10x_tim.c ****   TIMx->CCER = tmpccer;
 17750              		.loc 1 348 0
 17751 0124 7B68     		ldr	r3, [r7, #4]
 17752 0126 FA89     		ldrh	r2, [r7, #14]	@ movhi
 17753 0128 1A84     		strh	r2, [r3, #32]	@ movhi
 349:../target/stm32/stdperiph/src/stm32f10x_tim.c **** }
 17754              		.loc 1 349 0
 17755 012a 07F11407 		add	r7, r7, #20
 17756 012e BD46     		mov	sp, r7
 17757 0130 80BC     		pop	{r7}
 17758 0132 7047     		bx	lr
 17759              		.cfi_endproc
 17760              	.LFE31:
 17762              		.section	.text.TIM_OC2Init,"ax",%progbits
 17763              		.align	2
 17764              		.global	TIM_OC2Init
 17765              		.thumb
 17766              		.thumb_func
 17768              	TIM_OC2Init:
 17769              	.LFB32:
 350:../target/stm32/stdperiph/src/stm32f10x_tim.c **** 
 351:../target/stm32/stdperiph/src/stm32f10x_tim.c **** /**
 352:../target/stm32/stdperiph/src/stm32f10x_tim.c ****   * @brief  Initializes the TIMx Channel2 according to the specified
 353:../target/stm32/stdperiph/src/stm32f10x_tim.c ****   *   parameters in the TIM_OCInitStruct.
 354:../target/stm32/stdperiph/src/stm32f10x_tim.c ****   * @param  TIMx: where x can be  1, 2, 3, 4, 5, 8, 9, 12 or 15 to select 
 355:../target/stm32/stdperiph/src/stm32f10x_tim.c ****   *   the TIM peripheral.
 356:../target/stm32/stdperiph/src/stm32f10x_tim.c ****   * @param  TIM_OCInitStruct: pointer to a TIM_OCInitTypeDef structure
 357:../target/stm32/stdperiph/src/stm32f10x_tim.c ****   *   that contains the configuration information for the specified TIM peripheral.
 358:../target/stm32/stdperiph/src/stm32f10x_tim.c ****   * @retval None
 359:../target/stm32/stdperiph/src/stm32f10x_tim.c ****   */
 360:../target/stm32/stdperiph/src/stm32f10x_tim.c **** void TIM_OC2Init(TIM_TypeDef* TIMx, TIM_OCInitTypeDef* TIM_OCInitStruct)
 361:../target/stm32/stdperiph/src/stm32f10x_tim.c **** {
 17770              		.loc 1 361 0
 17771              		.cfi_startproc
 17772              		@ args = 0, pretend = 0, frame = 16
 17773              		@ frame_needed = 1, uses_anonymous_args = 0
 17774              		@ link register save eliminated.
 17775 0000 80B4     		push	{r7}
 17776              	.LCFI9:
 17777              		.cfi_def_cfa_offset 4
 17778 0002 85B0     		sub	sp, sp, #20
 17779              	.LCFI10:
 17780              		.cfi_def_cfa_offset 24
 17781 0004 00AF     		add	r7, sp, #0
 17782              		.cfi_offset 7, -4
 17783              	.LCFI11:
 17784              		.cfi_def_cfa_register 7
 17785 0006 7860     		str	r0, [r7, #4]
 17786 0008 3960     		str	r1, [r7, #0]
 362:../target/stm32/stdperiph/src/stm32f10x_tim.c ****   uint16_t tmpccmrx = 0, tmpccer = 0, tmpcr2 = 0;
 17787              		.loc 1 362 0
 17788 000a 4FF00003 		mov	r3, #0
 17789 000e 7B81     		strh	r3, [r7, #10]	@ movhi
 17790 0010 4FF00003 		mov	r3, #0
 17791 0014 FB81     		strh	r3, [r7, #14]	@ movhi
 17792 0016 4FF00003 		mov	r3, #0
 17793 001a BB81     		strh	r3, [r7, #12]	@ movhi
 363:../target/stm32/stdperiph/src/stm32f10x_tim.c ****    
 364:../target/stm32/stdperiph/src/stm32f10x_tim.c ****   /* Check the parameters */
 365:../target/stm32/stdperiph/src/stm32f10x_tim.c ****   assert_param(IS_TIM_LIST6_PERIPH(TIMx)); 
 366:../target/stm32/stdperiph/src/stm32f10x_tim.c ****   assert_param(IS_TIM_OC_MODE(TIM_OCInitStruct->TIM_OCMode));
 367:../target/stm32/stdperiph/src/stm32f10x_tim.c ****   assert_param(IS_TIM_OUTPUT_STATE(TIM_OCInitStruct->TIM_OutputState));
 368:../target/stm32/stdperiph/src/stm32f10x_tim.c ****   assert_param(IS_TIM_OC_POLARITY(TIM_OCInitStruct->TIM_OCPolarity));   
 369:../target/stm32/stdperiph/src/stm32f10x_tim.c ****    /* Disable the Channel 2: Reset the CC2E Bit */
 370:../target/stm32/stdperiph/src/stm32f10x_tim.c ****   TIMx->CCER &= (uint16_t)(~((uint16_t)TIM_CCER_CC2E));
 17794              		.loc 1 370 0
 17795 001c 7B68     		ldr	r3, [r7, #4]
 17796 001e 1B8C     		ldrh	r3, [r3, #32]	@ movhi
 17797 0020 9BB2     		uxth	r3, r3
 17798 0022 23F01003 		bic	r3, r3, #16
 17799 0026 9AB2     		uxth	r2, r3
 17800 0028 7B68     		ldr	r3, [r7, #4]
 17801 002a 1A84     		strh	r2, [r3, #32]	@ movhi
 371:../target/stm32/stdperiph/src/stm32f10x_tim.c ****   
 372:../target/stm32/stdperiph/src/stm32f10x_tim.c ****   /* Get the TIMx CCER register value */  
 373:../target/stm32/stdperiph/src/stm32f10x_tim.c ****   tmpccer = TIMx->CCER;
 17802              		.loc 1 373 0
 17803 002c 7B68     		ldr	r3, [r7, #4]
 17804 002e 1B8C     		ldrh	r3, [r3, #32]	@ movhi
 17805 0030 FB81     		strh	r3, [r7, #14]	@ movhi
 374:../target/stm32/stdperiph/src/stm32f10x_tim.c ****   /* Get the TIMx CR2 register value */
 375:../target/stm32/stdperiph/src/stm32f10x_tim.c ****   tmpcr2 =  TIMx->CR2;
 17806              		.loc 1 375 0
 17807 0032 7B68     		ldr	r3, [r7, #4]
 17808 0034 9B88     		ldrh	r3, [r3, #4]	@ movhi
 17809 0036 BB81     		strh	r3, [r7, #12]	@ movhi
 376:../target/stm32/stdperiph/src/stm32f10x_tim.c ****   
 377:../target/stm32/stdperiph/src/stm32f10x_tim.c ****   /* Get the TIMx CCMR1 register value */
 378:../target/stm32/stdperiph/src/stm32f10x_tim.c ****   tmpccmrx = TIMx->CCMR1;
 17810              		.loc 1 378 0
 17811 0038 7B68     		ldr	r3, [r7, #4]
 17812 003a 1B8B     		ldrh	r3, [r3, #24]	@ movhi
 17813 003c 7B81     		strh	r3, [r7, #10]	@ movhi
 379:../target/stm32/stdperiph/src/stm32f10x_tim.c ****     
 380:../target/stm32/stdperiph/src/stm32f10x_tim.c ****   /* Reset the Output Compare mode and Capture/Compare selection Bits */
 381:../target/stm32/stdperiph/src/stm32f10x_tim.c ****   tmpccmrx &= (uint16_t)(~((uint16_t)TIM_CCMR1_OC2M));
 17814              		.loc 1 381 0
 17815 003e 7B89     		ldrh	r3, [r7, #10]	@ movhi
 17816 0040 23F4E043 		bic	r3, r3, #28672
 17817 0044 7B81     		strh	r3, [r7, #10]	@ movhi
 382:../target/stm32/stdperiph/src/stm32f10x_tim.c ****   tmpccmrx &= (uint16_t)(~((uint16_t)TIM_CCMR1_CC2S));
 17818              		.loc 1 382 0
 17819 0046 7B89     		ldrh	r3, [r7, #10]	@ movhi
 17820 0048 23F44073 		bic	r3, r3, #768
 17821 004c 7B81     		strh	r3, [r7, #10]	@ movhi
 383:../target/stm32/stdperiph/src/stm32f10x_tim.c ****   
 384:../target/stm32/stdperiph/src/stm32f10x_tim.c ****   /* Select the Output Compare Mode */
 385:../target/stm32/stdperiph/src/stm32f10x_tim.c ****   tmpccmrx |= (uint16_t)(TIM_OCInitStruct->TIM_OCMode << 8);
 17822              		.loc 1 385 0
 17823 004e 3B68     		ldr	r3, [r7, #0]
 17824 0050 1B88     		ldrh	r3, [r3, #0]
 17825 0052 4FEA0323 		lsl	r3, r3, #8
 17826 0056 9AB2     		uxth	r2, r3
 17827 0058 7B89     		ldrh	r3, [r7, #10]	@ movhi
 17828 005a 42EA0303 		orr	r3, r2, r3
 17829 005e 7B81     		strh	r3, [r7, #10]	@ movhi
 386:../target/stm32/stdperiph/src/stm32f10x_tim.c ****   
 387:../target/stm32/stdperiph/src/stm32f10x_tim.c ****   /* Reset the Output Polarity level */
 388:../target/stm32/stdperiph/src/stm32f10x_tim.c ****   tmpccer &= (uint16_t)(~((uint16_t)TIM_CCER_CC2P));
 17830              		.loc 1 388 0
 17831 0060 FB89     		ldrh	r3, [r7, #14]	@ movhi
 17832 0062 23F02003 		bic	r3, r3, #32
 17833 0066 FB81     		strh	r3, [r7, #14]	@ movhi
 389:../target/stm32/stdperiph/src/stm32f10x_tim.c ****   /* Set the Output Compare Polarity */
 390:../target/stm32/stdperiph/src/stm32f10x_tim.c ****   tmpccer |= (uint16_t)(TIM_OCInitStruct->TIM_OCPolarity << 4);
 17834              		.loc 1 390 0
 17835 0068 3B68     		ldr	r3, [r7, #0]
 17836 006a 1B89     		ldrh	r3, [r3, #8]
 17837 006c 4FEA0313 		lsl	r3, r3, #4
 17838 0070 9AB2     		uxth	r2, r3
 17839 0072 FB89     		ldrh	r3, [r7, #14]	@ movhi
 17840 0074 42EA0303 		orr	r3, r2, r3
 17841 0078 FB81     		strh	r3, [r7, #14]	@ movhi
 391:../target/stm32/stdperiph/src/stm32f10x_tim.c ****   
 392:../target/stm32/stdperiph/src/stm32f10x_tim.c ****   /* Set the Output State */
 393:../target/stm32/stdperiph/src/stm32f10x_tim.c ****   tmpccer |= (uint16_t)(TIM_OCInitStruct->TIM_OutputState << 4);
 17842              		.loc 1 393 0
 17843 007a 3B68     		ldr	r3, [r7, #0]
 17844 007c 5B88     		ldrh	r3, [r3, #2]
 17845 007e 4FEA0313 		lsl	r3, r3, #4
 17846 0082 9AB2     		uxth	r2, r3
 17847 0084 FB89     		ldrh	r3, [r7, #14]	@ movhi
 17848 0086 42EA0303 		orr	r3, r2, r3
 17849 008a FB81     		strh	r3, [r7, #14]	@ movhi
 394:../target/stm32/stdperiph/src/stm32f10x_tim.c ****     
 395:../target/stm32/stdperiph/src/stm32f10x_tim.c ****   if((TIMx == TIM1) || (TIMx == TIM8))
 17850              		.loc 1 395 0
 17851 008c 7A68     		ldr	r2, [r7, #4]
 17852 008e 4FF43053 		mov	r3, #11264
 17853 0092 C4F20103 		movt	r3, 16385
 17854 0096 9A42     		cmp	r2, r3
 17855 0098 06D0     		beq	.L29
 17856              		.loc 1 395 0 is_stmt 0 discriminator 1
 17857 009a 7A68     		ldr	r2, [r7, #4]
 17858 009c 4FF45053 		mov	r3, #13312
 17859 00a0 C4F20103 		movt	r3, 16385
 17860 00a4 9A42     		cmp	r2, r3
 17861 00a6 33D1     		bne	.L30
 17862              	.L29:
 396:../target/stm32/stdperiph/src/stm32f10x_tim.c ****   {
 397:../target/stm32/stdperiph/src/stm32f10x_tim.c ****     assert_param(IS_TIM_OUTPUTN_STATE(TIM_OCInitStruct->TIM_OutputNState));
 398:../target/stm32/stdperiph/src/stm32f10x_tim.c ****     assert_param(IS_TIM_OCN_POLARITY(TIM_OCInitStruct->TIM_OCNPolarity));
 399:../target/stm32/stdperiph/src/stm32f10x_tim.c ****     assert_param(IS_TIM_OCNIDLE_STATE(TIM_OCInitStruct->TIM_OCNIdleState));
 400:../target/stm32/stdperiph/src/stm32f10x_tim.c ****     assert_param(IS_TIM_OCIDLE_STATE(TIM_OCInitStruct->TIM_OCIdleState));
 401:../target/stm32/stdperiph/src/stm32f10x_tim.c ****     
 402:../target/stm32/stdperiph/src/stm32f10x_tim.c ****     /* Reset the Output N Polarity level */
 403:../target/stm32/stdperiph/src/stm32f10x_tim.c ****     tmpccer &= (uint16_t)(~((uint16_t)TIM_CCER_CC2NP));
 17863              		.loc 1 403 0 is_stmt 1
 17864 00a8 FB89     		ldrh	r3, [r7, #14]	@ movhi
 17865 00aa 23F08003 		bic	r3, r3, #128
 17866 00ae FB81     		strh	r3, [r7, #14]	@ movhi
 404:../target/stm32/stdperiph/src/stm32f10x_tim.c ****     /* Set the Output N Polarity */
 405:../target/stm32/stdperiph/src/stm32f10x_tim.c ****     tmpccer |= (uint16_t)(TIM_OCInitStruct->TIM_OCNPolarity << 4);
 17867              		.loc 1 405 0
 17868 00b0 3B68     		ldr	r3, [r7, #0]
 17869 00b2 5B89     		ldrh	r3, [r3, #10]
 17870 00b4 4FEA0313 		lsl	r3, r3, #4
 17871 00b8 9AB2     		uxth	r2, r3
 17872 00ba FB89     		ldrh	r3, [r7, #14]	@ movhi
 17873 00bc 42EA0303 		orr	r3, r2, r3
 17874 00c0 FB81     		strh	r3, [r7, #14]	@ movhi
 406:../target/stm32/stdperiph/src/stm32f10x_tim.c ****     
 407:../target/stm32/stdperiph/src/stm32f10x_tim.c ****     /* Reset the Output N State */
 408:../target/stm32/stdperiph/src/stm32f10x_tim.c ****     tmpccer &= (uint16_t)(~((uint16_t)TIM_CCER_CC2NE));    
 17875              		.loc 1 408 0
 17876 00c2 FB89     		ldrh	r3, [r7, #14]	@ movhi
 17877 00c4 23F04003 		bic	r3, r3, #64
 17878 00c8 FB81     		strh	r3, [r7, #14]	@ movhi
 409:../target/stm32/stdperiph/src/stm32f10x_tim.c ****     /* Set the Output N State */
 410:../target/stm32/stdperiph/src/stm32f10x_tim.c ****     tmpccer |= (uint16_t)(TIM_OCInitStruct->TIM_OutputNState << 4);
 17879              		.loc 1 410 0
 17880 00ca 3B68     		ldr	r3, [r7, #0]
 17881 00cc 9B88     		ldrh	r3, [r3, #4]
 17882 00ce 4FEA0313 		lsl	r3, r3, #4
 17883 00d2 9AB2     		uxth	r2, r3
 17884 00d4 FB89     		ldrh	r3, [r7, #14]	@ movhi
 17885 00d6 42EA0303 		orr	r3, r2, r3
 17886 00da FB81     		strh	r3, [r7, #14]	@ movhi
 411:../target/stm32/stdperiph/src/stm32f10x_tim.c ****     
 412:../target/stm32/stdperiph/src/stm32f10x_tim.c ****     /* Reset the Ouput Compare and Output Compare N IDLE State */
 413:../target/stm32/stdperiph/src/stm32f10x_tim.c ****     tmpcr2 &= (uint16_t)(~((uint16_t)TIM_CR2_OIS2));
 17887              		.loc 1 413 0
 17888 00dc BB89     		ldrh	r3, [r7, #12]	@ movhi
 17889 00de 23F48063 		bic	r3, r3, #1024
 17890 00e2 BB81     		strh	r3, [r7, #12]	@ movhi
 414:../target/stm32/stdperiph/src/stm32f10x_tim.c ****     tmpcr2 &= (uint16_t)(~((uint16_t)TIM_CR2_OIS2N));
 17891              		.loc 1 414 0
 17892 00e4 BB89     		ldrh	r3, [r7, #12]	@ movhi
 17893 00e6 23F40063 		bic	r3, r3, #2048
 17894 00ea BB81     		strh	r3, [r7, #12]	@ movhi
 415:../target/stm32/stdperiph/src/stm32f10x_tim.c ****     
 416:../target/stm32/stdperiph/src/stm32f10x_tim.c ****     /* Set the Output Idle state */
 417:../target/stm32/stdperiph/src/stm32f10x_tim.c ****     tmpcr2 |= (uint16_t)(TIM_OCInitStruct->TIM_OCIdleState << 2);
 17895              		.loc 1 417 0
 17896 00ec 3B68     		ldr	r3, [r7, #0]
 17897 00ee 9B89     		ldrh	r3, [r3, #12]
 17898 00f0 4FEA8303 		lsl	r3, r3, #2
 17899 00f4 9AB2     		uxth	r2, r3
 17900 00f6 BB89     		ldrh	r3, [r7, #12]	@ movhi
 17901 00f8 42EA0303 		orr	r3, r2, r3
 17902 00fc BB81     		strh	r3, [r7, #12]	@ movhi
 418:../target/stm32/stdperiph/src/stm32f10x_tim.c ****     /* Set the Output N Idle state */
 419:../target/stm32/stdperiph/src/stm32f10x_tim.c ****     tmpcr2 |= (uint16_t)(TIM_OCInitStruct->TIM_OCNIdleState << 2);
 17903              		.loc 1 419 0
 17904 00fe 3B68     		ldr	r3, [r7, #0]
 17905 0100 DB89     		ldrh	r3, [r3, #14]
 17906 0102 4FEA8303 		lsl	r3, r3, #2
 17907 0106 9AB2     		uxth	r2, r3
 17908 0108 BB89     		ldrh	r3, [r7, #12]	@ movhi
 17909 010a 42EA0303 		orr	r3, r2, r3
 17910 010e BB81     		strh	r3, [r7, #12]	@ movhi
 17911              	.L30:
 420:../target/stm32/stdperiph/src/stm32f10x_tim.c ****   }
 421:../target/stm32/stdperiph/src/stm32f10x_tim.c ****   /* Write to TIMx CR2 */
 422:../target/stm32/stdperiph/src/stm32f10x_tim.c ****   TIMx->CR2 = tmpcr2;
 17912              		.loc 1 422 0
 17913 0110 7B68     		ldr	r3, [r7, #4]
 17914 0112 BA89     		ldrh	r2, [r7, #12]	@ movhi
 17915 0114 9A80     		strh	r2, [r3, #4]	@ movhi
 423:../target/stm32/stdperiph/src/stm32f10x_tim.c ****   
 424:../target/stm32/stdperiph/src/stm32f10x_tim.c ****   /* Write to TIMx CCMR1 */
 425:../target/stm32/stdperiph/src/stm32f10x_tim.c ****   TIMx->CCMR1 = tmpccmrx;
 17916              		.loc 1 425 0
 17917 0116 7B68     		ldr	r3, [r7, #4]
 17918 0118 7A89     		ldrh	r2, [r7, #10]	@ movhi
 17919 011a 1A83     		strh	r2, [r3, #24]	@ movhi
 426:../target/stm32/stdperiph/src/stm32f10x_tim.c **** 
 427:../target/stm32/stdperiph/src/stm32f10x_tim.c ****   /* Set the Capture Compare Register value */
 428:../target/stm32/stdperiph/src/stm32f10x_tim.c ****   TIMx->CCR2 = TIM_OCInitStruct->TIM_Pulse;
 17920              		.loc 1 428 0
 17921 011c 3B68     		ldr	r3, [r7, #0]
 17922 011e DA88     		ldrh	r2, [r3, #6]
 17923 0120 7B68     		ldr	r3, [r7, #4]
 17924 0122 1A87     		strh	r2, [r3, #56]	@ movhi
 429:../target/stm32/stdperiph/src/stm32f10x_tim.c ****   
 430:../target/stm32/stdperiph/src/stm32f10x_tim.c ****   /* Write to TIMx CCER */
 431:../target/stm32/stdperiph/src/stm32f10x_tim.c ****   TIMx->CCER = tmpccer;
 17925              		.loc 1 431 0
 17926 0124 7B68     		ldr	r3, [r7, #4]
 17927 0126 FA89     		ldrh	r2, [r7, #14]	@ movhi
 17928 0128 1A84     		strh	r2, [r3, #32]	@ movhi
 432:../target/stm32/stdperiph/src/stm32f10x_tim.c **** }
 17929              		.loc 1 432 0
 17930 012a 07F11407 		add	r7, r7, #20
 17931 012e BD46     		mov	sp, r7
 17932 0130 80BC     		pop	{r7}
 17933 0132 7047     		bx	lr
 17934              		.cfi_endproc
 17935              	.LFE32:
 17937              		.section	.text.TIM_OC3Init,"ax",%progbits
 17938              		.align	2
 17939              		.global	TIM_OC3Init
 17940              		.thumb
 17941              		.thumb_func
 17943              	TIM_OC3Init:
 17944              	.LFB33:
 433:../target/stm32/stdperiph/src/stm32f10x_tim.c **** 
 434:../target/stm32/stdperiph/src/stm32f10x_tim.c **** /**
 435:../target/stm32/stdperiph/src/stm32f10x_tim.c ****   * @brief  Initializes the TIMx Channel3 according to the specified
 436:../target/stm32/stdperiph/src/stm32f10x_tim.c ****   *   parameters in the TIM_OCInitStruct.
 437:../target/stm32/stdperiph/src/stm32f10x_tim.c ****   * @param  TIMx: where x can be  1, 2, 3, 4, 5 or 8 to select the TIM peripheral.
 438:../target/stm32/stdperiph/src/stm32f10x_tim.c ****   * @param  TIM_OCInitStruct: pointer to a TIM_OCInitTypeDef structure
 439:../target/stm32/stdperiph/src/stm32f10x_tim.c ****   *   that contains the configuration information for the specified TIM peripheral.
 440:../target/stm32/stdperiph/src/stm32f10x_tim.c ****   * @retval None
 441:../target/stm32/stdperiph/src/stm32f10x_tim.c ****   */
 442:../target/stm32/stdperiph/src/stm32f10x_tim.c **** void TIM_OC3Init(TIM_TypeDef* TIMx, TIM_OCInitTypeDef* TIM_OCInitStruct)
 443:../target/stm32/stdperiph/src/stm32f10x_tim.c **** {
 17945              		.loc 1 443 0
 17946              		.cfi_startproc
 17947              		@ args = 0, pretend = 0, frame = 16
 17948              		@ frame_needed = 1, uses_anonymous_args = 0
 17949              		@ link register save eliminated.
 17950 0000 80B4     		push	{r7}
 17951              	.LCFI12:
 17952              		.cfi_def_cfa_offset 4
 17953 0002 85B0     		sub	sp, sp, #20
 17954              	.LCFI13:
 17955              		.cfi_def_cfa_offset 24
 17956 0004 00AF     		add	r7, sp, #0
 17957              		.cfi_offset 7, -4
 17958              	.LCFI14:
 17959              		.cfi_def_cfa_register 7
 17960 0006 7860     		str	r0, [r7, #4]
 17961 0008 3960     		str	r1, [r7, #0]
 444:../target/stm32/stdperiph/src/stm32f10x_tim.c ****   uint16_t tmpccmrx = 0, tmpccer = 0, tmpcr2 = 0;
 17962              		.loc 1 444 0
 17963 000a 4FF00003 		mov	r3, #0
 17964 000e 7B81     		strh	r3, [r7, #10]	@ movhi
 17965 0010 4FF00003 		mov	r3, #0
 17966 0014 FB81     		strh	r3, [r7, #14]	@ movhi
 17967 0016 4FF00003 		mov	r3, #0
 17968 001a BB81     		strh	r3, [r7, #12]	@ movhi
 445:../target/stm32/stdperiph/src/stm32f10x_tim.c ****    
 446:../target/stm32/stdperiph/src/stm32f10x_tim.c ****   /* Check the parameters */
 447:../target/stm32/stdperiph/src/stm32f10x_tim.c ****   assert_param(IS_TIM_LIST3_PERIPH(TIMx)); 
 448:../target/stm32/stdperiph/src/stm32f10x_tim.c ****   assert_param(IS_TIM_OC_MODE(TIM_OCInitStruct->TIM_OCMode));
 449:../target/stm32/stdperiph/src/stm32f10x_tim.c ****   assert_param(IS_TIM_OUTPUT_STATE(TIM_OCInitStruct->TIM_OutputState));
 450:../target/stm32/stdperiph/src/stm32f10x_tim.c ****   assert_param(IS_TIM_OC_POLARITY(TIM_OCInitStruct->TIM_OCPolarity));   
 451:../target/stm32/stdperiph/src/stm32f10x_tim.c ****   /* Disable the Channel 2: Reset the CC2E Bit */
 452:../target/stm32/stdperiph/src/stm32f10x_tim.c ****   TIMx->CCER &= (uint16_t)(~((uint16_t)TIM_CCER_CC3E));
 17969              		.loc 1 452 0
 17970 001c 7B68     		ldr	r3, [r7, #4]
 17971 001e 1B8C     		ldrh	r3, [r3, #32]	@ movhi
 17972 0020 9BB2     		uxth	r3, r3
 17973 0022 23F48073 		bic	r3, r3, #256
 17974 0026 9AB2     		uxth	r2, r3
 17975 0028 7B68     		ldr	r3, [r7, #4]
 17976 002a 1A84     		strh	r2, [r3, #32]	@ movhi
 453:../target/stm32/stdperiph/src/stm32f10x_tim.c ****   
 454:../target/stm32/stdperiph/src/stm32f10x_tim.c ****   /* Get the TIMx CCER register value */
 455:../target/stm32/stdperiph/src/stm32f10x_tim.c ****   tmpccer = TIMx->CCER;
 17977              		.loc 1 455 0
 17978 002c 7B68     		ldr	r3, [r7, #4]
 17979 002e 1B8C     		ldrh	r3, [r3, #32]	@ movhi
 17980 0030 FB81     		strh	r3, [r7, #14]	@ movhi
 456:../target/stm32/stdperiph/src/stm32f10x_tim.c ****   /* Get the TIMx CR2 register value */
 457:../target/stm32/stdperiph/src/stm32f10x_tim.c ****   tmpcr2 =  TIMx->CR2;
 17981              		.loc 1 457 0
 17982 0032 7B68     		ldr	r3, [r7, #4]
 17983 0034 9B88     		ldrh	r3, [r3, #4]	@ movhi
 17984 0036 BB81     		strh	r3, [r7, #12]	@ movhi
 458:../target/stm32/stdperiph/src/stm32f10x_tim.c ****   
 459:../target/stm32/stdperiph/src/stm32f10x_tim.c ****   /* Get the TIMx CCMR2 register value */
 460:../target/stm32/stdperiph/src/stm32f10x_tim.c ****   tmpccmrx = TIMx->CCMR2;
 17985              		.loc 1 460 0
 17986 0038 7B68     		ldr	r3, [r7, #4]
 17987 003a 9B8B     		ldrh	r3, [r3, #28]	@ movhi
 17988 003c 7B81     		strh	r3, [r7, #10]	@ movhi
 461:../target/stm32/stdperiph/src/stm32f10x_tim.c ****     
 462:../target/stm32/stdperiph/src/stm32f10x_tim.c ****   /* Reset the Output Compare mode and Capture/Compare selection Bits */
 463:../target/stm32/stdperiph/src/stm32f10x_tim.c ****   tmpccmrx &= (uint16_t)(~((uint16_t)TIM_CCMR2_OC3M));
 17989              		.loc 1 463 0
 17990 003e 7B89     		ldrh	r3, [r7, #10]	@ movhi
 17991 0040 23F07003 		bic	r3, r3, #112
 17992 0044 7B81     		strh	r3, [r7, #10]	@ movhi
 464:../target/stm32/stdperiph/src/stm32f10x_tim.c ****   tmpccmrx &= (uint16_t)(~((uint16_t)TIM_CCMR2_CC3S));  
 17993              		.loc 1 464 0
 17994 0046 7B89     		ldrh	r3, [r7, #10]	@ movhi
 17995 0048 23F00303 		bic	r3, r3, #3
 17996 004c 7B81     		strh	r3, [r7, #10]	@ movhi
 465:../target/stm32/stdperiph/src/stm32f10x_tim.c ****   /* Select the Output Compare Mode */
 466:../target/stm32/stdperiph/src/stm32f10x_tim.c ****   tmpccmrx |= TIM_OCInitStruct->TIM_OCMode;
 17997              		.loc 1 466 0
 17998 004e 3B68     		ldr	r3, [r7, #0]
 17999 0050 1A88     		ldrh	r2, [r3, #0]
 18000 0052 7B89     		ldrh	r3, [r7, #10]	@ movhi
 18001 0054 42EA0303 		orr	r3, r2, r3
 18002 0058 7B81     		strh	r3, [r7, #10]	@ movhi
 467:../target/stm32/stdperiph/src/stm32f10x_tim.c ****   
 468:../target/stm32/stdperiph/src/stm32f10x_tim.c ****   /* Reset the Output Polarity level */
 469:../target/stm32/stdperiph/src/stm32f10x_tim.c ****   tmpccer &= (uint16_t)(~((uint16_t)TIM_CCER_CC3P));
 18003              		.loc 1 469 0
 18004 005a FB89     		ldrh	r3, [r7, #14]	@ movhi
 18005 005c 23F40073 		bic	r3, r3, #512
 18006 0060 FB81     		strh	r3, [r7, #14]	@ movhi
 470:../target/stm32/stdperiph/src/stm32f10x_tim.c ****   /* Set the Output Compare Polarity */
 471:../target/stm32/stdperiph/src/stm32f10x_tim.c ****   tmpccer |= (uint16_t)(TIM_OCInitStruct->TIM_OCPolarity << 8);
 18007              		.loc 1 471 0
 18008 0062 3B68     		ldr	r3, [r7, #0]
 18009 0064 1B89     		ldrh	r3, [r3, #8]
 18010 0066 4FEA0323 		lsl	r3, r3, #8
 18011 006a 9AB2     		uxth	r2, r3
 18012 006c FB89     		ldrh	r3, [r7, #14]	@ movhi
 18013 006e 42EA0303 		orr	r3, r2, r3
 18014 0072 FB81     		strh	r3, [r7, #14]	@ movhi
 472:../target/stm32/stdperiph/src/stm32f10x_tim.c ****   
 473:../target/stm32/stdperiph/src/stm32f10x_tim.c ****   /* Set the Output State */
 474:../target/stm32/stdperiph/src/stm32f10x_tim.c ****   tmpccer |= (uint16_t)(TIM_OCInitStruct->TIM_OutputState << 8);
 18015              		.loc 1 474 0
 18016 0074 3B68     		ldr	r3, [r7, #0]
 18017 0076 5B88     		ldrh	r3, [r3, #2]
 18018 0078 4FEA0323 		lsl	r3, r3, #8
 18019 007c 9AB2     		uxth	r2, r3
 18020 007e FB89     		ldrh	r3, [r7, #14]	@ movhi
 18021 0080 42EA0303 		orr	r3, r2, r3
 18022 0084 FB81     		strh	r3, [r7, #14]	@ movhi
 475:../target/stm32/stdperiph/src/stm32f10x_tim.c ****     
 476:../target/stm32/stdperiph/src/stm32f10x_tim.c ****   if((TIMx == TIM1) || (TIMx == TIM8))
 18023              		.loc 1 476 0
 18024 0086 7A68     		ldr	r2, [r7, #4]
 18025 0088 4FF43053 		mov	r3, #11264
 18026 008c C4F20103 		movt	r3, 16385
 18027 0090 9A42     		cmp	r2, r3
 18028 0092 06D0     		beq	.L32
 18029              		.loc 1 476 0 is_stmt 0 discriminator 1
 18030 0094 7A68     		ldr	r2, [r7, #4]
 18031 0096 4FF45053 		mov	r3, #13312
 18032 009a C4F20103 		movt	r3, 16385
 18033 009e 9A42     		cmp	r2, r3
 18034 00a0 33D1     		bne	.L33
 18035              	.L32:
 477:../target/stm32/stdperiph/src/stm32f10x_tim.c ****   {
 478:../target/stm32/stdperiph/src/stm32f10x_tim.c ****     assert_param(IS_TIM_OUTPUTN_STATE(TIM_OCInitStruct->TIM_OutputNState));
 479:../target/stm32/stdperiph/src/stm32f10x_tim.c ****     assert_param(IS_TIM_OCN_POLARITY(TIM_OCInitStruct->TIM_OCNPolarity));
 480:../target/stm32/stdperiph/src/stm32f10x_tim.c ****     assert_param(IS_TIM_OCNIDLE_STATE(TIM_OCInitStruct->TIM_OCNIdleState));
 481:../target/stm32/stdperiph/src/stm32f10x_tim.c ****     assert_param(IS_TIM_OCIDLE_STATE(TIM_OCInitStruct->TIM_OCIdleState));
 482:../target/stm32/stdperiph/src/stm32f10x_tim.c ****     
 483:../target/stm32/stdperiph/src/stm32f10x_tim.c ****     /* Reset the Output N Polarity level */
 484:../target/stm32/stdperiph/src/stm32f10x_tim.c ****     tmpccer &= (uint16_t)(~((uint16_t)TIM_CCER_CC3NP));
 18036              		.loc 1 484 0 is_stmt 1
 18037 00a2 FB89     		ldrh	r3, [r7, #14]	@ movhi
 18038 00a4 23F40063 		bic	r3, r3, #2048
 18039 00a8 FB81     		strh	r3, [r7, #14]	@ movhi
 485:../target/stm32/stdperiph/src/stm32f10x_tim.c ****     /* Set the Output N Polarity */
 486:../target/stm32/stdperiph/src/stm32f10x_tim.c ****     tmpccer |= (uint16_t)(TIM_OCInitStruct->TIM_OCNPolarity << 8);
 18040              		.loc 1 486 0
 18041 00aa 3B68     		ldr	r3, [r7, #0]
 18042 00ac 5B89     		ldrh	r3, [r3, #10]
 18043 00ae 4FEA0323 		lsl	r3, r3, #8
 18044 00b2 9AB2     		uxth	r2, r3
 18045 00b4 FB89     		ldrh	r3, [r7, #14]	@ movhi
 18046 00b6 42EA0303 		orr	r3, r2, r3
 18047 00ba FB81     		strh	r3, [r7, #14]	@ movhi
 487:../target/stm32/stdperiph/src/stm32f10x_tim.c ****     /* Reset the Output N State */
 488:../target/stm32/stdperiph/src/stm32f10x_tim.c ****     tmpccer &= (uint16_t)(~((uint16_t)TIM_CCER_CC3NE));
 18048              		.loc 1 488 0
 18049 00bc FB89     		ldrh	r3, [r7, #14]	@ movhi
 18050 00be 23F48063 		bic	r3, r3, #1024
 18051 00c2 FB81     		strh	r3, [r7, #14]	@ movhi
 489:../target/stm32/stdperiph/src/stm32f10x_tim.c ****     
 490:../target/stm32/stdperiph/src/stm32f10x_tim.c ****     /* Set the Output N State */
 491:../target/stm32/stdperiph/src/stm32f10x_tim.c ****     tmpccer |= (uint16_t)(TIM_OCInitStruct->TIM_OutputNState << 8);
 18052              		.loc 1 491 0
 18053 00c4 3B68     		ldr	r3, [r7, #0]
 18054 00c6 9B88     		ldrh	r3, [r3, #4]
 18055 00c8 4FEA0323 		lsl	r3, r3, #8
 18056 00cc 9AB2     		uxth	r2, r3
 18057 00ce FB89     		ldrh	r3, [r7, #14]	@ movhi
 18058 00d0 42EA0303 		orr	r3, r2, r3
 18059 00d4 FB81     		strh	r3, [r7, #14]	@ movhi
 492:../target/stm32/stdperiph/src/stm32f10x_tim.c ****     /* Reset the Ouput Compare and Output Compare N IDLE State */
 493:../target/stm32/stdperiph/src/stm32f10x_tim.c ****     tmpcr2 &= (uint16_t)(~((uint16_t)TIM_CR2_OIS3));
 18060              		.loc 1 493 0
 18061 00d6 BB89     		ldrh	r3, [r7, #12]	@ movhi
 18062 00d8 23F48053 		bic	r3, r3, #4096
 18063 00dc BB81     		strh	r3, [r7, #12]	@ movhi
 494:../target/stm32/stdperiph/src/stm32f10x_tim.c ****     tmpcr2 &= (uint16_t)(~((uint16_t)TIM_CR2_OIS3N));
 18064              		.loc 1 494 0
 18065 00de BB89     		ldrh	r3, [r7, #12]	@ movhi
 18066 00e0 23F40053 		bic	r3, r3, #8192
 18067 00e4 BB81     		strh	r3, [r7, #12]	@ movhi
 495:../target/stm32/stdperiph/src/stm32f10x_tim.c ****     /* Set the Output Idle state */
 496:../target/stm32/stdperiph/src/stm32f10x_tim.c ****     tmpcr2 |= (uint16_t)(TIM_OCInitStruct->TIM_OCIdleState << 4);
 18068              		.loc 1 496 0
 18069 00e6 3B68     		ldr	r3, [r7, #0]
 18070 00e8 9B89     		ldrh	r3, [r3, #12]
 18071 00ea 4FEA0313 		lsl	r3, r3, #4
 18072 00ee 9AB2     		uxth	r2, r3
 18073 00f0 BB89     		ldrh	r3, [r7, #12]	@ movhi
 18074 00f2 42EA0303 		orr	r3, r2, r3
 18075 00f6 BB81     		strh	r3, [r7, #12]	@ movhi
 497:../target/stm32/stdperiph/src/stm32f10x_tim.c ****     /* Set the Output N Idle state */
 498:../target/stm32/stdperiph/src/stm32f10x_tim.c ****     tmpcr2 |= (uint16_t)(TIM_OCInitStruct->TIM_OCNIdleState << 4);
 18076              		.loc 1 498 0
 18077 00f8 3B68     		ldr	r3, [r7, #0]
 18078 00fa DB89     		ldrh	r3, [r3, #14]
 18079 00fc 4FEA0313 		lsl	r3, r3, #4
 18080 0100 9AB2     		uxth	r2, r3
 18081 0102 BB89     		ldrh	r3, [r7, #12]	@ movhi
 18082 0104 42EA0303 		orr	r3, r2, r3
 18083 0108 BB81     		strh	r3, [r7, #12]	@ movhi
 18084              	.L33:
 499:../target/stm32/stdperiph/src/stm32f10x_tim.c ****   }
 500:../target/stm32/stdperiph/src/stm32f10x_tim.c ****   /* Write to TIMx CR2 */
 501:../target/stm32/stdperiph/src/stm32f10x_tim.c ****   TIMx->CR2 = tmpcr2;
 18085              		.loc 1 501 0
 18086 010a 7B68     		ldr	r3, [r7, #4]
 18087 010c BA89     		ldrh	r2, [r7, #12]	@ movhi
 18088 010e 9A80     		strh	r2, [r3, #4]	@ movhi
 502:../target/stm32/stdperiph/src/stm32f10x_tim.c ****   
 503:../target/stm32/stdperiph/src/stm32f10x_tim.c ****   /* Write to TIMx CCMR2 */
 504:../target/stm32/stdperiph/src/stm32f10x_tim.c ****   TIMx->CCMR2 = tmpccmrx;
 18089              		.loc 1 504 0
 18090 0110 7B68     		ldr	r3, [r7, #4]
 18091 0112 7A89     		ldrh	r2, [r7, #10]	@ movhi
 18092 0114 9A83     		strh	r2, [r3, #28]	@ movhi
 505:../target/stm32/stdperiph/src/stm32f10x_tim.c **** 
 506:../target/stm32/stdperiph/src/stm32f10x_tim.c ****   /* Set the Capture Compare Register value */
 507:../target/stm32/stdperiph/src/stm32f10x_tim.c ****   TIMx->CCR3 = TIM_OCInitStruct->TIM_Pulse;
 18093              		.loc 1 507 0
 18094 0116 3B68     		ldr	r3, [r7, #0]
 18095 0118 DA88     		ldrh	r2, [r3, #6]
 18096 011a 7B68     		ldr	r3, [r7, #4]
 18097 011c 9A87     		strh	r2, [r3, #60]	@ movhi
 508:../target/stm32/stdperiph/src/stm32f10x_tim.c ****   
 509:../target/stm32/stdperiph/src/stm32f10x_tim.c ****   /* Write to TIMx CCER */
 510:../target/stm32/stdperiph/src/stm32f10x_tim.c ****   TIMx->CCER = tmpccer;
 18098              		.loc 1 510 0
 18099 011e 7B68     		ldr	r3, [r7, #4]
 18100 0120 FA89     		ldrh	r2, [r7, #14]	@ movhi
 18101 0122 1A84     		strh	r2, [r3, #32]	@ movhi
 511:../target/stm32/stdperiph/src/stm32f10x_tim.c **** }
 18102              		.loc 1 511 0
 18103 0124 07F11407 		add	r7, r7, #20
 18104 0128 BD46     		mov	sp, r7
 18105 012a 80BC     		pop	{r7}
 18106 012c 7047     		bx	lr
 18107              		.cfi_endproc
 18108              	.LFE33:
 18110 012e 00BF     		.section	.text.TIM_OC4Init,"ax",%progbits
 18111              		.align	2
 18112              		.global	TIM_OC4Init
 18113              		.thumb
 18114              		.thumb_func
 18116              	TIM_OC4Init:
 18117              	.LFB34:
 512:../target/stm32/stdperiph/src/stm32f10x_tim.c **** 
 513:../target/stm32/stdperiph/src/stm32f10x_tim.c **** /**
 514:../target/stm32/stdperiph/src/stm32f10x_tim.c ****   * @brief  Initializes the TIMx Channel4 according to the specified
 515:../target/stm32/stdperiph/src/stm32f10x_tim.c ****   *   parameters in the TIM_OCInitStruct.
 516:../target/stm32/stdperiph/src/stm32f10x_tim.c ****   * @param  TIMx: where x can be  1, 2, 3, 4, 5 or 8 to select the TIM peripheral.
 517:../target/stm32/stdperiph/src/stm32f10x_tim.c ****   * @param  TIM_OCInitStruct: pointer to a TIM_OCInitTypeDef structure
 518:../target/stm32/stdperiph/src/stm32f10x_tim.c ****   *   that contains the configuration information for the specified TIM peripheral.
 519:../target/stm32/stdperiph/src/stm32f10x_tim.c ****   * @retval None
 520:../target/stm32/stdperiph/src/stm32f10x_tim.c ****   */
 521:../target/stm32/stdperiph/src/stm32f10x_tim.c **** void TIM_OC4Init(TIM_TypeDef* TIMx, TIM_OCInitTypeDef* TIM_OCInitStruct)
 522:../target/stm32/stdperiph/src/stm32f10x_tim.c **** {
 18118              		.loc 1 522 0
 18119              		.cfi_startproc
 18120              		@ args = 0, pretend = 0, frame = 16
 18121              		@ frame_needed = 1, uses_anonymous_args = 0
 18122              		@ link register save eliminated.
 18123 0000 80B4     		push	{r7}
 18124              	.LCFI15:
 18125              		.cfi_def_cfa_offset 4
 18126 0002 85B0     		sub	sp, sp, #20
 18127              	.LCFI16:
 18128              		.cfi_def_cfa_offset 24
 18129 0004 00AF     		add	r7, sp, #0
 18130              		.cfi_offset 7, -4
 18131              	.LCFI17:
 18132              		.cfi_def_cfa_register 7
 18133 0006 7860     		str	r0, [r7, #4]
 18134 0008 3960     		str	r1, [r7, #0]
 523:../target/stm32/stdperiph/src/stm32f10x_tim.c ****   uint16_t tmpccmrx = 0, tmpccer = 0, tmpcr2 = 0;
 18135              		.loc 1 523 0
 18136 000a 4FF00003 		mov	r3, #0
 18137 000e BB81     		strh	r3, [r7, #12]	@ movhi
 18138 0010 4FF00003 		mov	r3, #0
 18139 0014 7B81     		strh	r3, [r7, #10]	@ movhi
 18140 0016 4FF00003 		mov	r3, #0
 18141 001a FB81     		strh	r3, [r7, #14]	@ movhi
 524:../target/stm32/stdperiph/src/stm32f10x_tim.c ****    
 525:../target/stm32/stdperiph/src/stm32f10x_tim.c ****   /* Check the parameters */
 526:../target/stm32/stdperiph/src/stm32f10x_tim.c ****   assert_param(IS_TIM_LIST3_PERIPH(TIMx)); 
 527:../target/stm32/stdperiph/src/stm32f10x_tim.c ****   assert_param(IS_TIM_OC_MODE(TIM_OCInitStruct->TIM_OCMode));
 528:../target/stm32/stdperiph/src/stm32f10x_tim.c ****   assert_param(IS_TIM_OUTPUT_STATE(TIM_OCInitStruct->TIM_OutputState));
 529:../target/stm32/stdperiph/src/stm32f10x_tim.c ****   assert_param(IS_TIM_OC_POLARITY(TIM_OCInitStruct->TIM_OCPolarity));   
 530:../target/stm32/stdperiph/src/stm32f10x_tim.c ****   /* Disable the Channel 2: Reset the CC4E Bit */
 531:../target/stm32/stdperiph/src/stm32f10x_tim.c ****   TIMx->CCER &= (uint16_t)(~((uint16_t)TIM_CCER_CC4E));
 18142              		.loc 1 531 0
 18143 001c 7B68     		ldr	r3, [r7, #4]
 18144 001e 1B8C     		ldrh	r3, [r3, #32]	@ movhi
 18145 0020 9BB2     		uxth	r3, r3
 18146 0022 23F48053 		bic	r3, r3, #4096
 18147 0026 9AB2     		uxth	r2, r3
 18148 0028 7B68     		ldr	r3, [r7, #4]
 18149 002a 1A84     		strh	r2, [r3, #32]	@ movhi
 532:../target/stm32/stdperiph/src/stm32f10x_tim.c ****   
 533:../target/stm32/stdperiph/src/stm32f10x_tim.c ****   /* Get the TIMx CCER register value */
 534:../target/stm32/stdperiph/src/stm32f10x_tim.c ****   tmpccer = TIMx->CCER;
 18150              		.loc 1 534 0
 18151 002c 7B68     		ldr	r3, [r7, #4]
 18152 002e 1B8C     		ldrh	r3, [r3, #32]	@ movhi
 18153 0030 7B81     		strh	r3, [r7, #10]	@ movhi
 535:../target/stm32/stdperiph/src/stm32f10x_tim.c ****   /* Get the TIMx CR2 register value */
 536:../target/stm32/stdperiph/src/stm32f10x_tim.c ****   tmpcr2 =  TIMx->CR2;
 18154              		.loc 1 536 0
 18155 0032 7B68     		ldr	r3, [r7, #4]
 18156 0034 9B88     		ldrh	r3, [r3, #4]	@ movhi
 18157 0036 FB81     		strh	r3, [r7, #14]	@ movhi
 537:../target/stm32/stdperiph/src/stm32f10x_tim.c ****   
 538:../target/stm32/stdperiph/src/stm32f10x_tim.c ****   /* Get the TIMx CCMR2 register value */
 539:../target/stm32/stdperiph/src/stm32f10x_tim.c ****   tmpccmrx = TIMx->CCMR2;
 18158              		.loc 1 539 0
 18159 0038 7B68     		ldr	r3, [r7, #4]
 18160 003a 9B8B     		ldrh	r3, [r3, #28]	@ movhi
 18161 003c BB81     		strh	r3, [r7, #12]	@ movhi
 540:../target/stm32/stdperiph/src/stm32f10x_tim.c ****     
 541:../target/stm32/stdperiph/src/stm32f10x_tim.c ****   /* Reset the Output Compare mode and Capture/Compare selection Bits */
 542:../target/stm32/stdperiph/src/stm32f10x_tim.c ****   tmpccmrx &= (uint16_t)(~((uint16_t)TIM_CCMR2_OC4M));
 18162              		.loc 1 542 0
 18163 003e BB89     		ldrh	r3, [r7, #12]	@ movhi
 18164 0040 23F4E043 		bic	r3, r3, #28672
 18165 0044 BB81     		strh	r3, [r7, #12]	@ movhi
 543:../target/stm32/stdperiph/src/stm32f10x_tim.c ****   tmpccmrx &= (uint16_t)(~((uint16_t)TIM_CCMR2_CC4S));
 18166              		.loc 1 543 0
 18167 0046 BB89     		ldrh	r3, [r7, #12]	@ movhi
 18168 0048 23F44073 		bic	r3, r3, #768
 18169 004c BB81     		strh	r3, [r7, #12]	@ movhi
 544:../target/stm32/stdperiph/src/stm32f10x_tim.c ****   
 545:../target/stm32/stdperiph/src/stm32f10x_tim.c ****   /* Select the Output Compare Mode */
 546:../target/stm32/stdperiph/src/stm32f10x_tim.c ****   tmpccmrx |= (uint16_t)(TIM_OCInitStruct->TIM_OCMode << 8);
 18170              		.loc 1 546 0
 18171 004e 3B68     		ldr	r3, [r7, #0]
 18172 0050 1B88     		ldrh	r3, [r3, #0]
 18173 0052 4FEA0323 		lsl	r3, r3, #8
 18174 0056 9AB2     		uxth	r2, r3
 18175 0058 BB89     		ldrh	r3, [r7, #12]	@ movhi
 18176 005a 42EA0303 		orr	r3, r2, r3
 18177 005e BB81     		strh	r3, [r7, #12]	@ movhi
 547:../target/stm32/stdperiph/src/stm32f10x_tim.c ****   
 548:../target/stm32/stdperiph/src/stm32f10x_tim.c ****   /* Reset the Output Polarity level */
 549:../target/stm32/stdperiph/src/stm32f10x_tim.c ****   tmpccer &= (uint16_t)(~((uint16_t)TIM_CCER_CC4P));
 18178              		.loc 1 549 0
 18179 0060 7B89     		ldrh	r3, [r7, #10]	@ movhi
 18180 0062 23F40053 		bic	r3, r3, #8192
 18181 0066 7B81     		strh	r3, [r7, #10]	@ movhi
 550:../target/stm32/stdperiph/src/stm32f10x_tim.c ****   /* Set the Output Compare Polarity */
 551:../target/stm32/stdperiph/src/stm32f10x_tim.c ****   tmpccer |= (uint16_t)(TIM_OCInitStruct->TIM_OCPolarity << 12);
 18182              		.loc 1 551 0
 18183 0068 3B68     		ldr	r3, [r7, #0]
 18184 006a 1B89     		ldrh	r3, [r3, #8]
 18185 006c 4FEA0333 		lsl	r3, r3, #12
 18186 0070 9AB2     		uxth	r2, r3
 18187 0072 7B89     		ldrh	r3, [r7, #10]	@ movhi
 18188 0074 42EA0303 		orr	r3, r2, r3
 18189 0078 7B81     		strh	r3, [r7, #10]	@ movhi
 552:../target/stm32/stdperiph/src/stm32f10x_tim.c ****   
 553:../target/stm32/stdperiph/src/stm32f10x_tim.c ****   /* Set the Output State */
 554:../target/stm32/stdperiph/src/stm32f10x_tim.c ****   tmpccer |= (uint16_t)(TIM_OCInitStruct->TIM_OutputState << 12);
 18190              		.loc 1 554 0
 18191 007a 3B68     		ldr	r3, [r7, #0]
 18192 007c 5B88     		ldrh	r3, [r3, #2]
 18193 007e 4FEA0333 		lsl	r3, r3, #12
 18194 0082 9AB2     		uxth	r2, r3
 18195 0084 7B89     		ldrh	r3, [r7, #10]	@ movhi
 18196 0086 42EA0303 		orr	r3, r2, r3
 18197 008a 7B81     		strh	r3, [r7, #10]	@ movhi
 555:../target/stm32/stdperiph/src/stm32f10x_tim.c ****     
 556:../target/stm32/stdperiph/src/stm32f10x_tim.c ****   if((TIMx == TIM1) || (TIMx == TIM8))
 18198              		.loc 1 556 0
 18199 008c 7A68     		ldr	r2, [r7, #4]
 18200 008e 4FF43053 		mov	r3, #11264
 18201 0092 C4F20103 		movt	r3, 16385
 18202 0096 9A42     		cmp	r2, r3
 18203 0098 06D0     		beq	.L35
 18204              		.loc 1 556 0 is_stmt 0 discriminator 1
 18205 009a 7A68     		ldr	r2, [r7, #4]
 18206 009c 4FF45053 		mov	r3, #13312
 18207 00a0 C4F20103 		movt	r3, 16385
 18208 00a4 9A42     		cmp	r2, r3
 18209 00a6 0CD1     		bne	.L36
 18210              	.L35:
 557:../target/stm32/stdperiph/src/stm32f10x_tim.c ****   {
 558:../target/stm32/stdperiph/src/stm32f10x_tim.c ****     assert_param(IS_TIM_OCIDLE_STATE(TIM_OCInitStruct->TIM_OCIdleState));
 559:../target/stm32/stdperiph/src/stm32f10x_tim.c ****     /* Reset the Ouput Compare IDLE State */
 560:../target/stm32/stdperiph/src/stm32f10x_tim.c ****     tmpcr2 &= (uint16_t)(~((uint16_t)TIM_CR2_OIS4));
 18211              		.loc 1 560 0 is_stmt 1
 18212 00a8 FB89     		ldrh	r3, [r7, #14]	@ movhi
 18213 00aa 23F48043 		bic	r3, r3, #16384
 18214 00ae FB81     		strh	r3, [r7, #14]	@ movhi
 561:../target/stm32/stdperiph/src/stm32f10x_tim.c ****     /* Set the Output Idle state */
 562:../target/stm32/stdperiph/src/stm32f10x_tim.c ****     tmpcr2 |= (uint16_t)(TIM_OCInitStruct->TIM_OCIdleState << 6);
 18215              		.loc 1 562 0
 18216 00b0 3B68     		ldr	r3, [r7, #0]
 18217 00b2 9B89     		ldrh	r3, [r3, #12]
 18218 00b4 4FEA8313 		lsl	r3, r3, #6
 18219 00b8 9AB2     		uxth	r2, r3
 18220 00ba FB89     		ldrh	r3, [r7, #14]	@ movhi
 18221 00bc 42EA0303 		orr	r3, r2, r3
 18222 00c0 FB81     		strh	r3, [r7, #14]	@ movhi
 18223              	.L36:
 563:../target/stm32/stdperiph/src/stm32f10x_tim.c ****   }
 564:../target/stm32/stdperiph/src/stm32f10x_tim.c ****   /* Write to TIMx CR2 */
 565:../target/stm32/stdperiph/src/stm32f10x_tim.c ****   TIMx->CR2 = tmpcr2;
 18224              		.loc 1 565 0
 18225 00c2 7B68     		ldr	r3, [r7, #4]
 18226 00c4 FA89     		ldrh	r2, [r7, #14]	@ movhi
 18227 00c6 9A80     		strh	r2, [r3, #4]	@ movhi
 566:../target/stm32/stdperiph/src/stm32f10x_tim.c ****   
 567:../target/stm32/stdperiph/src/stm32f10x_tim.c ****   /* Write to TIMx CCMR2 */  
 568:../target/stm32/stdperiph/src/stm32f10x_tim.c ****   TIMx->CCMR2 = tmpccmrx;
 18228              		.loc 1 568 0
 18229 00c8 7B68     		ldr	r3, [r7, #4]
 18230 00ca BA89     		ldrh	r2, [r7, #12]	@ movhi
 18231 00cc 9A83     		strh	r2, [r3, #28]	@ movhi
 569:../target/stm32/stdperiph/src/stm32f10x_tim.c **** 
 570:../target/stm32/stdperiph/src/stm32f10x_tim.c ****   /* Set the Capture Compare Register value */
 571:../target/stm32/stdperiph/src/stm32f10x_tim.c ****   TIMx->CCR4 = TIM_OCInitStruct->TIM_Pulse;
 18232              		.loc 1 571 0
 18233 00ce 3B68     		ldr	r3, [r7, #0]
 18234 00d0 DA88     		ldrh	r2, [r3, #6]
 18235 00d2 7B68     		ldr	r3, [r7, #4]
 18236 00d4 A3F84020 		strh	r2, [r3, #64]	@ movhi
 572:../target/stm32/stdperiph/src/stm32f10x_tim.c ****   
 573:../target/stm32/stdperiph/src/stm32f10x_tim.c ****   /* Write to TIMx CCER */
 574:../target/stm32/stdperiph/src/stm32f10x_tim.c ****   TIMx->CCER = tmpccer;
 18237              		.loc 1 574 0
 18238 00d8 7B68     		ldr	r3, [r7, #4]
 18239 00da 7A89     		ldrh	r2, [r7, #10]	@ movhi
 18240 00dc 1A84     		strh	r2, [r3, #32]	@ movhi
 575:../target/stm32/stdperiph/src/stm32f10x_tim.c **** }
 18241              		.loc 1 575 0
 18242 00de 07F11407 		add	r7, r7, #20
 18243 00e2 BD46     		mov	sp, r7
 18244 00e4 80BC     		pop	{r7}
 18245 00e6 7047     		bx	lr
 18246              		.cfi_endproc
 18247              	.LFE34:
 18249              		.section	.text.TIM_ICInit,"ax",%progbits
 18250              		.align	2
 18251              		.global	TIM_ICInit
 18252              		.thumb
 18253              		.thumb_func
 18255              	TIM_ICInit:
 18256              	.LFB35:
 576:../target/stm32/stdperiph/src/stm32f10x_tim.c **** 
 577:../target/stm32/stdperiph/src/stm32f10x_tim.c **** /**
 578:../target/stm32/stdperiph/src/stm32f10x_tim.c ****   * @brief  Initializes the TIM peripheral according to the specified
 579:../target/stm32/stdperiph/src/stm32f10x_tim.c ****   *   parameters in the TIM_ICInitStruct.
 580:../target/stm32/stdperiph/src/stm32f10x_tim.c ****   * @param  TIMx: where x can be  1 to 17 except 6 and 7 to select the TIM peripheral.
 581:../target/stm32/stdperiph/src/stm32f10x_tim.c ****   * @param  TIM_ICInitStruct: pointer to a TIM_ICInitTypeDef structure
 582:../target/stm32/stdperiph/src/stm32f10x_tim.c ****   *   that contains the configuration information for the specified TIM peripheral.
 583:../target/stm32/stdperiph/src/stm32f10x_tim.c ****   * @retval None
 584:../target/stm32/stdperiph/src/stm32f10x_tim.c ****   */
 585:../target/stm32/stdperiph/src/stm32f10x_tim.c **** void TIM_ICInit(TIM_TypeDef* TIMx, TIM_ICInitTypeDef* TIM_ICInitStruct)
 586:../target/stm32/stdperiph/src/stm32f10x_tim.c **** {
 18257              		.loc 1 586 0
 18258              		.cfi_startproc
 18259              		@ args = 0, pretend = 0, frame = 8
 18260              		@ frame_needed = 1, uses_anonymous_args = 0
 18261 0000 80B5     		push	{r7, lr}
 18262              	.LCFI18:
 18263              		.cfi_def_cfa_offset 8
 18264 0002 82B0     		sub	sp, sp, #8
 18265              	.LCFI19:
 18266              		.cfi_def_cfa_offset 16
 18267 0004 00AF     		add	r7, sp, #0
 18268              		.cfi_offset 14, -4
 18269              		.cfi_offset 7, -8
 18270              	.LCFI20:
 18271              		.cfi_def_cfa_register 7
 18272 0006 7860     		str	r0, [r7, #4]
 18273 0008 3960     		str	r1, [r7, #0]
 587:../target/stm32/stdperiph/src/stm32f10x_tim.c ****   /* Check the parameters */
 588:../target/stm32/stdperiph/src/stm32f10x_tim.c ****   assert_param(IS_TIM_CHANNEL(TIM_ICInitStruct->TIM_Channel));  
 589:../target/stm32/stdperiph/src/stm32f10x_tim.c ****   assert_param(IS_TIM_IC_SELECTION(TIM_ICInitStruct->TIM_ICSelection));
 590:../target/stm32/stdperiph/src/stm32f10x_tim.c ****   assert_param(IS_TIM_IC_PRESCALER(TIM_ICInitStruct->TIM_ICPrescaler));
 591:../target/stm32/stdperiph/src/stm32f10x_tim.c ****   assert_param(IS_TIM_IC_FILTER(TIM_ICInitStruct->TIM_ICFilter));
 592:../target/stm32/stdperiph/src/stm32f10x_tim.c ****   
 593:../target/stm32/stdperiph/src/stm32f10x_tim.c ****   if((TIMx == TIM1) || (TIMx == TIM8) || (TIMx == TIM2) || (TIMx == TIM3) ||
 594:../target/stm32/stdperiph/src/stm32f10x_tim.c ****      (TIMx == TIM4) ||(TIMx == TIM5))
 595:../target/stm32/stdperiph/src/stm32f10x_tim.c ****   {
 596:../target/stm32/stdperiph/src/stm32f10x_tim.c ****     assert_param(IS_TIM_IC_POLARITY(TIM_ICInitStruct->TIM_ICPolarity));
 597:../target/stm32/stdperiph/src/stm32f10x_tim.c ****   }
 598:../target/stm32/stdperiph/src/stm32f10x_tim.c ****   else
 599:../target/stm32/stdperiph/src/stm32f10x_tim.c ****   {
 600:../target/stm32/stdperiph/src/stm32f10x_tim.c ****     assert_param(IS_TIM_IC_POLARITY_LITE(TIM_ICInitStruct->TIM_ICPolarity));
 601:../target/stm32/stdperiph/src/stm32f10x_tim.c ****   }
 602:../target/stm32/stdperiph/src/stm32f10x_tim.c ****   if (TIM_ICInitStruct->TIM_Channel == TIM_Channel_1)
 18274              		.loc 1 602 0
 18275 000a 3B68     		ldr	r3, [r7, #0]
 18276 000c 1B88     		ldrh	r3, [r3, #0]
 18277 000e 002B     		cmp	r3, #0
 18278 0010 0FD1     		bne	.L38
 603:../target/stm32/stdperiph/src/stm32f10x_tim.c ****   {
 604:../target/stm32/stdperiph/src/stm32f10x_tim.c ****     assert_param(IS_TIM_LIST8_PERIPH(TIMx));
 605:../target/stm32/stdperiph/src/stm32f10x_tim.c ****     /* TI1 Configuration */
 606:../target/stm32/stdperiph/src/stm32f10x_tim.c ****     TI1_Config(TIMx, TIM_ICInitStruct->TIM_ICPolarity,
 18279              		.loc 1 606 0
 18280 0012 3B68     		ldr	r3, [r7, #0]
 18281 0014 5988     		ldrh	r1, [r3, #2]
 607:../target/stm32/stdperiph/src/stm32f10x_tim.c ****                TIM_ICInitStruct->TIM_ICSelection,
 18282              		.loc 1 607 0
 18283 0016 3B68     		ldr	r3, [r7, #0]
 606:../target/stm32/stdperiph/src/stm32f10x_tim.c ****     TI1_Config(TIMx, TIM_ICInitStruct->TIM_ICPolarity,
 18284              		.loc 1 606 0
 18285 0018 9A88     		ldrh	r2, [r3, #4]
 608:../target/stm32/stdperiph/src/stm32f10x_tim.c ****                TIM_ICInitStruct->TIM_ICFilter);
 18286              		.loc 1 608 0
 18287 001a 3B68     		ldr	r3, [r7, #0]
 606:../target/stm32/stdperiph/src/stm32f10x_tim.c ****     TI1_Config(TIMx, TIM_ICInitStruct->TIM_ICPolarity,
 18288              		.loc 1 606 0
 18289 001c 1B89     		ldrh	r3, [r3, #8]
 18290 001e 7868     		ldr	r0, [r7, #4]
 18291 0020 FFF7FEFF 		bl	TI1_Config
 609:../target/stm32/stdperiph/src/stm32f10x_tim.c ****     /* Set the Input Capture Prescaler value */
 610:../target/stm32/stdperiph/src/stm32f10x_tim.c ****     TIM_SetIC1Prescaler(TIMx, TIM_ICInitStruct->TIM_ICPrescaler);
 18292              		.loc 1 610 0
 18293 0024 3B68     		ldr	r3, [r7, #0]
 18294 0026 DB88     		ldrh	r3, [r3, #6]
 18295 0028 7868     		ldr	r0, [r7, #4]
 18296 002a 1946     		mov	r1, r3
 18297 002c FFF7FEFF 		bl	TIM_SetIC1Prescaler
 18298 0030 36E0     		b	.L37
 18299              	.L38:
 611:../target/stm32/stdperiph/src/stm32f10x_tim.c ****   }
 612:../target/stm32/stdperiph/src/stm32f10x_tim.c ****   else if (TIM_ICInitStruct->TIM_Channel == TIM_Channel_2)
 18300              		.loc 1 612 0
 18301 0032 3B68     		ldr	r3, [r7, #0]
 18302 0034 1B88     		ldrh	r3, [r3, #0]
 18303 0036 042B     		cmp	r3, #4
 18304 0038 0FD1     		bne	.L40
 613:../target/stm32/stdperiph/src/stm32f10x_tim.c ****   {
 614:../target/stm32/stdperiph/src/stm32f10x_tim.c ****     assert_param(IS_TIM_LIST6_PERIPH(TIMx));
 615:../target/stm32/stdperiph/src/stm32f10x_tim.c ****     /* TI2 Configuration */
 616:../target/stm32/stdperiph/src/stm32f10x_tim.c ****     TI2_Config(TIMx, TIM_ICInitStruct->TIM_ICPolarity,
 18305              		.loc 1 616 0
 18306 003a 3B68     		ldr	r3, [r7, #0]
 18307 003c 5988     		ldrh	r1, [r3, #2]
 617:../target/stm32/stdperiph/src/stm32f10x_tim.c ****                TIM_ICInitStruct->TIM_ICSelection,
 18308              		.loc 1 617 0
 18309 003e 3B68     		ldr	r3, [r7, #0]
 616:../target/stm32/stdperiph/src/stm32f10x_tim.c ****     TI2_Config(TIMx, TIM_ICInitStruct->TIM_ICPolarity,
 18310              		.loc 1 616 0
 18311 0040 9A88     		ldrh	r2, [r3, #4]
 618:../target/stm32/stdperiph/src/stm32f10x_tim.c ****                TIM_ICInitStruct->TIM_ICFilter);
 18312              		.loc 1 618 0
 18313 0042 3B68     		ldr	r3, [r7, #0]
 616:../target/stm32/stdperiph/src/stm32f10x_tim.c ****     TI2_Config(TIMx, TIM_ICInitStruct->TIM_ICPolarity,
 18314              		.loc 1 616 0
 18315 0044 1B89     		ldrh	r3, [r3, #8]
 18316 0046 7868     		ldr	r0, [r7, #4]
 18317 0048 FFF7FEFF 		bl	TI2_Config
 619:../target/stm32/stdperiph/src/stm32f10x_tim.c ****     /* Set the Input Capture Prescaler value */
 620:../target/stm32/stdperiph/src/stm32f10x_tim.c ****     TIM_SetIC2Prescaler(TIMx, TIM_ICInitStruct->TIM_ICPrescaler);
 18318              		.loc 1 620 0
 18319 004c 3B68     		ldr	r3, [r7, #0]
 18320 004e DB88     		ldrh	r3, [r3, #6]
 18321 0050 7868     		ldr	r0, [r7, #4]
 18322 0052 1946     		mov	r1, r3
 18323 0054 FFF7FEFF 		bl	TIM_SetIC2Prescaler
 18324 0058 22E0     		b	.L37
 18325              	.L40:
 621:../target/stm32/stdperiph/src/stm32f10x_tim.c ****   }
 622:../target/stm32/stdperiph/src/stm32f10x_tim.c ****   else if (TIM_ICInitStruct->TIM_Channel == TIM_Channel_3)
 18326              		.loc 1 622 0
 18327 005a 3B68     		ldr	r3, [r7, #0]
 18328 005c 1B88     		ldrh	r3, [r3, #0]
 18329 005e 082B     		cmp	r3, #8
 18330 0060 0FD1     		bne	.L41
 623:../target/stm32/stdperiph/src/stm32f10x_tim.c ****   {
 624:../target/stm32/stdperiph/src/stm32f10x_tim.c ****     assert_param(IS_TIM_LIST3_PERIPH(TIMx));
 625:../target/stm32/stdperiph/src/stm32f10x_tim.c ****     /* TI3 Configuration */
 626:../target/stm32/stdperiph/src/stm32f10x_tim.c ****     TI3_Config(TIMx,  TIM_ICInitStruct->TIM_ICPolarity,
 18331              		.loc 1 626 0
 18332 0062 3B68     		ldr	r3, [r7, #0]
 18333 0064 5988     		ldrh	r1, [r3, #2]
 627:../target/stm32/stdperiph/src/stm32f10x_tim.c ****                TIM_ICInitStruct->TIM_ICSelection,
 18334              		.loc 1 627 0
 18335 0066 3B68     		ldr	r3, [r7, #0]
 626:../target/stm32/stdperiph/src/stm32f10x_tim.c ****     TI3_Config(TIMx,  TIM_ICInitStruct->TIM_ICPolarity,
 18336              		.loc 1 626 0
 18337 0068 9A88     		ldrh	r2, [r3, #4]
 628:../target/stm32/stdperiph/src/stm32f10x_tim.c ****                TIM_ICInitStruct->TIM_ICFilter);
 18338              		.loc 1 628 0
 18339 006a 3B68     		ldr	r3, [r7, #0]
 626:../target/stm32/stdperiph/src/stm32f10x_tim.c ****     TI3_Config(TIMx,  TIM_ICInitStruct->TIM_ICPolarity,
 18340              		.loc 1 626 0
 18341 006c 1B89     		ldrh	r3, [r3, #8]
 18342 006e 7868     		ldr	r0, [r7, #4]
 18343 0070 FFF7FEFF 		bl	TI3_Config
 629:../target/stm32/stdperiph/src/stm32f10x_tim.c ****     /* Set the Input Capture Prescaler value */
 630:../target/stm32/stdperiph/src/stm32f10x_tim.c ****     TIM_SetIC3Prescaler(TIMx, TIM_ICInitStruct->TIM_ICPrescaler);
 18344              		.loc 1 630 0
 18345 0074 3B68     		ldr	r3, [r7, #0]
 18346 0076 DB88     		ldrh	r3, [r3, #6]
 18347 0078 7868     		ldr	r0, [r7, #4]
 18348 007a 1946     		mov	r1, r3
 18349 007c FFF7FEFF 		bl	TIM_SetIC3Prescaler
 18350 0080 0EE0     		b	.L37
 18351              	.L41:
 631:../target/stm32/stdperiph/src/stm32f10x_tim.c ****   }
 632:../target/stm32/stdperiph/src/stm32f10x_tim.c ****   else
 633:../target/stm32/stdperiph/src/stm32f10x_tim.c ****   {
 634:../target/stm32/stdperiph/src/stm32f10x_tim.c ****     assert_param(IS_TIM_LIST3_PERIPH(TIMx));
 635:../target/stm32/stdperiph/src/stm32f10x_tim.c ****     /* TI4 Configuration */
 636:../target/stm32/stdperiph/src/stm32f10x_tim.c ****     TI4_Config(TIMx, TIM_ICInitStruct->TIM_ICPolarity,
 18352              		.loc 1 636 0
 18353 0082 3B68     		ldr	r3, [r7, #0]
 18354 0084 5988     		ldrh	r1, [r3, #2]
 637:../target/stm32/stdperiph/src/stm32f10x_tim.c ****                TIM_ICInitStruct->TIM_ICSelection,
 18355              		.loc 1 637 0
 18356 0086 3B68     		ldr	r3, [r7, #0]
 636:../target/stm32/stdperiph/src/stm32f10x_tim.c ****     TI4_Config(TIMx, TIM_ICInitStruct->TIM_ICPolarity,
 18357              		.loc 1 636 0
 18358 0088 9A88     		ldrh	r2, [r3, #4]
 638:../target/stm32/stdperiph/src/stm32f10x_tim.c ****                TIM_ICInitStruct->TIM_ICFilter);
 18359              		.loc 1 638 0
 18360 008a 3B68     		ldr	r3, [r7, #0]
 636:../target/stm32/stdperiph/src/stm32f10x_tim.c ****     TI4_Config(TIMx, TIM_ICInitStruct->TIM_ICPolarity,
 18361              		.loc 1 636 0
 18362 008c 1B89     		ldrh	r3, [r3, #8]
 18363 008e 7868     		ldr	r0, [r7, #4]
 18364 0090 FFF7FEFF 		bl	TI4_Config
 639:../target/stm32/stdperiph/src/stm32f10x_tim.c ****     /* Set the Input Capture Prescaler value */
 640:../target/stm32/stdperiph/src/stm32f10x_tim.c ****     TIM_SetIC4Prescaler(TIMx, TIM_ICInitStruct->TIM_ICPrescaler);
 18365              		.loc 1 640 0
 18366 0094 3B68     		ldr	r3, [r7, #0]
 18367 0096 DB88     		ldrh	r3, [r3, #6]
 18368 0098 7868     		ldr	r0, [r7, #4]
 18369 009a 1946     		mov	r1, r3
 18370 009c FFF7FEFF 		bl	TIM_SetIC4Prescaler
 18371              	.L37:
 641:../target/stm32/stdperiph/src/stm32f10x_tim.c ****   }
 642:../target/stm32/stdperiph/src/stm32f10x_tim.c **** }
 18372              		.loc 1 642 0
 18373 00a0 07F10807 		add	r7, r7, #8
 18374 00a4 BD46     		mov	sp, r7
 18375 00a6 80BD     		pop	{r7, pc}
 18376              		.cfi_endproc
 18377              	.LFE35:
 18379              		.section	.text.TIM_PWMIConfig,"ax",%progbits
 18380              		.align	2
 18381              		.global	TIM_PWMIConfig
 18382              		.thumb
 18383              		.thumb_func
 18385              	TIM_PWMIConfig:
 18386              	.LFB36:
 643:../target/stm32/stdperiph/src/stm32f10x_tim.c **** 
 644:../target/stm32/stdperiph/src/stm32f10x_tim.c **** /**
 645:../target/stm32/stdperiph/src/stm32f10x_tim.c ****   * @brief  Configures the TIM peripheral according to the specified
 646:../target/stm32/stdperiph/src/stm32f10x_tim.c ****   *   parameters in the TIM_ICInitStruct to measure an external PWM signal.
 647:../target/stm32/stdperiph/src/stm32f10x_tim.c ****   * @param  TIMx: where x can be  1, 2, 3, 4, 5, 8, 9, 12 or 15 to select the TIM peripheral.
 648:../target/stm32/stdperiph/src/stm32f10x_tim.c ****   * @param  TIM_ICInitStruct: pointer to a TIM_ICInitTypeDef structure
 649:../target/stm32/stdperiph/src/stm32f10x_tim.c ****   *   that contains the configuration information for the specified TIM peripheral.
 650:../target/stm32/stdperiph/src/stm32f10x_tim.c ****   * @retval None
 651:../target/stm32/stdperiph/src/stm32f10x_tim.c ****   */
 652:../target/stm32/stdperiph/src/stm32f10x_tim.c **** void TIM_PWMIConfig(TIM_TypeDef* TIMx, TIM_ICInitTypeDef* TIM_ICInitStruct)
 653:../target/stm32/stdperiph/src/stm32f10x_tim.c **** {
 18387              		.loc 1 653 0
 18388              		.cfi_startproc
 18389              		@ args = 0, pretend = 0, frame = 16
 18390              		@ frame_needed = 1, uses_anonymous_args = 0
 18391 0000 80B5     		push	{r7, lr}
 18392              	.LCFI21:
 18393              		.cfi_def_cfa_offset 8
 18394 0002 84B0     		sub	sp, sp, #16
 18395              	.LCFI22:
 18396              		.cfi_def_cfa_offset 24
 18397 0004 00AF     		add	r7, sp, #0
 18398              		.cfi_offset 14, -4
 18399              		.cfi_offset 7, -8
 18400              	.LCFI23:
 18401              		.cfi_def_cfa_register 7
 18402 0006 7860     		str	r0, [r7, #4]
 18403 0008 3960     		str	r1, [r7, #0]
 654:../target/stm32/stdperiph/src/stm32f10x_tim.c ****   uint16_t icoppositepolarity = TIM_ICPolarity_Rising;
 18404              		.loc 1 654 0
 18405 000a 4FF00003 		mov	r3, #0
 18406 000e FB81     		strh	r3, [r7, #14]	@ movhi
 655:../target/stm32/stdperiph/src/stm32f10x_tim.c ****   uint16_t icoppositeselection = TIM_ICSelection_DirectTI;
 18407              		.loc 1 655 0
 18408 0010 4FF00103 		mov	r3, #1
 18409 0014 BB81     		strh	r3, [r7, #12]	@ movhi
 656:../target/stm32/stdperiph/src/stm32f10x_tim.c ****   /* Check the parameters */
 657:../target/stm32/stdperiph/src/stm32f10x_tim.c ****   assert_param(IS_TIM_LIST6_PERIPH(TIMx));
 658:../target/stm32/stdperiph/src/stm32f10x_tim.c ****   /* Select the Opposite Input Polarity */
 659:../target/stm32/stdperiph/src/stm32f10x_tim.c ****   if (TIM_ICInitStruct->TIM_ICPolarity == TIM_ICPolarity_Rising)
 18410              		.loc 1 659 0
 18411 0016 3B68     		ldr	r3, [r7, #0]
 18412 0018 5B88     		ldrh	r3, [r3, #2]
 18413 001a 002B     		cmp	r3, #0
 18414 001c 03D1     		bne	.L43
 660:../target/stm32/stdperiph/src/stm32f10x_tim.c ****   {
 661:../target/stm32/stdperiph/src/stm32f10x_tim.c ****     icoppositepolarity = TIM_ICPolarity_Falling;
 18415              		.loc 1 661 0
 18416 001e 4FF00203 		mov	r3, #2
 18417 0022 FB81     		strh	r3, [r7, #14]	@ movhi
 18418 0024 02E0     		b	.L44
 18419              	.L43:
 662:../target/stm32/stdperiph/src/stm32f10x_tim.c ****   }
 663:../target/stm32/stdperiph/src/stm32f10x_tim.c ****   else
 664:../target/stm32/stdperiph/src/stm32f10x_tim.c ****   {
 665:../target/stm32/stdperiph/src/stm32f10x_tim.c ****     icoppositepolarity = TIM_ICPolarity_Rising;
 18420              		.loc 1 665 0
 18421 0026 4FF00003 		mov	r3, #0
 18422 002a FB81     		strh	r3, [r7, #14]	@ movhi
 18423              	.L44:
 666:../target/stm32/stdperiph/src/stm32f10x_tim.c ****   }
 667:../target/stm32/stdperiph/src/stm32f10x_tim.c ****   /* Select the Opposite Input */
 668:../target/stm32/stdperiph/src/stm32f10x_tim.c ****   if (TIM_ICInitStruct->TIM_ICSelection == TIM_ICSelection_DirectTI)
 18424              		.loc 1 668 0
 18425 002c 3B68     		ldr	r3, [r7, #0]
 18426 002e 9B88     		ldrh	r3, [r3, #4]
 18427 0030 012B     		cmp	r3, #1
 18428 0032 03D1     		bne	.L45
 669:../target/stm32/stdperiph/src/stm32f10x_tim.c ****   {
 670:../target/stm32/stdperiph/src/stm32f10x_tim.c ****     icoppositeselection = TIM_ICSelection_IndirectTI;
 18429              		.loc 1 670 0
 18430 0034 4FF00203 		mov	r3, #2
 18431 0038 BB81     		strh	r3, [r7, #12]	@ movhi
 18432 003a 02E0     		b	.L46
 18433              	.L45:
 671:../target/stm32/stdperiph/src/stm32f10x_tim.c ****   }
 672:../target/stm32/stdperiph/src/stm32f10x_tim.c ****   else
 673:../target/stm32/stdperiph/src/stm32f10x_tim.c ****   {
 674:../target/stm32/stdperiph/src/stm32f10x_tim.c ****     icoppositeselection = TIM_ICSelection_DirectTI;
 18434              		.loc 1 674 0
 18435 003c 4FF00103 		mov	r3, #1
 18436 0040 BB81     		strh	r3, [r7, #12]	@ movhi
 18437              	.L46:
 675:../target/stm32/stdperiph/src/stm32f10x_tim.c ****   }
 676:../target/stm32/stdperiph/src/stm32f10x_tim.c ****   if (TIM_ICInitStruct->TIM_Channel == TIM_Channel_1)
 18438              		.loc 1 676 0
 18439 0042 3B68     		ldr	r3, [r7, #0]
 18440 0044 1B88     		ldrh	r3, [r3, #0]
 18441 0046 002B     		cmp	r3, #0
 18442 0048 1CD1     		bne	.L47
 677:../target/stm32/stdperiph/src/stm32f10x_tim.c ****   {
 678:../target/stm32/stdperiph/src/stm32f10x_tim.c ****     /* TI1 Configuration */
 679:../target/stm32/stdperiph/src/stm32f10x_tim.c ****     TI1_Config(TIMx, TIM_ICInitStruct->TIM_ICPolarity, TIM_ICInitStruct->TIM_ICSelection,
 18443              		.loc 1 679 0
 18444 004a 3B68     		ldr	r3, [r7, #0]
 18445 004c 5988     		ldrh	r1, [r3, #2]
 18446 004e 3B68     		ldr	r3, [r7, #0]
 18447 0050 9A88     		ldrh	r2, [r3, #4]
 680:../target/stm32/stdperiph/src/stm32f10x_tim.c ****                TIM_ICInitStruct->TIM_ICFilter);
 18448              		.loc 1 680 0
 18449 0052 3B68     		ldr	r3, [r7, #0]
 679:../target/stm32/stdperiph/src/stm32f10x_tim.c ****     TI1_Config(TIMx, TIM_ICInitStruct->TIM_ICPolarity, TIM_ICInitStruct->TIM_ICSelection,
 18450              		.loc 1 679 0
 18451 0054 1B89     		ldrh	r3, [r3, #8]
 18452 0056 7868     		ldr	r0, [r7, #4]
 18453 0058 FFF7FEFF 		bl	TI1_Config
 681:../target/stm32/stdperiph/src/stm32f10x_tim.c ****     /* Set the Input Capture Prescaler value */
 682:../target/stm32/stdperiph/src/stm32f10x_tim.c ****     TIM_SetIC1Prescaler(TIMx, TIM_ICInitStruct->TIM_ICPrescaler);
 18454              		.loc 1 682 0
 18455 005c 3B68     		ldr	r3, [r7, #0]
 18456 005e DB88     		ldrh	r3, [r3, #6]
 18457 0060 7868     		ldr	r0, [r7, #4]
 18458 0062 1946     		mov	r1, r3
 18459 0064 FFF7FEFF 		bl	TIM_SetIC1Prescaler
 683:../target/stm32/stdperiph/src/stm32f10x_tim.c ****     /* TI2 Configuration */
 684:../target/stm32/stdperiph/src/stm32f10x_tim.c ****     TI2_Config(TIMx, icoppositepolarity, icoppositeselection, TIM_ICInitStruct->TIM_ICFilter);
 18460              		.loc 1 684 0
 18461 0068 3B68     		ldr	r3, [r7, #0]
 18462 006a 1B89     		ldrh	r3, [r3, #8]
 18463 006c F989     		ldrh	r1, [r7, #14]
 18464 006e BA89     		ldrh	r2, [r7, #12]
 18465 0070 7868     		ldr	r0, [r7, #4]
 18466 0072 FFF7FEFF 		bl	TI2_Config
 685:../target/stm32/stdperiph/src/stm32f10x_tim.c ****     /* Set the Input Capture Prescaler value */
 686:../target/stm32/stdperiph/src/stm32f10x_tim.c ****     TIM_SetIC2Prescaler(TIMx, TIM_ICInitStruct->TIM_ICPrescaler);
 18467              		.loc 1 686 0
 18468 0076 3B68     		ldr	r3, [r7, #0]
 18469 0078 DB88     		ldrh	r3, [r3, #6]
 18470 007a 7868     		ldr	r0, [r7, #4]
 18471 007c 1946     		mov	r1, r3
 18472 007e FFF7FEFF 		bl	TIM_SetIC2Prescaler
 18473 0082 1BE0     		b	.L42
 18474              	.L47:
 687:../target/stm32/stdperiph/src/stm32f10x_tim.c ****   }
 688:../target/stm32/stdperiph/src/stm32f10x_tim.c ****   else
 689:../target/stm32/stdperiph/src/stm32f10x_tim.c ****   { 
 690:../target/stm32/stdperiph/src/stm32f10x_tim.c ****     /* TI2 Configuration */
 691:../target/stm32/stdperiph/src/stm32f10x_tim.c ****     TI2_Config(TIMx, TIM_ICInitStruct->TIM_ICPolarity, TIM_ICInitStruct->TIM_ICSelection,
 18475              		.loc 1 691 0
 18476 0084 3B68     		ldr	r3, [r7, #0]
 18477 0086 5988     		ldrh	r1, [r3, #2]
 18478 0088 3B68     		ldr	r3, [r7, #0]
 18479 008a 9A88     		ldrh	r2, [r3, #4]
 692:../target/stm32/stdperiph/src/stm32f10x_tim.c ****                TIM_ICInitStruct->TIM_ICFilter);
 18480              		.loc 1 692 0
 18481 008c 3B68     		ldr	r3, [r7, #0]
 691:../target/stm32/stdperiph/src/stm32f10x_tim.c ****     TI2_Config(TIMx, TIM_ICInitStruct->TIM_ICPolarity, TIM_ICInitStruct->TIM_ICSelection,
 18482              		.loc 1 691 0
 18483 008e 1B89     		ldrh	r3, [r3, #8]
 18484 0090 7868     		ldr	r0, [r7, #4]
 18485 0092 FFF7FEFF 		bl	TI2_Config
 693:../target/stm32/stdperiph/src/stm32f10x_tim.c ****     /* Set the Input Capture Prescaler value */
 694:../target/stm32/stdperiph/src/stm32f10x_tim.c ****     TIM_SetIC2Prescaler(TIMx, TIM_ICInitStruct->TIM_ICPrescaler);
 18486              		.loc 1 694 0
 18487 0096 3B68     		ldr	r3, [r7, #0]
 18488 0098 DB88     		ldrh	r3, [r3, #6]
 18489 009a 7868     		ldr	r0, [r7, #4]
 18490 009c 1946     		mov	r1, r3
 18491 009e FFF7FEFF 		bl	TIM_SetIC2Prescaler
 695:../target/stm32/stdperiph/src/stm32f10x_tim.c ****     /* TI1 Configuration */
 696:../target/stm32/stdperiph/src/stm32f10x_tim.c ****     TI1_Config(TIMx, icoppositepolarity, icoppositeselection, TIM_ICInitStruct->TIM_ICFilter);
 18492              		.loc 1 696 0
 18493 00a2 3B68     		ldr	r3, [r7, #0]
 18494 00a4 1B89     		ldrh	r3, [r3, #8]
 18495 00a6 F989     		ldrh	r1, [r7, #14]
 18496 00a8 BA89     		ldrh	r2, [r7, #12]
 18497 00aa 7868     		ldr	r0, [r7, #4]
 18498 00ac FFF7FEFF 		bl	TI1_Config
 697:../target/stm32/stdperiph/src/stm32f10x_tim.c ****     /* Set the Input Capture Prescaler value */
 698:../target/stm32/stdperiph/src/stm32f10x_tim.c ****     TIM_SetIC1Prescaler(TIMx, TIM_ICInitStruct->TIM_ICPrescaler);
 18499              		.loc 1 698 0
 18500 00b0 3B68     		ldr	r3, [r7, #0]
 18501 00b2 DB88     		ldrh	r3, [r3, #6]
 18502 00b4 7868     		ldr	r0, [r7, #4]
 18503 00b6 1946     		mov	r1, r3
 18504 00b8 FFF7FEFF 		bl	TIM_SetIC1Prescaler
 18505              	.L42:
 699:../target/stm32/stdperiph/src/stm32f10x_tim.c ****   }
 700:../target/stm32/stdperiph/src/stm32f10x_tim.c **** }
 18506              		.loc 1 700 0
 18507 00bc 07F11007 		add	r7, r7, #16
 18508 00c0 BD46     		mov	sp, r7
 18509 00c2 80BD     		pop	{r7, pc}
 18510              		.cfi_endproc
 18511              	.LFE36:
 18513              		.section	.text.TIM_BDTRConfig,"ax",%progbits
 18514              		.align	2
 18515              		.global	TIM_BDTRConfig
 18516              		.thumb
 18517              		.thumb_func
 18519              	TIM_BDTRConfig:
 18520              	.LFB37:
 701:../target/stm32/stdperiph/src/stm32f10x_tim.c **** 
 702:../target/stm32/stdperiph/src/stm32f10x_tim.c **** /**
 703:../target/stm32/stdperiph/src/stm32f10x_tim.c ****   * @brief  Configures the: Break feature, dead time, Lock level, the OSSI,
 704:../target/stm32/stdperiph/src/stm32f10x_tim.c ****   *   the OSSR State and the AOE(automatic output enable).
 705:../target/stm32/stdperiph/src/stm32f10x_tim.c ****   * @param  TIMx: where x can be  1 or 8 to select the TIM 
 706:../target/stm32/stdperiph/src/stm32f10x_tim.c ****   * @param  TIM_BDTRInitStruct: pointer to a TIM_BDTRInitTypeDef structure that
 707:../target/stm32/stdperiph/src/stm32f10x_tim.c ****   *   contains the BDTR Register configuration  information for the TIM peripheral.
 708:../target/stm32/stdperiph/src/stm32f10x_tim.c ****   * @retval None
 709:../target/stm32/stdperiph/src/stm32f10x_tim.c ****   */
 710:../target/stm32/stdperiph/src/stm32f10x_tim.c **** void TIM_BDTRConfig(TIM_TypeDef* TIMx, TIM_BDTRInitTypeDef *TIM_BDTRInitStruct)
 711:../target/stm32/stdperiph/src/stm32f10x_tim.c **** {
 18521              		.loc 1 711 0
 18522              		.cfi_startproc
 18523              		@ args = 0, pretend = 0, frame = 8
 18524              		@ frame_needed = 1, uses_anonymous_args = 0
 18525              		@ link register save eliminated.
 18526 0000 80B4     		push	{r7}
 18527              	.LCFI24:
 18528              		.cfi_def_cfa_offset 4
 18529 0002 83B0     		sub	sp, sp, #12
 18530              	.LCFI25:
 18531              		.cfi_def_cfa_offset 16
 18532 0004 00AF     		add	r7, sp, #0
 18533              		.cfi_offset 7, -4
 18534              	.LCFI26:
 18535              		.cfi_def_cfa_register 7
 18536 0006 7860     		str	r0, [r7, #4]
 18537 0008 3960     		str	r1, [r7, #0]
 712:../target/stm32/stdperiph/src/stm32f10x_tim.c ****   /* Check the parameters */
 713:../target/stm32/stdperiph/src/stm32f10x_tim.c ****   assert_param(IS_TIM_LIST2_PERIPH(TIMx));
 714:../target/stm32/stdperiph/src/stm32f10x_tim.c ****   assert_param(IS_TIM_OSSR_STATE(TIM_BDTRInitStruct->TIM_OSSRState));
 715:../target/stm32/stdperiph/src/stm32f10x_tim.c ****   assert_param(IS_TIM_OSSI_STATE(TIM_BDTRInitStruct->TIM_OSSIState));
 716:../target/stm32/stdperiph/src/stm32f10x_tim.c ****   assert_param(IS_TIM_LOCK_LEVEL(TIM_BDTRInitStruct->TIM_LOCKLevel));
 717:../target/stm32/stdperiph/src/stm32f10x_tim.c ****   assert_param(IS_TIM_BREAK_STATE(TIM_BDTRInitStruct->TIM_Break));
 718:../target/stm32/stdperiph/src/stm32f10x_tim.c ****   assert_param(IS_TIM_BREAK_POLARITY(TIM_BDTRInitStruct->TIM_BreakPolarity));
 719:../target/stm32/stdperiph/src/stm32f10x_tim.c ****   assert_param(IS_TIM_AUTOMATIC_OUTPUT_STATE(TIM_BDTRInitStruct->TIM_AutomaticOutput));
 720:../target/stm32/stdperiph/src/stm32f10x_tim.c ****   /* Set the Lock level, the Break enable Bit and the Ploarity, the OSSR State,
 721:../target/stm32/stdperiph/src/stm32f10x_tim.c ****      the OSSI State, the dead time value and the Automatic Output Enable Bit */
 722:../target/stm32/stdperiph/src/stm32f10x_tim.c ****   TIMx->BDTR = (uint32_t)TIM_BDTRInitStruct->TIM_OSSRState | TIM_BDTRInitStruct->TIM_OSSIState |
 18538              		.loc 1 722 0
 18539 000a 3B68     		ldr	r3, [r7, #0]
 18540 000c 1A88     		ldrh	r2, [r3, #0]
 18541 000e 3B68     		ldr	r3, [r7, #0]
 18542 0010 5B88     		ldrh	r3, [r3, #2]
 18543 0012 42EA0303 		orr	r3, r2, r3
 18544 0016 9AB2     		uxth	r2, r3
 723:../target/stm32/stdperiph/src/stm32f10x_tim.c ****              TIM_BDTRInitStruct->TIM_LOCKLevel | TIM_BDTRInitStruct->TIM_DeadTime |
 18545              		.loc 1 723 0
 18546 0018 3B68     		ldr	r3, [r7, #0]
 18547 001a 9B88     		ldrh	r3, [r3, #4]
 722:../target/stm32/stdperiph/src/stm32f10x_tim.c ****   TIMx->BDTR = (uint32_t)TIM_BDTRInitStruct->TIM_OSSRState | TIM_BDTRInitStruct->TIM_OSSIState |
 18548              		.loc 1 722 0
 18549 001c 42EA0303 		orr	r3, r2, r3
 18550 0020 9AB2     		uxth	r2, r3
 18551              		.loc 1 723 0
 18552 0022 3B68     		ldr	r3, [r7, #0]
 18553 0024 DB88     		ldrh	r3, [r3, #6]
 722:../target/stm32/stdperiph/src/stm32f10x_tim.c ****   TIMx->BDTR = (uint32_t)TIM_BDTRInitStruct->TIM_OSSRState | TIM_BDTRInitStruct->TIM_OSSIState |
 18554              		.loc 1 722 0
 18555 0026 42EA0303 		orr	r3, r2, r3
 18556 002a 9AB2     		uxth	r2, r3
 724:../target/stm32/stdperiph/src/stm32f10x_tim.c ****              TIM_BDTRInitStruct->TIM_Break | TIM_BDTRInitStruct->TIM_BreakPolarity |
 18557              		.loc 1 724 0
 18558 002c 3B68     		ldr	r3, [r7, #0]
 18559 002e 1B89     		ldrh	r3, [r3, #8]
 722:../target/stm32/stdperiph/src/stm32f10x_tim.c ****   TIMx->BDTR = (uint32_t)TIM_BDTRInitStruct->TIM_OSSRState | TIM_BDTRInitStruct->TIM_OSSIState |
 18560              		.loc 1 722 0
 18561 0030 42EA0303 		orr	r3, r2, r3
 18562 0034 9AB2     		uxth	r2, r3
 18563              		.loc 1 724 0
 18564 0036 3B68     		ldr	r3, [r7, #0]
 18565 0038 5B89     		ldrh	r3, [r3, #10]
 722:../target/stm32/stdperiph/src/stm32f10x_tim.c ****   TIMx->BDTR = (uint32_t)TIM_BDTRInitStruct->TIM_OSSRState | TIM_BDTRInitStruct->TIM_OSSIState |
 18566              		.loc 1 722 0
 18567 003a 42EA0303 		orr	r3, r2, r3
 18568 003e 9AB2     		uxth	r2, r3
 725:../target/stm32/stdperiph/src/stm32f10x_tim.c ****              TIM_BDTRInitStruct->TIM_AutomaticOutput;
 18569              		.loc 1 725 0
 18570 0040 3B68     		ldr	r3, [r7, #0]
 18571 0042 9B89     		ldrh	r3, [r3, #12]
 722:../target/stm32/stdperiph/src/stm32f10x_tim.c ****   TIMx->BDTR = (uint32_t)TIM_BDTRInitStruct->TIM_OSSRState | TIM_BDTRInitStruct->TIM_OSSIState |
 18572              		.loc 1 722 0
 18573 0044 42EA0303 		orr	r3, r2, r3
 18574 0048 9AB2     		uxth	r2, r3
 18575 004a 7B68     		ldr	r3, [r7, #4]
 18576 004c A3F84420 		strh	r2, [r3, #68]	@ movhi
 726:../target/stm32/stdperiph/src/stm32f10x_tim.c **** }
 18577              		.loc 1 726 0
 18578 0050 07F10C07 		add	r7, r7, #12
 18579 0054 BD46     		mov	sp, r7
 18580 0056 80BC     		pop	{r7}
 18581 0058 7047     		bx	lr
 18582              		.cfi_endproc
 18583              	.LFE37:
 18585 005a 00BF     		.section	.text.TIM_TimeBaseStructInit,"ax",%progbits
 18586              		.align	2
 18587              		.global	TIM_TimeBaseStructInit
 18588              		.thumb
 18589              		.thumb_func
 18591              	TIM_TimeBaseStructInit:
 18592              	.LFB38:
 727:../target/stm32/stdperiph/src/stm32f10x_tim.c **** 
 728:../target/stm32/stdperiph/src/stm32f10x_tim.c **** /**
 729:../target/stm32/stdperiph/src/stm32f10x_tim.c ****   * @brief  Fills each TIM_TimeBaseInitStruct member with its default value.
 730:../target/stm32/stdperiph/src/stm32f10x_tim.c ****   * @param  TIM_TimeBaseInitStruct : pointer to a TIM_TimeBaseInitTypeDef
 731:../target/stm32/stdperiph/src/stm32f10x_tim.c ****   *   structure which will be initialized.
 732:../target/stm32/stdperiph/src/stm32f10x_tim.c ****   * @retval None
 733:../target/stm32/stdperiph/src/stm32f10x_tim.c ****   */
 734:../target/stm32/stdperiph/src/stm32f10x_tim.c **** void TIM_TimeBaseStructInit(TIM_TimeBaseInitTypeDef* TIM_TimeBaseInitStruct)
 735:../target/stm32/stdperiph/src/stm32f10x_tim.c **** {
 18593              		.loc 1 735 0
 18594              		.cfi_startproc
 18595              		@ args = 0, pretend = 0, frame = 8
 18596              		@ frame_needed = 1, uses_anonymous_args = 0
 18597              		@ link register save eliminated.
 18598 0000 80B4     		push	{r7}
 18599              	.LCFI27:
 18600              		.cfi_def_cfa_offset 4
 18601 0002 83B0     		sub	sp, sp, #12
 18602              	.LCFI28:
 18603              		.cfi_def_cfa_offset 16
 18604 0004 00AF     		add	r7, sp, #0
 18605              		.cfi_offset 7, -4
 18606              	.LCFI29:
 18607              		.cfi_def_cfa_register 7
 18608 0006 7860     		str	r0, [r7, #4]
 736:../target/stm32/stdperiph/src/stm32f10x_tim.c ****   /* Set the default configuration */
 737:../target/stm32/stdperiph/src/stm32f10x_tim.c ****   TIM_TimeBaseInitStruct->TIM_Period = 0xFFFF;
 18609              		.loc 1 737 0
 18610 0008 7B68     		ldr	r3, [r7, #4]
 18611 000a 4FF6FF72 		movw	r2, #65535
 18612 000e 9A80     		strh	r2, [r3, #4]	@ movhi
 738:../target/stm32/stdperiph/src/stm32f10x_tim.c ****   TIM_TimeBaseInitStruct->TIM_Prescaler = 0x0000;
 18613              		.loc 1 738 0
 18614 0010 7B68     		ldr	r3, [r7, #4]
 18615 0012 4FF00002 		mov	r2, #0
 18616 0016 1A80     		strh	r2, [r3, #0]	@ movhi
 739:../target/stm32/stdperiph/src/stm32f10x_tim.c ****   TIM_TimeBaseInitStruct->TIM_ClockDivision = TIM_CKD_DIV1;
 18617              		.loc 1 739 0
 18618 0018 7B68     		ldr	r3, [r7, #4]
 18619 001a 4FF00002 		mov	r2, #0
 18620 001e DA80     		strh	r2, [r3, #6]	@ movhi
 740:../target/stm32/stdperiph/src/stm32f10x_tim.c ****   TIM_TimeBaseInitStruct->TIM_CounterMode = TIM_CounterMode_Up;
 18621              		.loc 1 740 0
 18622 0020 7B68     		ldr	r3, [r7, #4]
 18623 0022 4FF00002 		mov	r2, #0
 18624 0026 5A80     		strh	r2, [r3, #2]	@ movhi
 741:../target/stm32/stdperiph/src/stm32f10x_tim.c ****   TIM_TimeBaseInitStruct->TIM_RepetitionCounter = 0x0000;
 18625              		.loc 1 741 0
 18626 0028 7B68     		ldr	r3, [r7, #4]
 18627 002a 4FF00002 		mov	r2, #0
 18628 002e 1A72     		strb	r2, [r3, #8]
 742:../target/stm32/stdperiph/src/stm32f10x_tim.c **** }
 18629              		.loc 1 742 0
 18630 0030 07F10C07 		add	r7, r7, #12
 18631 0034 BD46     		mov	sp, r7
 18632 0036 80BC     		pop	{r7}
 18633 0038 7047     		bx	lr
 18634              		.cfi_endproc
 18635              	.LFE38:
 18637 003a 00BF     		.section	.text.TIM_OCStructInit,"ax",%progbits
 18638              		.align	2
 18639              		.global	TIM_OCStructInit
 18640              		.thumb
 18641              		.thumb_func
 18643              	TIM_OCStructInit:
 18644              	.LFB39:
 743:../target/stm32/stdperiph/src/stm32f10x_tim.c **** 
 744:../target/stm32/stdperiph/src/stm32f10x_tim.c **** /**
 745:../target/stm32/stdperiph/src/stm32f10x_tim.c ****   * @brief  Fills each TIM_OCInitStruct member with its default value.
 746:../target/stm32/stdperiph/src/stm32f10x_tim.c ****   * @param  TIM_OCInitStruct : pointer to a TIM_OCInitTypeDef structure which will
 747:../target/stm32/stdperiph/src/stm32f10x_tim.c ****   *   be initialized.
 748:../target/stm32/stdperiph/src/stm32f10x_tim.c ****   * @retval None
 749:../target/stm32/stdperiph/src/stm32f10x_tim.c ****   */
 750:../target/stm32/stdperiph/src/stm32f10x_tim.c **** void TIM_OCStructInit(TIM_OCInitTypeDef* TIM_OCInitStruct)
 751:../target/stm32/stdperiph/src/stm32f10x_tim.c **** {
 18645              		.loc 1 751 0
 18646              		.cfi_startproc
 18647              		@ args = 0, pretend = 0, frame = 8
 18648              		@ frame_needed = 1, uses_anonymous_args = 0
 18649              		@ link register save eliminated.
 18650 0000 80B4     		push	{r7}
 18651              	.LCFI30:
 18652              		.cfi_def_cfa_offset 4
 18653 0002 83B0     		sub	sp, sp, #12
 18654              	.LCFI31:
 18655              		.cfi_def_cfa_offset 16
 18656 0004 00AF     		add	r7, sp, #0
 18657              		.cfi_offset 7, -4
 18658              	.LCFI32:
 18659              		.cfi_def_cfa_register 7
 18660 0006 7860     		str	r0, [r7, #4]
 752:../target/stm32/stdperiph/src/stm32f10x_tim.c ****   /* Set the default configuration */
 753:../target/stm32/stdperiph/src/stm32f10x_tim.c ****   TIM_OCInitStruct->TIM_OCMode = TIM_OCMode_Timing;
 18661              		.loc 1 753 0
 18662 0008 7B68     		ldr	r3, [r7, #4]
 18663 000a 4FF00002 		mov	r2, #0
 18664 000e 1A80     		strh	r2, [r3, #0]	@ movhi
 754:../target/stm32/stdperiph/src/stm32f10x_tim.c ****   TIM_OCInitStruct->TIM_OutputState = TIM_OutputState_Disable;
 18665              		.loc 1 754 0
 18666 0010 7B68     		ldr	r3, [r7, #4]
 18667 0012 4FF00002 		mov	r2, #0
 18668 0016 5A80     		strh	r2, [r3, #2]	@ movhi
 755:../target/stm32/stdperiph/src/stm32f10x_tim.c ****   TIM_OCInitStruct->TIM_OutputNState = TIM_OutputNState_Disable;
 18669              		.loc 1 755 0
 18670 0018 7B68     		ldr	r3, [r7, #4]
 18671 001a 4FF00002 		mov	r2, #0
 18672 001e 9A80     		strh	r2, [r3, #4]	@ movhi
 756:../target/stm32/stdperiph/src/stm32f10x_tim.c ****   TIM_OCInitStruct->TIM_Pulse = 0x0000;
 18673              		.loc 1 756 0
 18674 0020 7B68     		ldr	r3, [r7, #4]
 18675 0022 4FF00002 		mov	r2, #0
 18676 0026 DA80     		strh	r2, [r3, #6]	@ movhi
 757:../target/stm32/stdperiph/src/stm32f10x_tim.c ****   TIM_OCInitStruct->TIM_OCPolarity = TIM_OCPolarity_High;
 18677              		.loc 1 757 0
 18678 0028 7B68     		ldr	r3, [r7, #4]
 18679 002a 4FF00002 		mov	r2, #0
 18680 002e 1A81     		strh	r2, [r3, #8]	@ movhi
 758:../target/stm32/stdperiph/src/stm32f10x_tim.c ****   TIM_OCInitStruct->TIM_OCNPolarity = TIM_OCPolarity_High;
 18681              		.loc 1 758 0
 18682 0030 7B68     		ldr	r3, [r7, #4]
 18683 0032 4FF00002 		mov	r2, #0
 18684 0036 5A81     		strh	r2, [r3, #10]	@ movhi
 759:../target/stm32/stdperiph/src/stm32f10x_tim.c ****   TIM_OCInitStruct->TIM_OCIdleState = TIM_OCIdleState_Reset;
 18685              		.loc 1 759 0
 18686 0038 7B68     		ldr	r3, [r7, #4]
 18687 003a 4FF00002 		mov	r2, #0
 18688 003e 9A81     		strh	r2, [r3, #12]	@ movhi
 760:../target/stm32/stdperiph/src/stm32f10x_tim.c ****   TIM_OCInitStruct->TIM_OCNIdleState = TIM_OCNIdleState_Reset;
 18689              		.loc 1 760 0
 18690 0040 7B68     		ldr	r3, [r7, #4]
 18691 0042 4FF00002 		mov	r2, #0
 18692 0046 DA81     		strh	r2, [r3, #14]	@ movhi
 761:../target/stm32/stdperiph/src/stm32f10x_tim.c **** }
 18693              		.loc 1 761 0
 18694 0048 07F10C07 		add	r7, r7, #12
 18695 004c BD46     		mov	sp, r7
 18696 004e 80BC     		pop	{r7}
 18697 0050 7047     		bx	lr
 18698              		.cfi_endproc
 18699              	.LFE39:
 18701 0052 00BF     		.section	.text.TIM_ICStructInit,"ax",%progbits
 18702              		.align	2
 18703              		.global	TIM_ICStructInit
 18704              		.thumb
 18705              		.thumb_func
 18707              	TIM_ICStructInit:
 18708              	.LFB40:
 762:../target/stm32/stdperiph/src/stm32f10x_tim.c **** 
 763:../target/stm32/stdperiph/src/stm32f10x_tim.c **** /**
 764:../target/stm32/stdperiph/src/stm32f10x_tim.c ****   * @brief  Fills each TIM_ICInitStruct member with its default value.
 765:../target/stm32/stdperiph/src/stm32f10x_tim.c ****   * @param  TIM_ICInitStruct : pointer to a TIM_ICInitTypeDef structure which will
 766:../target/stm32/stdperiph/src/stm32f10x_tim.c ****   *   be initialized.
 767:../target/stm32/stdperiph/src/stm32f10x_tim.c ****   * @retval None
 768:../target/stm32/stdperiph/src/stm32f10x_tim.c ****   */
 769:../target/stm32/stdperiph/src/stm32f10x_tim.c **** void TIM_ICStructInit(TIM_ICInitTypeDef* TIM_ICInitStruct)
 770:../target/stm32/stdperiph/src/stm32f10x_tim.c **** {
 18709              		.loc 1 770 0
 18710              		.cfi_startproc
 18711              		@ args = 0, pretend = 0, frame = 8
 18712              		@ frame_needed = 1, uses_anonymous_args = 0
 18713              		@ link register save eliminated.
 18714 0000 80B4     		push	{r7}
 18715              	.LCFI33:
 18716              		.cfi_def_cfa_offset 4
 18717 0002 83B0     		sub	sp, sp, #12
 18718              	.LCFI34:
 18719              		.cfi_def_cfa_offset 16
 18720 0004 00AF     		add	r7, sp, #0
 18721              		.cfi_offset 7, -4
 18722              	.LCFI35:
 18723              		.cfi_def_cfa_register 7
 18724 0006 7860     		str	r0, [r7, #4]
 771:../target/stm32/stdperiph/src/stm32f10x_tim.c ****   /* Set the default configuration */
 772:../target/stm32/stdperiph/src/stm32f10x_tim.c ****   TIM_ICInitStruct->TIM_Channel = TIM_Channel_1;
 18725              		.loc 1 772 0
 18726 0008 7B68     		ldr	r3, [r7, #4]
 18727 000a 4FF00002 		mov	r2, #0
 18728 000e 1A80     		strh	r2, [r3, #0]	@ movhi
 773:../target/stm32/stdperiph/src/stm32f10x_tim.c ****   TIM_ICInitStruct->TIM_ICPolarity = TIM_ICPolarity_Rising;
 18729              		.loc 1 773 0
 18730 0010 7B68     		ldr	r3, [r7, #4]
 18731 0012 4FF00002 		mov	r2, #0
 18732 0016 5A80     		strh	r2, [r3, #2]	@ movhi
 774:../target/stm32/stdperiph/src/stm32f10x_tim.c ****   TIM_ICInitStruct->TIM_ICSelection = TIM_ICSelection_DirectTI;
 18733              		.loc 1 774 0
 18734 0018 7B68     		ldr	r3, [r7, #4]
 18735 001a 4FF00102 		mov	r2, #1
 18736 001e 9A80     		strh	r2, [r3, #4]	@ movhi
 775:../target/stm32/stdperiph/src/stm32f10x_tim.c ****   TIM_ICInitStruct->TIM_ICPrescaler = TIM_ICPSC_DIV1;
 18737              		.loc 1 775 0
 18738 0020 7B68     		ldr	r3, [r7, #4]
 18739 0022 4FF00002 		mov	r2, #0
 18740 0026 DA80     		strh	r2, [r3, #6]	@ movhi
 776:../target/stm32/stdperiph/src/stm32f10x_tim.c ****   TIM_ICInitStruct->TIM_ICFilter = 0x00;
 18741              		.loc 1 776 0
 18742 0028 7B68     		ldr	r3, [r7, #4]
 18743 002a 4FF00002 		mov	r2, #0
 18744 002e 1A81     		strh	r2, [r3, #8]	@ movhi
 777:../target/stm32/stdperiph/src/stm32f10x_tim.c **** }
 18745              		.loc 1 777 0
 18746 0030 07F10C07 		add	r7, r7, #12
 18747 0034 BD46     		mov	sp, r7
 18748 0036 80BC     		pop	{r7}
 18749 0038 7047     		bx	lr
 18750              		.cfi_endproc
 18751              	.LFE40:
 18753 003a 00BF     		.section	.text.TIM_BDTRStructInit,"ax",%progbits
 18754              		.align	2
 18755              		.global	TIM_BDTRStructInit
 18756              		.thumb
 18757              		.thumb_func
 18759              	TIM_BDTRStructInit:
 18760              	.LFB41:
 778:../target/stm32/stdperiph/src/stm32f10x_tim.c **** 
 779:../target/stm32/stdperiph/src/stm32f10x_tim.c **** /**
 780:../target/stm32/stdperiph/src/stm32f10x_tim.c ****   * @brief  Fills each TIM_BDTRInitStruct member with its default value.
 781:../target/stm32/stdperiph/src/stm32f10x_tim.c ****   * @param  TIM_BDTRInitStruct: pointer to a TIM_BDTRInitTypeDef structure which
 782:../target/stm32/stdperiph/src/stm32f10x_tim.c ****   *   will be initialized.
 783:../target/stm32/stdperiph/src/stm32f10x_tim.c ****   * @retval None
 784:../target/stm32/stdperiph/src/stm32f10x_tim.c ****   */
 785:../target/stm32/stdperiph/src/stm32f10x_tim.c **** void TIM_BDTRStructInit(TIM_BDTRInitTypeDef* TIM_BDTRInitStruct)
 786:../target/stm32/stdperiph/src/stm32f10x_tim.c **** {
 18761              		.loc 1 786 0
 18762              		.cfi_startproc
 18763              		@ args = 0, pretend = 0, frame = 8
 18764              		@ frame_needed = 1, uses_anonymous_args = 0
 18765              		@ link register save eliminated.
 18766 0000 80B4     		push	{r7}
 18767              	.LCFI36:
 18768              		.cfi_def_cfa_offset 4
 18769 0002 83B0     		sub	sp, sp, #12
 18770              	.LCFI37:
 18771              		.cfi_def_cfa_offset 16
 18772 0004 00AF     		add	r7, sp, #0
 18773              		.cfi_offset 7, -4
 18774              	.LCFI38:
 18775              		.cfi_def_cfa_register 7
 18776 0006 7860     		str	r0, [r7, #4]
 787:../target/stm32/stdperiph/src/stm32f10x_tim.c ****   /* Set the default configuration */
 788:../target/stm32/stdperiph/src/stm32f10x_tim.c ****   TIM_BDTRInitStruct->TIM_OSSRState = TIM_OSSRState_Disable;
 18777              		.loc 1 788 0
 18778 0008 7B68     		ldr	r3, [r7, #4]
 18779 000a 4FF00002 		mov	r2, #0
 18780 000e 1A80     		strh	r2, [r3, #0]	@ movhi
 789:../target/stm32/stdperiph/src/stm32f10x_tim.c ****   TIM_BDTRInitStruct->TIM_OSSIState = TIM_OSSIState_Disable;
 18781              		.loc 1 789 0
 18782 0010 7B68     		ldr	r3, [r7, #4]
 18783 0012 4FF00002 		mov	r2, #0
 18784 0016 5A80     		strh	r2, [r3, #2]	@ movhi
 790:../target/stm32/stdperiph/src/stm32f10x_tim.c ****   TIM_BDTRInitStruct->TIM_LOCKLevel = TIM_LOCKLevel_OFF;
 18785              		.loc 1 790 0
 18786 0018 7B68     		ldr	r3, [r7, #4]
 18787 001a 4FF00002 		mov	r2, #0
 18788 001e 9A80     		strh	r2, [r3, #4]	@ movhi
 791:../target/stm32/stdperiph/src/stm32f10x_tim.c ****   TIM_BDTRInitStruct->TIM_DeadTime = 0x00;
 18789              		.loc 1 791 0
 18790 0020 7B68     		ldr	r3, [r7, #4]
 18791 0022 4FF00002 		mov	r2, #0
 18792 0026 DA80     		strh	r2, [r3, #6]	@ movhi
 792:../target/stm32/stdperiph/src/stm32f10x_tim.c ****   TIM_BDTRInitStruct->TIM_Break = TIM_Break_Disable;
 18793              		.loc 1 792 0
 18794 0028 7B68     		ldr	r3, [r7, #4]
 18795 002a 4FF00002 		mov	r2, #0
 18796 002e 1A81     		strh	r2, [r3, #8]	@ movhi
 793:../target/stm32/stdperiph/src/stm32f10x_tim.c ****   TIM_BDTRInitStruct->TIM_BreakPolarity = TIM_BreakPolarity_Low;
 18797              		.loc 1 793 0
 18798 0030 7B68     		ldr	r3, [r7, #4]
 18799 0032 4FF00002 		mov	r2, #0
 18800 0036 5A81     		strh	r2, [r3, #10]	@ movhi
 794:../target/stm32/stdperiph/src/stm32f10x_tim.c ****   TIM_BDTRInitStruct->TIM_AutomaticOutput = TIM_AutomaticOutput_Disable;
 18801              		.loc 1 794 0
 18802 0038 7B68     		ldr	r3, [r7, #4]
 18803 003a 4FF00002 		mov	r2, #0
 18804 003e 9A81     		strh	r2, [r3, #12]	@ movhi
 795:../target/stm32/stdperiph/src/stm32f10x_tim.c **** }
 18805              		.loc 1 795 0
 18806 0040 07F10C07 		add	r7, r7, #12
 18807 0044 BD46     		mov	sp, r7
 18808 0046 80BC     		pop	{r7}
 18809 0048 7047     		bx	lr
 18810              		.cfi_endproc
 18811              	.LFE41:
 18813 004a 00BF     		.section	.text.TIM_Cmd,"ax",%progbits
 18814              		.align	2
 18815              		.global	TIM_Cmd
 18816              		.thumb
 18817              		.thumb_func
 18819              	TIM_Cmd:
 18820              	.LFB42:
 796:../target/stm32/stdperiph/src/stm32f10x_tim.c **** 
 797:../target/stm32/stdperiph/src/stm32f10x_tim.c **** /**
 798:../target/stm32/stdperiph/src/stm32f10x_tim.c ****   * @brief  Enables or disables the specified TIM peripheral.
 799:../target/stm32/stdperiph/src/stm32f10x_tim.c ****   * @param  TIMx: where x can be 1 to 17 to select the TIMx peripheral.
 800:../target/stm32/stdperiph/src/stm32f10x_tim.c ****   * @param  NewState: new state of the TIMx peripheral.
 801:../target/stm32/stdperiph/src/stm32f10x_tim.c ****   *   This parameter can be: ENABLE or DISABLE.
 802:../target/stm32/stdperiph/src/stm32f10x_tim.c ****   * @retval None
 803:../target/stm32/stdperiph/src/stm32f10x_tim.c ****   */
 804:../target/stm32/stdperiph/src/stm32f10x_tim.c **** void TIM_Cmd(TIM_TypeDef* TIMx, FunctionalState NewState)
 805:../target/stm32/stdperiph/src/stm32f10x_tim.c **** {
 18821              		.loc 1 805 0
 18822              		.cfi_startproc
 18823              		@ args = 0, pretend = 0, frame = 8
 18824              		@ frame_needed = 1, uses_anonymous_args = 0
 18825              		@ link register save eliminated.
 18826 0000 80B4     		push	{r7}
 18827              	.LCFI39:
 18828              		.cfi_def_cfa_offset 4
 18829 0002 83B0     		sub	sp, sp, #12
 18830              	.LCFI40:
 18831              		.cfi_def_cfa_offset 16
 18832 0004 00AF     		add	r7, sp, #0
 18833              		.cfi_offset 7, -4
 18834              	.LCFI41:
 18835              		.cfi_def_cfa_register 7
 18836 0006 7860     		str	r0, [r7, #4]
 18837 0008 0B46     		mov	r3, r1
 18838 000a FB70     		strb	r3, [r7, #3]
 806:../target/stm32/stdperiph/src/stm32f10x_tim.c ****   /* Check the parameters */
 807:../target/stm32/stdperiph/src/stm32f10x_tim.c ****   assert_param(IS_TIM_ALL_PERIPH(TIMx));
 808:../target/stm32/stdperiph/src/stm32f10x_tim.c ****   assert_param(IS_FUNCTIONAL_STATE(NewState));
 809:../target/stm32/stdperiph/src/stm32f10x_tim.c ****   
 810:../target/stm32/stdperiph/src/stm32f10x_tim.c ****   if (NewState != DISABLE)
 18839              		.loc 1 810 0
 18840 000c FB78     		ldrb	r3, [r7, #3]	@ zero_extendqisi2
 18841 000e 002B     		cmp	r3, #0
 18842 0010 08D0     		beq	.L55
 811:../target/stm32/stdperiph/src/stm32f10x_tim.c ****   {
 812:../target/stm32/stdperiph/src/stm32f10x_tim.c ****     /* Enable the TIM Counter */
 813:../target/stm32/stdperiph/src/stm32f10x_tim.c ****     TIMx->CR1 |= TIM_CR1_CEN;
 18843              		.loc 1 813 0
 18844 0012 7B68     		ldr	r3, [r7, #4]
 18845 0014 1B88     		ldrh	r3, [r3, #0]	@ movhi
 18846 0016 9BB2     		uxth	r3, r3
 18847 0018 43F00103 		orr	r3, r3, #1
 18848 001c 9AB2     		uxth	r2, r3
 18849 001e 7B68     		ldr	r3, [r7, #4]
 18850 0020 1A80     		strh	r2, [r3, #0]	@ movhi
 18851 0022 07E0     		b	.L54
 18852              	.L55:
 814:../target/stm32/stdperiph/src/stm32f10x_tim.c ****   }
 815:../target/stm32/stdperiph/src/stm32f10x_tim.c ****   else
 816:../target/stm32/stdperiph/src/stm32f10x_tim.c ****   {
 817:../target/stm32/stdperiph/src/stm32f10x_tim.c ****     /* Disable the TIM Counter */
 818:../target/stm32/stdperiph/src/stm32f10x_tim.c ****     TIMx->CR1 &= (uint16_t)(~((uint16_t)TIM_CR1_CEN));
 18853              		.loc 1 818 0
 18854 0024 7B68     		ldr	r3, [r7, #4]
 18855 0026 1B88     		ldrh	r3, [r3, #0]	@ movhi
 18856 0028 9BB2     		uxth	r3, r3
 18857 002a 23F00103 		bic	r3, r3, #1
 18858 002e 9AB2     		uxth	r2, r3
 18859 0030 7B68     		ldr	r3, [r7, #4]
 18860 0032 1A80     		strh	r2, [r3, #0]	@ movhi
 18861              	.L54:
 819:../target/stm32/stdperiph/src/stm32f10x_tim.c ****   }
 820:../target/stm32/stdperiph/src/stm32f10x_tim.c **** }
 18862              		.loc 1 820 0
 18863 0034 07F10C07 		add	r7, r7, #12
 18864 0038 BD46     		mov	sp, r7
 18865 003a 80BC     		pop	{r7}
 18866 003c 7047     		bx	lr
 18867              		.cfi_endproc
 18868              	.LFE42:
 18870 003e 00BF     		.section	.text.TIM_CtrlPWMOutputs,"ax",%progbits
 18871              		.align	2
 18872              		.global	TIM_CtrlPWMOutputs
 18873              		.thumb
 18874              		.thumb_func
 18876              	TIM_CtrlPWMOutputs:
 18877              	.LFB43:
 821:../target/stm32/stdperiph/src/stm32f10x_tim.c **** 
 822:../target/stm32/stdperiph/src/stm32f10x_tim.c **** /**
 823:../target/stm32/stdperiph/src/stm32f10x_tim.c ****   * @brief  Enables or disables the TIM peripheral Main Outputs.
 824:../target/stm32/stdperiph/src/stm32f10x_tim.c ****   * @param  TIMx: where x can be 1, 8, 15, 16 or 17 to select the TIMx peripheral.
 825:../target/stm32/stdperiph/src/stm32f10x_tim.c ****   * @param  NewState: new state of the TIM peripheral Main Outputs.
 826:../target/stm32/stdperiph/src/stm32f10x_tim.c ****   *   This parameter can be: ENABLE or DISABLE.
 827:../target/stm32/stdperiph/src/stm32f10x_tim.c ****   * @retval None
 828:../target/stm32/stdperiph/src/stm32f10x_tim.c ****   */
 829:../target/stm32/stdperiph/src/stm32f10x_tim.c **** void TIM_CtrlPWMOutputs(TIM_TypeDef* TIMx, FunctionalState NewState)
 830:../target/stm32/stdperiph/src/stm32f10x_tim.c **** {
 18878              		.loc 1 830 0
 18879              		.cfi_startproc
 18880              		@ args = 0, pretend = 0, frame = 8
 18881              		@ frame_needed = 1, uses_anonymous_args = 0
 18882              		@ link register save eliminated.
 18883 0000 80B4     		push	{r7}
 18884              	.LCFI42:
 18885              		.cfi_def_cfa_offset 4
 18886 0002 83B0     		sub	sp, sp, #12
 18887              	.LCFI43:
 18888              		.cfi_def_cfa_offset 16
 18889 0004 00AF     		add	r7, sp, #0
 18890              		.cfi_offset 7, -4
 18891              	.LCFI44:
 18892              		.cfi_def_cfa_register 7
 18893 0006 7860     		str	r0, [r7, #4]
 18894 0008 0B46     		mov	r3, r1
 18895 000a FB70     		strb	r3, [r7, #3]
 831:../target/stm32/stdperiph/src/stm32f10x_tim.c ****   /* Check the parameters */
 832:../target/stm32/stdperiph/src/stm32f10x_tim.c ****   assert_param(IS_TIM_LIST2_PERIPH(TIMx));
 833:../target/stm32/stdperiph/src/stm32f10x_tim.c ****   assert_param(IS_FUNCTIONAL_STATE(NewState));
 834:../target/stm32/stdperiph/src/stm32f10x_tim.c ****   if (NewState != DISABLE)
 18896              		.loc 1 834 0
 18897 000c FB78     		ldrb	r3, [r7, #3]	@ zero_extendqisi2
 18898 000e 002B     		cmp	r3, #0
 18899 0010 0CD0     		beq	.L58
 835:../target/stm32/stdperiph/src/stm32f10x_tim.c ****   {
 836:../target/stm32/stdperiph/src/stm32f10x_tim.c ****     /* Enable the TIM Main Output */
 837:../target/stm32/stdperiph/src/stm32f10x_tim.c ****     TIMx->BDTR |= TIM_BDTR_MOE;
 18900              		.loc 1 837 0
 18901 0012 7B68     		ldr	r3, [r7, #4]
 18902 0014 B3F84430 		ldrh	r3, [r3, #68]	@ movhi
 18903 0018 9BB2     		uxth	r3, r3
 18904 001a 6FEA4343 		mvn	r3, r3, lsl #17
 18905 001e 6FEA5343 		mvn	r3, r3, lsr #17
 18906 0022 9AB2     		uxth	r2, r3
 18907 0024 7B68     		ldr	r3, [r7, #4]
 18908 0026 A3F84420 		strh	r2, [r3, #68]	@ movhi
 18909 002a 0BE0     		b	.L57
 18910              	.L58:
 838:../target/stm32/stdperiph/src/stm32f10x_tim.c ****   }
 839:../target/stm32/stdperiph/src/stm32f10x_tim.c ****   else
 840:../target/stm32/stdperiph/src/stm32f10x_tim.c ****   {
 841:../target/stm32/stdperiph/src/stm32f10x_tim.c ****     /* Disable the TIM Main Output */
 842:../target/stm32/stdperiph/src/stm32f10x_tim.c ****     TIMx->BDTR &= (uint16_t)(~((uint16_t)TIM_BDTR_MOE));
 18911              		.loc 1 842 0
 18912 002c 7B68     		ldr	r3, [r7, #4]
 18913 002e B3F84430 		ldrh	r3, [r3, #68]	@ movhi
 18914 0032 9BB2     		uxth	r3, r3
 18915 0034 4FEA4343 		lsl	r3, r3, #17
 18916 0038 4FEA5343 		lsr	r3, r3, #17
 18917 003c 9AB2     		uxth	r2, r3
 18918 003e 7B68     		ldr	r3, [r7, #4]
 18919 0040 A3F84420 		strh	r2, [r3, #68]	@ movhi
 18920              	.L57:
 843:../target/stm32/stdperiph/src/stm32f10x_tim.c ****   }  
 844:../target/stm32/stdperiph/src/stm32f10x_tim.c **** }
 18921              		.loc 1 844 0
 18922 0044 07F10C07 		add	r7, r7, #12
 18923 0048 BD46     		mov	sp, r7
 18924 004a 80BC     		pop	{r7}
 18925 004c 7047     		bx	lr
 18926              		.cfi_endproc
 18927              	.LFE43:
 18929 004e 00BF     		.section	.text.TIM_ITConfig,"ax",%progbits
 18930              		.align	2
 18931              		.global	TIM_ITConfig
 18932              		.thumb
 18933              		.thumb_func
 18935              	TIM_ITConfig:
 18936              	.LFB44:
 845:../target/stm32/stdperiph/src/stm32f10x_tim.c **** 
 846:../target/stm32/stdperiph/src/stm32f10x_tim.c **** /**
 847:../target/stm32/stdperiph/src/stm32f10x_tim.c ****   * @brief  Enables or disables the specified TIM interrupts.
 848:../target/stm32/stdperiph/src/stm32f10x_tim.c ****   * @param  TIMx: where x can be 1 to 17 to select the TIMx peripheral.
 849:../target/stm32/stdperiph/src/stm32f10x_tim.c ****   * @param  TIM_IT: specifies the TIM interrupts sources to be enabled or disabled.
 850:../target/stm32/stdperiph/src/stm32f10x_tim.c ****   *   This parameter can be any combination of the following values:
 851:../target/stm32/stdperiph/src/stm32f10x_tim.c ****   *     @arg TIM_IT_Update: TIM update Interrupt source
 852:../target/stm32/stdperiph/src/stm32f10x_tim.c ****   *     @arg TIM_IT_CC1: TIM Capture Compare 1 Interrupt source
 853:../target/stm32/stdperiph/src/stm32f10x_tim.c ****   *     @arg TIM_IT_CC2: TIM Capture Compare 2 Interrupt source
 854:../target/stm32/stdperiph/src/stm32f10x_tim.c ****   *     @arg TIM_IT_CC3: TIM Capture Compare 3 Interrupt source
 855:../target/stm32/stdperiph/src/stm32f10x_tim.c ****   *     @arg TIM_IT_CC4: TIM Capture Compare 4 Interrupt source
 856:../target/stm32/stdperiph/src/stm32f10x_tim.c ****   *     @arg TIM_IT_COM: TIM Commutation Interrupt source
 857:../target/stm32/stdperiph/src/stm32f10x_tim.c ****   *     @arg TIM_IT_Trigger: TIM Trigger Interrupt source
 858:../target/stm32/stdperiph/src/stm32f10x_tim.c ****   *     @arg TIM_IT_Break: TIM Break Interrupt source
 859:../target/stm32/stdperiph/src/stm32f10x_tim.c ****   * @note 
 860:../target/stm32/stdperiph/src/stm32f10x_tim.c ****   *   - TIM6 and TIM7 can only generate an update interrupt.
 861:../target/stm32/stdperiph/src/stm32f10x_tim.c ****   *   - TIM9, TIM12 and TIM15 can have only TIM_IT_Update, TIM_IT_CC1,
 862:../target/stm32/stdperiph/src/stm32f10x_tim.c ****   *      TIM_IT_CC2 or TIM_IT_Trigger. 
 863:../target/stm32/stdperiph/src/stm32f10x_tim.c ****   *   - TIM10, TIM11, TIM13, TIM14, TIM16 and TIM17 can have TIM_IT_Update or TIM_IT_CC1.   
 864:../target/stm32/stdperiph/src/stm32f10x_tim.c ****   *   - TIM_IT_Break is used only with TIM1, TIM8 and TIM15. 
 865:../target/stm32/stdperiph/src/stm32f10x_tim.c ****   *   - TIM_IT_COM is used only with TIM1, TIM8, TIM15, TIM16 and TIM17.    
 866:../target/stm32/stdperiph/src/stm32f10x_tim.c ****   * @param  NewState: new state of the TIM interrupts.
 867:../target/stm32/stdperiph/src/stm32f10x_tim.c ****   *   This parameter can be: ENABLE or DISABLE.
 868:../target/stm32/stdperiph/src/stm32f10x_tim.c ****   * @retval None
 869:../target/stm32/stdperiph/src/stm32f10x_tim.c ****   */
 870:../target/stm32/stdperiph/src/stm32f10x_tim.c **** void TIM_ITConfig(TIM_TypeDef* TIMx, uint16_t TIM_IT, FunctionalState NewState)
 871:../target/stm32/stdperiph/src/stm32f10x_tim.c **** {  
 18937              		.loc 1 871 0
 18938              		.cfi_startproc
 18939              		@ args = 0, pretend = 0, frame = 8
 18940              		@ frame_needed = 1, uses_anonymous_args = 0
 18941              		@ link register save eliminated.
 18942 0000 80B4     		push	{r7}
 18943              	.LCFI45:
 18944              		.cfi_def_cfa_offset 4
 18945 0002 83B0     		sub	sp, sp, #12
 18946              	.LCFI46:
 18947              		.cfi_def_cfa_offset 16
 18948 0004 00AF     		add	r7, sp, #0
 18949              		.cfi_offset 7, -4
 18950              	.LCFI47:
 18951              		.cfi_def_cfa_register 7
 18952 0006 7860     		str	r0, [r7, #4]
 18953 0008 1346     		mov	r3, r2
 18954 000a 0A46     		mov	r2, r1	@ movhi
 18955 000c 7A80     		strh	r2, [r7, #2]	@ movhi
 18956 000e 7B70     		strb	r3, [r7, #1]
 872:../target/stm32/stdperiph/src/stm32f10x_tim.c ****   /* Check the parameters */
 873:../target/stm32/stdperiph/src/stm32f10x_tim.c ****   assert_param(IS_TIM_ALL_PERIPH(TIMx));
 874:../target/stm32/stdperiph/src/stm32f10x_tim.c ****   assert_param(IS_TIM_IT(TIM_IT));
 875:../target/stm32/stdperiph/src/stm32f10x_tim.c ****   assert_param(IS_FUNCTIONAL_STATE(NewState));
 876:../target/stm32/stdperiph/src/stm32f10x_tim.c ****   
 877:../target/stm32/stdperiph/src/stm32f10x_tim.c ****   if (NewState != DISABLE)
 18957              		.loc 1 877 0
 18958 0010 7B78     		ldrb	r3, [r7, #1]	@ zero_extendqisi2
 18959 0012 002B     		cmp	r3, #0
 18960 0014 09D0     		beq	.L61
 878:../target/stm32/stdperiph/src/stm32f10x_tim.c ****   {
 879:../target/stm32/stdperiph/src/stm32f10x_tim.c ****     /* Enable the Interrupt sources */
 880:../target/stm32/stdperiph/src/stm32f10x_tim.c ****     TIMx->DIER |= TIM_IT;
 18961              		.loc 1 880 0
 18962 0016 7B68     		ldr	r3, [r7, #4]
 18963 0018 9B89     		ldrh	r3, [r3, #12]	@ movhi
 18964 001a 9AB2     		uxth	r2, r3
 18965 001c 7B88     		ldrh	r3, [r7, #2]	@ movhi
 18966 001e 42EA0303 		orr	r3, r2, r3
 18967 0022 9AB2     		uxth	r2, r3
 18968 0024 7B68     		ldr	r3, [r7, #4]
 18969 0026 9A81     		strh	r2, [r3, #12]	@ movhi
 18970 0028 0BE0     		b	.L60
 18971              	.L61:
 881:../target/stm32/stdperiph/src/stm32f10x_tim.c ****   }
 882:../target/stm32/stdperiph/src/stm32f10x_tim.c ****   else
 883:../target/stm32/stdperiph/src/stm32f10x_tim.c ****   {
 884:../target/stm32/stdperiph/src/stm32f10x_tim.c ****     /* Disable the Interrupt sources */
 885:../target/stm32/stdperiph/src/stm32f10x_tim.c ****     TIMx->DIER &= (uint16_t)~TIM_IT;
 18972              		.loc 1 885 0
 18973 002a 7B68     		ldr	r3, [r7, #4]
 18974 002c 9B89     		ldrh	r3, [r3, #12]	@ movhi
 18975 002e 9AB2     		uxth	r2, r3
 18976 0030 7B88     		ldrh	r3, [r7, #2]	@ movhi
 18977 0032 6FEA0303 		mvn	r3, r3
 18978 0036 9BB2     		uxth	r3, r3
 18979 0038 02EA0303 		and	r3, r2, r3
 18980 003c 9AB2     		uxth	r2, r3
 18981 003e 7B68     		ldr	r3, [r7, #4]
 18982 0040 9A81     		strh	r2, [r3, #12]	@ movhi
 18983              	.L60:
 886:../target/stm32/stdperiph/src/stm32f10x_tim.c ****   }
 887:../target/stm32/stdperiph/src/stm32f10x_tim.c **** }
 18984              		.loc 1 887 0
 18985 0042 07F10C07 		add	r7, r7, #12
 18986 0046 BD46     		mov	sp, r7
 18987 0048 80BC     		pop	{r7}
 18988 004a 7047     		bx	lr
 18989              		.cfi_endproc
 18990              	.LFE44:
 18992              		.section	.text.TIM_GenerateEvent,"ax",%progbits
 18993              		.align	2
 18994              		.global	TIM_GenerateEvent
 18995              		.thumb
 18996              		.thumb_func
 18998              	TIM_GenerateEvent:
 18999              	.LFB45:
 888:../target/stm32/stdperiph/src/stm32f10x_tim.c **** 
 889:../target/stm32/stdperiph/src/stm32f10x_tim.c **** /**
 890:../target/stm32/stdperiph/src/stm32f10x_tim.c ****   * @brief  Configures the TIMx event to be generate by software.
 891:../target/stm32/stdperiph/src/stm32f10x_tim.c ****   * @param  TIMx: where x can be 1 to 17 to select the TIM peripheral.
 892:../target/stm32/stdperiph/src/stm32f10x_tim.c ****   * @param  TIM_EventSource: specifies the event source.
 893:../target/stm32/stdperiph/src/stm32f10x_tim.c ****   *   This parameter can be one or more of the following values:	   
 894:../target/stm32/stdperiph/src/stm32f10x_tim.c ****   *     @arg TIM_EventSource_Update: Timer update Event source
 895:../target/stm32/stdperiph/src/stm32f10x_tim.c ****   *     @arg TIM_EventSource_CC1: Timer Capture Compare 1 Event source
 896:../target/stm32/stdperiph/src/stm32f10x_tim.c ****   *     @arg TIM_EventSource_CC2: Timer Capture Compare 2 Event source
 897:../target/stm32/stdperiph/src/stm32f10x_tim.c ****   *     @arg TIM_EventSource_CC3: Timer Capture Compare 3 Event source
 898:../target/stm32/stdperiph/src/stm32f10x_tim.c ****   *     @arg TIM_EventSource_CC4: Timer Capture Compare 4 Event source
 899:../target/stm32/stdperiph/src/stm32f10x_tim.c ****   *     @arg TIM_EventSource_COM: Timer COM event source  
 900:../target/stm32/stdperiph/src/stm32f10x_tim.c ****   *     @arg TIM_EventSource_Trigger: Timer Trigger Event source
 901:../target/stm32/stdperiph/src/stm32f10x_tim.c ****   *     @arg TIM_EventSource_Break: Timer Break event source
 902:../target/stm32/stdperiph/src/stm32f10x_tim.c ****   * @note 
 903:../target/stm32/stdperiph/src/stm32f10x_tim.c ****   *   - TIM6 and TIM7 can only generate an update event. 
 904:../target/stm32/stdperiph/src/stm32f10x_tim.c ****   *   - TIM_EventSource_COM and TIM_EventSource_Break are used only with TIM1 and TIM8.      
 905:../target/stm32/stdperiph/src/stm32f10x_tim.c ****   * @retval None
 906:../target/stm32/stdperiph/src/stm32f10x_tim.c ****   */
 907:../target/stm32/stdperiph/src/stm32f10x_tim.c **** void TIM_GenerateEvent(TIM_TypeDef* TIMx, uint16_t TIM_EventSource)
 908:../target/stm32/stdperiph/src/stm32f10x_tim.c **** { 
 19000              		.loc 1 908 0
 19001              		.cfi_startproc
 19002              		@ args = 0, pretend = 0, frame = 8
 19003              		@ frame_needed = 1, uses_anonymous_args = 0
 19004              		@ link register save eliminated.
 19005 0000 80B4     		push	{r7}
 19006              	.LCFI48:
 19007              		.cfi_def_cfa_offset 4
 19008 0002 83B0     		sub	sp, sp, #12
 19009              	.LCFI49:
 19010              		.cfi_def_cfa_offset 16
 19011 0004 00AF     		add	r7, sp, #0
 19012              		.cfi_offset 7, -4
 19013              	.LCFI50:
 19014              		.cfi_def_cfa_register 7
 19015 0006 7860     		str	r0, [r7, #4]
 19016 0008 0B46     		mov	r3, r1
 19017 000a 7B80     		strh	r3, [r7, #2]	@ movhi
 909:../target/stm32/stdperiph/src/stm32f10x_tim.c ****   /* Check the parameters */
 910:../target/stm32/stdperiph/src/stm32f10x_tim.c ****   assert_param(IS_TIM_ALL_PERIPH(TIMx));
 911:../target/stm32/stdperiph/src/stm32f10x_tim.c ****   assert_param(IS_TIM_EVENT_SOURCE(TIM_EventSource));
 912:../target/stm32/stdperiph/src/stm32f10x_tim.c ****   
 913:../target/stm32/stdperiph/src/stm32f10x_tim.c ****   /* Set the event sources */
 914:../target/stm32/stdperiph/src/stm32f10x_tim.c ****   TIMx->EGR = TIM_EventSource;
 19018              		.loc 1 914 0
 19019 000c 7B68     		ldr	r3, [r7, #4]
 19020 000e 7A88     		ldrh	r2, [r7, #2]	@ movhi
 19021 0010 9A82     		strh	r2, [r3, #20]	@ movhi
 915:../target/stm32/stdperiph/src/stm32f10x_tim.c **** }
 19022              		.loc 1 915 0
 19023 0012 07F10C07 		add	r7, r7, #12
 19024 0016 BD46     		mov	sp, r7
 19025 0018 80BC     		pop	{r7}
 19026 001a 7047     		bx	lr
 19027              		.cfi_endproc
 19028              	.LFE45:
 19030              		.section	.text.TIM_DMAConfig,"ax",%progbits
 19031              		.align	2
 19032              		.global	TIM_DMAConfig
 19033              		.thumb
 19034              		.thumb_func
 19036              	TIM_DMAConfig:
 19037              	.LFB46:
 916:../target/stm32/stdperiph/src/stm32f10x_tim.c **** 
 917:../target/stm32/stdperiph/src/stm32f10x_tim.c **** /**
 918:../target/stm32/stdperiph/src/stm32f10x_tim.c ****   * @brief  Configures the TIMxs DMA interface.
 919:../target/stm32/stdperiph/src/stm32f10x_tim.c ****   * @param  TIMx: where x can be  1, 2, 3, 4, 5, 8, 15, 16 or 17 to select 
 920:../target/stm32/stdperiph/src/stm32f10x_tim.c ****   *   the TIM peripheral.
 921:../target/stm32/stdperiph/src/stm32f10x_tim.c ****   * @param  TIM_DMABase: DMA Base address.
 922:../target/stm32/stdperiph/src/stm32f10x_tim.c ****   *   This parameter can be one of the following values:
 923:../target/stm32/stdperiph/src/stm32f10x_tim.c ****   *     @arg TIM_DMABase_CR, TIM_DMABase_CR2, TIM_DMABase_SMCR,
 924:../target/stm32/stdperiph/src/stm32f10x_tim.c ****   *   TIM_DMABase_DIER, TIM1_DMABase_SR, TIM_DMABase_EGR,
 925:../target/stm32/stdperiph/src/stm32f10x_tim.c ****   *   TIM_DMABase_CCMR1, TIM_DMABase_CCMR2, TIM_DMABase_CCER,
 926:../target/stm32/stdperiph/src/stm32f10x_tim.c ****   *   TIM_DMABase_CNT, TIM_DMABase_PSC, TIM_DMABase_ARR,
 927:../target/stm32/stdperiph/src/stm32f10x_tim.c ****   *   TIM_DMABase_RCR, TIM_DMABase_CCR1, TIM_DMABase_CCR2,
 928:../target/stm32/stdperiph/src/stm32f10x_tim.c ****   *   TIM_DMABase_CCR3, TIM_DMABase_CCR4, TIM_DMABase_BDTR,
 929:../target/stm32/stdperiph/src/stm32f10x_tim.c ****   *   TIM_DMABase_DCR.
 930:../target/stm32/stdperiph/src/stm32f10x_tim.c ****   * @param  TIM_DMABurstLength: DMA Burst length.
 931:../target/stm32/stdperiph/src/stm32f10x_tim.c ****   *   This parameter can be one value between:
 932:../target/stm32/stdperiph/src/stm32f10x_tim.c ****   *   TIM_DMABurstLength_1Byte and TIM_DMABurstLength_18Bytes.
 933:../target/stm32/stdperiph/src/stm32f10x_tim.c ****   * @retval None
 934:../target/stm32/stdperiph/src/stm32f10x_tim.c ****   */
 935:../target/stm32/stdperiph/src/stm32f10x_tim.c **** void TIM_DMAConfig(TIM_TypeDef* TIMx, uint16_t TIM_DMABase, uint16_t TIM_DMABurstLength)
 936:../target/stm32/stdperiph/src/stm32f10x_tim.c **** {
 19038              		.loc 1 936 0
 19039              		.cfi_startproc
 19040              		@ args = 0, pretend = 0, frame = 8
 19041              		@ frame_needed = 1, uses_anonymous_args = 0
 19042              		@ link register save eliminated.
 19043 0000 80B4     		push	{r7}
 19044              	.LCFI51:
 19045              		.cfi_def_cfa_offset 4
 19046 0002 83B0     		sub	sp, sp, #12
 19047              	.LCFI52:
 19048              		.cfi_def_cfa_offset 16
 19049 0004 00AF     		add	r7, sp, #0
 19050              		.cfi_offset 7, -4
 19051              	.LCFI53:
 19052              		.cfi_def_cfa_register 7
 19053 0006 7860     		str	r0, [r7, #4]
 19054 0008 1346     		mov	r3, r2
 19055 000a 0A46     		mov	r2, r1	@ movhi
 19056 000c 7A80     		strh	r2, [r7, #2]	@ movhi
 19057 000e 3B80     		strh	r3, [r7, #0]	@ movhi
 937:../target/stm32/stdperiph/src/stm32f10x_tim.c ****   /* Check the parameters */
 938:../target/stm32/stdperiph/src/stm32f10x_tim.c ****   assert_param(IS_TIM_LIST4_PERIPH(TIMx));
 939:../target/stm32/stdperiph/src/stm32f10x_tim.c ****   assert_param(IS_TIM_DMA_BASE(TIM_DMABase));
 940:../target/stm32/stdperiph/src/stm32f10x_tim.c ****   assert_param(IS_TIM_DMA_LENGTH(TIM_DMABurstLength));
 941:../target/stm32/stdperiph/src/stm32f10x_tim.c ****   /* Set the DMA Base and the DMA Burst Length */
 942:../target/stm32/stdperiph/src/stm32f10x_tim.c ****   TIMx->DCR = TIM_DMABase | TIM_DMABurstLength;
 19058              		.loc 1 942 0
 19059 0010 7A88     		ldrh	r2, [r7, #2]	@ movhi
 19060 0012 3B88     		ldrh	r3, [r7, #0]	@ movhi
 19061 0014 42EA0303 		orr	r3, r2, r3
 19062 0018 9AB2     		uxth	r2, r3
 19063 001a 7B68     		ldr	r3, [r7, #4]
 19064 001c A3F84820 		strh	r2, [r3, #72]	@ movhi
 943:../target/stm32/stdperiph/src/stm32f10x_tim.c **** }
 19065              		.loc 1 943 0
 19066 0020 07F10C07 		add	r7, r7, #12
 19067 0024 BD46     		mov	sp, r7
 19068 0026 80BC     		pop	{r7}
 19069 0028 7047     		bx	lr
 19070              		.cfi_endproc
 19071              	.LFE46:
 19073 002a 00BF     		.section	.text.TIM_DMACmd,"ax",%progbits
 19074              		.align	2
 19075              		.global	TIM_DMACmd
 19076              		.thumb
 19077              		.thumb_func
 19079              	TIM_DMACmd:
 19080              	.LFB47:
 944:../target/stm32/stdperiph/src/stm32f10x_tim.c **** 
 945:../target/stm32/stdperiph/src/stm32f10x_tim.c **** /**
 946:../target/stm32/stdperiph/src/stm32f10x_tim.c ****   * @brief  Enables or disables the TIMxs DMA Requests.
 947:../target/stm32/stdperiph/src/stm32f10x_tim.c ****   * @param  TIMx: where x can be  1, 2, 3, 4, 5, 6, 7, 8, 15, 16 or 17 
 948:../target/stm32/stdperiph/src/stm32f10x_tim.c ****   *   to select the TIM peripheral. 
 949:../target/stm32/stdperiph/src/stm32f10x_tim.c ****   * @param  TIM_DMASource: specifies the DMA Request sources.
 950:../target/stm32/stdperiph/src/stm32f10x_tim.c ****   *   This parameter can be any combination of the following values:
 951:../target/stm32/stdperiph/src/stm32f10x_tim.c ****   *     @arg TIM_DMA_Update: TIM update Interrupt source
 952:../target/stm32/stdperiph/src/stm32f10x_tim.c ****   *     @arg TIM_DMA_CC1: TIM Capture Compare 1 DMA source
 953:../target/stm32/stdperiph/src/stm32f10x_tim.c ****   *     @arg TIM_DMA_CC2: TIM Capture Compare 2 DMA source
 954:../target/stm32/stdperiph/src/stm32f10x_tim.c ****   *     @arg TIM_DMA_CC3: TIM Capture Compare 3 DMA source
 955:../target/stm32/stdperiph/src/stm32f10x_tim.c ****   *     @arg TIM_DMA_CC4: TIM Capture Compare 4 DMA source
 956:../target/stm32/stdperiph/src/stm32f10x_tim.c ****   *     @arg TIM_DMA_COM: TIM Commutation DMA source
 957:../target/stm32/stdperiph/src/stm32f10x_tim.c ****   *     @arg TIM_DMA_Trigger: TIM Trigger DMA source
 958:../target/stm32/stdperiph/src/stm32f10x_tim.c ****   * @param  NewState: new state of the DMA Request sources.
 959:../target/stm32/stdperiph/src/stm32f10x_tim.c ****   *   This parameter can be: ENABLE or DISABLE.
 960:../target/stm32/stdperiph/src/stm32f10x_tim.c ****   * @retval None
 961:../target/stm32/stdperiph/src/stm32f10x_tim.c ****   */
 962:../target/stm32/stdperiph/src/stm32f10x_tim.c **** void TIM_DMACmd(TIM_TypeDef* TIMx, uint16_t TIM_DMASource, FunctionalState NewState)
 963:../target/stm32/stdperiph/src/stm32f10x_tim.c **** { 
 19081              		.loc 1 963 0
 19082              		.cfi_startproc
 19083              		@ args = 0, pretend = 0, frame = 8
 19084              		@ frame_needed = 1, uses_anonymous_args = 0
 19085              		@ link register save eliminated.
 19086 0000 80B4     		push	{r7}
 19087              	.LCFI54:
 19088              		.cfi_def_cfa_offset 4
 19089 0002 83B0     		sub	sp, sp, #12
 19090              	.LCFI55:
 19091              		.cfi_def_cfa_offset 16
 19092 0004 00AF     		add	r7, sp, #0
 19093              		.cfi_offset 7, -4
 19094              	.LCFI56:
 19095              		.cfi_def_cfa_register 7
 19096 0006 7860     		str	r0, [r7, #4]
 19097 0008 1346     		mov	r3, r2
 19098 000a 0A46     		mov	r2, r1	@ movhi
 19099 000c 7A80     		strh	r2, [r7, #2]	@ movhi
 19100 000e 7B70     		strb	r3, [r7, #1]
 964:../target/stm32/stdperiph/src/stm32f10x_tim.c ****   /* Check the parameters */
 965:../target/stm32/stdperiph/src/stm32f10x_tim.c ****   assert_param(IS_TIM_LIST9_PERIPH(TIMx));
 966:../target/stm32/stdperiph/src/stm32f10x_tim.c ****   assert_param(IS_TIM_DMA_SOURCE(TIM_DMASource));
 967:../target/stm32/stdperiph/src/stm32f10x_tim.c ****   assert_param(IS_FUNCTIONAL_STATE(NewState));
 968:../target/stm32/stdperiph/src/stm32f10x_tim.c ****   
 969:../target/stm32/stdperiph/src/stm32f10x_tim.c ****   if (NewState != DISABLE)
 19101              		.loc 1 969 0
 19102 0010 7B78     		ldrb	r3, [r7, #1]	@ zero_extendqisi2
 19103 0012 002B     		cmp	r3, #0
 19104 0014 09D0     		beq	.L66
 970:../target/stm32/stdperiph/src/stm32f10x_tim.c ****   {
 971:../target/stm32/stdperiph/src/stm32f10x_tim.c ****     /* Enable the DMA sources */
 972:../target/stm32/stdperiph/src/stm32f10x_tim.c ****     TIMx->DIER |= TIM_DMASource; 
 19105              		.loc 1 972 0
 19106 0016 7B68     		ldr	r3, [r7, #4]
 19107 0018 9B89     		ldrh	r3, [r3, #12]	@ movhi
 19108 001a 9AB2     		uxth	r2, r3
 19109 001c 7B88     		ldrh	r3, [r7, #2]	@ movhi
 19110 001e 42EA0303 		orr	r3, r2, r3
 19111 0022 9AB2     		uxth	r2, r3
 19112 0024 7B68     		ldr	r3, [r7, #4]
 19113 0026 9A81     		strh	r2, [r3, #12]	@ movhi
 19114 0028 0BE0     		b	.L65
 19115              	.L66:
 973:../target/stm32/stdperiph/src/stm32f10x_tim.c ****   }
 974:../target/stm32/stdperiph/src/stm32f10x_tim.c ****   else
 975:../target/stm32/stdperiph/src/stm32f10x_tim.c ****   {
 976:../target/stm32/stdperiph/src/stm32f10x_tim.c ****     /* Disable the DMA sources */
 977:../target/stm32/stdperiph/src/stm32f10x_tim.c ****     TIMx->DIER &= (uint16_t)~TIM_DMASource;
 19116              		.loc 1 977 0
 19117 002a 7B68     		ldr	r3, [r7, #4]
 19118 002c 9B89     		ldrh	r3, [r3, #12]	@ movhi
 19119 002e 9AB2     		uxth	r2, r3
 19120 0030 7B88     		ldrh	r3, [r7, #2]	@ movhi
 19121 0032 6FEA0303 		mvn	r3, r3
 19122 0036 9BB2     		uxth	r3, r3
 19123 0038 02EA0303 		and	r3, r2, r3
 19124 003c 9AB2     		uxth	r2, r3
 19125 003e 7B68     		ldr	r3, [r7, #4]
 19126 0040 9A81     		strh	r2, [r3, #12]	@ movhi
 19127              	.L65:
 978:../target/stm32/stdperiph/src/stm32f10x_tim.c ****   }
 979:../target/stm32/stdperiph/src/stm32f10x_tim.c **** }
 19128              		.loc 1 979 0
 19129 0042 07F10C07 		add	r7, r7, #12
 19130 0046 BD46     		mov	sp, r7
 19131 0048 80BC     		pop	{r7}
 19132 004a 7047     		bx	lr
 19133              		.cfi_endproc
 19134              	.LFE47:
 19136              		.section	.text.TIM_InternalClockConfig,"ax",%progbits
 19137              		.align	2
 19138              		.global	TIM_InternalClockConfig
 19139              		.thumb
 19140              		.thumb_func
 19142              	TIM_InternalClockConfig:
 19143              	.LFB48:
 980:../target/stm32/stdperiph/src/stm32f10x_tim.c **** 
 981:../target/stm32/stdperiph/src/stm32f10x_tim.c **** /**
 982:../target/stm32/stdperiph/src/stm32f10x_tim.c ****   * @brief  Configures the TIMx interrnal Clock
 983:../target/stm32/stdperiph/src/stm32f10x_tim.c ****   * @param  TIMx: where x can be  1, 2, 3, 4, 5, 8, 9, 12 or 15
 984:../target/stm32/stdperiph/src/stm32f10x_tim.c ****   *   to select the TIM peripheral.
 985:../target/stm32/stdperiph/src/stm32f10x_tim.c ****   * @retval None
 986:../target/stm32/stdperiph/src/stm32f10x_tim.c ****   */
 987:../target/stm32/stdperiph/src/stm32f10x_tim.c **** void TIM_InternalClockConfig(TIM_TypeDef* TIMx)
 988:../target/stm32/stdperiph/src/stm32f10x_tim.c **** {
 19144              		.loc 1 988 0
 19145              		.cfi_startproc
 19146              		@ args = 0, pretend = 0, frame = 8
 19147              		@ frame_needed = 1, uses_anonymous_args = 0
 19148              		@ link register save eliminated.
 19149 0000 80B4     		push	{r7}
 19150              	.LCFI57:
 19151              		.cfi_def_cfa_offset 4
 19152 0002 83B0     		sub	sp, sp, #12
 19153              	.LCFI58:
 19154              		.cfi_def_cfa_offset 16
 19155 0004 00AF     		add	r7, sp, #0
 19156              		.cfi_offset 7, -4
 19157              	.LCFI59:
 19158              		.cfi_def_cfa_register 7
 19159 0006 7860     		str	r0, [r7, #4]
 989:../target/stm32/stdperiph/src/stm32f10x_tim.c ****   /* Check the parameters */
 990:../target/stm32/stdperiph/src/stm32f10x_tim.c ****   assert_param(IS_TIM_LIST6_PERIPH(TIMx));
 991:../target/stm32/stdperiph/src/stm32f10x_tim.c ****   /* Disable slave mode to clock the prescaler directly with the internal clock */
 992:../target/stm32/stdperiph/src/stm32f10x_tim.c ****   TIMx->SMCR &=  (uint16_t)(~((uint16_t)TIM_SMCR_SMS));
 19160              		.loc 1 992 0
 19161 0008 7B68     		ldr	r3, [r7, #4]
 19162 000a 1B89     		ldrh	r3, [r3, #8]	@ movhi
 19163 000c 9BB2     		uxth	r3, r3
 19164 000e 23F00703 		bic	r3, r3, #7
 19165 0012 9AB2     		uxth	r2, r3
 19166 0014 7B68     		ldr	r3, [r7, #4]
 19167 0016 1A81     		strh	r2, [r3, #8]	@ movhi
 993:../target/stm32/stdperiph/src/stm32f10x_tim.c **** }
 19168              		.loc 1 993 0
 19169 0018 07F10C07 		add	r7, r7, #12
 19170 001c BD46     		mov	sp, r7
 19171 001e 80BC     		pop	{r7}
 19172 0020 7047     		bx	lr
 19173              		.cfi_endproc
 19174              	.LFE48:
 19176 0022 00BF     		.section	.text.TIM_ITRxExternalClockConfig,"ax",%progbits
 19177              		.align	2
 19178              		.global	TIM_ITRxExternalClockConfig
 19179              		.thumb
 19180              		.thumb_func
 19182              	TIM_ITRxExternalClockConfig:
 19183              	.LFB49:
 994:../target/stm32/stdperiph/src/stm32f10x_tim.c **** 
 995:../target/stm32/stdperiph/src/stm32f10x_tim.c **** /**
 996:../target/stm32/stdperiph/src/stm32f10x_tim.c ****   * @brief  Configures the TIMx Internal Trigger as External Clock
 997:../target/stm32/stdperiph/src/stm32f10x_tim.c ****   * @param  TIMx: where x can be  1, 2, 3, 4, 5, 9, 12 or 15 to select the TIM peripheral.
 998:../target/stm32/stdperiph/src/stm32f10x_tim.c ****   * @param  TIM_ITRSource: Trigger source.
 999:../target/stm32/stdperiph/src/stm32f10x_tim.c ****   *   This parameter can be one of the following values:
1000:../target/stm32/stdperiph/src/stm32f10x_tim.c ****   * @param  TIM_TS_ITR0: Internal Trigger 0
1001:../target/stm32/stdperiph/src/stm32f10x_tim.c ****   * @param  TIM_TS_ITR1: Internal Trigger 1
1002:../target/stm32/stdperiph/src/stm32f10x_tim.c ****   * @param  TIM_TS_ITR2: Internal Trigger 2
1003:../target/stm32/stdperiph/src/stm32f10x_tim.c ****   * @param  TIM_TS_ITR3: Internal Trigger 3
1004:../target/stm32/stdperiph/src/stm32f10x_tim.c ****   * @retval None
1005:../target/stm32/stdperiph/src/stm32f10x_tim.c ****   */
1006:../target/stm32/stdperiph/src/stm32f10x_tim.c **** void TIM_ITRxExternalClockConfig(TIM_TypeDef* TIMx, uint16_t TIM_InputTriggerSource)
1007:../target/stm32/stdperiph/src/stm32f10x_tim.c **** {
 19184              		.loc 1 1007 0
 19185              		.cfi_startproc
 19186              		@ args = 0, pretend = 0, frame = 8
 19187              		@ frame_needed = 1, uses_anonymous_args = 0
 19188 0000 80B5     		push	{r7, lr}
 19189              	.LCFI60:
 19190              		.cfi_def_cfa_offset 8
 19191 0002 82B0     		sub	sp, sp, #8
 19192              	.LCFI61:
 19193              		.cfi_def_cfa_offset 16
 19194 0004 00AF     		add	r7, sp, #0
 19195              		.cfi_offset 14, -4
 19196              		.cfi_offset 7, -8
 19197              	.LCFI62:
 19198              		.cfi_def_cfa_register 7
 19199 0006 7860     		str	r0, [r7, #4]
 19200 0008 0B46     		mov	r3, r1
 19201 000a 7B80     		strh	r3, [r7, #2]	@ movhi
1008:../target/stm32/stdperiph/src/stm32f10x_tim.c ****   /* Check the parameters */
1009:../target/stm32/stdperiph/src/stm32f10x_tim.c ****   assert_param(IS_TIM_LIST6_PERIPH(TIMx));
1010:../target/stm32/stdperiph/src/stm32f10x_tim.c ****   assert_param(IS_TIM_INTERNAL_TRIGGER_SELECTION(TIM_InputTriggerSource));
1011:../target/stm32/stdperiph/src/stm32f10x_tim.c ****   /* Select the Internal Trigger */
1012:../target/stm32/stdperiph/src/stm32f10x_tim.c ****   TIM_SelectInputTrigger(TIMx, TIM_InputTriggerSource);
 19202              		.loc 1 1012 0
 19203 000c 7B88     		ldrh	r3, [r7, #2]
 19204 000e 7868     		ldr	r0, [r7, #4]
 19205 0010 1946     		mov	r1, r3
 19206 0012 FFF7FEFF 		bl	TIM_SelectInputTrigger
1013:../target/stm32/stdperiph/src/stm32f10x_tim.c ****   /* Select the External clock mode1 */
1014:../target/stm32/stdperiph/src/stm32f10x_tim.c ****   TIMx->SMCR |= TIM_SlaveMode_External1;
 19207              		.loc 1 1014 0
 19208 0016 7B68     		ldr	r3, [r7, #4]
 19209 0018 1B89     		ldrh	r3, [r3, #8]	@ movhi
 19210 001a 9BB2     		uxth	r3, r3
 19211 001c 43F00703 		orr	r3, r3, #7
 19212 0020 9AB2     		uxth	r2, r3
 19213 0022 7B68     		ldr	r3, [r7, #4]
 19214 0024 1A81     		strh	r2, [r3, #8]	@ movhi
1015:../target/stm32/stdperiph/src/stm32f10x_tim.c **** }
 19215              		.loc 1 1015 0
 19216 0026 07F10807 		add	r7, r7, #8
 19217 002a BD46     		mov	sp, r7
 19218 002c 80BD     		pop	{r7, pc}
 19219              		.cfi_endproc
 19220              	.LFE49:
 19222 002e 00BF     		.section	.text.TIM_TIxExternalClockConfig,"ax",%progbits
 19223              		.align	2
 19224              		.global	TIM_TIxExternalClockConfig
 19225              		.thumb
 19226              		.thumb_func
 19228              	TIM_TIxExternalClockConfig:
 19229              	.LFB50:
1016:../target/stm32/stdperiph/src/stm32f10x_tim.c **** 
1017:../target/stm32/stdperiph/src/stm32f10x_tim.c **** /**
1018:../target/stm32/stdperiph/src/stm32f10x_tim.c ****   * @brief  Configures the TIMx Trigger as External Clock
1019:../target/stm32/stdperiph/src/stm32f10x_tim.c ****   * @param  TIMx: where x can be  1, 2, 3, 4, 5, 9, 12 or 15 to select the TIM peripheral.
1020:../target/stm32/stdperiph/src/stm32f10x_tim.c ****   * @param  TIM_TIxExternalCLKSource: Trigger source.
1021:../target/stm32/stdperiph/src/stm32f10x_tim.c ****   *   This parameter can be one of the following values:
1022:../target/stm32/stdperiph/src/stm32f10x_tim.c ****   *     @arg TIM_TIxExternalCLK1Source_TI1ED: TI1 Edge Detector
1023:../target/stm32/stdperiph/src/stm32f10x_tim.c ****   *     @arg TIM_TIxExternalCLK1Source_TI1: Filtered Timer Input 1
1024:../target/stm32/stdperiph/src/stm32f10x_tim.c ****   *     @arg TIM_TIxExternalCLK1Source_TI2: Filtered Timer Input 2
1025:../target/stm32/stdperiph/src/stm32f10x_tim.c ****   * @param  TIM_ICPolarity: specifies the TIx Polarity.
1026:../target/stm32/stdperiph/src/stm32f10x_tim.c ****   *   This parameter can be one of the following values:
1027:../target/stm32/stdperiph/src/stm32f10x_tim.c ****   *     @arg TIM_ICPolarity_Rising
1028:../target/stm32/stdperiph/src/stm32f10x_tim.c ****   *     @arg TIM_ICPolarity_Falling
1029:../target/stm32/stdperiph/src/stm32f10x_tim.c ****   * @param  ICFilter : specifies the filter value.
1030:../target/stm32/stdperiph/src/stm32f10x_tim.c ****   *   This parameter must be a value between 0x0 and 0xF.
1031:../target/stm32/stdperiph/src/stm32f10x_tim.c ****   * @retval None
1032:../target/stm32/stdperiph/src/stm32f10x_tim.c ****   */
1033:../target/stm32/stdperiph/src/stm32f10x_tim.c **** void TIM_TIxExternalClockConfig(TIM_TypeDef* TIMx, uint16_t TIM_TIxExternalCLKSource,
1034:../target/stm32/stdperiph/src/stm32f10x_tim.c ****                                 uint16_t TIM_ICPolarity, uint16_t ICFilter)
1035:../target/stm32/stdperiph/src/stm32f10x_tim.c **** {
 19230              		.loc 1 1035 0
 19231              		.cfi_startproc
 19232              		@ args = 0, pretend = 0, frame = 16
 19233              		@ frame_needed = 1, uses_anonymous_args = 0
 19234 0000 80B5     		push	{r7, lr}
 19235              	.LCFI63:
 19236              		.cfi_def_cfa_offset 8
 19237 0002 84B0     		sub	sp, sp, #16
 19238              	.LCFI64:
 19239              		.cfi_def_cfa_offset 24
 19240 0004 00AF     		add	r7, sp, #0
 19241              		.cfi_offset 14, -4
 19242              		.cfi_offset 7, -8
 19243              	.LCFI65:
 19244              		.cfi_def_cfa_register 7
 19245 0006 F860     		str	r0, [r7, #12]
 19246 0008 7981     		strh	r1, [r7, #10]	@ movhi
 19247 000a 3A81     		strh	r2, [r7, #8]	@ movhi
 19248 000c FB80     		strh	r3, [r7, #6]	@ movhi
1036:../target/stm32/stdperiph/src/stm32f10x_tim.c ****   /* Check the parameters */
1037:../target/stm32/stdperiph/src/stm32f10x_tim.c ****   assert_param(IS_TIM_LIST6_PERIPH(TIMx));
1038:../target/stm32/stdperiph/src/stm32f10x_tim.c ****   assert_param(IS_TIM_TIXCLK_SOURCE(TIM_TIxExternalCLKSource));
1039:../target/stm32/stdperiph/src/stm32f10x_tim.c ****   assert_param(IS_TIM_IC_POLARITY(TIM_ICPolarity));
1040:../target/stm32/stdperiph/src/stm32f10x_tim.c ****   assert_param(IS_TIM_IC_FILTER(ICFilter));
1041:../target/stm32/stdperiph/src/stm32f10x_tim.c ****   /* Configure the Timer Input Clock Source */
1042:../target/stm32/stdperiph/src/stm32f10x_tim.c ****   if (TIM_TIxExternalCLKSource == TIM_TIxExternalCLK1Source_TI2)
 19249              		.loc 1 1042 0
 19250 000e 7B89     		ldrh	r3, [r7, #10]
 19251 0010 602B     		cmp	r3, #96
 19252 0012 08D1     		bne	.L71
1043:../target/stm32/stdperiph/src/stm32f10x_tim.c ****   {
1044:../target/stm32/stdperiph/src/stm32f10x_tim.c ****     TI2_Config(TIMx, TIM_ICPolarity, TIM_ICSelection_DirectTI, ICFilter);
 19253              		.loc 1 1044 0
 19254 0014 3A89     		ldrh	r2, [r7, #8]
 19255 0016 FB88     		ldrh	r3, [r7, #6]
 19256 0018 F868     		ldr	r0, [r7, #12]
 19257 001a 1146     		mov	r1, r2
 19258 001c 4FF00102 		mov	r2, #1
 19259 0020 FFF7FEFF 		bl	TI2_Config
 19260 0024 07E0     		b	.L72
 19261              	.L71:
1045:../target/stm32/stdperiph/src/stm32f10x_tim.c ****   }
1046:../target/stm32/stdperiph/src/stm32f10x_tim.c ****   else
1047:../target/stm32/stdperiph/src/stm32f10x_tim.c ****   {
1048:../target/stm32/stdperiph/src/stm32f10x_tim.c ****     TI1_Config(TIMx, TIM_ICPolarity, TIM_ICSelection_DirectTI, ICFilter);
 19262              		.loc 1 1048 0
 19263 0026 3A89     		ldrh	r2, [r7, #8]
 19264 0028 FB88     		ldrh	r3, [r7, #6]
 19265 002a F868     		ldr	r0, [r7, #12]
 19266 002c 1146     		mov	r1, r2
 19267 002e 4FF00102 		mov	r2, #1
 19268 0032 FFF7FEFF 		bl	TI1_Config
 19269              	.L72:
1049:../target/stm32/stdperiph/src/stm32f10x_tim.c ****   }
1050:../target/stm32/stdperiph/src/stm32f10x_tim.c ****   /* Select the Trigger source */
1051:../target/stm32/stdperiph/src/stm32f10x_tim.c ****   TIM_SelectInputTrigger(TIMx, TIM_TIxExternalCLKSource);
 19270              		.loc 1 1051 0
 19271 0036 7B89     		ldrh	r3, [r7, #10]
 19272 0038 F868     		ldr	r0, [r7, #12]
 19273 003a 1946     		mov	r1, r3
 19274 003c FFF7FEFF 		bl	TIM_SelectInputTrigger
1052:../target/stm32/stdperiph/src/stm32f10x_tim.c ****   /* Select the External clock mode1 */
1053:../target/stm32/stdperiph/src/stm32f10x_tim.c ****   TIMx->SMCR |= TIM_SlaveMode_External1;
 19275              		.loc 1 1053 0
 19276 0040 FB68     		ldr	r3, [r7, #12]
 19277 0042 1B89     		ldrh	r3, [r3, #8]	@ movhi
 19278 0044 9BB2     		uxth	r3, r3
 19279 0046 43F00703 		orr	r3, r3, #7
 19280 004a 9AB2     		uxth	r2, r3
 19281 004c FB68     		ldr	r3, [r7, #12]
 19282 004e 1A81     		strh	r2, [r3, #8]	@ movhi
1054:../target/stm32/stdperiph/src/stm32f10x_tim.c **** }
 19283              		.loc 1 1054 0
 19284 0050 07F11007 		add	r7, r7, #16
 19285 0054 BD46     		mov	sp, r7
 19286 0056 80BD     		pop	{r7, pc}
 19287              		.cfi_endproc
 19288              	.LFE50:
 19290              		.section	.text.TIM_ETRClockMode1Config,"ax",%progbits
 19291              		.align	2
 19292              		.global	TIM_ETRClockMode1Config
 19293              		.thumb
 19294              		.thumb_func
 19296              	TIM_ETRClockMode1Config:
 19297              	.LFB51:
1055:../target/stm32/stdperiph/src/stm32f10x_tim.c **** 
1056:../target/stm32/stdperiph/src/stm32f10x_tim.c **** /**
1057:../target/stm32/stdperiph/src/stm32f10x_tim.c ****   * @brief  Configures the External clock Mode1
1058:../target/stm32/stdperiph/src/stm32f10x_tim.c ****   * @param  TIMx: where x can be  1, 2, 3, 4, 5 or 8 to select the TIM peripheral.
1059:../target/stm32/stdperiph/src/stm32f10x_tim.c ****   * @param  TIM_ExtTRGPrescaler: The external Trigger Prescaler.
1060:../target/stm32/stdperiph/src/stm32f10x_tim.c ****   *   This parameter can be one of the following values:
1061:../target/stm32/stdperiph/src/stm32f10x_tim.c ****   *     @arg TIM_ExtTRGPSC_OFF: ETRP Prescaler OFF.
1062:../target/stm32/stdperiph/src/stm32f10x_tim.c ****   *     @arg TIM_ExtTRGPSC_DIV2: ETRP frequency divided by 2.
1063:../target/stm32/stdperiph/src/stm32f10x_tim.c ****   *     @arg TIM_ExtTRGPSC_DIV4: ETRP frequency divided by 4.
1064:../target/stm32/stdperiph/src/stm32f10x_tim.c ****   *     @arg TIM_ExtTRGPSC_DIV8: ETRP frequency divided by 8.
1065:../target/stm32/stdperiph/src/stm32f10x_tim.c ****   * @param  TIM_ExtTRGPolarity: The external Trigger Polarity.
1066:../target/stm32/stdperiph/src/stm32f10x_tim.c ****   *   This parameter can be one of the following values:
1067:../target/stm32/stdperiph/src/stm32f10x_tim.c ****   *     @arg TIM_ExtTRGPolarity_Inverted: active low or falling edge active.
1068:../target/stm32/stdperiph/src/stm32f10x_tim.c ****   *     @arg TIM_ExtTRGPolarity_NonInverted: active high or rising edge active.
1069:../target/stm32/stdperiph/src/stm32f10x_tim.c ****   * @param  ExtTRGFilter: External Trigger Filter.
1070:../target/stm32/stdperiph/src/stm32f10x_tim.c ****   *   This parameter must be a value between 0x00 and 0x0F
1071:../target/stm32/stdperiph/src/stm32f10x_tim.c ****   * @retval None
1072:../target/stm32/stdperiph/src/stm32f10x_tim.c ****   */
1073:../target/stm32/stdperiph/src/stm32f10x_tim.c **** void TIM_ETRClockMode1Config(TIM_TypeDef* TIMx, uint16_t TIM_ExtTRGPrescaler, uint16_t TIM_ExtTRGPo
1074:../target/stm32/stdperiph/src/stm32f10x_tim.c ****                              uint16_t ExtTRGFilter)
1075:../target/stm32/stdperiph/src/stm32f10x_tim.c **** {
 19298              		.loc 1 1075 0
 19299              		.cfi_startproc
 19300              		@ args = 0, pretend = 0, frame = 24
 19301              		@ frame_needed = 1, uses_anonymous_args = 0
 19302 0000 80B5     		push	{r7, lr}
 19303              	.LCFI66:
 19304              		.cfi_def_cfa_offset 8
 19305 0002 86B0     		sub	sp, sp, #24
 19306              	.LCFI67:
 19307              		.cfi_def_cfa_offset 32
 19308 0004 00AF     		add	r7, sp, #0
 19309              		.cfi_offset 14, -4
 19310              		.cfi_offset 7, -8
 19311              	.LCFI68:
 19312              		.cfi_def_cfa_register 7
 19313 0006 F860     		str	r0, [r7, #12]
 19314 0008 7981     		strh	r1, [r7, #10]	@ movhi
 19315 000a 3A81     		strh	r2, [r7, #8]	@ movhi
 19316 000c FB80     		strh	r3, [r7, #6]	@ movhi
1076:../target/stm32/stdperiph/src/stm32f10x_tim.c ****   uint16_t tmpsmcr = 0;
 19317              		.loc 1 1076 0
 19318 000e 4FF00003 		mov	r3, #0
 19319 0012 FB82     		strh	r3, [r7, #22]	@ movhi
1077:../target/stm32/stdperiph/src/stm32f10x_tim.c ****   /* Check the parameters */
1078:../target/stm32/stdperiph/src/stm32f10x_tim.c ****   assert_param(IS_TIM_LIST3_PERIPH(TIMx));
1079:../target/stm32/stdperiph/src/stm32f10x_tim.c ****   assert_param(IS_TIM_EXT_PRESCALER(TIM_ExtTRGPrescaler));
1080:../target/stm32/stdperiph/src/stm32f10x_tim.c ****   assert_param(IS_TIM_EXT_POLARITY(TIM_ExtTRGPolarity));
1081:../target/stm32/stdperiph/src/stm32f10x_tim.c ****   assert_param(IS_TIM_EXT_FILTER(ExtTRGFilter));
1082:../target/stm32/stdperiph/src/stm32f10x_tim.c ****   /* Configure the ETR Clock source */
1083:../target/stm32/stdperiph/src/stm32f10x_tim.c ****   TIM_ETRConfig(TIMx, TIM_ExtTRGPrescaler, TIM_ExtTRGPolarity, ExtTRGFilter);
 19320              		.loc 1 1083 0
 19321 0014 7989     		ldrh	r1, [r7, #10]
 19322 0016 3A89     		ldrh	r2, [r7, #8]
 19323 0018 FB88     		ldrh	r3, [r7, #6]
 19324 001a F868     		ldr	r0, [r7, #12]
 19325 001c FFF7FEFF 		bl	TIM_ETRConfig
1084:../target/stm32/stdperiph/src/stm32f10x_tim.c ****   
1085:../target/stm32/stdperiph/src/stm32f10x_tim.c ****   /* Get the TIMx SMCR register value */
1086:../target/stm32/stdperiph/src/stm32f10x_tim.c ****   tmpsmcr = TIMx->SMCR;
 19326              		.loc 1 1086 0
 19327 0020 FB68     		ldr	r3, [r7, #12]
 19328 0022 1B89     		ldrh	r3, [r3, #8]	@ movhi
 19329 0024 FB82     		strh	r3, [r7, #22]	@ movhi
1087:../target/stm32/stdperiph/src/stm32f10x_tim.c ****   /* Reset the SMS Bits */
1088:../target/stm32/stdperiph/src/stm32f10x_tim.c ****   tmpsmcr &= (uint16_t)(~((uint16_t)TIM_SMCR_SMS));
 19330              		.loc 1 1088 0
 19331 0026 FB8A     		ldrh	r3, [r7, #22]	@ movhi
 19332 0028 23F00703 		bic	r3, r3, #7
 19333 002c FB82     		strh	r3, [r7, #22]	@ movhi
1089:../target/stm32/stdperiph/src/stm32f10x_tim.c ****   /* Select the External clock mode1 */
1090:../target/stm32/stdperiph/src/stm32f10x_tim.c ****   tmpsmcr |= TIM_SlaveMode_External1;
 19334              		.loc 1 1090 0
 19335 002e FB8A     		ldrh	r3, [r7, #22]	@ movhi
 19336 0030 43F00703 		orr	r3, r3, #7
 19337 0034 FB82     		strh	r3, [r7, #22]	@ movhi
1091:../target/stm32/stdperiph/src/stm32f10x_tim.c ****   /* Select the Trigger selection : ETRF */
1092:../target/stm32/stdperiph/src/stm32f10x_tim.c ****   tmpsmcr &= (uint16_t)(~((uint16_t)TIM_SMCR_TS));
 19338              		.loc 1 1092 0
 19339 0036 FB8A     		ldrh	r3, [r7, #22]	@ movhi
 19340 0038 23F07003 		bic	r3, r3, #112
 19341 003c FB82     		strh	r3, [r7, #22]	@ movhi
1093:../target/stm32/stdperiph/src/stm32f10x_tim.c ****   tmpsmcr |= TIM_TS_ETRF;
 19342              		.loc 1 1093 0
 19343 003e FB8A     		ldrh	r3, [r7, #22]	@ movhi
 19344 0040 43F07003 		orr	r3, r3, #112
 19345 0044 FB82     		strh	r3, [r7, #22]	@ movhi
1094:../target/stm32/stdperiph/src/stm32f10x_tim.c ****   /* Write to TIMx SMCR */
1095:../target/stm32/stdperiph/src/stm32f10x_tim.c ****   TIMx->SMCR = tmpsmcr;
 19346              		.loc 1 1095 0
 19347 0046 FB68     		ldr	r3, [r7, #12]
 19348 0048 FA8A     		ldrh	r2, [r7, #22]	@ movhi
 19349 004a 1A81     		strh	r2, [r3, #8]	@ movhi
1096:../target/stm32/stdperiph/src/stm32f10x_tim.c **** }
 19350              		.loc 1 1096 0
 19351 004c 07F11807 		add	r7, r7, #24
 19352 0050 BD46     		mov	sp, r7
 19353 0052 80BD     		pop	{r7, pc}
 19354              		.cfi_endproc
 19355              	.LFE51:
 19357              		.section	.text.TIM_ETRClockMode2Config,"ax",%progbits
 19358              		.align	2
 19359              		.global	TIM_ETRClockMode2Config
 19360              		.thumb
 19361              		.thumb_func
 19363              	TIM_ETRClockMode2Config:
 19364              	.LFB52:
1097:../target/stm32/stdperiph/src/stm32f10x_tim.c **** 
1098:../target/stm32/stdperiph/src/stm32f10x_tim.c **** /**
1099:../target/stm32/stdperiph/src/stm32f10x_tim.c ****   * @brief  Configures the External clock Mode2
1100:../target/stm32/stdperiph/src/stm32f10x_tim.c ****   * @param  TIMx: where x can be  1, 2, 3, 4, 5 or 8 to select the TIM peripheral.
1101:../target/stm32/stdperiph/src/stm32f10x_tim.c ****   * @param  TIM_ExtTRGPrescaler: The external Trigger Prescaler.
1102:../target/stm32/stdperiph/src/stm32f10x_tim.c ****   *   This parameter can be one of the following values:
1103:../target/stm32/stdperiph/src/stm32f10x_tim.c ****   *     @arg TIM_ExtTRGPSC_OFF: ETRP Prescaler OFF.
1104:../target/stm32/stdperiph/src/stm32f10x_tim.c ****   *     @arg TIM_ExtTRGPSC_DIV2: ETRP frequency divided by 2.
1105:../target/stm32/stdperiph/src/stm32f10x_tim.c ****   *     @arg TIM_ExtTRGPSC_DIV4: ETRP frequency divided by 4.
1106:../target/stm32/stdperiph/src/stm32f10x_tim.c ****   *     @arg TIM_ExtTRGPSC_DIV8: ETRP frequency divided by 8.
1107:../target/stm32/stdperiph/src/stm32f10x_tim.c ****   * @param  TIM_ExtTRGPolarity: The external Trigger Polarity.
1108:../target/stm32/stdperiph/src/stm32f10x_tim.c ****   *   This parameter can be one of the following values:
1109:../target/stm32/stdperiph/src/stm32f10x_tim.c ****   *     @arg TIM_ExtTRGPolarity_Inverted: active low or falling edge active.
1110:../target/stm32/stdperiph/src/stm32f10x_tim.c ****   *     @arg TIM_ExtTRGPolarity_NonInverted: active high or rising edge active.
1111:../target/stm32/stdperiph/src/stm32f10x_tim.c ****   * @param  ExtTRGFilter: External Trigger Filter.
1112:../target/stm32/stdperiph/src/stm32f10x_tim.c ****   *   This parameter must be a value between 0x00 and 0x0F
1113:../target/stm32/stdperiph/src/stm32f10x_tim.c ****   * @retval None
1114:../target/stm32/stdperiph/src/stm32f10x_tim.c ****   */
1115:../target/stm32/stdperiph/src/stm32f10x_tim.c **** void TIM_ETRClockMode2Config(TIM_TypeDef* TIMx, uint16_t TIM_ExtTRGPrescaler, 
1116:../target/stm32/stdperiph/src/stm32f10x_tim.c ****                              uint16_t TIM_ExtTRGPolarity, uint16_t ExtTRGFilter)
1117:../target/stm32/stdperiph/src/stm32f10x_tim.c **** {
 19365              		.loc 1 1117 0
 19366              		.cfi_startproc
 19367              		@ args = 0, pretend = 0, frame = 16
 19368              		@ frame_needed = 1, uses_anonymous_args = 0
 19369 0000 80B5     		push	{r7, lr}
 19370              	.LCFI69:
 19371              		.cfi_def_cfa_offset 8
 19372 0002 84B0     		sub	sp, sp, #16
 19373              	.LCFI70:
 19374              		.cfi_def_cfa_offset 24
 19375 0004 00AF     		add	r7, sp, #0
 19376              		.cfi_offset 14, -4
 19377              		.cfi_offset 7, -8
 19378              	.LCFI71:
 19379              		.cfi_def_cfa_register 7
 19380 0006 F860     		str	r0, [r7, #12]
 19381 0008 7981     		strh	r1, [r7, #10]	@ movhi
 19382 000a 3A81     		strh	r2, [r7, #8]	@ movhi
 19383 000c FB80     		strh	r3, [r7, #6]	@ movhi
1118:../target/stm32/stdperiph/src/stm32f10x_tim.c ****   /* Check the parameters */
1119:../target/stm32/stdperiph/src/stm32f10x_tim.c ****   assert_param(IS_TIM_LIST3_PERIPH(TIMx));
1120:../target/stm32/stdperiph/src/stm32f10x_tim.c ****   assert_param(IS_TIM_EXT_PRESCALER(TIM_ExtTRGPrescaler));
1121:../target/stm32/stdperiph/src/stm32f10x_tim.c ****   assert_param(IS_TIM_EXT_POLARITY(TIM_ExtTRGPolarity));
1122:../target/stm32/stdperiph/src/stm32f10x_tim.c ****   assert_param(IS_TIM_EXT_FILTER(ExtTRGFilter));
1123:../target/stm32/stdperiph/src/stm32f10x_tim.c ****   /* Configure the ETR Clock source */
1124:../target/stm32/stdperiph/src/stm32f10x_tim.c ****   TIM_ETRConfig(TIMx, TIM_ExtTRGPrescaler, TIM_ExtTRGPolarity, ExtTRGFilter);
 19384              		.loc 1 1124 0
 19385 000e 7989     		ldrh	r1, [r7, #10]
 19386 0010 3A89     		ldrh	r2, [r7, #8]
 19387 0012 FB88     		ldrh	r3, [r7, #6]
 19388 0014 F868     		ldr	r0, [r7, #12]
 19389 0016 FFF7FEFF 		bl	TIM_ETRConfig
1125:../target/stm32/stdperiph/src/stm32f10x_tim.c ****   /* Enable the External clock mode2 */
1126:../target/stm32/stdperiph/src/stm32f10x_tim.c ****   TIMx->SMCR |= TIM_SMCR_ECE;
 19390              		.loc 1 1126 0
 19391 001a FB68     		ldr	r3, [r7, #12]
 19392 001c 1B89     		ldrh	r3, [r3, #8]	@ movhi
 19393 001e 9BB2     		uxth	r3, r3
 19394 0020 43F48043 		orr	r3, r3, #16384
 19395 0024 9AB2     		uxth	r2, r3
 19396 0026 FB68     		ldr	r3, [r7, #12]
 19397 0028 1A81     		strh	r2, [r3, #8]	@ movhi
1127:../target/stm32/stdperiph/src/stm32f10x_tim.c **** }
 19398              		.loc 1 1127 0
 19399 002a 07F11007 		add	r7, r7, #16
 19400 002e BD46     		mov	sp, r7
 19401 0030 80BD     		pop	{r7, pc}
 19402              		.cfi_endproc
 19403              	.LFE52:
 19405 0032 00BF     		.section	.text.TIM_ETRConfig,"ax",%progbits
 19406              		.align	2
 19407              		.global	TIM_ETRConfig
 19408              		.thumb
 19409              		.thumb_func
 19411              	TIM_ETRConfig:
 19412              	.LFB53:
1128:../target/stm32/stdperiph/src/stm32f10x_tim.c **** 
1129:../target/stm32/stdperiph/src/stm32f10x_tim.c **** /**
1130:../target/stm32/stdperiph/src/stm32f10x_tim.c ****   * @brief  Configures the TIMx External Trigger (ETR).
1131:../target/stm32/stdperiph/src/stm32f10x_tim.c ****   * @param  TIMx: where x can be  1, 2, 3, 4, 5 or 8 to select the TIM peripheral.
1132:../target/stm32/stdperiph/src/stm32f10x_tim.c ****   * @param  TIM_ExtTRGPrescaler: The external Trigger Prescaler.
1133:../target/stm32/stdperiph/src/stm32f10x_tim.c ****   *   This parameter can be one of the following values:
1134:../target/stm32/stdperiph/src/stm32f10x_tim.c ****   *     @arg TIM_ExtTRGPSC_OFF: ETRP Prescaler OFF.
1135:../target/stm32/stdperiph/src/stm32f10x_tim.c ****   *     @arg TIM_ExtTRGPSC_DIV2: ETRP frequency divided by 2.
1136:../target/stm32/stdperiph/src/stm32f10x_tim.c ****   *     @arg TIM_ExtTRGPSC_DIV4: ETRP frequency divided by 4.
1137:../target/stm32/stdperiph/src/stm32f10x_tim.c ****   *     @arg TIM_ExtTRGPSC_DIV8: ETRP frequency divided by 8.
1138:../target/stm32/stdperiph/src/stm32f10x_tim.c ****   * @param  TIM_ExtTRGPolarity: The external Trigger Polarity.
1139:../target/stm32/stdperiph/src/stm32f10x_tim.c ****   *   This parameter can be one of the following values:
1140:../target/stm32/stdperiph/src/stm32f10x_tim.c ****   *     @arg TIM_ExtTRGPolarity_Inverted: active low or falling edge active.
1141:../target/stm32/stdperiph/src/stm32f10x_tim.c ****   *     @arg TIM_ExtTRGPolarity_NonInverted: active high or rising edge active.
1142:../target/stm32/stdperiph/src/stm32f10x_tim.c ****   * @param  ExtTRGFilter: External Trigger Filter.
1143:../target/stm32/stdperiph/src/stm32f10x_tim.c ****   *   This parameter must be a value between 0x00 and 0x0F
1144:../target/stm32/stdperiph/src/stm32f10x_tim.c ****   * @retval None
1145:../target/stm32/stdperiph/src/stm32f10x_tim.c ****   */
1146:../target/stm32/stdperiph/src/stm32f10x_tim.c **** void TIM_ETRConfig(TIM_TypeDef* TIMx, uint16_t TIM_ExtTRGPrescaler, uint16_t TIM_ExtTRGPolarity,
1147:../target/stm32/stdperiph/src/stm32f10x_tim.c ****                    uint16_t ExtTRGFilter)
1148:../target/stm32/stdperiph/src/stm32f10x_tim.c **** {
 19413              		.loc 1 1148 0
 19414              		.cfi_startproc
 19415              		@ args = 0, pretend = 0, frame = 24
 19416              		@ frame_needed = 1, uses_anonymous_args = 0
 19417              		@ link register save eliminated.
 19418 0000 80B4     		push	{r7}
 19419              	.LCFI72:
 19420              		.cfi_def_cfa_offset 4
 19421 0002 87B0     		sub	sp, sp, #28
 19422              	.LCFI73:
 19423              		.cfi_def_cfa_offset 32
 19424 0004 00AF     		add	r7, sp, #0
 19425              		.cfi_offset 7, -4
 19426              	.LCFI74:
 19427              		.cfi_def_cfa_register 7
 19428 0006 F860     		str	r0, [r7, #12]
 19429 0008 7981     		strh	r1, [r7, #10]	@ movhi
 19430 000a 3A81     		strh	r2, [r7, #8]	@ movhi
 19431 000c FB80     		strh	r3, [r7, #6]	@ movhi
1149:../target/stm32/stdperiph/src/stm32f10x_tim.c ****   uint16_t tmpsmcr = 0;
 19432              		.loc 1 1149 0
 19433 000e 4FF00003 		mov	r3, #0
 19434 0012 FB82     		strh	r3, [r7, #22]	@ movhi
1150:../target/stm32/stdperiph/src/stm32f10x_tim.c ****   /* Check the parameters */
1151:../target/stm32/stdperiph/src/stm32f10x_tim.c ****   assert_param(IS_TIM_LIST3_PERIPH(TIMx));
1152:../target/stm32/stdperiph/src/stm32f10x_tim.c ****   assert_param(IS_TIM_EXT_PRESCALER(TIM_ExtTRGPrescaler));
1153:../target/stm32/stdperiph/src/stm32f10x_tim.c ****   assert_param(IS_TIM_EXT_POLARITY(TIM_ExtTRGPolarity));
1154:../target/stm32/stdperiph/src/stm32f10x_tim.c ****   assert_param(IS_TIM_EXT_FILTER(ExtTRGFilter));
1155:../target/stm32/stdperiph/src/stm32f10x_tim.c ****   tmpsmcr = TIMx->SMCR;
 19435              		.loc 1 1155 0
 19436 0014 FB68     		ldr	r3, [r7, #12]
 19437 0016 1B89     		ldrh	r3, [r3, #8]	@ movhi
 19438 0018 FB82     		strh	r3, [r7, #22]	@ movhi
1156:../target/stm32/stdperiph/src/stm32f10x_tim.c ****   /* Reset the ETR Bits */
1157:../target/stm32/stdperiph/src/stm32f10x_tim.c ****   tmpsmcr &= SMCR_ETR_Mask;
 19439              		.loc 1 1157 0
 19440 001a FB8A     		ldrh	r3, [r7, #22]	@ movhi
 19441 001c 03F0FF03 		and	r3, r3, #255
 19442 0020 FB82     		strh	r3, [r7, #22]	@ movhi
1158:../target/stm32/stdperiph/src/stm32f10x_tim.c ****   /* Set the Prescaler, the Filter value and the Polarity */
1159:../target/stm32/stdperiph/src/stm32f10x_tim.c ****   tmpsmcr |= (uint16_t)(TIM_ExtTRGPrescaler | (uint16_t)(TIM_ExtTRGPolarity | (uint16_t)(ExtTRGFilt
 19443              		.loc 1 1159 0
 19444 0022 FB88     		ldrh	r3, [r7, #6]	@ movhi
 19445 0024 4FEA0323 		lsl	r3, r3, #8
 19446 0028 9AB2     		uxth	r2, r3
 19447 002a 3B89     		ldrh	r3, [r7, #8]	@ movhi
 19448 002c 42EA0303 		orr	r3, r2, r3
 19449 0030 9AB2     		uxth	r2, r3
 19450 0032 7B89     		ldrh	r3, [r7, #10]	@ movhi
 19451 0034 42EA0303 		orr	r3, r2, r3
 19452 0038 9AB2     		uxth	r2, r3
 19453 003a FB8A     		ldrh	r3, [r7, #22]	@ movhi
 19454 003c 42EA0303 		orr	r3, r2, r3
 19455 0040 FB82     		strh	r3, [r7, #22]	@ movhi
1160:../target/stm32/stdperiph/src/stm32f10x_tim.c ****   /* Write to TIMx SMCR */
1161:../target/stm32/stdperiph/src/stm32f10x_tim.c ****   TIMx->SMCR = tmpsmcr;
 19456              		.loc 1 1161 0
 19457 0042 FB68     		ldr	r3, [r7, #12]
 19458 0044 FA8A     		ldrh	r2, [r7, #22]	@ movhi
 19459 0046 1A81     		strh	r2, [r3, #8]	@ movhi
1162:../target/stm32/stdperiph/src/stm32f10x_tim.c **** }
 19460              		.loc 1 1162 0
 19461 0048 07F11C07 		add	r7, r7, #28
 19462 004c BD46     		mov	sp, r7
 19463 004e 80BC     		pop	{r7}
 19464 0050 7047     		bx	lr
 19465              		.cfi_endproc
 19466              	.LFE53:
 19468 0052 00BF     		.section	.text.TIM_PrescalerConfig,"ax",%progbits
 19469              		.align	2
 19470              		.global	TIM_PrescalerConfig
 19471              		.thumb
 19472              		.thumb_func
 19474              	TIM_PrescalerConfig:
 19475              	.LFB54:
1163:../target/stm32/stdperiph/src/stm32f10x_tim.c **** 
1164:../target/stm32/stdperiph/src/stm32f10x_tim.c **** /**
1165:../target/stm32/stdperiph/src/stm32f10x_tim.c ****   * @brief  Configures the TIMx Prescaler.
1166:../target/stm32/stdperiph/src/stm32f10x_tim.c ****   * @param  TIMx: where x can be 1 to 17 to select the TIM peripheral.
1167:../target/stm32/stdperiph/src/stm32f10x_tim.c ****   * @param  Prescaler: specifies the Prescaler Register value
1168:../target/stm32/stdperiph/src/stm32f10x_tim.c ****   * @param  TIM_PSCReloadMode: specifies the TIM Prescaler Reload mode
1169:../target/stm32/stdperiph/src/stm32f10x_tim.c ****   *   This parameter can be one of the following values:
1170:../target/stm32/stdperiph/src/stm32f10x_tim.c ****   *     @arg TIM_PSCReloadMode_Update: The Prescaler is loaded at the update event.
1171:../target/stm32/stdperiph/src/stm32f10x_tim.c ****   *     @arg TIM_PSCReloadMode_Immediate: The Prescaler is loaded immediately.
1172:../target/stm32/stdperiph/src/stm32f10x_tim.c ****   * @retval None
1173:../target/stm32/stdperiph/src/stm32f10x_tim.c ****   */
1174:../target/stm32/stdperiph/src/stm32f10x_tim.c **** void TIM_PrescalerConfig(TIM_TypeDef* TIMx, uint16_t Prescaler, uint16_t TIM_PSCReloadMode)
1175:../target/stm32/stdperiph/src/stm32f10x_tim.c **** {
 19476              		.loc 1 1175 0
 19477              		.cfi_startproc
 19478              		@ args = 0, pretend = 0, frame = 8
 19479              		@ frame_needed = 1, uses_anonymous_args = 0
 19480              		@ link register save eliminated.
 19481 0000 80B4     		push	{r7}
 19482              	.LCFI75:
 19483              		.cfi_def_cfa_offset 4
 19484 0002 83B0     		sub	sp, sp, #12
 19485              	.LCFI76:
 19486              		.cfi_def_cfa_offset 16
 19487 0004 00AF     		add	r7, sp, #0
 19488              		.cfi_offset 7, -4
 19489              	.LCFI77:
 19490              		.cfi_def_cfa_register 7
 19491 0006 7860     		str	r0, [r7, #4]
 19492 0008 1346     		mov	r3, r2
 19493 000a 0A46     		mov	r2, r1	@ movhi
 19494 000c 7A80     		strh	r2, [r7, #2]	@ movhi
 19495 000e 3B80     		strh	r3, [r7, #0]	@ movhi
1176:../target/stm32/stdperiph/src/stm32f10x_tim.c ****   /* Check the parameters */
1177:../target/stm32/stdperiph/src/stm32f10x_tim.c ****   assert_param(IS_TIM_ALL_PERIPH(TIMx));
1178:../target/stm32/stdperiph/src/stm32f10x_tim.c ****   assert_param(IS_TIM_PRESCALER_RELOAD(TIM_PSCReloadMode));
1179:../target/stm32/stdperiph/src/stm32f10x_tim.c ****   /* Set the Prescaler value */
1180:../target/stm32/stdperiph/src/stm32f10x_tim.c ****   TIMx->PSC = Prescaler;
 19496              		.loc 1 1180 0
 19497 0010 7B68     		ldr	r3, [r7, #4]
 19498 0012 7A88     		ldrh	r2, [r7, #2]	@ movhi
 19499 0014 1A85     		strh	r2, [r3, #40]	@ movhi
1181:../target/stm32/stdperiph/src/stm32f10x_tim.c ****   /* Set or reset the UG Bit */
1182:../target/stm32/stdperiph/src/stm32f10x_tim.c ****   TIMx->EGR = TIM_PSCReloadMode;
 19500              		.loc 1 1182 0
 19501 0016 7B68     		ldr	r3, [r7, #4]
 19502 0018 3A88     		ldrh	r2, [r7, #0]	@ movhi
 19503 001a 9A82     		strh	r2, [r3, #20]	@ movhi
1183:../target/stm32/stdperiph/src/stm32f10x_tim.c **** }
 19504              		.loc 1 1183 0
 19505 001c 07F10C07 		add	r7, r7, #12
 19506 0020 BD46     		mov	sp, r7
 19507 0022 80BC     		pop	{r7}
 19508 0024 7047     		bx	lr
 19509              		.cfi_endproc
 19510              	.LFE54:
 19512 0026 00BF     		.section	.text.TIM_CounterModeConfig,"ax",%progbits
 19513              		.align	2
 19514              		.global	TIM_CounterModeConfig
 19515              		.thumb
 19516              		.thumb_func
 19518              	TIM_CounterModeConfig:
 19519              	.LFB55:
1184:../target/stm32/stdperiph/src/stm32f10x_tim.c **** 
1185:../target/stm32/stdperiph/src/stm32f10x_tim.c **** /**
1186:../target/stm32/stdperiph/src/stm32f10x_tim.c ****   * @brief  Specifies the TIMx Counter Mode to be used.
1187:../target/stm32/stdperiph/src/stm32f10x_tim.c ****   * @param  TIMx: where x can be  1, 2, 3, 4, 5 or 8 to select the TIM peripheral.
1188:../target/stm32/stdperiph/src/stm32f10x_tim.c ****   * @param  TIM_CounterMode: specifies the Counter Mode to be used
1189:../target/stm32/stdperiph/src/stm32f10x_tim.c ****   *   This parameter can be one of the following values:
1190:../target/stm32/stdperiph/src/stm32f10x_tim.c ****   *     @arg TIM_CounterMode_Up: TIM Up Counting Mode
1191:../target/stm32/stdperiph/src/stm32f10x_tim.c ****   *     @arg TIM_CounterMode_Down: TIM Down Counting Mode
1192:../target/stm32/stdperiph/src/stm32f10x_tim.c ****   *     @arg TIM_CounterMode_CenterAligned1: TIM Center Aligned Mode1
1193:../target/stm32/stdperiph/src/stm32f10x_tim.c ****   *     @arg TIM_CounterMode_CenterAligned2: TIM Center Aligned Mode2
1194:../target/stm32/stdperiph/src/stm32f10x_tim.c ****   *     @arg TIM_CounterMode_CenterAligned3: TIM Center Aligned Mode3
1195:../target/stm32/stdperiph/src/stm32f10x_tim.c ****   * @retval None
1196:../target/stm32/stdperiph/src/stm32f10x_tim.c ****   */
1197:../target/stm32/stdperiph/src/stm32f10x_tim.c **** void TIM_CounterModeConfig(TIM_TypeDef* TIMx, uint16_t TIM_CounterMode)
1198:../target/stm32/stdperiph/src/stm32f10x_tim.c **** {
 19520              		.loc 1 1198 0
 19521              		.cfi_startproc
 19522              		@ args = 0, pretend = 0, frame = 16
 19523              		@ frame_needed = 1, uses_anonymous_args = 0
 19524              		@ link register save eliminated.
 19525 0000 80B4     		push	{r7}
 19526              	.LCFI78:
 19527              		.cfi_def_cfa_offset 4
 19528 0002 85B0     		sub	sp, sp, #20
 19529              	.LCFI79:
 19530              		.cfi_def_cfa_offset 24
 19531 0004 00AF     		add	r7, sp, #0
 19532              		.cfi_offset 7, -4
 19533              	.LCFI80:
 19534              		.cfi_def_cfa_register 7
 19535 0006 7860     		str	r0, [r7, #4]
 19536 0008 0B46     		mov	r3, r1
 19537 000a 7B80     		strh	r3, [r7, #2]	@ movhi
1199:../target/stm32/stdperiph/src/stm32f10x_tim.c ****   uint16_t tmpcr1 = 0;
 19538              		.loc 1 1199 0
 19539 000c 4FF00003 		mov	r3, #0
 19540 0010 FB81     		strh	r3, [r7, #14]	@ movhi
1200:../target/stm32/stdperiph/src/stm32f10x_tim.c ****   /* Check the parameters */
1201:../target/stm32/stdperiph/src/stm32f10x_tim.c ****   assert_param(IS_TIM_LIST3_PERIPH(TIMx));
1202:../target/stm32/stdperiph/src/stm32f10x_tim.c ****   assert_param(IS_TIM_COUNTER_MODE(TIM_CounterMode));
1203:../target/stm32/stdperiph/src/stm32f10x_tim.c ****   tmpcr1 = TIMx->CR1;
 19541              		.loc 1 1203 0
 19542 0012 7B68     		ldr	r3, [r7, #4]
 19543 0014 1B88     		ldrh	r3, [r3, #0]	@ movhi
 19544 0016 FB81     		strh	r3, [r7, #14]	@ movhi
1204:../target/stm32/stdperiph/src/stm32f10x_tim.c ****   /* Reset the CMS and DIR Bits */
1205:../target/stm32/stdperiph/src/stm32f10x_tim.c ****   tmpcr1 &= (uint16_t)(~((uint16_t)(TIM_CR1_DIR | TIM_CR1_CMS)));
 19545              		.loc 1 1205 0
 19546 0018 FB89     		ldrh	r3, [r7, #14]	@ movhi
 19547 001a 23F07003 		bic	r3, r3, #112
 19548 001e FB81     		strh	r3, [r7, #14]	@ movhi
1206:../target/stm32/stdperiph/src/stm32f10x_tim.c ****   /* Set the Counter Mode */
1207:../target/stm32/stdperiph/src/stm32f10x_tim.c ****   tmpcr1 |= TIM_CounterMode;
 19549              		.loc 1 1207 0
 19550 0020 FA89     		ldrh	r2, [r7, #14]	@ movhi
 19551 0022 7B88     		ldrh	r3, [r7, #2]	@ movhi
 19552 0024 42EA0303 		orr	r3, r2, r3
 19553 0028 FB81     		strh	r3, [r7, #14]	@ movhi
1208:../target/stm32/stdperiph/src/stm32f10x_tim.c ****   /* Write to TIMx CR1 register */
1209:../target/stm32/stdperiph/src/stm32f10x_tim.c ****   TIMx->CR1 = tmpcr1;
 19554              		.loc 1 1209 0
 19555 002a 7B68     		ldr	r3, [r7, #4]
 19556 002c FA89     		ldrh	r2, [r7, #14]	@ movhi
 19557 002e 1A80     		strh	r2, [r3, #0]	@ movhi
1210:../target/stm32/stdperiph/src/stm32f10x_tim.c **** }
 19558              		.loc 1 1210 0
 19559 0030 07F11407 		add	r7, r7, #20
 19560 0034 BD46     		mov	sp, r7
 19561 0036 80BC     		pop	{r7}
 19562 0038 7047     		bx	lr
 19563              		.cfi_endproc
 19564              	.LFE55:
 19566 003a 00BF     		.section	.text.TIM_SelectInputTrigger,"ax",%progbits
 19567              		.align	2
 19568              		.global	TIM_SelectInputTrigger
 19569              		.thumb
 19570              		.thumb_func
 19572              	TIM_SelectInputTrigger:
 19573              	.LFB56:
1211:../target/stm32/stdperiph/src/stm32f10x_tim.c **** 
1212:../target/stm32/stdperiph/src/stm32f10x_tim.c **** /**
1213:../target/stm32/stdperiph/src/stm32f10x_tim.c ****   * @brief  Selects the Input Trigger source
1214:../target/stm32/stdperiph/src/stm32f10x_tim.c ****   * @param  TIMx: where x can be  1, 2, 3, 4, 5, 8, 9, 12 or 15 to select the TIM peripheral.
1215:../target/stm32/stdperiph/src/stm32f10x_tim.c ****   * @param  TIM_InputTriggerSource: The Input Trigger source.
1216:../target/stm32/stdperiph/src/stm32f10x_tim.c ****   *   This parameter can be one of the following values:
1217:../target/stm32/stdperiph/src/stm32f10x_tim.c ****   *     @arg TIM_TS_ITR0: Internal Trigger 0
1218:../target/stm32/stdperiph/src/stm32f10x_tim.c ****   *     @arg TIM_TS_ITR1: Internal Trigger 1
1219:../target/stm32/stdperiph/src/stm32f10x_tim.c ****   *     @arg TIM_TS_ITR2: Internal Trigger 2
1220:../target/stm32/stdperiph/src/stm32f10x_tim.c ****   *     @arg TIM_TS_ITR3: Internal Trigger 3
1221:../target/stm32/stdperiph/src/stm32f10x_tim.c ****   *     @arg TIM_TS_TI1F_ED: TI1 Edge Detector
1222:../target/stm32/stdperiph/src/stm32f10x_tim.c ****   *     @arg TIM_TS_TI1FP1: Filtered Timer Input 1
1223:../target/stm32/stdperiph/src/stm32f10x_tim.c ****   *     @arg TIM_TS_TI2FP2: Filtered Timer Input 2
1224:../target/stm32/stdperiph/src/stm32f10x_tim.c ****   *     @arg TIM_TS_ETRF: External Trigger input
1225:../target/stm32/stdperiph/src/stm32f10x_tim.c ****   * @retval None
1226:../target/stm32/stdperiph/src/stm32f10x_tim.c ****   */
1227:../target/stm32/stdperiph/src/stm32f10x_tim.c **** void TIM_SelectInputTrigger(TIM_TypeDef* TIMx, uint16_t TIM_InputTriggerSource)
1228:../target/stm32/stdperiph/src/stm32f10x_tim.c **** {
 19574              		.loc 1 1228 0
 19575              		.cfi_startproc
 19576              		@ args = 0, pretend = 0, frame = 16
 19577              		@ frame_needed = 1, uses_anonymous_args = 0
 19578              		@ link register save eliminated.
 19579 0000 80B4     		push	{r7}
 19580              	.LCFI81:
 19581              		.cfi_def_cfa_offset 4
 19582 0002 85B0     		sub	sp, sp, #20
 19583              	.LCFI82:
 19584              		.cfi_def_cfa_offset 24
 19585 0004 00AF     		add	r7, sp, #0
 19586              		.cfi_offset 7, -4
 19587              	.LCFI83:
 19588              		.cfi_def_cfa_register 7
 19589 0006 7860     		str	r0, [r7, #4]
 19590 0008 0B46     		mov	r3, r1
 19591 000a 7B80     		strh	r3, [r7, #2]	@ movhi
1229:../target/stm32/stdperiph/src/stm32f10x_tim.c ****   uint16_t tmpsmcr = 0;
 19592              		.loc 1 1229 0
 19593 000c 4FF00003 		mov	r3, #0
 19594 0010 FB81     		strh	r3, [r7, #14]	@ movhi
1230:../target/stm32/stdperiph/src/stm32f10x_tim.c ****   /* Check the parameters */
1231:../target/stm32/stdperiph/src/stm32f10x_tim.c ****   assert_param(IS_TIM_LIST6_PERIPH(TIMx));
1232:../target/stm32/stdperiph/src/stm32f10x_tim.c ****   assert_param(IS_TIM_TRIGGER_SELECTION(TIM_InputTriggerSource));
1233:../target/stm32/stdperiph/src/stm32f10x_tim.c ****   /* Get the TIMx SMCR register value */
1234:../target/stm32/stdperiph/src/stm32f10x_tim.c ****   tmpsmcr = TIMx->SMCR;
 19595              		.loc 1 1234 0
 19596 0012 7B68     		ldr	r3, [r7, #4]
 19597 0014 1B89     		ldrh	r3, [r3, #8]	@ movhi
 19598 0016 FB81     		strh	r3, [r7, #14]	@ movhi
1235:../target/stm32/stdperiph/src/stm32f10x_tim.c ****   /* Reset the TS Bits */
1236:../target/stm32/stdperiph/src/stm32f10x_tim.c ****   tmpsmcr &= (uint16_t)(~((uint16_t)TIM_SMCR_TS));
 19599              		.loc 1 1236 0
 19600 0018 FB89     		ldrh	r3, [r7, #14]	@ movhi
 19601 001a 23F07003 		bic	r3, r3, #112
 19602 001e FB81     		strh	r3, [r7, #14]	@ movhi
1237:../target/stm32/stdperiph/src/stm32f10x_tim.c ****   /* Set the Input Trigger source */
1238:../target/stm32/stdperiph/src/stm32f10x_tim.c ****   tmpsmcr |= TIM_InputTriggerSource;
 19603              		.loc 1 1238 0
 19604 0020 FA89     		ldrh	r2, [r7, #14]	@ movhi
 19605 0022 7B88     		ldrh	r3, [r7, #2]	@ movhi
 19606 0024 42EA0303 		orr	r3, r2, r3
 19607 0028 FB81     		strh	r3, [r7, #14]	@ movhi
1239:../target/stm32/stdperiph/src/stm32f10x_tim.c ****   /* Write to TIMx SMCR */
1240:../target/stm32/stdperiph/src/stm32f10x_tim.c ****   TIMx->SMCR = tmpsmcr;
 19608              		.loc 1 1240 0
 19609 002a 7B68     		ldr	r3, [r7, #4]
 19610 002c FA89     		ldrh	r2, [r7, #14]	@ movhi
 19611 002e 1A81     		strh	r2, [r3, #8]	@ movhi
1241:../target/stm32/stdperiph/src/stm32f10x_tim.c **** }
 19612              		.loc 1 1241 0
 19613 0030 07F11407 		add	r7, r7, #20
 19614 0034 BD46     		mov	sp, r7
 19615 0036 80BC     		pop	{r7}
 19616 0038 7047     		bx	lr
 19617              		.cfi_endproc
 19618              	.LFE56:
 19620 003a 00BF     		.section	.text.TIM_EncoderInterfaceConfig,"ax",%progbits
 19621              		.align	2
 19622              		.global	TIM_EncoderInterfaceConfig
 19623              		.thumb
 19624              		.thumb_func
 19626              	TIM_EncoderInterfaceConfig:
 19627              	.LFB57:
1242:../target/stm32/stdperiph/src/stm32f10x_tim.c **** 
1243:../target/stm32/stdperiph/src/stm32f10x_tim.c **** /**
1244:../target/stm32/stdperiph/src/stm32f10x_tim.c ****   * @brief  Configures the TIMx Encoder Interface.
1245:../target/stm32/stdperiph/src/stm32f10x_tim.c ****   * @param  TIMx: where x can be  1, 2, 3, 4, 5 or 8 to select the TIM peripheral.
1246:../target/stm32/stdperiph/src/stm32f10x_tim.c ****   * @param  TIM_EncoderMode: specifies the TIMx Encoder Mode.
1247:../target/stm32/stdperiph/src/stm32f10x_tim.c ****   *   This parameter can be one of the following values:
1248:../target/stm32/stdperiph/src/stm32f10x_tim.c ****   *     @arg TIM_EncoderMode_TI1: Counter counts on TI1FP1 edge depending on TI2FP2 level.
1249:../target/stm32/stdperiph/src/stm32f10x_tim.c ****   *     @arg TIM_EncoderMode_TI2: Counter counts on TI2FP2 edge depending on TI1FP1 level.
1250:../target/stm32/stdperiph/src/stm32f10x_tim.c ****   *     @arg TIM_EncoderMode_TI12: Counter counts on both TI1FP1 and TI2FP2 edges depending
1251:../target/stm32/stdperiph/src/stm32f10x_tim.c ****   *                                on the level of the other input.
1252:../target/stm32/stdperiph/src/stm32f10x_tim.c ****   * @param  TIM_IC1Polarity: specifies the IC1 Polarity
1253:../target/stm32/stdperiph/src/stm32f10x_tim.c ****   *   This parmeter can be one of the following values:
1254:../target/stm32/stdperiph/src/stm32f10x_tim.c ****   *     @arg TIM_ICPolarity_Falling: IC Falling edge.
1255:../target/stm32/stdperiph/src/stm32f10x_tim.c ****   *     @arg TIM_ICPolarity_Rising: IC Rising edge.
1256:../target/stm32/stdperiph/src/stm32f10x_tim.c ****   * @param  TIM_IC2Polarity: specifies the IC2 Polarity
1257:../target/stm32/stdperiph/src/stm32f10x_tim.c ****   *   This parmeter can be one of the following values:
1258:../target/stm32/stdperiph/src/stm32f10x_tim.c ****   *     @arg TIM_ICPolarity_Falling: IC Falling edge.
1259:../target/stm32/stdperiph/src/stm32f10x_tim.c ****   *     @arg TIM_ICPolarity_Rising: IC Rising edge.
1260:../target/stm32/stdperiph/src/stm32f10x_tim.c ****   * @retval None
1261:../target/stm32/stdperiph/src/stm32f10x_tim.c ****   */
1262:../target/stm32/stdperiph/src/stm32f10x_tim.c **** void TIM_EncoderInterfaceConfig(TIM_TypeDef* TIMx, uint16_t TIM_EncoderMode,
1263:../target/stm32/stdperiph/src/stm32f10x_tim.c ****                                 uint16_t TIM_IC1Polarity, uint16_t TIM_IC2Polarity)
1264:../target/stm32/stdperiph/src/stm32f10x_tim.c **** {
 19628              		.loc 1 1264 0
 19629              		.cfi_startproc
 19630              		@ args = 0, pretend = 0, frame = 24
 19631              		@ frame_needed = 1, uses_anonymous_args = 0
 19632              		@ link register save eliminated.
 19633 0000 80B4     		push	{r7}
 19634              	.LCFI84:
 19635              		.cfi_def_cfa_offset 4
 19636 0002 87B0     		sub	sp, sp, #28
 19637              	.LCFI85:
 19638              		.cfi_def_cfa_offset 32
 19639 0004 00AF     		add	r7, sp, #0
 19640              		.cfi_offset 7, -4
 19641              	.LCFI86:
 19642              		.cfi_def_cfa_register 7
 19643 0006 F860     		str	r0, [r7, #12]
 19644 0008 7981     		strh	r1, [r7, #10]	@ movhi
 19645 000a 3A81     		strh	r2, [r7, #8]	@ movhi
 19646 000c FB80     		strh	r3, [r7, #6]	@ movhi
1265:../target/stm32/stdperiph/src/stm32f10x_tim.c ****   uint16_t tmpsmcr = 0;
 19647              		.loc 1 1265 0
 19648 000e 4FF00003 		mov	r3, #0
 19649 0012 FB82     		strh	r3, [r7, #22]	@ movhi
1266:../target/stm32/stdperiph/src/stm32f10x_tim.c ****   uint16_t tmpccmr1 = 0;
 19650              		.loc 1 1266 0
 19651 0014 4FF00003 		mov	r3, #0
 19652 0018 BB82     		strh	r3, [r7, #20]	@ movhi
1267:../target/stm32/stdperiph/src/stm32f10x_tim.c ****   uint16_t tmpccer = 0;
 19653              		.loc 1 1267 0
 19654 001a 4FF00003 		mov	r3, #0
 19655 001e 7B82     		strh	r3, [r7, #18]	@ movhi
1268:../target/stm32/stdperiph/src/stm32f10x_tim.c ****     
1269:../target/stm32/stdperiph/src/stm32f10x_tim.c ****   /* Check the parameters */
1270:../target/stm32/stdperiph/src/stm32f10x_tim.c ****   assert_param(IS_TIM_LIST5_PERIPH(TIMx));
1271:../target/stm32/stdperiph/src/stm32f10x_tim.c ****   assert_param(IS_TIM_ENCODER_MODE(TIM_EncoderMode));
1272:../target/stm32/stdperiph/src/stm32f10x_tim.c ****   assert_param(IS_TIM_IC_POLARITY(TIM_IC1Polarity));
1273:../target/stm32/stdperiph/src/stm32f10x_tim.c ****   assert_param(IS_TIM_IC_POLARITY(TIM_IC2Polarity));
1274:../target/stm32/stdperiph/src/stm32f10x_tim.c **** 
1275:../target/stm32/stdperiph/src/stm32f10x_tim.c ****   /* Get the TIMx SMCR register value */
1276:../target/stm32/stdperiph/src/stm32f10x_tim.c ****   tmpsmcr = TIMx->SMCR;
 19656              		.loc 1 1276 0
 19657 0020 FB68     		ldr	r3, [r7, #12]
 19658 0022 1B89     		ldrh	r3, [r3, #8]	@ movhi
 19659 0024 FB82     		strh	r3, [r7, #22]	@ movhi
1277:../target/stm32/stdperiph/src/stm32f10x_tim.c ****   
1278:../target/stm32/stdperiph/src/stm32f10x_tim.c ****   /* Get the TIMx CCMR1 register value */
1279:../target/stm32/stdperiph/src/stm32f10x_tim.c ****   tmpccmr1 = TIMx->CCMR1;
 19660              		.loc 1 1279 0
 19661 0026 FB68     		ldr	r3, [r7, #12]
 19662 0028 1B8B     		ldrh	r3, [r3, #24]	@ movhi
 19663 002a BB82     		strh	r3, [r7, #20]	@ movhi
1280:../target/stm32/stdperiph/src/stm32f10x_tim.c ****   
1281:../target/stm32/stdperiph/src/stm32f10x_tim.c ****   /* Get the TIMx CCER register value */
1282:../target/stm32/stdperiph/src/stm32f10x_tim.c ****   tmpccer = TIMx->CCER;
 19664              		.loc 1 1282 0
 19665 002c FB68     		ldr	r3, [r7, #12]
 19666 002e 1B8C     		ldrh	r3, [r3, #32]	@ movhi
 19667 0030 7B82     		strh	r3, [r7, #18]	@ movhi
1283:../target/stm32/stdperiph/src/stm32f10x_tim.c ****   
1284:../target/stm32/stdperiph/src/stm32f10x_tim.c ****   /* Set the encoder Mode */
1285:../target/stm32/stdperiph/src/stm32f10x_tim.c ****   tmpsmcr &= (uint16_t)(~((uint16_t)TIM_SMCR_SMS));
 19668              		.loc 1 1285 0
 19669 0032 FB8A     		ldrh	r3, [r7, #22]	@ movhi
 19670 0034 23F00703 		bic	r3, r3, #7
 19671 0038 FB82     		strh	r3, [r7, #22]	@ movhi
1286:../target/stm32/stdperiph/src/stm32f10x_tim.c ****   tmpsmcr |= TIM_EncoderMode;
 19672              		.loc 1 1286 0
 19673 003a FA8A     		ldrh	r2, [r7, #22]	@ movhi
 19674 003c 7B89     		ldrh	r3, [r7, #10]	@ movhi
 19675 003e 42EA0303 		orr	r3, r2, r3
 19676 0042 FB82     		strh	r3, [r7, #22]	@ movhi
1287:../target/stm32/stdperiph/src/stm32f10x_tim.c ****   
1288:../target/stm32/stdperiph/src/stm32f10x_tim.c ****   /* Select the Capture Compare 1 and the Capture Compare 2 as input */
1289:../target/stm32/stdperiph/src/stm32f10x_tim.c ****   tmpccmr1 &= (uint16_t)(((uint16_t)~((uint16_t)TIM_CCMR1_CC1S)) & (uint16_t)(~((uint16_t)TIM_CCMR1
 19677              		.loc 1 1289 0
 19678 0044 BB8A     		ldrh	r3, [r7, #20]	@ movhi
 19679 0046 23F44073 		bic	r3, r3, #768
 19680 004a 23F00303 		bic	r3, r3, #3
 19681 004e BB82     		strh	r3, [r7, #20]	@ movhi
1290:../target/stm32/stdperiph/src/stm32f10x_tim.c ****   tmpccmr1 |= TIM_CCMR1_CC1S_0 | TIM_CCMR1_CC2S_0;
 19682              		.loc 1 1290 0
 19683 0050 BB8A     		ldrh	r3, [r7, #20]	@ movhi
 19684 0052 43F48073 		orr	r3, r3, #256
 19685 0056 43F00103 		orr	r3, r3, #1
 19686 005a BB82     		strh	r3, [r7, #20]	@ movhi
1291:../target/stm32/stdperiph/src/stm32f10x_tim.c ****   
1292:../target/stm32/stdperiph/src/stm32f10x_tim.c ****   /* Set the TI1 and the TI2 Polarities */
1293:../target/stm32/stdperiph/src/stm32f10x_tim.c ****   tmpccer &= (uint16_t)(((uint16_t)~((uint16_t)TIM_CCER_CC1P)) & ((uint16_t)~((uint16_t)TIM_CCER_CC
 19687              		.loc 1 1293 0
 19688 005c 7B8A     		ldrh	r3, [r7, #18]	@ movhi
 19689 005e 23F02203 		bic	r3, r3, #34
 19690 0062 7B82     		strh	r3, [r7, #18]	@ movhi
1294:../target/stm32/stdperiph/src/stm32f10x_tim.c ****   tmpccer |= (uint16_t)(TIM_IC1Polarity | (uint16_t)(TIM_IC2Polarity << (uint16_t)4));
 19691              		.loc 1 1294 0
 19692 0064 FB88     		ldrh	r3, [r7, #6]	@ movhi
 19693 0066 4FEA0313 		lsl	r3, r3, #4
 19694 006a 9AB2     		uxth	r2, r3
 19695 006c 3B89     		ldrh	r3, [r7, #8]	@ movhi
 19696 006e 42EA0303 		orr	r3, r2, r3
 19697 0072 9AB2     		uxth	r2, r3
 19698 0074 7B8A     		ldrh	r3, [r7, #18]	@ movhi
 19699 0076 42EA0303 		orr	r3, r2, r3
 19700 007a 7B82     		strh	r3, [r7, #18]	@ movhi
1295:../target/stm32/stdperiph/src/stm32f10x_tim.c ****   
1296:../target/stm32/stdperiph/src/stm32f10x_tim.c ****   /* Write to TIMx SMCR */
1297:../target/stm32/stdperiph/src/stm32f10x_tim.c ****   TIMx->SMCR = tmpsmcr;
 19701              		.loc 1 1297 0
 19702 007c FB68     		ldr	r3, [r7, #12]
 19703 007e FA8A     		ldrh	r2, [r7, #22]	@ movhi
 19704 0080 1A81     		strh	r2, [r3, #8]	@ movhi
1298:../target/stm32/stdperiph/src/stm32f10x_tim.c ****   /* Write to TIMx CCMR1 */
1299:../target/stm32/stdperiph/src/stm32f10x_tim.c ****   TIMx->CCMR1 = tmpccmr1;
 19705              		.loc 1 1299 0
 19706 0082 FB68     		ldr	r3, [r7, #12]
 19707 0084 BA8A     		ldrh	r2, [r7, #20]	@ movhi
 19708 0086 1A83     		strh	r2, [r3, #24]	@ movhi
1300:../target/stm32/stdperiph/src/stm32f10x_tim.c ****   /* Write to TIMx CCER */
1301:../target/stm32/stdperiph/src/stm32f10x_tim.c ****   TIMx->CCER = tmpccer;
 19709              		.loc 1 1301 0
 19710 0088 FB68     		ldr	r3, [r7, #12]
 19711 008a 7A8A     		ldrh	r2, [r7, #18]	@ movhi
 19712 008c 1A84     		strh	r2, [r3, #32]	@ movhi
1302:../target/stm32/stdperiph/src/stm32f10x_tim.c **** }
 19713              		.loc 1 1302 0
 19714 008e 07F11C07 		add	r7, r7, #28
 19715 0092 BD46     		mov	sp, r7
 19716 0094 80BC     		pop	{r7}
 19717 0096 7047     		bx	lr
 19718              		.cfi_endproc
 19719              	.LFE57:
 19721              		.section	.text.TIM_ForcedOC1Config,"ax",%progbits
 19722              		.align	2
 19723              		.global	TIM_ForcedOC1Config
 19724              		.thumb
 19725              		.thumb_func
 19727              	TIM_ForcedOC1Config:
 19728              	.LFB58:
1303:../target/stm32/stdperiph/src/stm32f10x_tim.c **** 
1304:../target/stm32/stdperiph/src/stm32f10x_tim.c **** /**
1305:../target/stm32/stdperiph/src/stm32f10x_tim.c ****   * @brief  Forces the TIMx output 1 waveform to active or inactive level.
1306:../target/stm32/stdperiph/src/stm32f10x_tim.c ****   * @param  TIMx: where x can be  1 to 17 except 6 and 7 to select the TIM peripheral.
1307:../target/stm32/stdperiph/src/stm32f10x_tim.c ****   * @param  TIM_ForcedAction: specifies the forced Action to be set to the output waveform.
1308:../target/stm32/stdperiph/src/stm32f10x_tim.c ****   *   This parameter can be one of the following values:
1309:../target/stm32/stdperiph/src/stm32f10x_tim.c ****   *     @arg TIM_ForcedAction_Active: Force active level on OC1REF
1310:../target/stm32/stdperiph/src/stm32f10x_tim.c ****   *     @arg TIM_ForcedAction_InActive: Force inactive level on OC1REF.
1311:../target/stm32/stdperiph/src/stm32f10x_tim.c ****   * @retval None
1312:../target/stm32/stdperiph/src/stm32f10x_tim.c ****   */
1313:../target/stm32/stdperiph/src/stm32f10x_tim.c **** void TIM_ForcedOC1Config(TIM_TypeDef* TIMx, uint16_t TIM_ForcedAction)
1314:../target/stm32/stdperiph/src/stm32f10x_tim.c **** {
 19729              		.loc 1 1314 0
 19730              		.cfi_startproc
 19731              		@ args = 0, pretend = 0, frame = 16
 19732              		@ frame_needed = 1, uses_anonymous_args = 0
 19733              		@ link register save eliminated.
 19734 0000 80B4     		push	{r7}
 19735              	.LCFI87:
 19736              		.cfi_def_cfa_offset 4
 19737 0002 85B0     		sub	sp, sp, #20
 19738              	.LCFI88:
 19739              		.cfi_def_cfa_offset 24
 19740 0004 00AF     		add	r7, sp, #0
 19741              		.cfi_offset 7, -4
 19742              	.LCFI89:
 19743              		.cfi_def_cfa_register 7
 19744 0006 7860     		str	r0, [r7, #4]
 19745 0008 0B46     		mov	r3, r1
 19746 000a 7B80     		strh	r3, [r7, #2]	@ movhi
1315:../target/stm32/stdperiph/src/stm32f10x_tim.c ****   uint16_t tmpccmr1 = 0;
 19747              		.loc 1 1315 0
 19748 000c 4FF00003 		mov	r3, #0
 19749 0010 FB81     		strh	r3, [r7, #14]	@ movhi
1316:../target/stm32/stdperiph/src/stm32f10x_tim.c ****   /* Check the parameters */
1317:../target/stm32/stdperiph/src/stm32f10x_tim.c ****   assert_param(IS_TIM_LIST8_PERIPH(TIMx));
1318:../target/stm32/stdperiph/src/stm32f10x_tim.c ****   assert_param(IS_TIM_FORCED_ACTION(TIM_ForcedAction));
1319:../target/stm32/stdperiph/src/stm32f10x_tim.c ****   tmpccmr1 = TIMx->CCMR1;
 19750              		.loc 1 1319 0
 19751 0012 7B68     		ldr	r3, [r7, #4]
 19752 0014 1B8B     		ldrh	r3, [r3, #24]	@ movhi
 19753 0016 FB81     		strh	r3, [r7, #14]	@ movhi
1320:../target/stm32/stdperiph/src/stm32f10x_tim.c ****   /* Reset the OC1M Bits */
1321:../target/stm32/stdperiph/src/stm32f10x_tim.c ****   tmpccmr1 &= (uint16_t)~((uint16_t)TIM_CCMR1_OC1M);
 19754              		.loc 1 1321 0
 19755 0018 FB89     		ldrh	r3, [r7, #14]	@ movhi
 19756 001a 23F07003 		bic	r3, r3, #112
 19757 001e FB81     		strh	r3, [r7, #14]	@ movhi
1322:../target/stm32/stdperiph/src/stm32f10x_tim.c ****   /* Configure The Forced output Mode */
1323:../target/stm32/stdperiph/src/stm32f10x_tim.c ****   tmpccmr1 |= TIM_ForcedAction;
 19758              		.loc 1 1323 0
 19759 0020 FA89     		ldrh	r2, [r7, #14]	@ movhi
 19760 0022 7B88     		ldrh	r3, [r7, #2]	@ movhi
 19761 0024 42EA0303 		orr	r3, r2, r3
 19762 0028 FB81     		strh	r3, [r7, #14]	@ movhi
1324:../target/stm32/stdperiph/src/stm32f10x_tim.c ****   /* Write to TIMx CCMR1 register */
1325:../target/stm32/stdperiph/src/stm32f10x_tim.c ****   TIMx->CCMR1 = tmpccmr1;
 19763              		.loc 1 1325 0
 19764 002a 7B68     		ldr	r3, [r7, #4]
 19765 002c FA89     		ldrh	r2, [r7, #14]	@ movhi
 19766 002e 1A83     		strh	r2, [r3, #24]	@ movhi
1326:../target/stm32/stdperiph/src/stm32f10x_tim.c **** }
 19767              		.loc 1 1326 0
 19768 0030 07F11407 		add	r7, r7, #20
 19769 0034 BD46     		mov	sp, r7
 19770 0036 80BC     		pop	{r7}
 19771 0038 7047     		bx	lr
 19772              		.cfi_endproc
 19773              	.LFE58:
 19775 003a 00BF     		.section	.text.TIM_ForcedOC2Config,"ax",%progbits
 19776              		.align	2
 19777              		.global	TIM_ForcedOC2Config
 19778              		.thumb
 19779              		.thumb_func
 19781              	TIM_ForcedOC2Config:
 19782              	.LFB59:
1327:../target/stm32/stdperiph/src/stm32f10x_tim.c **** 
1328:../target/stm32/stdperiph/src/stm32f10x_tim.c **** /**
1329:../target/stm32/stdperiph/src/stm32f10x_tim.c ****   * @brief  Forces the TIMx output 2 waveform to active or inactive level.
1330:../target/stm32/stdperiph/src/stm32f10x_tim.c ****   * @param  TIMx: where x can be  1, 2, 3, 4, 5, 8, 9, 12 or 15 to select the TIM peripheral.
1331:../target/stm32/stdperiph/src/stm32f10x_tim.c ****   * @param  TIM_ForcedAction: specifies the forced Action to be set to the output waveform.
1332:../target/stm32/stdperiph/src/stm32f10x_tim.c ****   *   This parameter can be one of the following values:
1333:../target/stm32/stdperiph/src/stm32f10x_tim.c ****   *     @arg TIM_ForcedAction_Active: Force active level on OC2REF
1334:../target/stm32/stdperiph/src/stm32f10x_tim.c ****   *     @arg TIM_ForcedAction_InActive: Force inactive level on OC2REF.
1335:../target/stm32/stdperiph/src/stm32f10x_tim.c ****   * @retval None
1336:../target/stm32/stdperiph/src/stm32f10x_tim.c ****   */
1337:../target/stm32/stdperiph/src/stm32f10x_tim.c **** void TIM_ForcedOC2Config(TIM_TypeDef* TIMx, uint16_t TIM_ForcedAction)
1338:../target/stm32/stdperiph/src/stm32f10x_tim.c **** {
 19783              		.loc 1 1338 0
 19784              		.cfi_startproc
 19785              		@ args = 0, pretend = 0, frame = 16
 19786              		@ frame_needed = 1, uses_anonymous_args = 0
 19787              		@ link register save eliminated.
 19788 0000 80B4     		push	{r7}
 19789              	.LCFI90:
 19790              		.cfi_def_cfa_offset 4
 19791 0002 85B0     		sub	sp, sp, #20
 19792              	.LCFI91:
 19793              		.cfi_def_cfa_offset 24
 19794 0004 00AF     		add	r7, sp, #0
 19795              		.cfi_offset 7, -4
 19796              	.LCFI92:
 19797              		.cfi_def_cfa_register 7
 19798 0006 7860     		str	r0, [r7, #4]
 19799 0008 0B46     		mov	r3, r1
 19800 000a 7B80     		strh	r3, [r7, #2]	@ movhi
1339:../target/stm32/stdperiph/src/stm32f10x_tim.c ****   uint16_t tmpccmr1 = 0;
 19801              		.loc 1 1339 0
 19802 000c 4FF00003 		mov	r3, #0
 19803 0010 FB81     		strh	r3, [r7, #14]	@ movhi
1340:../target/stm32/stdperiph/src/stm32f10x_tim.c ****   /* Check the parameters */
1341:../target/stm32/stdperiph/src/stm32f10x_tim.c ****   assert_param(IS_TIM_LIST6_PERIPH(TIMx));
1342:../target/stm32/stdperiph/src/stm32f10x_tim.c ****   assert_param(IS_TIM_FORCED_ACTION(TIM_ForcedAction));
1343:../target/stm32/stdperiph/src/stm32f10x_tim.c ****   tmpccmr1 = TIMx->CCMR1;
 19804              		.loc 1 1343 0
 19805 0012 7B68     		ldr	r3, [r7, #4]
 19806 0014 1B8B     		ldrh	r3, [r3, #24]	@ movhi
 19807 0016 FB81     		strh	r3, [r7, #14]	@ movhi
1344:../target/stm32/stdperiph/src/stm32f10x_tim.c ****   /* Reset the OC2M Bits */
1345:../target/stm32/stdperiph/src/stm32f10x_tim.c ****   tmpccmr1 &= (uint16_t)~((uint16_t)TIM_CCMR1_OC2M);
 19808              		.loc 1 1345 0
 19809 0018 FB89     		ldrh	r3, [r7, #14]	@ movhi
 19810 001a 23F4E043 		bic	r3, r3, #28672
 19811 001e FB81     		strh	r3, [r7, #14]	@ movhi
1346:../target/stm32/stdperiph/src/stm32f10x_tim.c ****   /* Configure The Forced output Mode */
1347:../target/stm32/stdperiph/src/stm32f10x_tim.c ****   tmpccmr1 |= (uint16_t)(TIM_ForcedAction << 8);
 19812              		.loc 1 1347 0
 19813 0020 7B88     		ldrh	r3, [r7, #2]	@ movhi
 19814 0022 4FEA0323 		lsl	r3, r3, #8
 19815 0026 9AB2     		uxth	r2, r3
 19816 0028 FB89     		ldrh	r3, [r7, #14]	@ movhi
 19817 002a 42EA0303 		orr	r3, r2, r3
 19818 002e FB81     		strh	r3, [r7, #14]	@ movhi
1348:../target/stm32/stdperiph/src/stm32f10x_tim.c ****   /* Write to TIMx CCMR1 register */
1349:../target/stm32/stdperiph/src/stm32f10x_tim.c ****   TIMx->CCMR1 = tmpccmr1;
 19819              		.loc 1 1349 0
 19820 0030 7B68     		ldr	r3, [r7, #4]
 19821 0032 FA89     		ldrh	r2, [r7, #14]	@ movhi
 19822 0034 1A83     		strh	r2, [r3, #24]	@ movhi
1350:../target/stm32/stdperiph/src/stm32f10x_tim.c **** }
 19823              		.loc 1 1350 0
 19824 0036 07F11407 		add	r7, r7, #20
 19825 003a BD46     		mov	sp, r7
 19826 003c 80BC     		pop	{r7}
 19827 003e 7047     		bx	lr
 19828              		.cfi_endproc
 19829              	.LFE59:
 19831              		.section	.text.TIM_ForcedOC3Config,"ax",%progbits
 19832              		.align	2
 19833              		.global	TIM_ForcedOC3Config
 19834              		.thumb
 19835              		.thumb_func
 19837              	TIM_ForcedOC3Config:
 19838              	.LFB60:
1351:../target/stm32/stdperiph/src/stm32f10x_tim.c **** 
1352:../target/stm32/stdperiph/src/stm32f10x_tim.c **** /**
1353:../target/stm32/stdperiph/src/stm32f10x_tim.c ****   * @brief  Forces the TIMx output 3 waveform to active or inactive level.
1354:../target/stm32/stdperiph/src/stm32f10x_tim.c ****   * @param  TIMx: where x can be  1, 2, 3, 4, 5 or 8 to select the TIM peripheral.
1355:../target/stm32/stdperiph/src/stm32f10x_tim.c ****   * @param  TIM_ForcedAction: specifies the forced Action to be set to the output waveform.
1356:../target/stm32/stdperiph/src/stm32f10x_tim.c ****   *   This parameter can be one of the following values:
1357:../target/stm32/stdperiph/src/stm32f10x_tim.c ****   *     @arg TIM_ForcedAction_Active: Force active level on OC3REF
1358:../target/stm32/stdperiph/src/stm32f10x_tim.c ****   *     @arg TIM_ForcedAction_InActive: Force inactive level on OC3REF.
1359:../target/stm32/stdperiph/src/stm32f10x_tim.c ****   * @retval None
1360:../target/stm32/stdperiph/src/stm32f10x_tim.c ****   */
1361:../target/stm32/stdperiph/src/stm32f10x_tim.c **** void TIM_ForcedOC3Config(TIM_TypeDef* TIMx, uint16_t TIM_ForcedAction)
1362:../target/stm32/stdperiph/src/stm32f10x_tim.c **** {
 19839              		.loc 1 1362 0
 19840              		.cfi_startproc
 19841              		@ args = 0, pretend = 0, frame = 16
 19842              		@ frame_needed = 1, uses_anonymous_args = 0
 19843              		@ link register save eliminated.
 19844 0000 80B4     		push	{r7}
 19845              	.LCFI93:
 19846              		.cfi_def_cfa_offset 4
 19847 0002 85B0     		sub	sp, sp, #20
 19848              	.LCFI94:
 19849              		.cfi_def_cfa_offset 24
 19850 0004 00AF     		add	r7, sp, #0
 19851              		.cfi_offset 7, -4
 19852              	.LCFI95:
 19853              		.cfi_def_cfa_register 7
 19854 0006 7860     		str	r0, [r7, #4]
 19855 0008 0B46     		mov	r3, r1
 19856 000a 7B80     		strh	r3, [r7, #2]	@ movhi
1363:../target/stm32/stdperiph/src/stm32f10x_tim.c ****   uint16_t tmpccmr2 = 0;
 19857              		.loc 1 1363 0
 19858 000c 4FF00003 		mov	r3, #0
 19859 0010 FB81     		strh	r3, [r7, #14]	@ movhi
1364:../target/stm32/stdperiph/src/stm32f10x_tim.c ****   /* Check the parameters */
1365:../target/stm32/stdperiph/src/stm32f10x_tim.c ****   assert_param(IS_TIM_LIST3_PERIPH(TIMx));
1366:../target/stm32/stdperiph/src/stm32f10x_tim.c ****   assert_param(IS_TIM_FORCED_ACTION(TIM_ForcedAction));
1367:../target/stm32/stdperiph/src/stm32f10x_tim.c ****   tmpccmr2 = TIMx->CCMR2;
 19860              		.loc 1 1367 0
 19861 0012 7B68     		ldr	r3, [r7, #4]
 19862 0014 9B8B     		ldrh	r3, [r3, #28]	@ movhi
 19863 0016 FB81     		strh	r3, [r7, #14]	@ movhi
1368:../target/stm32/stdperiph/src/stm32f10x_tim.c ****   /* Reset the OC1M Bits */
1369:../target/stm32/stdperiph/src/stm32f10x_tim.c ****   tmpccmr2 &= (uint16_t)~((uint16_t)TIM_CCMR2_OC3M);
 19864              		.loc 1 1369 0
 19865 0018 FB89     		ldrh	r3, [r7, #14]	@ movhi
 19866 001a 23F07003 		bic	r3, r3, #112
 19867 001e FB81     		strh	r3, [r7, #14]	@ movhi
1370:../target/stm32/stdperiph/src/stm32f10x_tim.c ****   /* Configure The Forced output Mode */
1371:../target/stm32/stdperiph/src/stm32f10x_tim.c ****   tmpccmr2 |= TIM_ForcedAction;
 19868              		.loc 1 1371 0
 19869 0020 FA89     		ldrh	r2, [r7, #14]	@ movhi
 19870 0022 7B88     		ldrh	r3, [r7, #2]	@ movhi
 19871 0024 42EA0303 		orr	r3, r2, r3
 19872 0028 FB81     		strh	r3, [r7, #14]	@ movhi
1372:../target/stm32/stdperiph/src/stm32f10x_tim.c ****   /* Write to TIMx CCMR2 register */
1373:../target/stm32/stdperiph/src/stm32f10x_tim.c ****   TIMx->CCMR2 = tmpccmr2;
 19873              		.loc 1 1373 0
 19874 002a 7B68     		ldr	r3, [r7, #4]
 19875 002c FA89     		ldrh	r2, [r7, #14]	@ movhi
 19876 002e 9A83     		strh	r2, [r3, #28]	@ movhi
1374:../target/stm32/stdperiph/src/stm32f10x_tim.c **** }
 19877              		.loc 1 1374 0
 19878 0030 07F11407 		add	r7, r7, #20
 19879 0034 BD46     		mov	sp, r7
 19880 0036 80BC     		pop	{r7}
 19881 0038 7047     		bx	lr
 19882              		.cfi_endproc
 19883              	.LFE60:
 19885 003a 00BF     		.section	.text.TIM_ForcedOC4Config,"ax",%progbits
 19886              		.align	2
 19887              		.global	TIM_ForcedOC4Config
 19888              		.thumb
 19889              		.thumb_func
 19891              	TIM_ForcedOC4Config:
 19892              	.LFB61:
1375:../target/stm32/stdperiph/src/stm32f10x_tim.c **** 
1376:../target/stm32/stdperiph/src/stm32f10x_tim.c **** /**
1377:../target/stm32/stdperiph/src/stm32f10x_tim.c ****   * @brief  Forces the TIMx output 4 waveform to active or inactive level.
1378:../target/stm32/stdperiph/src/stm32f10x_tim.c ****   * @param  TIMx: where x can be  1, 2, 3, 4, 5 or 8 to select the TIM peripheral.
1379:../target/stm32/stdperiph/src/stm32f10x_tim.c ****   * @param  TIM_ForcedAction: specifies the forced Action to be set to the output waveform.
1380:../target/stm32/stdperiph/src/stm32f10x_tim.c ****   *   This parameter can be one of the following values:
1381:../target/stm32/stdperiph/src/stm32f10x_tim.c ****   *     @arg TIM_ForcedAction_Active: Force active level on OC4REF
1382:../target/stm32/stdperiph/src/stm32f10x_tim.c ****   *     @arg TIM_ForcedAction_InActive: Force inactive level on OC4REF.
1383:../target/stm32/stdperiph/src/stm32f10x_tim.c ****   * @retval None
1384:../target/stm32/stdperiph/src/stm32f10x_tim.c ****   */
1385:../target/stm32/stdperiph/src/stm32f10x_tim.c **** void TIM_ForcedOC4Config(TIM_TypeDef* TIMx, uint16_t TIM_ForcedAction)
1386:../target/stm32/stdperiph/src/stm32f10x_tim.c **** {
 19893              		.loc 1 1386 0
 19894              		.cfi_startproc
 19895              		@ args = 0, pretend = 0, frame = 16
 19896              		@ frame_needed = 1, uses_anonymous_args = 0
 19897              		@ link register save eliminated.
 19898 0000 80B4     		push	{r7}
 19899              	.LCFI96:
 19900              		.cfi_def_cfa_offset 4
 19901 0002 85B0     		sub	sp, sp, #20
 19902              	.LCFI97:
 19903              		.cfi_def_cfa_offset 24
 19904 0004 00AF     		add	r7, sp, #0
 19905              		.cfi_offset 7, -4
 19906              	.LCFI98:
 19907              		.cfi_def_cfa_register 7
 19908 0006 7860     		str	r0, [r7, #4]
 19909 0008 0B46     		mov	r3, r1
 19910 000a 7B80     		strh	r3, [r7, #2]	@ movhi
1387:../target/stm32/stdperiph/src/stm32f10x_tim.c ****   uint16_t tmpccmr2 = 0;
 19911              		.loc 1 1387 0
 19912 000c 4FF00003 		mov	r3, #0
 19913 0010 FB81     		strh	r3, [r7, #14]	@ movhi
1388:../target/stm32/stdperiph/src/stm32f10x_tim.c ****   /* Check the parameters */
1389:../target/stm32/stdperiph/src/stm32f10x_tim.c ****   assert_param(IS_TIM_LIST3_PERIPH(TIMx));
1390:../target/stm32/stdperiph/src/stm32f10x_tim.c ****   assert_param(IS_TIM_FORCED_ACTION(TIM_ForcedAction));
1391:../target/stm32/stdperiph/src/stm32f10x_tim.c ****   tmpccmr2 = TIMx->CCMR2;
 19914              		.loc 1 1391 0
 19915 0012 7B68     		ldr	r3, [r7, #4]
 19916 0014 9B8B     		ldrh	r3, [r3, #28]	@ movhi
 19917 0016 FB81     		strh	r3, [r7, #14]	@ movhi
1392:../target/stm32/stdperiph/src/stm32f10x_tim.c ****   /* Reset the OC2M Bits */
1393:../target/stm32/stdperiph/src/stm32f10x_tim.c ****   tmpccmr2 &= (uint16_t)~((uint16_t)TIM_CCMR2_OC4M);
 19918              		.loc 1 1393 0
 19919 0018 FB89     		ldrh	r3, [r7, #14]	@ movhi
 19920 001a 23F4E043 		bic	r3, r3, #28672
 19921 001e FB81     		strh	r3, [r7, #14]	@ movhi
1394:../target/stm32/stdperiph/src/stm32f10x_tim.c ****   /* Configure The Forced output Mode */
1395:../target/stm32/stdperiph/src/stm32f10x_tim.c ****   tmpccmr2 |= (uint16_t)(TIM_ForcedAction << 8);
 19922              		.loc 1 1395 0
 19923 0020 7B88     		ldrh	r3, [r7, #2]	@ movhi
 19924 0022 4FEA0323 		lsl	r3, r3, #8
 19925 0026 9AB2     		uxth	r2, r3
 19926 0028 FB89     		ldrh	r3, [r7, #14]	@ movhi
 19927 002a 42EA0303 		orr	r3, r2, r3
 19928 002e FB81     		strh	r3, [r7, #14]	@ movhi
1396:../target/stm32/stdperiph/src/stm32f10x_tim.c ****   /* Write to TIMx CCMR2 register */
1397:../target/stm32/stdperiph/src/stm32f10x_tim.c ****   TIMx->CCMR2 = tmpccmr2;
 19929              		.loc 1 1397 0
 19930 0030 7B68     		ldr	r3, [r7, #4]
 19931 0032 FA89     		ldrh	r2, [r7, #14]	@ movhi
 19932 0034 9A83     		strh	r2, [r3, #28]	@ movhi
1398:../target/stm32/stdperiph/src/stm32f10x_tim.c **** }
 19933              		.loc 1 1398 0
 19934 0036 07F11407 		add	r7, r7, #20
 19935 003a BD46     		mov	sp, r7
 19936 003c 80BC     		pop	{r7}
 19937 003e 7047     		bx	lr
 19938              		.cfi_endproc
 19939              	.LFE61:
 19941              		.section	.text.TIM_ARRPreloadConfig,"ax",%progbits
 19942              		.align	2
 19943              		.global	TIM_ARRPreloadConfig
 19944              		.thumb
 19945              		.thumb_func
 19947              	TIM_ARRPreloadConfig:
 19948              	.LFB62:
1399:../target/stm32/stdperiph/src/stm32f10x_tim.c **** 
1400:../target/stm32/stdperiph/src/stm32f10x_tim.c **** /**
1401:../target/stm32/stdperiph/src/stm32f10x_tim.c ****   * @brief  Enables or disables TIMx peripheral Preload register on ARR.
1402:../target/stm32/stdperiph/src/stm32f10x_tim.c ****   * @param  TIMx: where x can be  1 to 17 to select the TIM peripheral.
1403:../target/stm32/stdperiph/src/stm32f10x_tim.c ****   * @param  NewState: new state of the TIMx peripheral Preload register
1404:../target/stm32/stdperiph/src/stm32f10x_tim.c ****   *   This parameter can be: ENABLE or DISABLE.
1405:../target/stm32/stdperiph/src/stm32f10x_tim.c ****   * @retval None
1406:../target/stm32/stdperiph/src/stm32f10x_tim.c ****   */
1407:../target/stm32/stdperiph/src/stm32f10x_tim.c **** void TIM_ARRPreloadConfig(TIM_TypeDef* TIMx, FunctionalState NewState)
1408:../target/stm32/stdperiph/src/stm32f10x_tim.c **** {
 19949              		.loc 1 1408 0
 19950              		.cfi_startproc
 19951              		@ args = 0, pretend = 0, frame = 8
 19952              		@ frame_needed = 1, uses_anonymous_args = 0
 19953              		@ link register save eliminated.
 19954 0000 80B4     		push	{r7}
 19955              	.LCFI99:
 19956              		.cfi_def_cfa_offset 4
 19957 0002 83B0     		sub	sp, sp, #12
 19958              	.LCFI100:
 19959              		.cfi_def_cfa_offset 16
 19960 0004 00AF     		add	r7, sp, #0
 19961              		.cfi_offset 7, -4
 19962              	.LCFI101:
 19963              		.cfi_def_cfa_register 7
 19964 0006 7860     		str	r0, [r7, #4]
 19965 0008 0B46     		mov	r3, r1
 19966 000a FB70     		strb	r3, [r7, #3]
1409:../target/stm32/stdperiph/src/stm32f10x_tim.c ****   /* Check the parameters */
1410:../target/stm32/stdperiph/src/stm32f10x_tim.c ****   assert_param(IS_TIM_ALL_PERIPH(TIMx));
1411:../target/stm32/stdperiph/src/stm32f10x_tim.c ****   assert_param(IS_FUNCTIONAL_STATE(NewState));
1412:../target/stm32/stdperiph/src/stm32f10x_tim.c ****   if (NewState != DISABLE)
 19967              		.loc 1 1412 0
 19968 000c FB78     		ldrb	r3, [r7, #3]	@ zero_extendqisi2
 19969 000e 002B     		cmp	r3, #0
 19970 0010 08D0     		beq	.L85
1413:../target/stm32/stdperiph/src/stm32f10x_tim.c ****   {
1414:../target/stm32/stdperiph/src/stm32f10x_tim.c ****     /* Set the ARR Preload Bit */
1415:../target/stm32/stdperiph/src/stm32f10x_tim.c ****     TIMx->CR1 |= TIM_CR1_ARPE;
 19971              		.loc 1 1415 0
 19972 0012 7B68     		ldr	r3, [r7, #4]
 19973 0014 1B88     		ldrh	r3, [r3, #0]	@ movhi
 19974 0016 9BB2     		uxth	r3, r3
 19975 0018 43F08003 		orr	r3, r3, #128
 19976 001c 9AB2     		uxth	r2, r3
 19977 001e 7B68     		ldr	r3, [r7, #4]
 19978 0020 1A80     		strh	r2, [r3, #0]	@ movhi
 19979 0022 07E0     		b	.L84
 19980              	.L85:
1416:../target/stm32/stdperiph/src/stm32f10x_tim.c ****   }
1417:../target/stm32/stdperiph/src/stm32f10x_tim.c ****   else
1418:../target/stm32/stdperiph/src/stm32f10x_tim.c ****   {
1419:../target/stm32/stdperiph/src/stm32f10x_tim.c ****     /* Reset the ARR Preload Bit */
1420:../target/stm32/stdperiph/src/stm32f10x_tim.c ****     TIMx->CR1 &= (uint16_t)~((uint16_t)TIM_CR1_ARPE);
 19981              		.loc 1 1420 0
 19982 0024 7B68     		ldr	r3, [r7, #4]
 19983 0026 1B88     		ldrh	r3, [r3, #0]	@ movhi
 19984 0028 9BB2     		uxth	r3, r3
 19985 002a 23F08003 		bic	r3, r3, #128
 19986 002e 9AB2     		uxth	r2, r3
 19987 0030 7B68     		ldr	r3, [r7, #4]
 19988 0032 1A80     		strh	r2, [r3, #0]	@ movhi
 19989              	.L84:
1421:../target/stm32/stdperiph/src/stm32f10x_tim.c ****   }
1422:../target/stm32/stdperiph/src/stm32f10x_tim.c **** }
 19990              		.loc 1 1422 0
 19991 0034 07F10C07 		add	r7, r7, #12
 19992 0038 BD46     		mov	sp, r7
 19993 003a 80BC     		pop	{r7}
 19994 003c 7047     		bx	lr
 19995              		.cfi_endproc
 19996              	.LFE62:
 19998 003e 00BF     		.section	.text.TIM_SelectCOM,"ax",%progbits
 19999              		.align	2
 20000              		.global	TIM_SelectCOM
 20001              		.thumb
 20002              		.thumb_func
 20004              	TIM_SelectCOM:
 20005              	.LFB63:
1423:../target/stm32/stdperiph/src/stm32f10x_tim.c **** 
1424:../target/stm32/stdperiph/src/stm32f10x_tim.c **** /**
1425:../target/stm32/stdperiph/src/stm32f10x_tim.c ****   * @brief  Selects the TIM peripheral Commutation event.
1426:../target/stm32/stdperiph/src/stm32f10x_tim.c ****   * @param  TIMx: where x can be  1, 8, 15, 16 or 17 to select the TIMx peripheral
1427:../target/stm32/stdperiph/src/stm32f10x_tim.c ****   * @param  NewState: new state of the Commutation event.
1428:../target/stm32/stdperiph/src/stm32f10x_tim.c ****   *   This parameter can be: ENABLE or DISABLE.
1429:../target/stm32/stdperiph/src/stm32f10x_tim.c ****   * @retval None
1430:../target/stm32/stdperiph/src/stm32f10x_tim.c ****   */
1431:../target/stm32/stdperiph/src/stm32f10x_tim.c **** void TIM_SelectCOM(TIM_TypeDef* TIMx, FunctionalState NewState)
1432:../target/stm32/stdperiph/src/stm32f10x_tim.c **** {
 20006              		.loc 1 1432 0
 20007              		.cfi_startproc
 20008              		@ args = 0, pretend = 0, frame = 8
 20009              		@ frame_needed = 1, uses_anonymous_args = 0
 20010              		@ link register save eliminated.
 20011 0000 80B4     		push	{r7}
 20012              	.LCFI102:
 20013              		.cfi_def_cfa_offset 4
 20014 0002 83B0     		sub	sp, sp, #12
 20015              	.LCFI103:
 20016              		.cfi_def_cfa_offset 16
 20017 0004 00AF     		add	r7, sp, #0
 20018              		.cfi_offset 7, -4
 20019              	.LCFI104:
 20020              		.cfi_def_cfa_register 7
 20021 0006 7860     		str	r0, [r7, #4]
 20022 0008 0B46     		mov	r3, r1
 20023 000a FB70     		strb	r3, [r7, #3]
1433:../target/stm32/stdperiph/src/stm32f10x_tim.c ****   /* Check the parameters */
1434:../target/stm32/stdperiph/src/stm32f10x_tim.c ****   assert_param(IS_TIM_LIST2_PERIPH(TIMx));
1435:../target/stm32/stdperiph/src/stm32f10x_tim.c ****   assert_param(IS_FUNCTIONAL_STATE(NewState));
1436:../target/stm32/stdperiph/src/stm32f10x_tim.c ****   if (NewState != DISABLE)
 20024              		.loc 1 1436 0
 20025 000c FB78     		ldrb	r3, [r7, #3]	@ zero_extendqisi2
 20026 000e 002B     		cmp	r3, #0
 20027 0010 08D0     		beq	.L88
1437:../target/stm32/stdperiph/src/stm32f10x_tim.c ****   {
1438:../target/stm32/stdperiph/src/stm32f10x_tim.c ****     /* Set the COM Bit */
1439:../target/stm32/stdperiph/src/stm32f10x_tim.c ****     TIMx->CR2 |= TIM_CR2_CCUS;
 20028              		.loc 1 1439 0
 20029 0012 7B68     		ldr	r3, [r7, #4]
 20030 0014 9B88     		ldrh	r3, [r3, #4]	@ movhi
 20031 0016 9BB2     		uxth	r3, r3
 20032 0018 43F00403 		orr	r3, r3, #4
 20033 001c 9AB2     		uxth	r2, r3
 20034 001e 7B68     		ldr	r3, [r7, #4]
 20035 0020 9A80     		strh	r2, [r3, #4]	@ movhi
 20036 0022 07E0     		b	.L87
 20037              	.L88:
1440:../target/stm32/stdperiph/src/stm32f10x_tim.c ****   }
1441:../target/stm32/stdperiph/src/stm32f10x_tim.c ****   else
1442:../target/stm32/stdperiph/src/stm32f10x_tim.c ****   {
1443:../target/stm32/stdperiph/src/stm32f10x_tim.c ****     /* Reset the COM Bit */
1444:../target/stm32/stdperiph/src/stm32f10x_tim.c ****     TIMx->CR2 &= (uint16_t)~((uint16_t)TIM_CR2_CCUS);
 20038              		.loc 1 1444 0
 20039 0024 7B68     		ldr	r3, [r7, #4]
 20040 0026 9B88     		ldrh	r3, [r3, #4]	@ movhi
 20041 0028 9BB2     		uxth	r3, r3
 20042 002a 23F00403 		bic	r3, r3, #4
 20043 002e 9AB2     		uxth	r2, r3
 20044 0030 7B68     		ldr	r3, [r7, #4]
 20045 0032 9A80     		strh	r2, [r3, #4]	@ movhi
