   1              		.syntax unified
   2              		.cpu cortex-m3
   3              		.fpu softvfp
   4              		.eabi_attribute 20, 1
   5              		.eabi_attribute 21, 1
   6              		.eabi_attribute 23, 3
   7              		.eabi_attribute 24, 1
   8              		.eabi_attribute 25, 1
   9              		.eabi_attribute 26, 1
  10              		.eabi_attribute 30, 6
  11              		.eabi_attribute 18, 4
  12              		.thumb
  13              		.file	"stm32f10x_adc.c"
  23              	.Ltext0:
  24              		.file 1 "../target/stm32/stdperiph/src/stm32f10x_adc.c"
 16766              		.align	2
 16767              		.global	ADC_DeInit
 16768              		.thumb
 16769              		.thumb_func
 16771              	ADC_DeInit:
 16772              	.LFB29:
   1:../target/stm32/stdperiph/src/stm32f10x_adc.c **** /**
   2:../target/stm32/stdperiph/src/stm32f10x_adc.c ****   ******************************************************************************
   3:../target/stm32/stdperiph/src/stm32f10x_adc.c ****   * @file    stm32f10x_adc.c
   4:../target/stm32/stdperiph/src/stm32f10x_adc.c ****   * @author  MCD Application Team
   5:../target/stm32/stdperiph/src/stm32f10x_adc.c ****   * @version V3.4.0
   6:../target/stm32/stdperiph/src/stm32f10x_adc.c ****   * @date    10/15/2010
   7:../target/stm32/stdperiph/src/stm32f10x_adc.c ****   * @brief   This file provides all the ADC firmware functions.
   8:../target/stm32/stdperiph/src/stm32f10x_adc.c ****   ******************************************************************************
   9:../target/stm32/stdperiph/src/stm32f10x_adc.c ****   * @copy
  10:../target/stm32/stdperiph/src/stm32f10x_adc.c ****   *
  11:../target/stm32/stdperiph/src/stm32f10x_adc.c ****   * THE PRESENT FIRMWARE WHICH IS FOR GUIDANCE ONLY AIMS AT PROVIDING CUSTOMERS
  12:../target/stm32/stdperiph/src/stm32f10x_adc.c ****   * WITH CODING INFORMATION REGARDING THEIR PRODUCTS IN ORDER FOR THEM TO SAVE
  13:../target/stm32/stdperiph/src/stm32f10x_adc.c ****   * TIME. AS A RESULT, STMICROELECTRONICS SHALL NOT BE HELD LIABLE FOR ANY
  14:../target/stm32/stdperiph/src/stm32f10x_adc.c ****   * DIRECT, INDIRECT OR CONSEQUENTIAL DAMAGES WITH RESPECT TO ANY CLAIMS ARISING
  15:../target/stm32/stdperiph/src/stm32f10x_adc.c ****   * FROM THE CONTENT OF SUCH FIRMWARE AND/OR THE USE MADE BY CUSTOMERS OF THE
  16:../target/stm32/stdperiph/src/stm32f10x_adc.c ****   * CODING INFORMATION CONTAINED HEREIN IN CONNECTION WITH THEIR PRODUCTS.
  17:../target/stm32/stdperiph/src/stm32f10x_adc.c ****   *
  18:../target/stm32/stdperiph/src/stm32f10x_adc.c ****   * <h2><center>&copy; COPYRIGHT 2010 STMicroelectronics</center></h2>
  19:../target/stm32/stdperiph/src/stm32f10x_adc.c ****   */ 
  20:../target/stm32/stdperiph/src/stm32f10x_adc.c **** 
  21:../target/stm32/stdperiph/src/stm32f10x_adc.c **** /* Includes ------------------------------------------------------------------*/
  22:../target/stm32/stdperiph/src/stm32f10x_adc.c **** #include "stm32f10x_adc.h"
  23:../target/stm32/stdperiph/src/stm32f10x_adc.c **** #include "stm32f10x_rcc.h"
  24:../target/stm32/stdperiph/src/stm32f10x_adc.c **** 
  25:../target/stm32/stdperiph/src/stm32f10x_adc.c **** /** @addtogroup STM32F10x_StdPeriph_Driver
  26:../target/stm32/stdperiph/src/stm32f10x_adc.c ****   * @{
  27:../target/stm32/stdperiph/src/stm32f10x_adc.c ****   */
  28:../target/stm32/stdperiph/src/stm32f10x_adc.c **** 
  29:../target/stm32/stdperiph/src/stm32f10x_adc.c **** /** @defgroup ADC 
  30:../target/stm32/stdperiph/src/stm32f10x_adc.c ****   * @brief ADC driver modules
  31:../target/stm32/stdperiph/src/stm32f10x_adc.c ****   * @{
  32:../target/stm32/stdperiph/src/stm32f10x_adc.c ****   */
  33:../target/stm32/stdperiph/src/stm32f10x_adc.c **** 
  34:../target/stm32/stdperiph/src/stm32f10x_adc.c **** /** @defgroup ADC_Private_TypesDefinitions
  35:../target/stm32/stdperiph/src/stm32f10x_adc.c ****   * @{
  36:../target/stm32/stdperiph/src/stm32f10x_adc.c ****   */
  37:../target/stm32/stdperiph/src/stm32f10x_adc.c **** 
  38:../target/stm32/stdperiph/src/stm32f10x_adc.c **** /**
  39:../target/stm32/stdperiph/src/stm32f10x_adc.c ****   * @}
  40:../target/stm32/stdperiph/src/stm32f10x_adc.c ****   */
  41:../target/stm32/stdperiph/src/stm32f10x_adc.c **** 
  42:../target/stm32/stdperiph/src/stm32f10x_adc.c **** /** @defgroup ADC_Private_Defines
  43:../target/stm32/stdperiph/src/stm32f10x_adc.c ****   * @{
  44:../target/stm32/stdperiph/src/stm32f10x_adc.c ****   */
  45:../target/stm32/stdperiph/src/stm32f10x_adc.c **** 
  46:../target/stm32/stdperiph/src/stm32f10x_adc.c **** /* ADC DISCNUM mask */
  47:../target/stm32/stdperiph/src/stm32f10x_adc.c **** #define CR1_DISCNUM_Reset           ((uint32_t)0xFFFF1FFF)
  48:../target/stm32/stdperiph/src/stm32f10x_adc.c **** 
  49:../target/stm32/stdperiph/src/stm32f10x_adc.c **** /* ADC DISCEN mask */
  50:../target/stm32/stdperiph/src/stm32f10x_adc.c **** #define CR1_DISCEN_Set              ((uint32_t)0x00000800)
  51:../target/stm32/stdperiph/src/stm32f10x_adc.c **** #define CR1_DISCEN_Reset            ((uint32_t)0xFFFFF7FF)
  52:../target/stm32/stdperiph/src/stm32f10x_adc.c **** 
  53:../target/stm32/stdperiph/src/stm32f10x_adc.c **** /* ADC JAUTO mask */
  54:../target/stm32/stdperiph/src/stm32f10x_adc.c **** #define CR1_JAUTO_Set               ((uint32_t)0x00000400)
  55:../target/stm32/stdperiph/src/stm32f10x_adc.c **** #define CR1_JAUTO_Reset             ((uint32_t)0xFFFFFBFF)
  56:../target/stm32/stdperiph/src/stm32f10x_adc.c **** 
  57:../target/stm32/stdperiph/src/stm32f10x_adc.c **** /* ADC JDISCEN mask */
  58:../target/stm32/stdperiph/src/stm32f10x_adc.c **** #define CR1_JDISCEN_Set             ((uint32_t)0x00001000)
  59:../target/stm32/stdperiph/src/stm32f10x_adc.c **** #define CR1_JDISCEN_Reset           ((uint32_t)0xFFFFEFFF)
  60:../target/stm32/stdperiph/src/stm32f10x_adc.c **** 
  61:../target/stm32/stdperiph/src/stm32f10x_adc.c **** /* ADC AWDCH mask */
  62:../target/stm32/stdperiph/src/stm32f10x_adc.c **** #define CR1_AWDCH_Reset             ((uint32_t)0xFFFFFFE0)
  63:../target/stm32/stdperiph/src/stm32f10x_adc.c **** 
  64:../target/stm32/stdperiph/src/stm32f10x_adc.c **** /* ADC Analog watchdog enable mode mask */
  65:../target/stm32/stdperiph/src/stm32f10x_adc.c **** #define CR1_AWDMode_Reset           ((uint32_t)0xFF3FFDFF)
  66:../target/stm32/stdperiph/src/stm32f10x_adc.c **** 
  67:../target/stm32/stdperiph/src/stm32f10x_adc.c **** /* CR1 register Mask */
  68:../target/stm32/stdperiph/src/stm32f10x_adc.c **** #define CR1_CLEAR_Mask              ((uint32_t)0xFFF0FEFF)
  69:../target/stm32/stdperiph/src/stm32f10x_adc.c **** 
  70:../target/stm32/stdperiph/src/stm32f10x_adc.c **** /* ADC ADON mask */
  71:../target/stm32/stdperiph/src/stm32f10x_adc.c **** #define CR2_ADON_Set                ((uint32_t)0x00000001)
  72:../target/stm32/stdperiph/src/stm32f10x_adc.c **** #define CR2_ADON_Reset              ((uint32_t)0xFFFFFFFE)
  73:../target/stm32/stdperiph/src/stm32f10x_adc.c **** 
  74:../target/stm32/stdperiph/src/stm32f10x_adc.c **** /* ADC DMA mask */
  75:../target/stm32/stdperiph/src/stm32f10x_adc.c **** #define CR2_DMA_Set                 ((uint32_t)0x00000100)
  76:../target/stm32/stdperiph/src/stm32f10x_adc.c **** #define CR2_DMA_Reset               ((uint32_t)0xFFFFFEFF)
  77:../target/stm32/stdperiph/src/stm32f10x_adc.c **** 
  78:../target/stm32/stdperiph/src/stm32f10x_adc.c **** /* ADC RSTCAL mask */
  79:../target/stm32/stdperiph/src/stm32f10x_adc.c **** #define CR2_RSTCAL_Set              ((uint32_t)0x00000008)
  80:../target/stm32/stdperiph/src/stm32f10x_adc.c **** 
  81:../target/stm32/stdperiph/src/stm32f10x_adc.c **** /* ADC CAL mask */
  82:../target/stm32/stdperiph/src/stm32f10x_adc.c **** #define CR2_CAL_Set                 ((uint32_t)0x00000004)
  83:../target/stm32/stdperiph/src/stm32f10x_adc.c **** 
  84:../target/stm32/stdperiph/src/stm32f10x_adc.c **** /* ADC SWSTART mask */
  85:../target/stm32/stdperiph/src/stm32f10x_adc.c **** #define CR2_SWSTART_Set             ((uint32_t)0x00400000)
  86:../target/stm32/stdperiph/src/stm32f10x_adc.c **** 
  87:../target/stm32/stdperiph/src/stm32f10x_adc.c **** /* ADC EXTTRIG mask */
  88:../target/stm32/stdperiph/src/stm32f10x_adc.c **** #define CR2_EXTTRIG_Set             ((uint32_t)0x00100000)
  89:../target/stm32/stdperiph/src/stm32f10x_adc.c **** #define CR2_EXTTRIG_Reset           ((uint32_t)0xFFEFFFFF)
  90:../target/stm32/stdperiph/src/stm32f10x_adc.c **** 
  91:../target/stm32/stdperiph/src/stm32f10x_adc.c **** /* ADC Software start mask */
  92:../target/stm32/stdperiph/src/stm32f10x_adc.c **** #define CR2_EXTTRIG_SWSTART_Set     ((uint32_t)0x00500000)
  93:../target/stm32/stdperiph/src/stm32f10x_adc.c **** #define CR2_EXTTRIG_SWSTART_Reset   ((uint32_t)0xFFAFFFFF)
  94:../target/stm32/stdperiph/src/stm32f10x_adc.c **** 
  95:../target/stm32/stdperiph/src/stm32f10x_adc.c **** /* ADC JEXTSEL mask */
  96:../target/stm32/stdperiph/src/stm32f10x_adc.c **** #define CR2_JEXTSEL_Reset           ((uint32_t)0xFFFF8FFF)
  97:../target/stm32/stdperiph/src/stm32f10x_adc.c **** 
  98:../target/stm32/stdperiph/src/stm32f10x_adc.c **** /* ADC JEXTTRIG mask */
  99:../target/stm32/stdperiph/src/stm32f10x_adc.c **** #define CR2_JEXTTRIG_Set            ((uint32_t)0x00008000)
 100:../target/stm32/stdperiph/src/stm32f10x_adc.c **** #define CR2_JEXTTRIG_Reset          ((uint32_t)0xFFFF7FFF)
 101:../target/stm32/stdperiph/src/stm32f10x_adc.c **** 
 102:../target/stm32/stdperiph/src/stm32f10x_adc.c **** /* ADC JSWSTART mask */
 103:../target/stm32/stdperiph/src/stm32f10x_adc.c **** #define CR2_JSWSTART_Set            ((uint32_t)0x00200000)
 104:../target/stm32/stdperiph/src/stm32f10x_adc.c **** 
 105:../target/stm32/stdperiph/src/stm32f10x_adc.c **** /* ADC injected software start mask */
 106:../target/stm32/stdperiph/src/stm32f10x_adc.c **** #define CR2_JEXTTRIG_JSWSTART_Set   ((uint32_t)0x00208000)
 107:../target/stm32/stdperiph/src/stm32f10x_adc.c **** #define CR2_JEXTTRIG_JSWSTART_Reset ((uint32_t)0xFFDF7FFF)
 108:../target/stm32/stdperiph/src/stm32f10x_adc.c **** 
 109:../target/stm32/stdperiph/src/stm32f10x_adc.c **** /* ADC TSPD mask */
 110:../target/stm32/stdperiph/src/stm32f10x_adc.c **** #define CR2_TSVREFE_Set             ((uint32_t)0x00800000)
 111:../target/stm32/stdperiph/src/stm32f10x_adc.c **** #define CR2_TSVREFE_Reset           ((uint32_t)0xFF7FFFFF)
 112:../target/stm32/stdperiph/src/stm32f10x_adc.c **** 
 113:../target/stm32/stdperiph/src/stm32f10x_adc.c **** /* CR2 register Mask */
 114:../target/stm32/stdperiph/src/stm32f10x_adc.c **** #define CR2_CLEAR_Mask              ((uint32_t)0xFFF1F7FD)
 115:../target/stm32/stdperiph/src/stm32f10x_adc.c **** 
 116:../target/stm32/stdperiph/src/stm32f10x_adc.c **** /* ADC SQx mask */
 117:../target/stm32/stdperiph/src/stm32f10x_adc.c **** #define SQR3_SQ_Set                 ((uint32_t)0x0000001F)
 118:../target/stm32/stdperiph/src/stm32f10x_adc.c **** #define SQR2_SQ_Set                 ((uint32_t)0x0000001F)
 119:../target/stm32/stdperiph/src/stm32f10x_adc.c **** #define SQR1_SQ_Set                 ((uint32_t)0x0000001F)
 120:../target/stm32/stdperiph/src/stm32f10x_adc.c **** 
 121:../target/stm32/stdperiph/src/stm32f10x_adc.c **** /* SQR1 register Mask */
 122:../target/stm32/stdperiph/src/stm32f10x_adc.c **** #define SQR1_CLEAR_Mask             ((uint32_t)0xFF0FFFFF)
 123:../target/stm32/stdperiph/src/stm32f10x_adc.c **** 
 124:../target/stm32/stdperiph/src/stm32f10x_adc.c **** /* ADC JSQx mask */
 125:../target/stm32/stdperiph/src/stm32f10x_adc.c **** #define JSQR_JSQ_Set                ((uint32_t)0x0000001F)
 126:../target/stm32/stdperiph/src/stm32f10x_adc.c **** 
 127:../target/stm32/stdperiph/src/stm32f10x_adc.c **** /* ADC JL mask */
 128:../target/stm32/stdperiph/src/stm32f10x_adc.c **** #define JSQR_JL_Set                 ((uint32_t)0x00300000)
 129:../target/stm32/stdperiph/src/stm32f10x_adc.c **** #define JSQR_JL_Reset               ((uint32_t)0xFFCFFFFF)
 130:../target/stm32/stdperiph/src/stm32f10x_adc.c **** 
 131:../target/stm32/stdperiph/src/stm32f10x_adc.c **** /* ADC SMPx mask */
 132:../target/stm32/stdperiph/src/stm32f10x_adc.c **** #define SMPR1_SMP_Set               ((uint32_t)0x00000007)
 133:../target/stm32/stdperiph/src/stm32f10x_adc.c **** #define SMPR2_SMP_Set               ((uint32_t)0x00000007)
 134:../target/stm32/stdperiph/src/stm32f10x_adc.c **** 
 135:../target/stm32/stdperiph/src/stm32f10x_adc.c **** /* ADC JDRx registers offset */
 136:../target/stm32/stdperiph/src/stm32f10x_adc.c **** #define JDR_Offset                  ((uint8_t)0x28)
 137:../target/stm32/stdperiph/src/stm32f10x_adc.c **** 
 138:../target/stm32/stdperiph/src/stm32f10x_adc.c **** /* ADC1 DR register base address */
 139:../target/stm32/stdperiph/src/stm32f10x_adc.c **** #define DR_ADDRESS                  ((uint32_t)0x4001244C)
 140:../target/stm32/stdperiph/src/stm32f10x_adc.c **** 
 141:../target/stm32/stdperiph/src/stm32f10x_adc.c **** /**
 142:../target/stm32/stdperiph/src/stm32f10x_adc.c ****   * @}
 143:../target/stm32/stdperiph/src/stm32f10x_adc.c ****   */
 144:../target/stm32/stdperiph/src/stm32f10x_adc.c **** 
 145:../target/stm32/stdperiph/src/stm32f10x_adc.c **** /** @defgroup ADC_Private_Macros
 146:../target/stm32/stdperiph/src/stm32f10x_adc.c ****   * @{
 147:../target/stm32/stdperiph/src/stm32f10x_adc.c ****   */
 148:../target/stm32/stdperiph/src/stm32f10x_adc.c **** 
 149:../target/stm32/stdperiph/src/stm32f10x_adc.c **** /**
 150:../target/stm32/stdperiph/src/stm32f10x_adc.c ****   * @}
 151:../target/stm32/stdperiph/src/stm32f10x_adc.c ****   */
 152:../target/stm32/stdperiph/src/stm32f10x_adc.c **** 
 153:../target/stm32/stdperiph/src/stm32f10x_adc.c **** /** @defgroup ADC_Private_Variables
 154:../target/stm32/stdperiph/src/stm32f10x_adc.c ****   * @{
 155:../target/stm32/stdperiph/src/stm32f10x_adc.c ****   */
 156:../target/stm32/stdperiph/src/stm32f10x_adc.c **** 
 157:../target/stm32/stdperiph/src/stm32f10x_adc.c **** /**
 158:../target/stm32/stdperiph/src/stm32f10x_adc.c ****   * @}
 159:../target/stm32/stdperiph/src/stm32f10x_adc.c ****   */
 160:../target/stm32/stdperiph/src/stm32f10x_adc.c **** 
 161:../target/stm32/stdperiph/src/stm32f10x_adc.c **** /** @defgroup ADC_Private_FunctionPrototypes
 162:../target/stm32/stdperiph/src/stm32f10x_adc.c ****   * @{
 163:../target/stm32/stdperiph/src/stm32f10x_adc.c ****   */
 164:../target/stm32/stdperiph/src/stm32f10x_adc.c **** 
 165:../target/stm32/stdperiph/src/stm32f10x_adc.c **** /**
 166:../target/stm32/stdperiph/src/stm32f10x_adc.c ****   * @}
 167:../target/stm32/stdperiph/src/stm32f10x_adc.c ****   */
 168:../target/stm32/stdperiph/src/stm32f10x_adc.c **** 
 169:../target/stm32/stdperiph/src/stm32f10x_adc.c **** /** @defgroup ADC_Private_Functions
 170:../target/stm32/stdperiph/src/stm32f10x_adc.c ****   * @{
 171:../target/stm32/stdperiph/src/stm32f10x_adc.c ****   */
 172:../target/stm32/stdperiph/src/stm32f10x_adc.c **** 
 173:../target/stm32/stdperiph/src/stm32f10x_adc.c **** /**
 174:../target/stm32/stdperiph/src/stm32f10x_adc.c ****   * @brief  Deinitializes the ADCx peripheral registers to their default reset values.
 175:../target/stm32/stdperiph/src/stm32f10x_adc.c ****   * @param  ADCx: where x can be 1, 2 or 3 to select the ADC peripheral.
 176:../target/stm32/stdperiph/src/stm32f10x_adc.c ****   * @retval None
 177:../target/stm32/stdperiph/src/stm32f10x_adc.c ****   */
 178:../target/stm32/stdperiph/src/stm32f10x_adc.c **** void ADC_DeInit(ADC_TypeDef* ADCx)
 179:../target/stm32/stdperiph/src/stm32f10x_adc.c **** {
 16773              		.loc 1 179 0
 16774              		.cfi_startproc
 16775              		@ args = 0, pretend = 0, frame = 8
 16776              		@ frame_needed = 1, uses_anonymous_args = 0
 16777 0000 80B5     		push	{r7, lr}
 16778              	.LCFI0:
 16779              		.cfi_def_cfa_offset 8
 16780 0002 82B0     		sub	sp, sp, #8
 16781              	.LCFI1:
 16782              		.cfi_def_cfa_offset 16
 16783 0004 00AF     		add	r7, sp, #0
 16784              		.cfi_offset 14, -4
 16785              		.cfi_offset 7, -8
 16786              	.LCFI2:
 16787              		.cfi_def_cfa_register 7
 16788 0006 7860     		str	r0, [r7, #4]
 180:../target/stm32/stdperiph/src/stm32f10x_adc.c ****   /* Check the parameters */
 181:../target/stm32/stdperiph/src/stm32f10x_adc.c ****   assert_param(IS_ADC_ALL_PERIPH(ADCx));
 182:../target/stm32/stdperiph/src/stm32f10x_adc.c ****   
 183:../target/stm32/stdperiph/src/stm32f10x_adc.c ****   if (ADCx == ADC1)
 16789              		.loc 1 183 0
 16790 0008 7A68     		ldr	r2, [r7, #4]
 16791 000a 4FF41053 		mov	r3, #9216
 16792 000e C4F20103 		movt	r3, 16385
 16793 0012 9A42     		cmp	r2, r3
 16794 0014 0CD1     		bne	.L2
 184:../target/stm32/stdperiph/src/stm32f10x_adc.c ****   {
 185:../target/stm32/stdperiph/src/stm32f10x_adc.c ****     /* Enable ADC1 reset state */
 186:../target/stm32/stdperiph/src/stm32f10x_adc.c ****     RCC_APB2PeriphResetCmd(RCC_APB2Periph_ADC1, ENABLE);
 16795              		.loc 1 186 0
 16796 0016 4FF40070 		mov	r0, #512
 16797 001a 4FF00101 		mov	r1, #1
 16798 001e FFF7FEFF 		bl	RCC_APB2PeriphResetCmd
 187:../target/stm32/stdperiph/src/stm32f10x_adc.c ****     /* Release ADC1 from reset state */
 188:../target/stm32/stdperiph/src/stm32f10x_adc.c ****     RCC_APB2PeriphResetCmd(RCC_APB2Periph_ADC1, DISABLE);
 16799              		.loc 1 188 0
 16800 0022 4FF40070 		mov	r0, #512
 16801 0026 4FF00001 		mov	r1, #0
 16802 002a FFF7FEFF 		bl	RCC_APB2PeriphResetCmd
 16803 002e 26E0     		b	.L1
 16804              	.L2:
 189:../target/stm32/stdperiph/src/stm32f10x_adc.c ****   }
 190:../target/stm32/stdperiph/src/stm32f10x_adc.c ****   else if (ADCx == ADC2)
 16805              		.loc 1 190 0
 16806 0030 7A68     		ldr	r2, [r7, #4]
 16807 0032 4FF42053 		mov	r3, #10240
 16808 0036 C4F20103 		movt	r3, 16385
 16809 003a 9A42     		cmp	r2, r3
 16810 003c 0CD1     		bne	.L4
 191:../target/stm32/stdperiph/src/stm32f10x_adc.c ****   {
 192:../target/stm32/stdperiph/src/stm32f10x_adc.c ****     /* Enable ADC2 reset state */
 193:../target/stm32/stdperiph/src/stm32f10x_adc.c ****     RCC_APB2PeriphResetCmd(RCC_APB2Periph_ADC2, ENABLE);
 16811              		.loc 1 193 0
 16812 003e 4FF48060 		mov	r0, #1024
 16813 0042 4FF00101 		mov	r1, #1
 16814 0046 FFF7FEFF 		bl	RCC_APB2PeriphResetCmd
 194:../target/stm32/stdperiph/src/stm32f10x_adc.c ****     /* Release ADC2 from reset state */
 195:../target/stm32/stdperiph/src/stm32f10x_adc.c ****     RCC_APB2PeriphResetCmd(RCC_APB2Periph_ADC2, DISABLE);
 16815              		.loc 1 195 0
 16816 004a 4FF48060 		mov	r0, #1024
 16817 004e 4FF00001 		mov	r1, #0
 16818 0052 FFF7FEFF 		bl	RCC_APB2PeriphResetCmd
 16819 0056 12E0     		b	.L1
 16820              	.L4:
 196:../target/stm32/stdperiph/src/stm32f10x_adc.c ****   }
 197:../target/stm32/stdperiph/src/stm32f10x_adc.c ****   else
 198:../target/stm32/stdperiph/src/stm32f10x_adc.c ****   {
 199:../target/stm32/stdperiph/src/stm32f10x_adc.c ****     if (ADCx == ADC3)
 16821              		.loc 1 199 0
 16822 0058 7A68     		ldr	r2, [r7, #4]
 16823 005a 4FF47053 		mov	r3, #15360
 16824 005e C4F20103 		movt	r3, 16385
 16825 0062 9A42     		cmp	r2, r3
 16826 0064 0BD1     		bne	.L1
 200:../target/stm32/stdperiph/src/stm32f10x_adc.c ****     {
 201:../target/stm32/stdperiph/src/stm32f10x_adc.c ****       /* Enable ADC3 reset state */
 202:../target/stm32/stdperiph/src/stm32f10x_adc.c ****       RCC_APB2PeriphResetCmd(RCC_APB2Periph_ADC3, ENABLE);
 16827              		.loc 1 202 0
 16828 0066 4FF40040 		mov	r0, #32768
 16829 006a 4FF00101 		mov	r1, #1
 16830 006e FFF7FEFF 		bl	RCC_APB2PeriphResetCmd
 203:../target/stm32/stdperiph/src/stm32f10x_adc.c ****       /* Release ADC3 from reset state */
 204:../target/stm32/stdperiph/src/stm32f10x_adc.c ****       RCC_APB2PeriphResetCmd(RCC_APB2Periph_ADC3, DISABLE);
 16831              		.loc 1 204 0
 16832 0072 4FF40040 		mov	r0, #32768
 16833 0076 4FF00001 		mov	r1, #0
 16834 007a FFF7FEFF 		bl	RCC_APB2PeriphResetCmd
 16835              	.L1:
 205:../target/stm32/stdperiph/src/stm32f10x_adc.c ****     }
 206:../target/stm32/stdperiph/src/stm32f10x_adc.c ****   }
 207:../target/stm32/stdperiph/src/stm32f10x_adc.c **** }
 16836              		.loc 1 207 0
 16837 007e 07F10807 		add	r7, r7, #8
 16838 0082 BD46     		mov	sp, r7
 16839 0084 80BD     		pop	{r7, pc}
 16840              		.cfi_endproc
 16841              	.LFE29:
 16843 0086 00BF     		.section	.text.ADC_Init,"ax",%progbits
 16844              		.align	2
 16845              		.global	ADC_Init
 16846              		.thumb
 16847              		.thumb_func
 16849              	ADC_Init:
 16850              	.LFB30:
 208:../target/stm32/stdperiph/src/stm32f10x_adc.c **** 
 209:../target/stm32/stdperiph/src/stm32f10x_adc.c **** /**
 210:../target/stm32/stdperiph/src/stm32f10x_adc.c ****   * @brief  Initializes the ADCx peripheral according to the specified parameters
 211:../target/stm32/stdperiph/src/stm32f10x_adc.c ****   *   in the ADC_InitStruct.
 212:../target/stm32/stdperiph/src/stm32f10x_adc.c ****   * @param  ADCx: where x can be 1, 2 or 3 to select the ADC peripheral.
 213:../target/stm32/stdperiph/src/stm32f10x_adc.c ****   * @param  ADC_InitStruct: pointer to an ADC_InitTypeDef structure that contains
 214:../target/stm32/stdperiph/src/stm32f10x_adc.c ****   *   the configuration information for the specified ADC peripheral.
 215:../target/stm32/stdperiph/src/stm32f10x_adc.c ****   * @retval None
 216:../target/stm32/stdperiph/src/stm32f10x_adc.c ****   */
 217:../target/stm32/stdperiph/src/stm32f10x_adc.c **** void ADC_Init(ADC_TypeDef* ADCx, ADC_InitTypeDef* ADC_InitStruct)
 218:../target/stm32/stdperiph/src/stm32f10x_adc.c **** {
 16851              		.loc 1 218 0
 16852              		.cfi_startproc
 16853              		@ args = 0, pretend = 0, frame = 16
 16854              		@ frame_needed = 1, uses_anonymous_args = 0
 16855              		@ link register save eliminated.
 16856 0000 80B4     		push	{r7}
 16857              	.LCFI3:
 16858              		.cfi_def_cfa_offset 4
 16859 0002 85B0     		sub	sp, sp, #20
 16860              	.LCFI4:
 16861              		.cfi_def_cfa_offset 24
 16862 0004 00AF     		add	r7, sp, #0
 16863              		.cfi_offset 7, -4
 16864              	.LCFI5:
 16865              		.cfi_def_cfa_register 7
 16866 0006 7860     		str	r0, [r7, #4]
 16867 0008 3960     		str	r1, [r7, #0]
 219:../target/stm32/stdperiph/src/stm32f10x_adc.c ****   uint32_t tmpreg1 = 0;
 16868              		.loc 1 219 0
 16869 000a 4FF00003 		mov	r3, #0
 16870 000e FB60     		str	r3, [r7, #12]
 220:../target/stm32/stdperiph/src/stm32f10x_adc.c ****   uint8_t tmpreg2 = 0;
 16871              		.loc 1 220 0
 16872 0010 4FF00003 		mov	r3, #0
 16873 0014 FB72     		strb	r3, [r7, #11]
 221:../target/stm32/stdperiph/src/stm32f10x_adc.c ****   /* Check the parameters */
 222:../target/stm32/stdperiph/src/stm32f10x_adc.c ****   assert_param(IS_ADC_ALL_PERIPH(ADCx));
 223:../target/stm32/stdperiph/src/stm32f10x_adc.c ****   assert_param(IS_ADC_MODE(ADC_InitStruct->ADC_Mode));
 224:../target/stm32/stdperiph/src/stm32f10x_adc.c ****   assert_param(IS_FUNCTIONAL_STATE(ADC_InitStruct->ADC_ScanConvMode));
 225:../target/stm32/stdperiph/src/stm32f10x_adc.c ****   assert_param(IS_FUNCTIONAL_STATE(ADC_InitStruct->ADC_ContinuousConvMode));
 226:../target/stm32/stdperiph/src/stm32f10x_adc.c ****   assert_param(IS_ADC_EXT_TRIG(ADC_InitStruct->ADC_ExternalTrigConv));   
 227:../target/stm32/stdperiph/src/stm32f10x_adc.c ****   assert_param(IS_ADC_DATA_ALIGN(ADC_InitStruct->ADC_DataAlign)); 
 228:../target/stm32/stdperiph/src/stm32f10x_adc.c ****   assert_param(IS_ADC_REGULAR_LENGTH(ADC_InitStruct->ADC_NbrOfChannel));
 229:../target/stm32/stdperiph/src/stm32f10x_adc.c **** 
 230:../target/stm32/stdperiph/src/stm32f10x_adc.c ****   /*---------------------------- ADCx CR1 Configuration -----------------*/
 231:../target/stm32/stdperiph/src/stm32f10x_adc.c ****   /* Get the ADCx CR1 value */
 232:../target/stm32/stdperiph/src/stm32f10x_adc.c ****   tmpreg1 = ADCx->CR1;
 16874              		.loc 1 232 0
 16875 0016 7B68     		ldr	r3, [r7, #4]
 16876 0018 5B68     		ldr	r3, [r3, #4]
 16877 001a FB60     		str	r3, [r7, #12]
 233:../target/stm32/stdperiph/src/stm32f10x_adc.c ****   /* Clear DUALMOD and SCAN bits */
 234:../target/stm32/stdperiph/src/stm32f10x_adc.c ****   tmpreg1 &= CR1_CLEAR_Mask;
 16878              		.loc 1 234 0
 16879 001c FB68     		ldr	r3, [r7, #12]
 16880 001e 23F47023 		bic	r3, r3, #983040
 16881 0022 23F48073 		bic	r3, r3, #256
 16882 0026 FB60     		str	r3, [r7, #12]
 235:../target/stm32/stdperiph/src/stm32f10x_adc.c ****   /* Configure ADCx: Dual mode and scan conversion mode */
 236:../target/stm32/stdperiph/src/stm32f10x_adc.c ****   /* Set DUALMOD bits according to ADC_Mode value */
 237:../target/stm32/stdperiph/src/stm32f10x_adc.c ****   /* Set SCAN bit according to ADC_ScanConvMode value */
 238:../target/stm32/stdperiph/src/stm32f10x_adc.c ****   tmpreg1 |= (uint32_t)(ADC_InitStruct->ADC_Mode | ((uint32_t)ADC_InitStruct->ADC_ScanConvMode << 8
 16883              		.loc 1 238 0
 16884 0028 3B68     		ldr	r3, [r7, #0]
 16885 002a 1A68     		ldr	r2, [r3, #0]
 16886 002c 3B68     		ldr	r3, [r7, #0]
 16887 002e 1B79     		ldrb	r3, [r3, #4]	@ zero_extendqisi2
 16888 0030 4FEA0323 		lsl	r3, r3, #8
 16889 0034 42EA0303 		orr	r3, r2, r3
 16890 0038 FA68     		ldr	r2, [r7, #12]
 16891 003a 42EA0303 		orr	r3, r2, r3
 16892 003e FB60     		str	r3, [r7, #12]
 239:../target/stm32/stdperiph/src/stm32f10x_adc.c ****   /* Write to ADCx CR1 */
 240:../target/stm32/stdperiph/src/stm32f10x_adc.c ****   ADCx->CR1 = tmpreg1;
 16893              		.loc 1 240 0
 16894 0040 7B68     		ldr	r3, [r7, #4]
 16895 0042 FA68     		ldr	r2, [r7, #12]
 16896 0044 5A60     		str	r2, [r3, #4]
 241:../target/stm32/stdperiph/src/stm32f10x_adc.c **** 
 242:../target/stm32/stdperiph/src/stm32f10x_adc.c ****   /*---------------------------- ADCx CR2 Configuration -----------------*/
 243:../target/stm32/stdperiph/src/stm32f10x_adc.c ****   /* Get the ADCx CR2 value */
 244:../target/stm32/stdperiph/src/stm32f10x_adc.c ****   tmpreg1 = ADCx->CR2;
 16897              		.loc 1 244 0
 16898 0046 7B68     		ldr	r3, [r7, #4]
 16899 0048 9B68     		ldr	r3, [r3, #8]
 16900 004a FB60     		str	r3, [r7, #12]
 245:../target/stm32/stdperiph/src/stm32f10x_adc.c ****   /* Clear CONT, ALIGN and EXTSEL bits */
 246:../target/stm32/stdperiph/src/stm32f10x_adc.c ****   tmpreg1 &= CR2_CLEAR_Mask;
 16901              		.loc 1 246 0
 16902 004c FA68     		ldr	r2, [r7, #12]
 16903 004e 4FF2FD73 		movw	r3, #63485
 16904 0052 CFF6F173 		movt	r3, 65521
 16905 0056 02EA0303 		and	r3, r2, r3
 16906 005a FB60     		str	r3, [r7, #12]
 247:../target/stm32/stdperiph/src/stm32f10x_adc.c ****   /* Configure ADCx: external trigger event and continuous conversion mode */
 248:../target/stm32/stdperiph/src/stm32f10x_adc.c ****   /* Set ALIGN bit according to ADC_DataAlign value */
 249:../target/stm32/stdperiph/src/stm32f10x_adc.c ****   /* Set EXTSEL bits according to ADC_ExternalTrigConv value */
 250:../target/stm32/stdperiph/src/stm32f10x_adc.c ****   /* Set CONT bit according to ADC_ContinuousConvMode value */
 251:../target/stm32/stdperiph/src/stm32f10x_adc.c ****   tmpreg1 |= (uint32_t)(ADC_InitStruct->ADC_DataAlign | ADC_InitStruct->ADC_ExternalTrigConv |
 16907              		.loc 1 251 0
 16908 005c 3B68     		ldr	r3, [r7, #0]
 16909 005e DA68     		ldr	r2, [r3, #12]
 16910 0060 3B68     		ldr	r3, [r7, #0]
 16911 0062 9B68     		ldr	r3, [r3, #8]
 16912 0064 1A43     		orrs	r2, r2, r3
 252:../target/stm32/stdperiph/src/stm32f10x_adc.c ****             ((uint32_t)ADC_InitStruct->ADC_ContinuousConvMode << 1));
 16913              		.loc 1 252 0
 16914 0066 3B68     		ldr	r3, [r7, #0]
 16915 0068 5B79     		ldrb	r3, [r3, #5]	@ zero_extendqisi2
 16916 006a 4FEA4303 		lsl	r3, r3, #1
 251:../target/stm32/stdperiph/src/stm32f10x_adc.c ****   tmpreg1 |= (uint32_t)(ADC_InitStruct->ADC_DataAlign | ADC_InitStruct->ADC_ExternalTrigConv |
 16917              		.loc 1 251 0
 16918 006e 42EA0303 		orr	r3, r2, r3
 16919 0072 FA68     		ldr	r2, [r7, #12]
 16920 0074 42EA0303 		orr	r3, r2, r3
 16921 0078 FB60     		str	r3, [r7, #12]
 253:../target/stm32/stdperiph/src/stm32f10x_adc.c ****   /* Write to ADCx CR2 */
 254:../target/stm32/stdperiph/src/stm32f10x_adc.c ****   ADCx->CR2 = tmpreg1;
 16922              		.loc 1 254 0
 16923 007a 7B68     		ldr	r3, [r7, #4]
 16924 007c FA68     		ldr	r2, [r7, #12]
 16925 007e 9A60     		str	r2, [r3, #8]
 255:../target/stm32/stdperiph/src/stm32f10x_adc.c **** 
 256:../target/stm32/stdperiph/src/stm32f10x_adc.c ****   /*---------------------------- ADCx SQR1 Configuration -----------------*/
 257:../target/stm32/stdperiph/src/stm32f10x_adc.c ****   /* Get the ADCx SQR1 value */
 258:../target/stm32/stdperiph/src/stm32f10x_adc.c ****   tmpreg1 = ADCx->SQR1;
 16926              		.loc 1 258 0
 16927 0080 7B68     		ldr	r3, [r7, #4]
 16928 0082 DB6A     		ldr	r3, [r3, #44]
 16929 0084 FB60     		str	r3, [r7, #12]
 259:../target/stm32/stdperiph/src/stm32f10x_adc.c ****   /* Clear L bits */
 260:../target/stm32/stdperiph/src/stm32f10x_adc.c ****   tmpreg1 &= SQR1_CLEAR_Mask;
 16930              		.loc 1 260 0
 16931 0086 FB68     		ldr	r3, [r7, #12]
 16932 0088 23F47003 		bic	r3, r3, #15728640
 16933 008c FB60     		str	r3, [r7, #12]
 261:../target/stm32/stdperiph/src/stm32f10x_adc.c ****   /* Configure ADCx: regular channel sequence length */
 262:../target/stm32/stdperiph/src/stm32f10x_adc.c ****   /* Set L bits according to ADC_NbrOfChannel value */
 263:../target/stm32/stdperiph/src/stm32f10x_adc.c ****   tmpreg2 |= (uint8_t) (ADC_InitStruct->ADC_NbrOfChannel - (uint8_t)1);
 16934              		.loc 1 263 0
 16935 008e 3B68     		ldr	r3, [r7, #0]
 16936 0090 1B7C     		ldrb	r3, [r3, #16]	@ zero_extendqisi2
 16937 0092 03F1FF33 		add	r3, r3, #-1
 16938 0096 DAB2     		uxtb	r2, r3
 16939 0098 FB7A     		ldrb	r3, [r7, #11]
 16940 009a 42EA0303 		orr	r3, r2, r3
 16941 009e FB72     		strb	r3, [r7, #11]
 264:../target/stm32/stdperiph/src/stm32f10x_adc.c ****   tmpreg1 |= (uint32_t)tmpreg2 << 20;
 16942              		.loc 1 264 0
 16943 00a0 FB7A     		ldrb	r3, [r7, #11]	@ zero_extendqisi2
 16944 00a2 4FEA0353 		lsl	r3, r3, #20
 16945 00a6 FA68     		ldr	r2, [r7, #12]
 16946 00a8 42EA0303 		orr	r3, r2, r3
 16947 00ac FB60     		str	r3, [r7, #12]
 265:../target/stm32/stdperiph/src/stm32f10x_adc.c ****   /* Write to ADCx SQR1 */
 266:../target/stm32/stdperiph/src/stm32f10x_adc.c ****   ADCx->SQR1 = tmpreg1;
 16948              		.loc 1 266 0
 16949 00ae 7B68     		ldr	r3, [r7, #4]
 16950 00b0 FA68     		ldr	r2, [r7, #12]
 16951 00b2 DA62     		str	r2, [r3, #44]
 267:../target/stm32/stdperiph/src/stm32f10x_adc.c **** }
 16952              		.loc 1 267 0
 16953 00b4 07F11407 		add	r7, r7, #20
 16954 00b8 BD46     		mov	sp, r7
 16955 00ba 80BC     		pop	{r7}
 16956 00bc 7047     		bx	lr
 16957              		.cfi_endproc
 16958              	.LFE30:
 16960 00be 00BF     		.section	.text.ADC_StructInit,"ax",%progbits
 16961              		.align	2
 16962              		.global	ADC_StructInit
 16963              		.thumb
 16964              		.thumb_func
 16966              	ADC_StructInit:
 16967              	.LFB31:
 268:../target/stm32/stdperiph/src/stm32f10x_adc.c **** 
 269:../target/stm32/stdperiph/src/stm32f10x_adc.c **** /**
 270:../target/stm32/stdperiph/src/stm32f10x_adc.c ****   * @brief  Fills each ADC_InitStruct member with its default value.
 271:../target/stm32/stdperiph/src/stm32f10x_adc.c ****   * @param  ADC_InitStruct : pointer to an ADC_InitTypeDef structure which will be initialized.
 272:../target/stm32/stdperiph/src/stm32f10x_adc.c ****   * @retval None
 273:../target/stm32/stdperiph/src/stm32f10x_adc.c ****   */
 274:../target/stm32/stdperiph/src/stm32f10x_adc.c **** void ADC_StructInit(ADC_InitTypeDef* ADC_InitStruct)
 275:../target/stm32/stdperiph/src/stm32f10x_adc.c **** {
 16968              		.loc 1 275 0
 16969              		.cfi_startproc
 16970              		@ args = 0, pretend = 0, frame = 8
 16971              		@ frame_needed = 1, uses_anonymous_args = 0
 16972              		@ link register save eliminated.
 16973 0000 80B4     		push	{r7}
 16974              	.LCFI6:
 16975              		.cfi_def_cfa_offset 4
 16976 0002 83B0     		sub	sp, sp, #12
 16977              	.LCFI7:
 16978              		.cfi_def_cfa_offset 16
 16979 0004 00AF     		add	r7, sp, #0
 16980              		.cfi_offset 7, -4
 16981              	.LCFI8:
 16982              		.cfi_def_cfa_register 7
 16983 0006 7860     		str	r0, [r7, #4]
 276:../target/stm32/stdperiph/src/stm32f10x_adc.c ****   /* Reset ADC init structure parameters values */
 277:../target/stm32/stdperiph/src/stm32f10x_adc.c ****   /* Initialize the ADC_Mode member */
 278:../target/stm32/stdperiph/src/stm32f10x_adc.c ****   ADC_InitStruct->ADC_Mode = ADC_Mode_Independent;
 16984              		.loc 1 278 0
 16985 0008 7B68     		ldr	r3, [r7, #4]
 16986 000a 4FF00002 		mov	r2, #0
 16987 000e 1A60     		str	r2, [r3, #0]
 279:../target/stm32/stdperiph/src/stm32f10x_adc.c ****   /* initialize the ADC_ScanConvMode member */
 280:../target/stm32/stdperiph/src/stm32f10x_adc.c ****   ADC_InitStruct->ADC_ScanConvMode = DISABLE;
 16988              		.loc 1 280 0
 16989 0010 7B68     		ldr	r3, [r7, #4]
 16990 0012 4FF00002 		mov	r2, #0
 16991 0016 1A71     		strb	r2, [r3, #4]
 281:../target/stm32/stdperiph/src/stm32f10x_adc.c ****   /* Initialize the ADC_ContinuousConvMode member */
 282:../target/stm32/stdperiph/src/stm32f10x_adc.c ****   ADC_InitStruct->ADC_ContinuousConvMode = DISABLE;
 16992              		.loc 1 282 0
 16993 0018 7B68     		ldr	r3, [r7, #4]
 16994 001a 4FF00002 		mov	r2, #0
 16995 001e 5A71     		strb	r2, [r3, #5]
 283:../target/stm32/stdperiph/src/stm32f10x_adc.c ****   /* Initialize the ADC_ExternalTrigConv member */
 284:../target/stm32/stdperiph/src/stm32f10x_adc.c ****   ADC_InitStruct->ADC_ExternalTrigConv = ADC_ExternalTrigConv_T1_CC1;
 16996              		.loc 1 284 0
 16997 0020 7B68     		ldr	r3, [r7, #4]
 16998 0022 4FF00002 		mov	r2, #0
 16999 0026 9A60     		str	r2, [r3, #8]
 285:../target/stm32/stdperiph/src/stm32f10x_adc.c ****   /* Initialize the ADC_DataAlign member */
 286:../target/stm32/stdperiph/src/stm32f10x_adc.c ****   ADC_InitStruct->ADC_DataAlign = ADC_DataAlign_Right;
 17000              		.loc 1 286 0
 17001 0028 7B68     		ldr	r3, [r7, #4]
 17002 002a 4FF00002 		mov	r2, #0
 17003 002e DA60     		str	r2, [r3, #12]
 287:../target/stm32/stdperiph/src/stm32f10x_adc.c ****   /* Initialize the ADC_NbrOfChannel member */
 288:../target/stm32/stdperiph/src/stm32f10x_adc.c ****   ADC_InitStruct->ADC_NbrOfChannel = 1;
 17004              		.loc 1 288 0
 17005 0030 7B68     		ldr	r3, [r7, #4]
 17006 0032 4FF00102 		mov	r2, #1
 17007 0036 1A74     		strb	r2, [r3, #16]
 289:../target/stm32/stdperiph/src/stm32f10x_adc.c **** }
 17008              		.loc 1 289 0
 17009 0038 07F10C07 		add	r7, r7, #12
 17010 003c BD46     		mov	sp, r7
 17011 003e 80BC     		pop	{r7}
 17012 0040 7047     		bx	lr
 17013              		.cfi_endproc
 17014              	.LFE31:
 17016 0042 00BF     		.section	.text.ADC_Cmd,"ax",%progbits
 17017              		.align	2
 17018              		.global	ADC_Cmd
 17019              		.thumb
 17020              		.thumb_func
 17022              	ADC_Cmd:
 17023              	.LFB32:
 290:../target/stm32/stdperiph/src/stm32f10x_adc.c **** 
 291:../target/stm32/stdperiph/src/stm32f10x_adc.c **** /**
 292:../target/stm32/stdperiph/src/stm32f10x_adc.c ****   * @brief  Enables or disables the specified ADC peripheral.
 293:../target/stm32/stdperiph/src/stm32f10x_adc.c ****   * @param  ADCx: where x can be 1, 2 or 3 to select the ADC peripheral.
 294:../target/stm32/stdperiph/src/stm32f10x_adc.c ****   * @param  NewState: new state of the ADCx peripheral.
 295:../target/stm32/stdperiph/src/stm32f10x_adc.c ****   *   This parameter can be: ENABLE or DISABLE.
 296:../target/stm32/stdperiph/src/stm32f10x_adc.c ****   * @retval None
 297:../target/stm32/stdperiph/src/stm32f10x_adc.c ****   */
 298:../target/stm32/stdperiph/src/stm32f10x_adc.c **** void ADC_Cmd(ADC_TypeDef* ADCx, FunctionalState NewState)
 299:../target/stm32/stdperiph/src/stm32f10x_adc.c **** {
 17024              		.loc 1 299 0
 17025              		.cfi_startproc
 17026              		@ args = 0, pretend = 0, frame = 8
 17027              		@ frame_needed = 1, uses_anonymous_args = 0
 17028              		@ link register save eliminated.
 17029 0000 80B4     		push	{r7}
 17030              	.LCFI9:
 17031              		.cfi_def_cfa_offset 4
 17032 0002 83B0     		sub	sp, sp, #12
 17033              	.LCFI10:
 17034              		.cfi_def_cfa_offset 16
 17035 0004 00AF     		add	r7, sp, #0
 17036              		.cfi_offset 7, -4
 17037              	.LCFI11:
 17038              		.cfi_def_cfa_register 7
 17039 0006 7860     		str	r0, [r7, #4]
 17040 0008 0B46     		mov	r3, r1
 17041 000a FB70     		strb	r3, [r7, #3]
 300:../target/stm32/stdperiph/src/stm32f10x_adc.c ****   /* Check the parameters */
 301:../target/stm32/stdperiph/src/stm32f10x_adc.c ****   assert_param(IS_ADC_ALL_PERIPH(ADCx));
 302:../target/stm32/stdperiph/src/stm32f10x_adc.c ****   assert_param(IS_FUNCTIONAL_STATE(NewState));
 303:../target/stm32/stdperiph/src/stm32f10x_adc.c ****   if (NewState != DISABLE)
 17042              		.loc 1 303 0
 17043 000c FB78     		ldrb	r3, [r7, #3]	@ zero_extendqisi2
 17044 000e 002B     		cmp	r3, #0
 17045 0010 06D0     		beq	.L8
 304:../target/stm32/stdperiph/src/stm32f10x_adc.c ****   {
 305:../target/stm32/stdperiph/src/stm32f10x_adc.c ****     /* Set the ADON bit to wake up the ADC from power down mode */
 306:../target/stm32/stdperiph/src/stm32f10x_adc.c ****     ADCx->CR2 |= CR2_ADON_Set;
 17046              		.loc 1 306 0
 17047 0012 7B68     		ldr	r3, [r7, #4]
 17048 0014 9B68     		ldr	r3, [r3, #8]
 17049 0016 43F00102 		orr	r2, r3, #1
 17050 001a 7B68     		ldr	r3, [r7, #4]
 17051 001c 9A60     		str	r2, [r3, #8]
 17052 001e 05E0     		b	.L7
 17053              	.L8:
 307:../target/stm32/stdperiph/src/stm32f10x_adc.c ****   }
 308:../target/stm32/stdperiph/src/stm32f10x_adc.c ****   else
 309:../target/stm32/stdperiph/src/stm32f10x_adc.c ****   {
 310:../target/stm32/stdperiph/src/stm32f10x_adc.c ****     /* Disable the selected ADC peripheral */
 311:../target/stm32/stdperiph/src/stm32f10x_adc.c ****     ADCx->CR2 &= CR2_ADON_Reset;
 17054              		.loc 1 311 0
 17055 0020 7B68     		ldr	r3, [r7, #4]
 17056 0022 9B68     		ldr	r3, [r3, #8]
 17057 0024 23F00102 		bic	r2, r3, #1
 17058 0028 7B68     		ldr	r3, [r7, #4]
 17059 002a 9A60     		str	r2, [r3, #8]
 17060              	.L7:
 312:../target/stm32/stdperiph/src/stm32f10x_adc.c ****   }
 313:../target/stm32/stdperiph/src/stm32f10x_adc.c **** }
 17061              		.loc 1 313 0
 17062 002c 07F10C07 		add	r7, r7, #12
 17063 0030 BD46     		mov	sp, r7
 17064 0032 80BC     		pop	{r7}
 17065 0034 7047     		bx	lr
 17066              		.cfi_endproc
 17067              	.LFE32:
 17069 0036 00BF     		.section	.text.ADC_DMACmd,"ax",%progbits
 17070              		.align	2
 17071              		.global	ADC_DMACmd
 17072              		.thumb
 17073              		.thumb_func
 17075              	ADC_DMACmd:
 17076              	.LFB33:
 314:../target/stm32/stdperiph/src/stm32f10x_adc.c **** 
 315:../target/stm32/stdperiph/src/stm32f10x_adc.c **** /**
 316:../target/stm32/stdperiph/src/stm32f10x_adc.c ****   * @brief  Enables or disables the specified ADC DMA request.
 317:../target/stm32/stdperiph/src/stm32f10x_adc.c ****   * @param  ADCx: where x can be 1 or 3 to select the ADC peripheral.
 318:../target/stm32/stdperiph/src/stm32f10x_adc.c ****   *   Note: ADC2 hasn't a DMA capability.
 319:../target/stm32/stdperiph/src/stm32f10x_adc.c ****   * @param  NewState: new state of the selected ADC DMA transfer.
 320:../target/stm32/stdperiph/src/stm32f10x_adc.c ****   *   This parameter can be: ENABLE or DISABLE.
 321:../target/stm32/stdperiph/src/stm32f10x_adc.c ****   * @retval None
 322:../target/stm32/stdperiph/src/stm32f10x_adc.c ****   */
 323:../target/stm32/stdperiph/src/stm32f10x_adc.c **** void ADC_DMACmd(ADC_TypeDef* ADCx, FunctionalState NewState)
 324:../target/stm32/stdperiph/src/stm32f10x_adc.c **** {
 17077              		.loc 1 324 0
 17078              		.cfi_startproc
 17079              		@ args = 0, pretend = 0, frame = 8
 17080              		@ frame_needed = 1, uses_anonymous_args = 0
 17081              		@ link register save eliminated.
 17082 0000 80B4     		push	{r7}
 17083              	.LCFI12:
 17084              		.cfi_def_cfa_offset 4
 17085 0002 83B0     		sub	sp, sp, #12
 17086              	.LCFI13:
 17087              		.cfi_def_cfa_offset 16
 17088 0004 00AF     		add	r7, sp, #0
 17089              		.cfi_offset 7, -4
 17090              	.LCFI14:
 17091              		.cfi_def_cfa_register 7
 17092 0006 7860     		str	r0, [r7, #4]
 17093 0008 0B46     		mov	r3, r1
 17094 000a FB70     		strb	r3, [r7, #3]
 325:../target/stm32/stdperiph/src/stm32f10x_adc.c ****   /* Check the parameters */
 326:../target/stm32/stdperiph/src/stm32f10x_adc.c ****   assert_param(IS_ADC_DMA_PERIPH(ADCx));
 327:../target/stm32/stdperiph/src/stm32f10x_adc.c ****   assert_param(IS_FUNCTIONAL_STATE(NewState));
 328:../target/stm32/stdperiph/src/stm32f10x_adc.c ****   if (NewState != DISABLE)
 17095              		.loc 1 328 0
 17096 000c FB78     		ldrb	r3, [r7, #3]	@ zero_extendqisi2
 17097 000e 002B     		cmp	r3, #0
 17098 0010 06D0     		beq	.L11
 329:../target/stm32/stdperiph/src/stm32f10x_adc.c ****   {
 330:../target/stm32/stdperiph/src/stm32f10x_adc.c ****     /* Enable the selected ADC DMA request */
 331:../target/stm32/stdperiph/src/stm32f10x_adc.c ****     ADCx->CR2 |= CR2_DMA_Set;
 17099              		.loc 1 331 0
 17100 0012 7B68     		ldr	r3, [r7, #4]
 17101 0014 9B68     		ldr	r3, [r3, #8]
 17102 0016 43F48072 		orr	r2, r3, #256
 17103 001a 7B68     		ldr	r3, [r7, #4]
 17104 001c 9A60     		str	r2, [r3, #8]
 17105 001e 05E0     		b	.L10
 17106              	.L11:
 332:../target/stm32/stdperiph/src/stm32f10x_adc.c ****   }
 333:../target/stm32/stdperiph/src/stm32f10x_adc.c ****   else
 334:../target/stm32/stdperiph/src/stm32f10x_adc.c ****   {
 335:../target/stm32/stdperiph/src/stm32f10x_adc.c ****     /* Disable the selected ADC DMA request */
 336:../target/stm32/stdperiph/src/stm32f10x_adc.c ****     ADCx->CR2 &= CR2_DMA_Reset;
 17107              		.loc 1 336 0
 17108 0020 7B68     		ldr	r3, [r7, #4]
 17109 0022 9B68     		ldr	r3, [r3, #8]
 17110 0024 23F48072 		bic	r2, r3, #256
 17111 0028 7B68     		ldr	r3, [r7, #4]
 17112 002a 9A60     		str	r2, [r3, #8]
 17113              	.L10:
 337:../target/stm32/stdperiph/src/stm32f10x_adc.c ****   }
 338:../target/stm32/stdperiph/src/stm32f10x_adc.c **** }
 17114              		.loc 1 338 0
 17115 002c 07F10C07 		add	r7, r7, #12
 17116 0030 BD46     		mov	sp, r7
 17117 0032 80BC     		pop	{r7}
 17118 0034 7047     		bx	lr
 17119              		.cfi_endproc
 17120              	.LFE33:
 17122 0036 00BF     		.section	.text.ADC_ITConfig,"ax",%progbits
 17123              		.align	2
 17124              		.global	ADC_ITConfig
 17125              		.thumb
 17126              		.thumb_func
 17128              	ADC_ITConfig:
 17129              	.LFB34:
 339:../target/stm32/stdperiph/src/stm32f10x_adc.c **** 
 340:../target/stm32/stdperiph/src/stm32f10x_adc.c **** /**
 341:../target/stm32/stdperiph/src/stm32f10x_adc.c ****   * @brief  Enables or disables the specified ADC interrupts.
 342:../target/stm32/stdperiph/src/stm32f10x_adc.c ****   * @param  ADCx: where x can be 1, 2 or 3 to select the ADC peripheral.
 343:../target/stm32/stdperiph/src/stm32f10x_adc.c ****   * @param  ADC_IT: specifies the ADC interrupt sources to be enabled or disabled. 
 344:../target/stm32/stdperiph/src/stm32f10x_adc.c ****   *   This parameter can be any combination of the following values:
 345:../target/stm32/stdperiph/src/stm32f10x_adc.c ****   *     @arg ADC_IT_EOC: End of conversion interrupt mask
 346:../target/stm32/stdperiph/src/stm32f10x_adc.c ****   *     @arg ADC_IT_AWD: Analog watchdog interrupt mask
 347:../target/stm32/stdperiph/src/stm32f10x_adc.c ****   *     @arg ADC_IT_JEOC: End of injected conversion interrupt mask
 348:../target/stm32/stdperiph/src/stm32f10x_adc.c ****   * @param  NewState: new state of the specified ADC interrupts.
 349:../target/stm32/stdperiph/src/stm32f10x_adc.c ****   *   This parameter can be: ENABLE or DISABLE.
 350:../target/stm32/stdperiph/src/stm32f10x_adc.c ****   * @retval None
 351:../target/stm32/stdperiph/src/stm32f10x_adc.c ****   */
 352:../target/stm32/stdperiph/src/stm32f10x_adc.c **** void ADC_ITConfig(ADC_TypeDef* ADCx, uint16_t ADC_IT, FunctionalState NewState)
 353:../target/stm32/stdperiph/src/stm32f10x_adc.c **** {
 17130              		.loc 1 353 0
 17131              		.cfi_startproc
 17132              		@ args = 0, pretend = 0, frame = 16
 17133              		@ frame_needed = 1, uses_anonymous_args = 0
 17134              		@ link register save eliminated.
 17135 0000 80B4     		push	{r7}
 17136              	.LCFI15:
 17137              		.cfi_def_cfa_offset 4
 17138 0002 85B0     		sub	sp, sp, #20
 17139              	.LCFI16:
 17140              		.cfi_def_cfa_offset 24
 17141 0004 00AF     		add	r7, sp, #0
 17142              		.cfi_offset 7, -4
 17143              	.LCFI17:
 17144              		.cfi_def_cfa_register 7
 17145 0006 7860     		str	r0, [r7, #4]
 17146 0008 1346     		mov	r3, r2
 17147 000a 0A46     		mov	r2, r1	@ movhi
 17148 000c 7A80     		strh	r2, [r7, #2]	@ movhi
 17149 000e 7B70     		strb	r3, [r7, #1]
 354:../target/stm32/stdperiph/src/stm32f10x_adc.c ****   uint8_t itmask = 0;
 17150              		.loc 1 354 0
 17151 0010 4FF00003 		mov	r3, #0
 17152 0014 FB73     		strb	r3, [r7, #15]
 355:../target/stm32/stdperiph/src/stm32f10x_adc.c ****   /* Check the parameters */
 356:../target/stm32/stdperiph/src/stm32f10x_adc.c ****   assert_param(IS_ADC_ALL_PERIPH(ADCx));
 357:../target/stm32/stdperiph/src/stm32f10x_adc.c ****   assert_param(IS_FUNCTIONAL_STATE(NewState));
 358:../target/stm32/stdperiph/src/stm32f10x_adc.c ****   assert_param(IS_ADC_IT(ADC_IT));
 359:../target/stm32/stdperiph/src/stm32f10x_adc.c ****   /* Get the ADC IT index */
 360:../target/stm32/stdperiph/src/stm32f10x_adc.c ****   itmask = (uint8_t)ADC_IT;
 17153              		.loc 1 360 0
 17154 0016 7B88     		ldrh	r3, [r7, #2]	@ movhi
 17155 0018 FB73     		strb	r3, [r7, #15]
 361:../target/stm32/stdperiph/src/stm32f10x_adc.c ****   if (NewState != DISABLE)
 17156              		.loc 1 361 0
 17157 001a 7B78     		ldrb	r3, [r7, #1]	@ zero_extendqisi2
 17158 001c 002B     		cmp	r3, #0
 17159 001e 07D0     		beq	.L14
 362:../target/stm32/stdperiph/src/stm32f10x_adc.c ****   {
 363:../target/stm32/stdperiph/src/stm32f10x_adc.c ****     /* Enable the selected ADC interrupts */
 364:../target/stm32/stdperiph/src/stm32f10x_adc.c ****     ADCx->CR1 |= itmask;
 17160              		.loc 1 364 0
 17161 0020 7B68     		ldr	r3, [r7, #4]
 17162 0022 5B68     		ldr	r3, [r3, #4]
 17163 0024 1A46     		mov	r2, r3
 17164 0026 FB7B     		ldrb	r3, [r7, #15]	@ zero_extendqisi2
 17165 0028 1A43     		orrs	r2, r2, r3
 17166 002a 7B68     		ldr	r3, [r7, #4]
 17167 002c 5A60     		str	r2, [r3, #4]
 17168 002e 08E0     		b	.L13
 17169              	.L14:
 365:../target/stm32/stdperiph/src/stm32f10x_adc.c ****   }
 366:../target/stm32/stdperiph/src/stm32f10x_adc.c ****   else
 367:../target/stm32/stdperiph/src/stm32f10x_adc.c ****   {
 368:../target/stm32/stdperiph/src/stm32f10x_adc.c ****     /* Disable the selected ADC interrupts */
 369:../target/stm32/stdperiph/src/stm32f10x_adc.c ****     ADCx->CR1 &= (~(uint32_t)itmask);
 17170              		.loc 1 369 0
 17171 0030 7B68     		ldr	r3, [r7, #4]
 17172 0032 5B68     		ldr	r3, [r3, #4]
 17173 0034 1A46     		mov	r2, r3
 17174 0036 FB7B     		ldrb	r3, [r7, #15]	@ zero_extendqisi2
 17175 0038 6FEA0303 		mvn	r3, r3
 17176 003c 1A40     		ands	r2, r2, r3
 17177 003e 7B68     		ldr	r3, [r7, #4]
 17178 0040 5A60     		str	r2, [r3, #4]
 17179              	.L13:
 370:../target/stm32/stdperiph/src/stm32f10x_adc.c ****   }
 371:../target/stm32/stdperiph/src/stm32f10x_adc.c **** }
 17180              		.loc 1 371 0
 17181 0042 07F11407 		add	r7, r7, #20
 17182 0046 BD46     		mov	sp, r7
 17183 0048 80BC     		pop	{r7}
 17184 004a 7047     		bx	lr
 17185              		.cfi_endproc
 17186              	.LFE34:
 17188              		.section	.text.ADC_ResetCalibration,"ax",%progbits
 17189              		.align	2
 17190              		.global	ADC_ResetCalibration
 17191              		.thumb
 17192              		.thumb_func
 17194              	ADC_ResetCalibration:
 17195              	.LFB35:
 372:../target/stm32/stdperiph/src/stm32f10x_adc.c **** 
 373:../target/stm32/stdperiph/src/stm32f10x_adc.c **** /**
 374:../target/stm32/stdperiph/src/stm32f10x_adc.c ****   * @brief  Resets the selected ADC calibration registers.
 375:../target/stm32/stdperiph/src/stm32f10x_adc.c ****   * @param  ADCx: where x can be 1, 2 or 3 to select the ADC peripheral.
 376:../target/stm32/stdperiph/src/stm32f10x_adc.c ****   * @retval None
 377:../target/stm32/stdperiph/src/stm32f10x_adc.c ****   */
 378:../target/stm32/stdperiph/src/stm32f10x_adc.c **** void ADC_ResetCalibration(ADC_TypeDef* ADCx)
 379:../target/stm32/stdperiph/src/stm32f10x_adc.c **** {
 17196              		.loc 1 379 0
 17197              		.cfi_startproc
 17198              		@ args = 0, pretend = 0, frame = 8
 17199              		@ frame_needed = 1, uses_anonymous_args = 0
 17200              		@ link register save eliminated.
 17201 0000 80B4     		push	{r7}
 17202              	.LCFI18:
 17203              		.cfi_def_cfa_offset 4
 17204 0002 83B0     		sub	sp, sp, #12
 17205              	.LCFI19:
 17206              		.cfi_def_cfa_offset 16
 17207 0004 00AF     		add	r7, sp, #0
 17208              		.cfi_offset 7, -4
 17209              	.LCFI20:
 17210              		.cfi_def_cfa_register 7
 17211 0006 7860     		str	r0, [r7, #4]
 380:../target/stm32/stdperiph/src/stm32f10x_adc.c ****   /* Check the parameters */
 381:../target/stm32/stdperiph/src/stm32f10x_adc.c ****   assert_param(IS_ADC_ALL_PERIPH(ADCx));
 382:../target/stm32/stdperiph/src/stm32f10x_adc.c ****   /* Resets the selected ADC calibartion registers */  
 383:../target/stm32/stdperiph/src/stm32f10x_adc.c ****   ADCx->CR2 |= CR2_RSTCAL_Set;
 17212              		.loc 1 383 0
 17213 0008 7B68     		ldr	r3, [r7, #4]
 17214 000a 9B68     		ldr	r3, [r3, #8]
 17215 000c 43F00802 		orr	r2, r3, #8
 17216 0010 7B68     		ldr	r3, [r7, #4]
 17217 0012 9A60     		str	r2, [r3, #8]
 384:../target/stm32/stdperiph/src/stm32f10x_adc.c **** }
 17218              		.loc 1 384 0
 17219 0014 07F10C07 		add	r7, r7, #12
 17220 0018 BD46     		mov	sp, r7
 17221 001a 80BC     		pop	{r7}
 17222 001c 7047     		bx	lr
 17223              		.cfi_endproc
 17224              	.LFE35:
 17226 001e 00BF     		.section	.text.ADC_GetResetCalibrationStatus,"ax",%progbits
 17227              		.align	2
 17228              		.global	ADC_GetResetCalibrationStatus
 17229              		.thumb
 17230              		.thumb_func
 17232              	ADC_GetResetCalibrationStatus:
 17233              	.LFB36:
 385:../target/stm32/stdperiph/src/stm32f10x_adc.c **** 
 386:../target/stm32/stdperiph/src/stm32f10x_adc.c **** /**
 387:../target/stm32/stdperiph/src/stm32f10x_adc.c ****   * @brief  Gets the selected ADC reset calibration registers status.
 388:../target/stm32/stdperiph/src/stm32f10x_adc.c ****   * @param  ADCx: where x can be 1, 2 or 3 to select the ADC peripheral.
 389:../target/stm32/stdperiph/src/stm32f10x_adc.c ****   * @retval The new state of ADC reset calibration registers (SET or RESET).
 390:../target/stm32/stdperiph/src/stm32f10x_adc.c ****   */
 391:../target/stm32/stdperiph/src/stm32f10x_adc.c **** FlagStatus ADC_GetResetCalibrationStatus(ADC_TypeDef* ADCx)
 392:../target/stm32/stdperiph/src/stm32f10x_adc.c **** {
 17234              		.loc 1 392 0
 17235              		.cfi_startproc
 17236              		@ args = 0, pretend = 0, frame = 16
 17237              		@ frame_needed = 1, uses_anonymous_args = 0
 17238              		@ link register save eliminated.
 17239 0000 80B4     		push	{r7}
 17240              	.LCFI21:
 17241              		.cfi_def_cfa_offset 4
 17242 0002 85B0     		sub	sp, sp, #20
 17243              	.LCFI22:
 17244              		.cfi_def_cfa_offset 24
 17245 0004 00AF     		add	r7, sp, #0
 17246              		.cfi_offset 7, -4
 17247              	.LCFI23:
 17248              		.cfi_def_cfa_register 7
 17249 0006 7860     		str	r0, [r7, #4]
 393:../target/stm32/stdperiph/src/stm32f10x_adc.c ****   FlagStatus bitstatus = RESET;
 17250              		.loc 1 393 0
 17251 0008 4FF00003 		mov	r3, #0
 17252 000c FB73     		strb	r3, [r7, #15]
 394:../target/stm32/stdperiph/src/stm32f10x_adc.c ****   /* Check the parameters */
 395:../target/stm32/stdperiph/src/stm32f10x_adc.c ****   assert_param(IS_ADC_ALL_PERIPH(ADCx));
 396:../target/stm32/stdperiph/src/stm32f10x_adc.c ****   /* Check the status of RSTCAL bit */
 397:../target/stm32/stdperiph/src/stm32f10x_adc.c ****   if ((ADCx->CR2 & CR2_RSTCAL_Set) != (uint32_t)RESET)
 17253              		.loc 1 397 0
 17254 000e 7B68     		ldr	r3, [r7, #4]
 17255 0010 9B68     		ldr	r3, [r3, #8]
 17256 0012 03F00803 		and	r3, r3, #8
 17257 0016 002B     		cmp	r3, #0
 17258 0018 03D0     		beq	.L18
 398:../target/stm32/stdperiph/src/stm32f10x_adc.c ****   {
 399:../target/stm32/stdperiph/src/stm32f10x_adc.c ****     /* RSTCAL bit is set */
 400:../target/stm32/stdperiph/src/stm32f10x_adc.c ****     bitstatus = SET;
 17259              		.loc 1 400 0
 17260 001a 4FF00103 		mov	r3, #1
 17261 001e FB73     		strb	r3, [r7, #15]
 17262 0020 02E0     		b	.L19
 17263              	.L18:
 401:../target/stm32/stdperiph/src/stm32f10x_adc.c ****   }
 402:../target/stm32/stdperiph/src/stm32f10x_adc.c ****   else
 403:../target/stm32/stdperiph/src/stm32f10x_adc.c ****   {
 404:../target/stm32/stdperiph/src/stm32f10x_adc.c ****     /* RSTCAL bit is reset */
 405:../target/stm32/stdperiph/src/stm32f10x_adc.c ****     bitstatus = RESET;
 17264              		.loc 1 405 0
 17265 0022 4FF00003 		mov	r3, #0
 17266 0026 FB73     		strb	r3, [r7, #15]
 17267              	.L19:
 406:../target/stm32/stdperiph/src/stm32f10x_adc.c ****   }
 407:../target/stm32/stdperiph/src/stm32f10x_adc.c ****   /* Return the RSTCAL bit status */
 408:../target/stm32/stdperiph/src/stm32f10x_adc.c ****   return  bitstatus;
 17268              		.loc 1 408 0
 17269 0028 FB7B     		ldrb	r3, [r7, #15]	@ zero_extendqisi2
 409:../target/stm32/stdperiph/src/stm32f10x_adc.c **** }
 17270              		.loc 1 409 0
 17271 002a 1846     		mov	r0, r3
 17272 002c 07F11407 		add	r7, r7, #20
 17273 0030 BD46     		mov	sp, r7
 17274 0032 80BC     		pop	{r7}
 17275 0034 7047     		bx	lr
 17276              		.cfi_endproc
 17277              	.LFE36:
 17279 0036 00BF     		.section	.text.ADC_StartCalibration,"ax",%progbits
 17280              		.align	2
 17281              		.global	ADC_StartCalibration
 17282              		.thumb
 17283              		.thumb_func
 17285              	ADC_StartCalibration:
 17286              	.LFB37:
 410:../target/stm32/stdperiph/src/stm32f10x_adc.c **** 
 411:../target/stm32/stdperiph/src/stm32f10x_adc.c **** /**
 412:../target/stm32/stdperiph/src/stm32f10x_adc.c ****   * @brief  Starts the selected ADC calibration process.
 413:../target/stm32/stdperiph/src/stm32f10x_adc.c ****   * @param  ADCx: where x can be 1, 2 or 3 to select the ADC peripheral.
 414:../target/stm32/stdperiph/src/stm32f10x_adc.c ****   * @retval None
 415:../target/stm32/stdperiph/src/stm32f10x_adc.c ****   */
 416:../target/stm32/stdperiph/src/stm32f10x_adc.c **** void ADC_StartCalibration(ADC_TypeDef* ADCx)
 417:../target/stm32/stdperiph/src/stm32f10x_adc.c **** {
 17287              		.loc 1 417 0
 17288              		.cfi_startproc
 17289              		@ args = 0, pretend = 0, frame = 8
 17290              		@ frame_needed = 1, uses_anonymous_args = 0
 17291              		@ link register save eliminated.
 17292 0000 80B4     		push	{r7}
 17293              	.LCFI24:
 17294              		.cfi_def_cfa_offset 4
 17295 0002 83B0     		sub	sp, sp, #12
 17296              	.LCFI25:
 17297              		.cfi_def_cfa_offset 16
 17298 0004 00AF     		add	r7, sp, #0
 17299              		.cfi_offset 7, -4
 17300              	.LCFI26:
 17301              		.cfi_def_cfa_register 7
 17302 0006 7860     		str	r0, [r7, #4]
 418:../target/stm32/stdperiph/src/stm32f10x_adc.c ****   /* Check the parameters */
 419:../target/stm32/stdperiph/src/stm32f10x_adc.c ****   assert_param(IS_ADC_ALL_PERIPH(ADCx));
 420:../target/stm32/stdperiph/src/stm32f10x_adc.c ****   /* Enable the selected ADC calibration process */  
 421:../target/stm32/stdperiph/src/stm32f10x_adc.c ****   ADCx->CR2 |= CR2_CAL_Set;
 17303              		.loc 1 421 0
 17304 0008 7B68     		ldr	r3, [r7, #4]
 17305 000a 9B68     		ldr	r3, [r3, #8]
 17306 000c 43F00402 		orr	r2, r3, #4
 17307 0010 7B68     		ldr	r3, [r7, #4]
 17308 0012 9A60     		str	r2, [r3, #8]
 422:../target/stm32/stdperiph/src/stm32f10x_adc.c **** }
 17309              		.loc 1 422 0
 17310 0014 07F10C07 		add	r7, r7, #12
 17311 0018 BD46     		mov	sp, r7
 17312 001a 80BC     		pop	{r7}
 17313 001c 7047     		bx	lr
 17314              		.cfi_endproc
 17315              	.LFE37:
 17317 001e 00BF     		.section	.text.ADC_GetCalibrationStatus,"ax",%progbits
 17318              		.align	2
 17319              		.global	ADC_GetCalibrationStatus
 17320              		.thumb
 17321              		.thumb_func
 17323              	ADC_GetCalibrationStatus:
 17324              	.LFB38:
 423:../target/stm32/stdperiph/src/stm32f10x_adc.c **** 
 424:../target/stm32/stdperiph/src/stm32f10x_adc.c **** /**
 425:../target/stm32/stdperiph/src/stm32f10x_adc.c ****   * @brief  Gets the selected ADC calibration status.
 426:../target/stm32/stdperiph/src/stm32f10x_adc.c ****   * @param  ADCx: where x can be 1, 2 or 3 to select the ADC peripheral.
 427:../target/stm32/stdperiph/src/stm32f10x_adc.c ****   * @retval The new state of ADC calibration (SET or RESET).
 428:../target/stm32/stdperiph/src/stm32f10x_adc.c ****   */
 429:../target/stm32/stdperiph/src/stm32f10x_adc.c **** FlagStatus ADC_GetCalibrationStatus(ADC_TypeDef* ADCx)
 430:../target/stm32/stdperiph/src/stm32f10x_adc.c **** {
 17325              		.loc 1 430 0
 17326              		.cfi_startproc
 17327              		@ args = 0, pretend = 0, frame = 16
 17328              		@ frame_needed = 1, uses_anonymous_args = 0
 17329              		@ link register save eliminated.
 17330 0000 80B4     		push	{r7}
 17331              	.LCFI27:
 17332              		.cfi_def_cfa_offset 4
 17333 0002 85B0     		sub	sp, sp, #20
 17334              	.LCFI28:
 17335              		.cfi_def_cfa_offset 24
 17336 0004 00AF     		add	r7, sp, #0
 17337              		.cfi_offset 7, -4
 17338              	.LCFI29:
 17339              		.cfi_def_cfa_register 7
 17340 0006 7860     		str	r0, [r7, #4]
 431:../target/stm32/stdperiph/src/stm32f10x_adc.c ****   FlagStatus bitstatus = RESET;
 17341              		.loc 1 431 0
 17342 0008 4FF00003 		mov	r3, #0
 17343 000c FB73     		strb	r3, [r7, #15]
 432:../target/stm32/stdperiph/src/stm32f10x_adc.c ****   /* Check the parameters */
 433:../target/stm32/stdperiph/src/stm32f10x_adc.c ****   assert_param(IS_ADC_ALL_PERIPH(ADCx));
 434:../target/stm32/stdperiph/src/stm32f10x_adc.c ****   /* Check the status of CAL bit */
 435:../target/stm32/stdperiph/src/stm32f10x_adc.c ****   if ((ADCx->CR2 & CR2_CAL_Set) != (uint32_t)RESET)
 17344              		.loc 1 435 0
 17345 000e 7B68     		ldr	r3, [r7, #4]
 17346 0010 9B68     		ldr	r3, [r3, #8]
 17347 0012 03F00403 		and	r3, r3, #4
 17348 0016 002B     		cmp	r3, #0
 17349 0018 03D0     		beq	.L22
 436:../target/stm32/stdperiph/src/stm32f10x_adc.c ****   {
 437:../target/stm32/stdperiph/src/stm32f10x_adc.c ****     /* CAL bit is set: calibration on going */
 438:../target/stm32/stdperiph/src/stm32f10x_adc.c ****     bitstatus = SET;
 17350              		.loc 1 438 0
 17351 001a 4FF00103 		mov	r3, #1
 17352 001e FB73     		strb	r3, [r7, #15]
 17353 0020 02E0     		b	.L23
 17354              	.L22:
 439:../target/stm32/stdperiph/src/stm32f10x_adc.c ****   }
 440:../target/stm32/stdperiph/src/stm32f10x_adc.c ****   else
 441:../target/stm32/stdperiph/src/stm32f10x_adc.c ****   {
 442:../target/stm32/stdperiph/src/stm32f10x_adc.c ****     /* CAL bit is reset: end of calibration */
 443:../target/stm32/stdperiph/src/stm32f10x_adc.c ****     bitstatus = RESET;
 17355              		.loc 1 443 0
 17356 0022 4FF00003 		mov	r3, #0
 17357 0026 FB73     		strb	r3, [r7, #15]
 17358              	.L23:
 444:../target/stm32/stdperiph/src/stm32f10x_adc.c ****   }
 445:../target/stm32/stdperiph/src/stm32f10x_adc.c ****   /* Return the CAL bit status */
 446:../target/stm32/stdperiph/src/stm32f10x_adc.c ****   return  bitstatus;
 17359              		.loc 1 446 0
 17360 0028 FB7B     		ldrb	r3, [r7, #15]	@ zero_extendqisi2
 447:../target/stm32/stdperiph/src/stm32f10x_adc.c **** }
 17361              		.loc 1 447 0
 17362 002a 1846     		mov	r0, r3
 17363 002c 07F11407 		add	r7, r7, #20
 17364 0030 BD46     		mov	sp, r7
 17365 0032 80BC     		pop	{r7}
 17366 0034 7047     		bx	lr
 17367              		.cfi_endproc
 17368              	.LFE38:
 17370 0036 00BF     		.section	.text.ADC_SoftwareStartConvCmd,"ax",%progbits
 17371              		.align	2
 17372              		.global	ADC_SoftwareStartConvCmd
 17373              		.thumb
 17374              		.thumb_func
 17376              	ADC_SoftwareStartConvCmd:
 17377              	.LFB39:
 448:../target/stm32/stdperiph/src/stm32f10x_adc.c **** 
 449:../target/stm32/stdperiph/src/stm32f10x_adc.c **** /**
 450:../target/stm32/stdperiph/src/stm32f10x_adc.c ****   * @brief  Enables or disables the selected ADC software start conversion .
 451:../target/stm32/stdperiph/src/stm32f10x_adc.c ****   * @param  ADCx: where x can be 1, 2 or 3 to select the ADC peripheral.
 452:../target/stm32/stdperiph/src/stm32f10x_adc.c ****   * @param  NewState: new state of the selected ADC software start conversion.
 453:../target/stm32/stdperiph/src/stm32f10x_adc.c ****   *   This parameter can be: ENABLE or DISABLE.
 454:../target/stm32/stdperiph/src/stm32f10x_adc.c ****   * @retval None
 455:../target/stm32/stdperiph/src/stm32f10x_adc.c ****   */
 456:../target/stm32/stdperiph/src/stm32f10x_adc.c **** void ADC_SoftwareStartConvCmd(ADC_TypeDef* ADCx, FunctionalState NewState)
 457:../target/stm32/stdperiph/src/stm32f10x_adc.c **** {
 17378              		.loc 1 457 0
 17379              		.cfi_startproc
 17380              		@ args = 0, pretend = 0, frame = 8
 17381              		@ frame_needed = 1, uses_anonymous_args = 0
 17382              		@ link register save eliminated.
 17383 0000 80B4     		push	{r7}
 17384              	.LCFI30:
 17385              		.cfi_def_cfa_offset 4
 17386 0002 83B0     		sub	sp, sp, #12
 17387              	.LCFI31:
 17388              		.cfi_def_cfa_offset 16
 17389 0004 00AF     		add	r7, sp, #0
 17390              		.cfi_offset 7, -4
 17391              	.LCFI32:
 17392              		.cfi_def_cfa_register 7
 17393 0006 7860     		str	r0, [r7, #4]
 17394 0008 0B46     		mov	r3, r1
 17395 000a FB70     		strb	r3, [r7, #3]
 458:../target/stm32/stdperiph/src/stm32f10x_adc.c ****   /* Check the parameters */
 459:../target/stm32/stdperiph/src/stm32f10x_adc.c ****   assert_param(IS_ADC_ALL_PERIPH(ADCx));
 460:../target/stm32/stdperiph/src/stm32f10x_adc.c ****   assert_param(IS_FUNCTIONAL_STATE(NewState));
 461:../target/stm32/stdperiph/src/stm32f10x_adc.c ****   if (NewState != DISABLE)
 17396              		.loc 1 461 0
 17397 000c FB78     		ldrb	r3, [r7, #3]	@ zero_extendqisi2
 17398 000e 002B     		cmp	r3, #0
 17399 0010 06D0     		beq	.L25
 462:../target/stm32/stdperiph/src/stm32f10x_adc.c ****   {
 463:../target/stm32/stdperiph/src/stm32f10x_adc.c ****     /* Enable the selected ADC conversion on external event and start the selected
 464:../target/stm32/stdperiph/src/stm32f10x_adc.c ****        ADC conversion */
 465:../target/stm32/stdperiph/src/stm32f10x_adc.c ****     ADCx->CR2 |= CR2_EXTTRIG_SWSTART_Set;
 17400              		.loc 1 465 0
 17401 0012 7B68     		ldr	r3, [r7, #4]
 17402 0014 9B68     		ldr	r3, [r3, #8]
 17403 0016 43F4A002 		orr	r2, r3, #5242880
 17404 001a 7B68     		ldr	r3, [r7, #4]
 17405 001c 9A60     		str	r2, [r3, #8]
 17406 001e 05E0     		b	.L24
 17407              	.L25:
 466:../target/stm32/stdperiph/src/stm32f10x_adc.c ****   }
 467:../target/stm32/stdperiph/src/stm32f10x_adc.c ****   else
 468:../target/stm32/stdperiph/src/stm32f10x_adc.c ****   {
 469:../target/stm32/stdperiph/src/stm32f10x_adc.c ****     /* Disable the selected ADC conversion on external event and stop the selected
 470:../target/stm32/stdperiph/src/stm32f10x_adc.c ****        ADC conversion */
 471:../target/stm32/stdperiph/src/stm32f10x_adc.c ****     ADCx->CR2 &= CR2_EXTTRIG_SWSTART_Reset;
 17408              		.loc 1 471 0
 17409 0020 7B68     		ldr	r3, [r7, #4]
 17410 0022 9B68     		ldr	r3, [r3, #8]
 17411 0024 23F4A002 		bic	r2, r3, #5242880
 17412 0028 7B68     		ldr	r3, [r7, #4]
 17413 002a 9A60     		str	r2, [r3, #8]
 17414              	.L24:
 472:../target/stm32/stdperiph/src/stm32f10x_adc.c ****   }
 473:../target/stm32/stdperiph/src/stm32f10x_adc.c **** }
 17415              		.loc 1 473 0
 17416 002c 07F10C07 		add	r7, r7, #12
 17417 0030 BD46     		mov	sp, r7
 17418 0032 80BC     		pop	{r7}
 17419 0034 7047     		bx	lr
 17420              		.cfi_endproc
 17421              	.LFE39:
 17423 0036 00BF     		.section	.text.ADC_GetSoftwareStartConvStatus,"ax",%progbits
 17424              		.align	2
 17425              		.global	ADC_GetSoftwareStartConvStatus
 17426              		.thumb
 17427              		.thumb_func
 17429              	ADC_GetSoftwareStartConvStatus:
 17430              	.LFB40:
 474:../target/stm32/stdperiph/src/stm32f10x_adc.c **** 
 475:../target/stm32/stdperiph/src/stm32f10x_adc.c **** /**
 476:../target/stm32/stdperiph/src/stm32f10x_adc.c ****   * @brief  Gets the selected ADC Software start conversion Status.
 477:../target/stm32/stdperiph/src/stm32f10x_adc.c ****   * @param  ADCx: where x can be 1, 2 or 3 to select the ADC peripheral.
 478:../target/stm32/stdperiph/src/stm32f10x_adc.c ****   * @retval The new state of ADC software start conversion (SET or RESET).
 479:../target/stm32/stdperiph/src/stm32f10x_adc.c ****   */
 480:../target/stm32/stdperiph/src/stm32f10x_adc.c **** FlagStatus ADC_GetSoftwareStartConvStatus(ADC_TypeDef* ADCx)
 481:../target/stm32/stdperiph/src/stm32f10x_adc.c **** {
 17431              		.loc 1 481 0
 17432              		.cfi_startproc
 17433              		@ args = 0, pretend = 0, frame = 16
 17434              		@ frame_needed = 1, uses_anonymous_args = 0
 17435              		@ link register save eliminated.
 17436 0000 80B4     		push	{r7}
 17437              	.LCFI33:
 17438              		.cfi_def_cfa_offset 4
 17439 0002 85B0     		sub	sp, sp, #20
 17440              	.LCFI34:
 17441              		.cfi_def_cfa_offset 24
 17442 0004 00AF     		add	r7, sp, #0
 17443              		.cfi_offset 7, -4
 17444              	.LCFI35:
 17445              		.cfi_def_cfa_register 7
 17446 0006 7860     		str	r0, [r7, #4]
 482:../target/stm32/stdperiph/src/stm32f10x_adc.c ****   FlagStatus bitstatus = RESET;
 17447              		.loc 1 482 0
 17448 0008 4FF00003 		mov	r3, #0
 17449 000c FB73     		strb	r3, [r7, #15]
 483:../target/stm32/stdperiph/src/stm32f10x_adc.c ****   /* Check the parameters */
 484:../target/stm32/stdperiph/src/stm32f10x_adc.c ****   assert_param(IS_ADC_ALL_PERIPH(ADCx));
 485:../target/stm32/stdperiph/src/stm32f10x_adc.c ****   /* Check the status of SWSTART bit */
 486:../target/stm32/stdperiph/src/stm32f10x_adc.c ****   if ((ADCx->CR2 & CR2_SWSTART_Set) != (uint32_t)RESET)
 17450              		.loc 1 486 0
 17451 000e 7B68     		ldr	r3, [r7, #4]
 17452 0010 9B68     		ldr	r3, [r3, #8]
 17453 0012 03F48003 		and	r3, r3, #4194304
 17454 0016 002B     		cmp	r3, #0
 17455 0018 03D0     		beq	.L28
 487:../target/stm32/stdperiph/src/stm32f10x_adc.c ****   {
 488:../target/stm32/stdperiph/src/stm32f10x_adc.c ****     /* SWSTART bit is set */
 489:../target/stm32/stdperiph/src/stm32f10x_adc.c ****     bitstatus = SET;
 17456              		.loc 1 489 0
 17457 001a 4FF00103 		mov	r3, #1
 17458 001e FB73     		strb	r3, [r7, #15]
 17459 0020 02E0     		b	.L29
 17460              	.L28:
 490:../target/stm32/stdperiph/src/stm32f10x_adc.c ****   }
 491:../target/stm32/stdperiph/src/stm32f10x_adc.c ****   else
 492:../target/stm32/stdperiph/src/stm32f10x_adc.c ****   {
 493:../target/stm32/stdperiph/src/stm32f10x_adc.c ****     /* SWSTART bit is reset */
 494:../target/stm32/stdperiph/src/stm32f10x_adc.c ****     bitstatus = RESET;
 17461              		.loc 1 494 0
 17462 0022 4FF00003 		mov	r3, #0
 17463 0026 FB73     		strb	r3, [r7, #15]
 17464              	.L29:
 495:../target/stm32/stdperiph/src/stm32f10x_adc.c ****   }
 496:../target/stm32/stdperiph/src/stm32f10x_adc.c ****   /* Return the SWSTART bit status */
 497:../target/stm32/stdperiph/src/stm32f10x_adc.c ****   return  bitstatus;
 17465              		.loc 1 497 0
 17466 0028 FB7B     		ldrb	r3, [r7, #15]	@ zero_extendqisi2
 498:../target/stm32/stdperiph/src/stm32f10x_adc.c **** }
 17467              		.loc 1 498 0
 17468 002a 1846     		mov	r0, r3
 17469 002c 07F11407 		add	r7, r7, #20
 17470 0030 BD46     		mov	sp, r7
 17471 0032 80BC     		pop	{r7}
 17472 0034 7047     		bx	lr
 17473              		.cfi_endproc
 17474              	.LFE40:
 17476 0036 00BF     		.section	.text.ADC_DiscModeChannelCountConfig,"ax",%progbits
 17477              		.align	2
 17478              		.global	ADC_DiscModeChannelCountConfig
 17479              		.thumb
 17480              		.thumb_func
 17482              	ADC_DiscModeChannelCountConfig:
 17483              	.LFB41:
 499:../target/stm32/stdperiph/src/stm32f10x_adc.c **** 
 500:../target/stm32/stdperiph/src/stm32f10x_adc.c **** /**
 501:../target/stm32/stdperiph/src/stm32f10x_adc.c ****   * @brief  Configures the discontinuous mode for the selected ADC regular
 502:../target/stm32/stdperiph/src/stm32f10x_adc.c ****   *   group channel.
 503:../target/stm32/stdperiph/src/stm32f10x_adc.c ****   * @param  ADCx: where x can be 1, 2 or 3 to select the ADC peripheral.
 504:../target/stm32/stdperiph/src/stm32f10x_adc.c ****   * @param  Number: specifies the discontinuous mode regular channel
 505:../target/stm32/stdperiph/src/stm32f10x_adc.c ****   *   count value. This number must be between 1 and 8.
 506:../target/stm32/stdperiph/src/stm32f10x_adc.c ****   * @retval None
 507:../target/stm32/stdperiph/src/stm32f10x_adc.c ****   */
 508:../target/stm32/stdperiph/src/stm32f10x_adc.c **** void ADC_DiscModeChannelCountConfig(ADC_TypeDef* ADCx, uint8_t Number)
 509:../target/stm32/stdperiph/src/stm32f10x_adc.c **** {
 17484              		.loc 1 509 0
 17485              		.cfi_startproc
 17486              		@ args = 0, pretend = 0, frame = 16
 17487              		@ frame_needed = 1, uses_anonymous_args = 0
 17488              		@ link register save eliminated.
 17489 0000 80B4     		push	{r7}
 17490              	.LCFI36:
 17491              		.cfi_def_cfa_offset 4
 17492 0002 85B0     		sub	sp, sp, #20
 17493              	.LCFI37:
 17494              		.cfi_def_cfa_offset 24
 17495 0004 00AF     		add	r7, sp, #0
 17496              		.cfi_offset 7, -4
 17497              	.LCFI38:
 17498              		.cfi_def_cfa_register 7
 17499 0006 7860     		str	r0, [r7, #4]
 17500 0008 0B46     		mov	r3, r1
 17501 000a FB70     		strb	r3, [r7, #3]
 510:../target/stm32/stdperiph/src/stm32f10x_adc.c ****   uint32_t tmpreg1 = 0;
 17502              		.loc 1 510 0
 17503 000c 4FF00003 		mov	r3, #0
 17504 0010 FB60     		str	r3, [r7, #12]
 511:../target/stm32/stdperiph/src/stm32f10x_adc.c ****   uint32_t tmpreg2 = 0;
 17505              		.loc 1 511 0
 17506 0012 4FF00003 		mov	r3, #0
 17507 0016 BB60     		str	r3, [r7, #8]
 512:../target/stm32/stdperiph/src/stm32f10x_adc.c ****   /* Check the parameters */
 513:../target/stm32/stdperiph/src/stm32f10x_adc.c ****   assert_param(IS_ADC_ALL_PERIPH(ADCx));
 514:../target/stm32/stdperiph/src/stm32f10x_adc.c ****   assert_param(IS_ADC_REGULAR_DISC_NUMBER(Number));
 515:../target/stm32/stdperiph/src/stm32f10x_adc.c ****   /* Get the old register value */
 516:../target/stm32/stdperiph/src/stm32f10x_adc.c ****   tmpreg1 = ADCx->CR1;
 17508              		.loc 1 516 0
 17509 0018 7B68     		ldr	r3, [r7, #4]
 17510 001a 5B68     		ldr	r3, [r3, #4]
 17511 001c FB60     		str	r3, [r7, #12]
 517:../target/stm32/stdperiph/src/stm32f10x_adc.c ****   /* Clear the old discontinuous mode channel count */
 518:../target/stm32/stdperiph/src/stm32f10x_adc.c ****   tmpreg1 &= CR1_DISCNUM_Reset;
 17512              		.loc 1 518 0
 17513 001e FB68     		ldr	r3, [r7, #12]
 17514 0020 23F46043 		bic	r3, r3, #57344
 17515 0024 FB60     		str	r3, [r7, #12]
 519:../target/stm32/stdperiph/src/stm32f10x_adc.c ****   /* Set the discontinuous mode channel count */
 520:../target/stm32/stdperiph/src/stm32f10x_adc.c ****   tmpreg2 = Number - 1;
 17516              		.loc 1 520 0
 17517 0026 FB78     		ldrb	r3, [r7, #3]	@ zero_extendqisi2
 17518 0028 03F1FF33 		add	r3, r3, #-1
 17519 002c BB60     		str	r3, [r7, #8]
 521:../target/stm32/stdperiph/src/stm32f10x_adc.c ****   tmpreg1 |= tmpreg2 << 13;
 17520              		.loc 1 521 0
 17521 002e BB68     		ldr	r3, [r7, #8]
 17522 0030 4FEA4333 		lsl	r3, r3, #13
 17523 0034 FA68     		ldr	r2, [r7, #12]
 17524 0036 42EA0303 		orr	r3, r2, r3
 17525 003a FB60     		str	r3, [r7, #12]
 522:../target/stm32/stdperiph/src/stm32f10x_adc.c ****   /* Store the new register value */
 523:../target/stm32/stdperiph/src/stm32f10x_adc.c ****   ADCx->CR1 = tmpreg1;
 17526              		.loc 1 523 0
 17527 003c 7B68     		ldr	r3, [r7, #4]
 17528 003e FA68     		ldr	r2, [r7, #12]
 17529 0040 5A60     		str	r2, [r3, #4]
 524:../target/stm32/stdperiph/src/stm32f10x_adc.c **** }
 17530              		.loc 1 524 0
 17531 0042 07F11407 		add	r7, r7, #20
 17532 0046 BD46     		mov	sp, r7
 17533 0048 80BC     		pop	{r7}
 17534 004a 7047     		bx	lr
 17535              		.cfi_endproc
 17536              	.LFE41:
 17538              		.section	.text.ADC_DiscModeCmd,"ax",%progbits
 17539              		.align	2
 17540              		.global	ADC_DiscModeCmd
 17541              		.thumb
 17542              		.thumb_func
 17544              	ADC_DiscModeCmd:
 17545              	.LFB42:
 525:../target/stm32/stdperiph/src/stm32f10x_adc.c **** 
 526:../target/stm32/stdperiph/src/stm32f10x_adc.c **** /**
 527:../target/stm32/stdperiph/src/stm32f10x_adc.c ****   * @brief  Enables or disables the discontinuous mode on regular group
 528:../target/stm32/stdperiph/src/stm32f10x_adc.c ****   *   channel for the specified ADC
 529:../target/stm32/stdperiph/src/stm32f10x_adc.c ****   * @param  ADCx: where x can be 1, 2 or 3 to select the ADC peripheral.
 530:../target/stm32/stdperiph/src/stm32f10x_adc.c ****   * @param  NewState: new state of the selected ADC discontinuous mode
 531:../target/stm32/stdperiph/src/stm32f10x_adc.c ****   *   on regular group channel.
 532:../target/stm32/stdperiph/src/stm32f10x_adc.c ****   *   This parameter can be: ENABLE or DISABLE.
 533:../target/stm32/stdperiph/src/stm32f10x_adc.c ****   * @retval None
 534:../target/stm32/stdperiph/src/stm32f10x_adc.c ****   */
 535:../target/stm32/stdperiph/src/stm32f10x_adc.c **** void ADC_DiscModeCmd(ADC_TypeDef* ADCx, FunctionalState NewState)
 536:../target/stm32/stdperiph/src/stm32f10x_adc.c **** {
 17546              		.loc 1 536 0
 17547              		.cfi_startproc
 17548              		@ args = 0, pretend = 0, frame = 8
 17549              		@ frame_needed = 1, uses_anonymous_args = 0
 17550              		@ link register save eliminated.
 17551 0000 80B4     		push	{r7}
 17552              	.LCFI39:
 17553              		.cfi_def_cfa_offset 4
 17554 0002 83B0     		sub	sp, sp, #12
 17555              	.LCFI40:
 17556              		.cfi_def_cfa_offset 16
 17557 0004 00AF     		add	r7, sp, #0
 17558              		.cfi_offset 7, -4
 17559              	.LCFI41:
 17560              		.cfi_def_cfa_register 7
 17561 0006 7860     		str	r0, [r7, #4]
 17562 0008 0B46     		mov	r3, r1
 17563 000a FB70     		strb	r3, [r7, #3]
 537:../target/stm32/stdperiph/src/stm32f10x_adc.c ****   /* Check the parameters */
 538:../target/stm32/stdperiph/src/stm32f10x_adc.c ****   assert_param(IS_ADC_ALL_PERIPH(ADCx));
 539:../target/stm32/stdperiph/src/stm32f10x_adc.c ****   assert_param(IS_FUNCTIONAL_STATE(NewState));
 540:../target/stm32/stdperiph/src/stm32f10x_adc.c ****   if (NewState != DISABLE)
 17564              		.loc 1 540 0
 17565 000c FB78     		ldrb	r3, [r7, #3]	@ zero_extendqisi2
 17566 000e 002B     		cmp	r3, #0
 17567 0010 06D0     		beq	.L32
 541:../target/stm32/stdperiph/src/stm32f10x_adc.c ****   {
 542:../target/stm32/stdperiph/src/stm32f10x_adc.c ****     /* Enable the selected ADC regular discontinuous mode */
 543:../target/stm32/stdperiph/src/stm32f10x_adc.c ****     ADCx->CR1 |= CR1_DISCEN_Set;
 17568              		.loc 1 543 0
 17569 0012 7B68     		ldr	r3, [r7, #4]
 17570 0014 5B68     		ldr	r3, [r3, #4]
 17571 0016 43F40062 		orr	r2, r3, #2048
 17572 001a 7B68     		ldr	r3, [r7, #4]
 17573 001c 5A60     		str	r2, [r3, #4]
 17574 001e 05E0     		b	.L31
 17575              	.L32:
 544:../target/stm32/stdperiph/src/stm32f10x_adc.c ****   }
 545:../target/stm32/stdperiph/src/stm32f10x_adc.c ****   else
 546:../target/stm32/stdperiph/src/stm32f10x_adc.c ****   {
 547:../target/stm32/stdperiph/src/stm32f10x_adc.c ****     /* Disable the selected ADC regular discontinuous mode */
 548:../target/stm32/stdperiph/src/stm32f10x_adc.c ****     ADCx->CR1 &= CR1_DISCEN_Reset;
 17576              		.loc 1 548 0
 17577 0020 7B68     		ldr	r3, [r7, #4]
 17578 0022 5B68     		ldr	r3, [r3, #4]
 17579 0024 23F40062 		bic	r2, r3, #2048
 17580 0028 7B68     		ldr	r3, [r7, #4]
 17581 002a 5A60     		str	r2, [r3, #4]
 17582              	.L31:
 549:../target/stm32/stdperiph/src/stm32f10x_adc.c ****   }
 550:../target/stm32/stdperiph/src/stm32f10x_adc.c **** }
 17583              		.loc 1 550 0
 17584 002c 07F10C07 		add	r7, r7, #12
 17585 0030 BD46     		mov	sp, r7
 17586 0032 80BC     		pop	{r7}
 17587 0034 7047     		bx	lr
 17588              		.cfi_endproc
 17589              	.LFE42:
 17591 0036 00BF     		.section	.text.ADC_RegularChannelConfig,"ax",%progbits
 17592              		.align	2
 17593              		.global	ADC_RegularChannelConfig
 17594              		.thumb
 17595              		.thumb_func
 17597              	ADC_RegularChannelConfig:
 17598              	.LFB43:
 551:../target/stm32/stdperiph/src/stm32f10x_adc.c **** 
 552:../target/stm32/stdperiph/src/stm32f10x_adc.c **** /**
 553:../target/stm32/stdperiph/src/stm32f10x_adc.c ****   * @brief  Configures for the selected ADC regular channel its corresponding
 554:../target/stm32/stdperiph/src/stm32f10x_adc.c ****   *   rank in the sequencer and its sample time.
 555:../target/stm32/stdperiph/src/stm32f10x_adc.c ****   * @param  ADCx: where x can be 1, 2 or 3 to select the ADC peripheral.
 556:../target/stm32/stdperiph/src/stm32f10x_adc.c ****   * @param  ADC_Channel: the ADC channel to configure. 
 557:../target/stm32/stdperiph/src/stm32f10x_adc.c ****   *   This parameter can be one of the following values:
 558:../target/stm32/stdperiph/src/stm32f10x_adc.c ****   *     @arg ADC_Channel_0: ADC Channel0 selected
 559:../target/stm32/stdperiph/src/stm32f10x_adc.c ****   *     @arg ADC_Channel_1: ADC Channel1 selected
 560:../target/stm32/stdperiph/src/stm32f10x_adc.c ****   *     @arg ADC_Channel_2: ADC Channel2 selected
 561:../target/stm32/stdperiph/src/stm32f10x_adc.c ****   *     @arg ADC_Channel_3: ADC Channel3 selected
 562:../target/stm32/stdperiph/src/stm32f10x_adc.c ****   *     @arg ADC_Channel_4: ADC Channel4 selected
 563:../target/stm32/stdperiph/src/stm32f10x_adc.c ****   *     @arg ADC_Channel_5: ADC Channel5 selected
 564:../target/stm32/stdperiph/src/stm32f10x_adc.c ****   *     @arg ADC_Channel_6: ADC Channel6 selected
 565:../target/stm32/stdperiph/src/stm32f10x_adc.c ****   *     @arg ADC_Channel_7: ADC Channel7 selected
 566:../target/stm32/stdperiph/src/stm32f10x_adc.c ****   *     @arg ADC_Channel_8: ADC Channel8 selected
 567:../target/stm32/stdperiph/src/stm32f10x_adc.c ****   *     @arg ADC_Channel_9: ADC Channel9 selected
 568:../target/stm32/stdperiph/src/stm32f10x_adc.c ****   *     @arg ADC_Channel_10: ADC Channel10 selected
 569:../target/stm32/stdperiph/src/stm32f10x_adc.c ****   *     @arg ADC_Channel_11: ADC Channel11 selected
 570:../target/stm32/stdperiph/src/stm32f10x_adc.c ****   *     @arg ADC_Channel_12: ADC Channel12 selected
 571:../target/stm32/stdperiph/src/stm32f10x_adc.c ****   *     @arg ADC_Channel_13: ADC Channel13 selected
 572:../target/stm32/stdperiph/src/stm32f10x_adc.c ****   *     @arg ADC_Channel_14: ADC Channel14 selected
 573:../target/stm32/stdperiph/src/stm32f10x_adc.c ****   *     @arg ADC_Channel_15: ADC Channel15 selected
 574:../target/stm32/stdperiph/src/stm32f10x_adc.c ****   *     @arg ADC_Channel_16: ADC Channel16 selected
 575:../target/stm32/stdperiph/src/stm32f10x_adc.c ****   *     @arg ADC_Channel_17: ADC Channel17 selected
 576:../target/stm32/stdperiph/src/stm32f10x_adc.c ****   * @param  Rank: The rank in the regular group sequencer. This parameter must be between 1 to 16.
 577:../target/stm32/stdperiph/src/stm32f10x_adc.c ****   * @param  ADC_SampleTime: The sample time value to be set for the selected channel. 
 578:../target/stm32/stdperiph/src/stm32f10x_adc.c ****   *   This parameter can be one of the following values:
 579:../target/stm32/stdperiph/src/stm32f10x_adc.c ****   *     @arg ADC_SampleTime_1Cycles5: Sample time equal to 1.5 cycles
 580:../target/stm32/stdperiph/src/stm32f10x_adc.c ****   *     @arg ADC_SampleTime_7Cycles5: Sample time equal to 7.5 cycles
 581:../target/stm32/stdperiph/src/stm32f10x_adc.c ****   *     @arg ADC_SampleTime_13Cycles5: Sample time equal to 13.5 cycles
 582:../target/stm32/stdperiph/src/stm32f10x_adc.c ****   *     @arg ADC_SampleTime_28Cycles5: Sample time equal to 28.5 cycles	
 583:../target/stm32/stdperiph/src/stm32f10x_adc.c ****   *     @arg ADC_SampleTime_41Cycles5: Sample time equal to 41.5 cycles	
 584:../target/stm32/stdperiph/src/stm32f10x_adc.c ****   *     @arg ADC_SampleTime_55Cycles5: Sample time equal to 55.5 cycles	
 585:../target/stm32/stdperiph/src/stm32f10x_adc.c ****   *     @arg ADC_SampleTime_71Cycles5: Sample time equal to 71.5 cycles	
 586:../target/stm32/stdperiph/src/stm32f10x_adc.c ****   *     @arg ADC_SampleTime_239Cycles5: Sample time equal to 239.5 cycles	
 587:../target/stm32/stdperiph/src/stm32f10x_adc.c ****   * @retval None
 588:../target/stm32/stdperiph/src/stm32f10x_adc.c ****   */
 589:../target/stm32/stdperiph/src/stm32f10x_adc.c **** void ADC_RegularChannelConfig(ADC_TypeDef* ADCx, uint8_t ADC_Channel, uint8_t Rank, uint8_t ADC_Sam
 590:../target/stm32/stdperiph/src/stm32f10x_adc.c **** {
 17599              		.loc 1 590 0
 17600              		.cfi_startproc
 17601              		@ args = 0, pretend = 0, frame = 16
 17602              		@ frame_needed = 1, uses_anonymous_args = 0
 17603              		@ link register save eliminated.
 17604 0000 80B4     		push	{r7}
 17605              	.LCFI42:
 17606              		.cfi_def_cfa_offset 4
 17607 0002 85B0     		sub	sp, sp, #20
 17608              	.LCFI43:
 17609              		.cfi_def_cfa_offset 24
 17610 0004 00AF     		add	r7, sp, #0
 17611              		.cfi_offset 7, -4
 17612              	.LCFI44:
 17613              		.cfi_def_cfa_register 7
 17614 0006 7860     		str	r0, [r7, #4]
 17615 0008 F970     		strb	r1, [r7, #3]
 17616 000a BA70     		strb	r2, [r7, #2]
 17617 000c 7B70     		strb	r3, [r7, #1]
 591:../target/stm32/stdperiph/src/stm32f10x_adc.c ****   uint32_t tmpreg1 = 0, tmpreg2 = 0;
 17618              		.loc 1 591 0
 17619 000e 4FF00003 		mov	r3, #0
 17620 0012 FB60     		str	r3, [r7, #12]
 17621 0014 4FF00003 		mov	r3, #0
 17622 0018 BB60     		str	r3, [r7, #8]
 592:../target/stm32/stdperiph/src/stm32f10x_adc.c ****   /* Check the parameters */
 593:../target/stm32/stdperiph/src/stm32f10x_adc.c ****   assert_param(IS_ADC_ALL_PERIPH(ADCx));
 594:../target/stm32/stdperiph/src/stm32f10x_adc.c ****   assert_param(IS_ADC_CHANNEL(ADC_Channel));
 595:../target/stm32/stdperiph/src/stm32f10x_adc.c ****   assert_param(IS_ADC_REGULAR_RANK(Rank));
 596:../target/stm32/stdperiph/src/stm32f10x_adc.c ****   assert_param(IS_ADC_SAMPLE_TIME(ADC_SampleTime));
 597:../target/stm32/stdperiph/src/stm32f10x_adc.c ****   /* if ADC_Channel_10 ... ADC_Channel_17 is selected */
 598:../target/stm32/stdperiph/src/stm32f10x_adc.c ****   if (ADC_Channel > ADC_Channel_9)
 17623              		.loc 1 598 0
 17624 001a FB78     		ldrb	r3, [r7, #3]	@ zero_extendqisi2
 17625 001c 092B     		cmp	r3, #9
 17626 001e 29D9     		bls	.L35
 599:../target/stm32/stdperiph/src/stm32f10x_adc.c ****   {
 600:../target/stm32/stdperiph/src/stm32f10x_adc.c ****     /* Get the old register value */
 601:../target/stm32/stdperiph/src/stm32f10x_adc.c ****     tmpreg1 = ADCx->SMPR1;
 17627              		.loc 1 601 0
 17628 0020 7B68     		ldr	r3, [r7, #4]
 17629 0022 DB68     		ldr	r3, [r3, #12]
 17630 0024 FB60     		str	r3, [r7, #12]
 602:../target/stm32/stdperiph/src/stm32f10x_adc.c ****     /* Calculate the mask to clear */
 603:../target/stm32/stdperiph/src/stm32f10x_adc.c ****     tmpreg2 = SMPR1_SMP_Set << (3 * (ADC_Channel - 10));
 17631              		.loc 1 603 0
 17632 0026 FA78     		ldrb	r2, [r7, #3]	@ zero_extendqisi2
 17633 0028 1346     		mov	r3, r2
 17634 002a 4FEA4303 		lsl	r3, r3, #1
 17635 002e 9B18     		adds	r3, r3, r2
 17636 0030 A3F11E03 		sub	r3, r3, #30
 17637 0034 4FF00702 		mov	r2, #7
 17638 0038 02FA03F3 		lsl	r3, r2, r3
 17639 003c BB60     		str	r3, [r7, #8]
 604:../target/stm32/stdperiph/src/stm32f10x_adc.c ****     /* Clear the old channel sample time */
 605:../target/stm32/stdperiph/src/stm32f10x_adc.c ****     tmpreg1 &= ~tmpreg2;
 17640              		.loc 1 605 0
 17641 003e BB68     		ldr	r3, [r7, #8]
 17642 0040 6FEA0303 		mvn	r3, r3
 17643 0044 FA68     		ldr	r2, [r7, #12]
 17644 0046 02EA0303 		and	r3, r2, r3
 17645 004a FB60     		str	r3, [r7, #12]
 606:../target/stm32/stdperiph/src/stm32f10x_adc.c ****     /* Calculate the mask to set */
 607:../target/stm32/stdperiph/src/stm32f10x_adc.c ****     tmpreg2 = (uint32_t)ADC_SampleTime << (3 * (ADC_Channel - 10));
 17646              		.loc 1 607 0
 17647 004c 7978     		ldrb	r1, [r7, #1]	@ zero_extendqisi2
 17648 004e FA78     		ldrb	r2, [r7, #3]	@ zero_extendqisi2
 17649 0050 1346     		mov	r3, r2
 17650 0052 4FEA4303 		lsl	r3, r3, #1
 17651 0056 9B18     		adds	r3, r3, r2
 17652 0058 A3F11E03 		sub	r3, r3, #30
 17653 005c 01FA03F3 		lsl	r3, r1, r3
 17654 0060 BB60     		str	r3, [r7, #8]
 608:../target/stm32/stdperiph/src/stm32f10x_adc.c ****     /* Set the new channel sample time */
 609:../target/stm32/stdperiph/src/stm32f10x_adc.c ****     tmpreg1 |= tmpreg2;
 17655              		.loc 1 609 0
 17656 0062 FA68     		ldr	r2, [r7, #12]
 17657 0064 BB68     		ldr	r3, [r7, #8]
 17658 0066 42EA0303 		orr	r3, r2, r3
 17659 006a FB60     		str	r3, [r7, #12]
 610:../target/stm32/stdperiph/src/stm32f10x_adc.c ****     /* Store the new register value */
 611:../target/stm32/stdperiph/src/stm32f10x_adc.c ****     ADCx->SMPR1 = tmpreg1;
 17660              		.loc 1 611 0
 17661 006c 7B68     		ldr	r3, [r7, #4]
 17662 006e FA68     		ldr	r2, [r7, #12]
 17663 0070 DA60     		str	r2, [r3, #12]
 17664 0072 24E0     		b	.L36
 17665              	.L35:
 612:../target/stm32/stdperiph/src/stm32f10x_adc.c ****   }
 613:../target/stm32/stdperiph/src/stm32f10x_adc.c ****   else /* ADC_Channel include in ADC_Channel_[0..9] */
 614:../target/stm32/stdperiph/src/stm32f10x_adc.c ****   {
 615:../target/stm32/stdperiph/src/stm32f10x_adc.c ****     /* Get the old register value */
 616:../target/stm32/stdperiph/src/stm32f10x_adc.c ****     tmpreg1 = ADCx->SMPR2;
 17666              		.loc 1 616 0
 17667 0074 7B68     		ldr	r3, [r7, #4]
 17668 0076 1B69     		ldr	r3, [r3, #16]
 17669 0078 FB60     		str	r3, [r7, #12]
 617:../target/stm32/stdperiph/src/stm32f10x_adc.c ****     /* Calculate the mask to clear */
 618:../target/stm32/stdperiph/src/stm32f10x_adc.c ****     tmpreg2 = SMPR2_SMP_Set << (3 * ADC_Channel);
 17670              		.loc 1 618 0
 17671 007a FA78     		ldrb	r2, [r7, #3]	@ zero_extendqisi2
 17672 007c 1346     		mov	r3, r2
 17673 007e 4FEA4303 		lsl	r3, r3, #1
 17674 0082 9B18     		adds	r3, r3, r2
 17675 0084 4FF00702 		mov	r2, #7
 17676 0088 02FA03F3 		lsl	r3, r2, r3
 17677 008c BB60     		str	r3, [r7, #8]
 619:../target/stm32/stdperiph/src/stm32f10x_adc.c ****     /* Clear the old channel sample time */
 620:../target/stm32/stdperiph/src/stm32f10x_adc.c ****     tmpreg1 &= ~tmpreg2;
 17678              		.loc 1 620 0
 17679 008e BB68     		ldr	r3, [r7, #8]
 17680 0090 6FEA0303 		mvn	r3, r3
 17681 0094 FA68     		ldr	r2, [r7, #12]
 17682 0096 02EA0303 		and	r3, r2, r3
 17683 009a FB60     		str	r3, [r7, #12]
 621:../target/stm32/stdperiph/src/stm32f10x_adc.c ****     /* Calculate the mask to set */
 622:../target/stm32/stdperiph/src/stm32f10x_adc.c ****     tmpreg2 = (uint32_t)ADC_SampleTime << (3 * ADC_Channel);
 17684              		.loc 1 622 0
 17685 009c 7978     		ldrb	r1, [r7, #1]	@ zero_extendqisi2
 17686 009e FA78     		ldrb	r2, [r7, #3]	@ zero_extendqisi2
 17687 00a0 1346     		mov	r3, r2
 17688 00a2 4FEA4303 		lsl	r3, r3, #1
 17689 00a6 9B18     		adds	r3, r3, r2
 17690 00a8 01FA03F3 		lsl	r3, r1, r3
 17691 00ac BB60     		str	r3, [r7, #8]
 623:../target/stm32/stdperiph/src/stm32f10x_adc.c ****     /* Set the new channel sample time */
 624:../target/stm32/stdperiph/src/stm32f10x_adc.c ****     tmpreg1 |= tmpreg2;
 17692              		.loc 1 624 0
 17693 00ae FA68     		ldr	r2, [r7, #12]
 17694 00b0 BB68     		ldr	r3, [r7, #8]
 17695 00b2 42EA0303 		orr	r3, r2, r3
 17696 00b6 FB60     		str	r3, [r7, #12]
 625:../target/stm32/stdperiph/src/stm32f10x_adc.c ****     /* Store the new register value */
 626:../target/stm32/stdperiph/src/stm32f10x_adc.c ****     ADCx->SMPR2 = tmpreg1;
 17697              		.loc 1 626 0
 17698 00b8 7B68     		ldr	r3, [r7, #4]
 17699 00ba FA68     		ldr	r2, [r7, #12]
 17700 00bc 1A61     		str	r2, [r3, #16]
 17701              	.L36:
 627:../target/stm32/stdperiph/src/stm32f10x_adc.c ****   }
 628:../target/stm32/stdperiph/src/stm32f10x_adc.c ****   /* For Rank 1 to 6 */
 629:../target/stm32/stdperiph/src/stm32f10x_adc.c ****   if (Rank < 7)
 17702              		.loc 1 629 0
 17703 00be BB78     		ldrb	r3, [r7, #2]	@ zero_extendqisi2
 17704 00c0 062B     		cmp	r3, #6
 17705 00c2 29D8     		bhi	.L37
 630:../target/stm32/stdperiph/src/stm32f10x_adc.c ****   {
 631:../target/stm32/stdperiph/src/stm32f10x_adc.c ****     /* Get the old register value */
 632:../target/stm32/stdperiph/src/stm32f10x_adc.c ****     tmpreg1 = ADCx->SQR3;
 17706              		.loc 1 632 0
 17707 00c4 7B68     		ldr	r3, [r7, #4]
 17708 00c6 5B6B     		ldr	r3, [r3, #52]
 17709 00c8 FB60     		str	r3, [r7, #12]
 633:../target/stm32/stdperiph/src/stm32f10x_adc.c ****     /* Calculate the mask to clear */
 634:../target/stm32/stdperiph/src/stm32f10x_adc.c ****     tmpreg2 = SQR3_SQ_Set << (5 * (Rank - 1));
 17710              		.loc 1 634 0
 17711 00ca BB78     		ldrb	r3, [r7, #2]	@ zero_extendqisi2
 17712 00cc 03F1FF32 		add	r2, r3, #-1
 17713 00d0 1346     		mov	r3, r2
 17714 00d2 4FEA8303 		lsl	r3, r3, #2
 17715 00d6 9B18     		adds	r3, r3, r2
 17716 00d8 4FF01F02 		mov	r2, #31
 17717 00dc 02FA03F3 		lsl	r3, r2, r3
 17718 00e0 BB60     		str	r3, [r7, #8]
 635:../target/stm32/stdperiph/src/stm32f10x_adc.c ****     /* Clear the old SQx bits for the selected rank */
 636:../target/stm32/stdperiph/src/stm32f10x_adc.c ****     tmpreg1 &= ~tmpreg2;
 17719              		.loc 1 636 0
 17720 00e2 BB68     		ldr	r3, [r7, #8]
 17721 00e4 6FEA0303 		mvn	r3, r3
 17722 00e8 FA68     		ldr	r2, [r7, #12]
 17723 00ea 02EA0303 		and	r3, r2, r3
 17724 00ee FB60     		str	r3, [r7, #12]
 637:../target/stm32/stdperiph/src/stm32f10x_adc.c ****     /* Calculate the mask to set */
 638:../target/stm32/stdperiph/src/stm32f10x_adc.c ****     tmpreg2 = (uint32_t)ADC_Channel << (5 * (Rank - 1));
 17725              		.loc 1 638 0
 17726 00f0 F978     		ldrb	r1, [r7, #3]	@ zero_extendqisi2
 17727 00f2 BB78     		ldrb	r3, [r7, #2]	@ zero_extendqisi2
 17728 00f4 03F1FF32 		add	r2, r3, #-1
 17729 00f8 1346     		mov	r3, r2
 17730 00fa 4FEA8303 		lsl	r3, r3, #2
 17731 00fe 9B18     		adds	r3, r3, r2
 17732 0100 01FA03F3 		lsl	r3, r1, r3
 17733 0104 BB60     		str	r3, [r7, #8]
 639:../target/stm32/stdperiph/src/stm32f10x_adc.c ****     /* Set the SQx bits for the selected rank */
 640:../target/stm32/stdperiph/src/stm32f10x_adc.c ****     tmpreg1 |= tmpreg2;
 17734              		.loc 1 640 0
 17735 0106 FA68     		ldr	r2, [r7, #12]
 17736 0108 BB68     		ldr	r3, [r7, #8]
 17737 010a 42EA0303 		orr	r3, r2, r3
 17738 010e FB60     		str	r3, [r7, #12]
 641:../target/stm32/stdperiph/src/stm32f10x_adc.c ****     /* Store the new register value */
 642:../target/stm32/stdperiph/src/stm32f10x_adc.c ****     ADCx->SQR3 = tmpreg1;
 17739              		.loc 1 642 0
 17740 0110 7B68     		ldr	r3, [r7, #4]
 17741 0112 FA68     		ldr	r2, [r7, #12]
 17742 0114 5A63     		str	r2, [r3, #52]
 17743 0116 55E0     		b	.L34
 17744              	.L37:
 643:../target/stm32/stdperiph/src/stm32f10x_adc.c ****   }
 644:../target/stm32/stdperiph/src/stm32f10x_adc.c ****   /* For Rank 7 to 12 */
 645:../target/stm32/stdperiph/src/stm32f10x_adc.c ****   else if (Rank < 13)
 17745              		.loc 1 645 0
 17746 0118 BB78     		ldrb	r3, [r7, #2]	@ zero_extendqisi2
 17747 011a 0C2B     		cmp	r3, #12
 17748 011c 29D8     		bhi	.L39
 646:../target/stm32/stdperiph/src/stm32f10x_adc.c ****   {
 647:../target/stm32/stdperiph/src/stm32f10x_adc.c ****     /* Get the old register value */
 648:../target/stm32/stdperiph/src/stm32f10x_adc.c ****     tmpreg1 = ADCx->SQR2;
 17749              		.loc 1 648 0
 17750 011e 7B68     		ldr	r3, [r7, #4]
 17751 0120 1B6B     		ldr	r3, [r3, #48]
 17752 0122 FB60     		str	r3, [r7, #12]
 649:../target/stm32/stdperiph/src/stm32f10x_adc.c ****     /* Calculate the mask to clear */
 650:../target/stm32/stdperiph/src/stm32f10x_adc.c ****     tmpreg2 = SQR2_SQ_Set << (5 * (Rank - 7));
 17753              		.loc 1 650 0
 17754 0124 BA78     		ldrb	r2, [r7, #2]	@ zero_extendqisi2
 17755 0126 1346     		mov	r3, r2
 17756 0128 4FEA8303 		lsl	r3, r3, #2
 17757 012c 9B18     		adds	r3, r3, r2
 17758 012e A3F12303 		sub	r3, r3, #35
 17759 0132 4FF01F02 		mov	r2, #31
 17760 0136 02FA03F3 		lsl	r3, r2, r3
 17761 013a BB60     		str	r3, [r7, #8]
 651:../target/stm32/stdperiph/src/stm32f10x_adc.c ****     /* Clear the old SQx bits for the selected rank */
 652:../target/stm32/stdperiph/src/stm32f10x_adc.c ****     tmpreg1 &= ~tmpreg2;
 17762              		.loc 1 652 0
 17763 013c BB68     		ldr	r3, [r7, #8]
 17764 013e 6FEA0303 		mvn	r3, r3
 17765 0142 FA68     		ldr	r2, [r7, #12]
 17766 0144 02EA0303 		and	r3, r2, r3
 17767 0148 FB60     		str	r3, [r7, #12]
 653:../target/stm32/stdperiph/src/stm32f10x_adc.c ****     /* Calculate the mask to set */
 654:../target/stm32/stdperiph/src/stm32f10x_adc.c ****     tmpreg2 = (uint32_t)ADC_Channel << (5 * (Rank - 7));
 17768              		.loc 1 654 0
 17769 014a F978     		ldrb	r1, [r7, #3]	@ zero_extendqisi2
 17770 014c BA78     		ldrb	r2, [r7, #2]	@ zero_extendqisi2
 17771 014e 1346     		mov	r3, r2
 17772 0150 4FEA8303 		lsl	r3, r3, #2
 17773 0154 9B18     		adds	r3, r3, r2
 17774 0156 A3F12303 		sub	r3, r3, #35
 17775 015a 01FA03F3 		lsl	r3, r1, r3
 17776 015e BB60     		str	r3, [r7, #8]
 655:../target/stm32/stdperiph/src/stm32f10x_adc.c ****     /* Set the SQx bits for the selected rank */
 656:../target/stm32/stdperiph/src/stm32f10x_adc.c ****     tmpreg1 |= tmpreg2;
 17777              		.loc 1 656 0
 17778 0160 FA68     		ldr	r2, [r7, #12]
 17779 0162 BB68     		ldr	r3, [r7, #8]
 17780 0164 42EA0303 		orr	r3, r2, r3
 17781 0168 FB60     		str	r3, [r7, #12]
 657:../target/stm32/stdperiph/src/stm32f10x_adc.c ****     /* Store the new register value */
 658:../target/stm32/stdperiph/src/stm32f10x_adc.c ****     ADCx->SQR2 = tmpreg1;
 17782              		.loc 1 658 0
 17783 016a 7B68     		ldr	r3, [r7, #4]
 17784 016c FA68     		ldr	r2, [r7, #12]
 17785 016e 1A63     		str	r2, [r3, #48]
 17786 0170 28E0     		b	.L34
 17787              	.L39:
 659:../target/stm32/stdperiph/src/stm32f10x_adc.c ****   }
 660:../target/stm32/stdperiph/src/stm32f10x_adc.c ****   /* For Rank 13 to 16 */
 661:../target/stm32/stdperiph/src/stm32f10x_adc.c ****   else
 662:../target/stm32/stdperiph/src/stm32f10x_adc.c ****   {
 663:../target/stm32/stdperiph/src/stm32f10x_adc.c ****     /* Get the old register value */
 664:../target/stm32/stdperiph/src/stm32f10x_adc.c ****     tmpreg1 = ADCx->SQR1;
 17788              		.loc 1 664 0
 17789 0172 7B68     		ldr	r3, [r7, #4]
 17790 0174 DB6A     		ldr	r3, [r3, #44]
 17791 0176 FB60     		str	r3, [r7, #12]
 665:../target/stm32/stdperiph/src/stm32f10x_adc.c ****     /* Calculate the mask to clear */
 666:../target/stm32/stdperiph/src/stm32f10x_adc.c ****     tmpreg2 = SQR1_SQ_Set << (5 * (Rank - 13));
 17792              		.loc 1 666 0
 17793 0178 BA78     		ldrb	r2, [r7, #2]	@ zero_extendqisi2
 17794 017a 1346     		mov	r3, r2
 17795 017c 4FEA8303 		lsl	r3, r3, #2
 17796 0180 9B18     		adds	r3, r3, r2
 17797 0182 A3F14103 		sub	r3, r3, #65
 17798 0186 4FF01F02 		mov	r2, #31
 17799 018a 02FA03F3 		lsl	r3, r2, r3
 17800 018e BB60     		str	r3, [r7, #8]
 667:../target/stm32/stdperiph/src/stm32f10x_adc.c ****     /* Clear the old SQx bits for the selected rank */
 668:../target/stm32/stdperiph/src/stm32f10x_adc.c ****     tmpreg1 &= ~tmpreg2;
 17801              		.loc 1 668 0
 17802 0190 BB68     		ldr	r3, [r7, #8]
 17803 0192 6FEA0303 		mvn	r3, r3
 17804 0196 FA68     		ldr	r2, [r7, #12]
 17805 0198 02EA0303 		and	r3, r2, r3
 17806 019c FB60     		str	r3, [r7, #12]
 669:../target/stm32/stdperiph/src/stm32f10x_adc.c ****     /* Calculate the mask to set */
 670:../target/stm32/stdperiph/src/stm32f10x_adc.c ****     tmpreg2 = (uint32_t)ADC_Channel << (5 * (Rank - 13));
 17807              		.loc 1 670 0
 17808 019e F978     		ldrb	r1, [r7, #3]	@ zero_extendqisi2
 17809 01a0 BA78     		ldrb	r2, [r7, #2]	@ zero_extendqisi2
 17810 01a2 1346     		mov	r3, r2
 17811 01a4 4FEA8303 		lsl	r3, r3, #2
 17812 01a8 9B18     		adds	r3, r3, r2
 17813 01aa A3F14103 		sub	r3, r3, #65
 17814 01ae 01FA03F3 		lsl	r3, r1, r3
 17815 01b2 BB60     		str	r3, [r7, #8]
 671:../target/stm32/stdperiph/src/stm32f10x_adc.c ****     /* Set the SQx bits for the selected rank */
 672:../target/stm32/stdperiph/src/stm32f10x_adc.c ****     tmpreg1 |= tmpreg2;
 17816              		.loc 1 672 0
 17817 01b4 FA68     		ldr	r2, [r7, #12]
 17818 01b6 BB68     		ldr	r3, [r7, #8]
 17819 01b8 42EA0303 		orr	r3, r2, r3
 17820 01bc FB60     		str	r3, [r7, #12]
 673:../target/stm32/stdperiph/src/stm32f10x_adc.c ****     /* Store the new register value */
 674:../target/stm32/stdperiph/src/stm32f10x_adc.c ****     ADCx->SQR1 = tmpreg1;
 17821              		.loc 1 674 0
 17822 01be 7B68     		ldr	r3, [r7, #4]
 17823 01c0 FA68     		ldr	r2, [r7, #12]
 17824 01c2 DA62     		str	r2, [r3, #44]
 17825              	.L34:
 675:../target/stm32/stdperiph/src/stm32f10x_adc.c ****   }
 676:../target/stm32/stdperiph/src/stm32f10x_adc.c **** }
 17826              		.loc 1 676 0
 17827 01c4 07F11407 		add	r7, r7, #20
 17828 01c8 BD46     		mov	sp, r7
 17829 01ca 80BC     		pop	{r7}
 17830 01cc 7047     		bx	lr
 17831              		.cfi_endproc
 17832              	.LFE43:
 17834 01ce 00BF     		.section	.text.ADC_ExternalTrigConvCmd,"ax",%progbits
 17835              		.align	2
 17836              		.global	ADC_ExternalTrigConvCmd
 17837              		.thumb
 17838              		.thumb_func
 17840              	ADC_ExternalTrigConvCmd:
 17841              	.LFB44:
 677:../target/stm32/stdperiph/src/stm32f10x_adc.c **** 
 678:../target/stm32/stdperiph/src/stm32f10x_adc.c **** /**
 679:../target/stm32/stdperiph/src/stm32f10x_adc.c ****   * @brief  Enables or disables the ADCx conversion through external trigger.
 680:../target/stm32/stdperiph/src/stm32f10x_adc.c ****   * @param  ADCx: where x can be 1, 2 or 3 to select the ADC peripheral.
 681:../target/stm32/stdperiph/src/stm32f10x_adc.c ****   * @param  NewState: new state of the selected ADC external trigger start of conversion.
 682:../target/stm32/stdperiph/src/stm32f10x_adc.c ****   *   This parameter can be: ENABLE or DISABLE.
 683:../target/stm32/stdperiph/src/stm32f10x_adc.c ****   * @retval None
 684:../target/stm32/stdperiph/src/stm32f10x_adc.c ****   */
 685:../target/stm32/stdperiph/src/stm32f10x_adc.c **** void ADC_ExternalTrigConvCmd(ADC_TypeDef* ADCx, FunctionalState NewState)
 686:../target/stm32/stdperiph/src/stm32f10x_adc.c **** {
 17842              		.loc 1 686 0
 17843              		.cfi_startproc
 17844              		@ args = 0, pretend = 0, frame = 8
 17845              		@ frame_needed = 1, uses_anonymous_args = 0
 17846              		@ link register save eliminated.
 17847 0000 80B4     		push	{r7}
 17848              	.LCFI45:
 17849              		.cfi_def_cfa_offset 4
 17850 0002 83B0     		sub	sp, sp, #12
 17851              	.LCFI46:
 17852              		.cfi_def_cfa_offset 16
 17853 0004 00AF     		add	r7, sp, #0
 17854              		.cfi_offset 7, -4
 17855              	.LCFI47:
 17856              		.cfi_def_cfa_register 7
 17857 0006 7860     		str	r0, [r7, #4]
 17858 0008 0B46     		mov	r3, r1
 17859 000a FB70     		strb	r3, [r7, #3]
 687:../target/stm32/stdperiph/src/stm32f10x_adc.c ****   /* Check the parameters */
 688:../target/stm32/stdperiph/src/stm32f10x_adc.c ****   assert_param(IS_ADC_ALL_PERIPH(ADCx));
 689:../target/stm32/stdperiph/src/stm32f10x_adc.c ****   assert_param(IS_FUNCTIONAL_STATE(NewState));
 690:../target/stm32/stdperiph/src/stm32f10x_adc.c ****   if (NewState != DISABLE)
 17860              		.loc 1 690 0
 17861 000c FB78     		ldrb	r3, [r7, #3]	@ zero_extendqisi2
 17862 000e 002B     		cmp	r3, #0
 17863 0010 06D0     		beq	.L41
 691:../target/stm32/stdperiph/src/stm32f10x_adc.c ****   {
 692:../target/stm32/stdperiph/src/stm32f10x_adc.c ****     /* Enable the selected ADC conversion on external event */
 693:../target/stm32/stdperiph/src/stm32f10x_adc.c ****     ADCx->CR2 |= CR2_EXTTRIG_Set;
 17864              		.loc 1 693 0
 17865 0012 7B68     		ldr	r3, [r7, #4]
 17866 0014 9B68     		ldr	r3, [r3, #8]
 17867 0016 43F48012 		orr	r2, r3, #1048576
 17868 001a 7B68     		ldr	r3, [r7, #4]
 17869 001c 9A60     		str	r2, [r3, #8]
 17870 001e 05E0     		b	.L40
 17871              	.L41:
 694:../target/stm32/stdperiph/src/stm32f10x_adc.c ****   }
 695:../target/stm32/stdperiph/src/stm32f10x_adc.c ****   else
 696:../target/stm32/stdperiph/src/stm32f10x_adc.c ****   {
 697:../target/stm32/stdperiph/src/stm32f10x_adc.c ****     /* Disable the selected ADC conversion on external event */
 698:../target/stm32/stdperiph/src/stm32f10x_adc.c ****     ADCx->CR2 &= CR2_EXTTRIG_Reset;
 17872              		.loc 1 698 0
 17873 0020 7B68     		ldr	r3, [r7, #4]
 17874 0022 9B68     		ldr	r3, [r3, #8]
 17875 0024 23F48012 		bic	r2, r3, #1048576
 17876 0028 7B68     		ldr	r3, [r7, #4]
 17877 002a 9A60     		str	r2, [r3, #8]
 17878              	.L40:
 699:../target/stm32/stdperiph/src/stm32f10x_adc.c ****   }
 700:../target/stm32/stdperiph/src/stm32f10x_adc.c **** }
 17879              		.loc 1 700 0
 17880 002c 07F10C07 		add	r7, r7, #12
 17881 0030 BD46     		mov	sp, r7
 17882 0032 80BC     		pop	{r7}
 17883 0034 7047     		bx	lr
 17884              		.cfi_endproc
 17885              	.LFE44:
 17887 0036 00BF     		.section	.text.ADC_GetConversionValue,"ax",%progbits
 17888              		.align	2
 17889              		.global	ADC_GetConversionValue
 17890              		.thumb
 17891              		.thumb_func
 17893              	ADC_GetConversionValue:
 17894              	.LFB45:
 701:../target/stm32/stdperiph/src/stm32f10x_adc.c **** 
 702:../target/stm32/stdperiph/src/stm32f10x_adc.c **** /**
 703:../target/stm32/stdperiph/src/stm32f10x_adc.c ****   * @brief  Returns the last ADCx conversion result data for regular channel.
 704:../target/stm32/stdperiph/src/stm32f10x_adc.c ****   * @param  ADCx: where x can be 1, 2 or 3 to select the ADC peripheral.
 705:../target/stm32/stdperiph/src/stm32f10x_adc.c ****   * @retval The Data conversion value.
 706:../target/stm32/stdperiph/src/stm32f10x_adc.c ****   */
 707:../target/stm32/stdperiph/src/stm32f10x_adc.c **** uint16_t ADC_GetConversionValue(ADC_TypeDef* ADCx)
 708:../target/stm32/stdperiph/src/stm32f10x_adc.c **** {
 17895              		.loc 1 708 0
 17896              		.cfi_startproc
 17897              		@ args = 0, pretend = 0, frame = 8
 17898              		@ frame_needed = 1, uses_anonymous_args = 0
 17899              		@ link register save eliminated.
 17900 0000 80B4     		push	{r7}
 17901              	.LCFI48:
 17902              		.cfi_def_cfa_offset 4
 17903 0002 83B0     		sub	sp, sp, #12
 17904              	.LCFI49:
 17905              		.cfi_def_cfa_offset 16
 17906 0004 00AF     		add	r7, sp, #0
 17907              		.cfi_offset 7, -4
 17908              	.LCFI50:
 17909              		.cfi_def_cfa_register 7
 17910 0006 7860     		str	r0, [r7, #4]
 709:../target/stm32/stdperiph/src/stm32f10x_adc.c ****   /* Check the parameters */
 710:../target/stm32/stdperiph/src/stm32f10x_adc.c ****   assert_param(IS_ADC_ALL_PERIPH(ADCx));
 711:../target/stm32/stdperiph/src/stm32f10x_adc.c ****   /* Return the selected ADC conversion value */
 712:../target/stm32/stdperiph/src/stm32f10x_adc.c ****   return (uint16_t) ADCx->DR;
 17911              		.loc 1 712 0
 17912 0008 7B68     		ldr	r3, [r7, #4]
 17913 000a DB6C     		ldr	r3, [r3, #76]
 17914 000c 9BB2     		uxth	r3, r3
 713:../target/stm32/stdperiph/src/stm32f10x_adc.c **** }
 17915              		.loc 1 713 0
 17916 000e 1846     		mov	r0, r3
 17917 0010 07F10C07 		add	r7, r7, #12
 17918 0014 BD46     		mov	sp, r7
 17919 0016 80BC     		pop	{r7}
 17920 0018 7047     		bx	lr
 17921              		.cfi_endproc
 17922              	.LFE45:
 17924 001a 00BF     		.section	.text.ADC_GetDualModeConversionValue,"ax",%progbits
 17925              		.align	2
 17926              		.global	ADC_GetDualModeConversionValue
 17927              		.thumb
 17928              		.thumb_func
 17930              	ADC_GetDualModeConversionValue:
 17931              	.LFB46:
 714:../target/stm32/stdperiph/src/stm32f10x_adc.c **** 
 715:../target/stm32/stdperiph/src/stm32f10x_adc.c **** /**
 716:../target/stm32/stdperiph/src/stm32f10x_adc.c ****   * @brief  Returns the last ADC1 and ADC2 conversion result data in dual mode.
 717:../target/stm32/stdperiph/src/stm32f10x_adc.c ****   * @retval The Data conversion value.
 718:../target/stm32/stdperiph/src/stm32f10x_adc.c ****   */
 719:../target/stm32/stdperiph/src/stm32f10x_adc.c **** uint32_t ADC_GetDualModeConversionValue(void)
 720:../target/stm32/stdperiph/src/stm32f10x_adc.c **** {
 17932              		.loc 1 720 0
 17933              		.cfi_startproc
 17934              		@ args = 0, pretend = 0, frame = 0
 17935              		@ frame_needed = 1, uses_anonymous_args = 0
 17936              		@ link register save eliminated.
 17937 0000 80B4     		push	{r7}
 17938              	.LCFI51:
 17939              		.cfi_def_cfa_offset 4
 17940 0002 00AF     		add	r7, sp, #0
 17941              		.cfi_offset 7, -4
 17942              	.LCFI52:
 17943              		.cfi_def_cfa_register 7
 721:../target/stm32/stdperiph/src/stm32f10x_adc.c ****   /* Return the dual mode conversion value */
 722:../target/stm32/stdperiph/src/stm32f10x_adc.c ****   return (*(__IO uint32_t *) DR_ADDRESS);
 17944              		.loc 1 722 0
 17945 0004 42F24C43 		movw	r3, #9292
 17946 0008 C4F20103 		movt	r3, 16385
 17947 000c 1B68     		ldr	r3, [r3, #0]
 723:../target/stm32/stdperiph/src/stm32f10x_adc.c **** }
 17948              		.loc 1 723 0
 17949 000e 1846     		mov	r0, r3
 17950 0010 BD46     		mov	sp, r7
 17951 0012 80BC     		pop	{r7}
 17952 0014 7047     		bx	lr
 17953              		.cfi_endproc
 17954              	.LFE46:
 17956 0016 00BF     		.section	.text.ADC_AutoInjectedConvCmd,"ax",%progbits
 17957              		.align	2
 17958              		.global	ADC_AutoInjectedConvCmd
 17959              		.thumb
 17960              		.thumb_func
 17962              	ADC_AutoInjectedConvCmd:
 17963              	.LFB47:
 724:../target/stm32/stdperiph/src/stm32f10x_adc.c **** 
 725:../target/stm32/stdperiph/src/stm32f10x_adc.c **** /**
 726:../target/stm32/stdperiph/src/stm32f10x_adc.c ****   * @brief  Enables or disables the selected ADC automatic injected group
 727:../target/stm32/stdperiph/src/stm32f10x_adc.c ****   *   conversion after regular one.
 728:../target/stm32/stdperiph/src/stm32f10x_adc.c ****   * @param  ADCx: where x can be 1, 2 or 3 to select the ADC peripheral.
 729:../target/stm32/stdperiph/src/stm32f10x_adc.c ****   * @param  NewState: new state of the selected ADC auto injected conversion
 730:../target/stm32/stdperiph/src/stm32f10x_adc.c ****   *   This parameter can be: ENABLE or DISABLE.
 731:../target/stm32/stdperiph/src/stm32f10x_adc.c ****   * @retval None
 732:../target/stm32/stdperiph/src/stm32f10x_adc.c ****   */
 733:../target/stm32/stdperiph/src/stm32f10x_adc.c **** void ADC_AutoInjectedConvCmd(ADC_TypeDef* ADCx, FunctionalState NewState)
 734:../target/stm32/stdperiph/src/stm32f10x_adc.c **** {
 17964              		.loc 1 734 0
 17965              		.cfi_startproc
 17966              		@ args = 0, pretend = 0, frame = 8
 17967              		@ frame_needed = 1, uses_anonymous_args = 0
 17968              		@ link register save eliminated.
 17969 0000 80B4     		push	{r7}
 17970              	.LCFI53:
 17971              		.cfi_def_cfa_offset 4
 17972 0002 83B0     		sub	sp, sp, #12
 17973              	.LCFI54:
 17974              		.cfi_def_cfa_offset 16
 17975 0004 00AF     		add	r7, sp, #0
 17976              		.cfi_offset 7, -4
 17977              	.LCFI55:
 17978              		.cfi_def_cfa_register 7
 17979 0006 7860     		str	r0, [r7, #4]
 17980 0008 0B46     		mov	r3, r1
 17981 000a FB70     		strb	r3, [r7, #3]
 735:../target/stm32/stdperiph/src/stm32f10x_adc.c ****   /* Check the parameters */
 736:../target/stm32/stdperiph/src/stm32f10x_adc.c ****   assert_param(IS_ADC_ALL_PERIPH(ADCx));
 737:../target/stm32/stdperiph/src/stm32f10x_adc.c ****   assert_param(IS_FUNCTIONAL_STATE(NewState));
 738:../target/stm32/stdperiph/src/stm32f10x_adc.c ****   if (NewState != DISABLE)
 17982              		.loc 1 738 0
 17983 000c FB78     		ldrb	r3, [r7, #3]	@ zero_extendqisi2
 17984 000e 002B     		cmp	r3, #0
 17985 0010 06D0     		beq	.L46
 739:../target/stm32/stdperiph/src/stm32f10x_adc.c ****   {
 740:../target/stm32/stdperiph/src/stm32f10x_adc.c ****     /* Enable the selected ADC automatic injected group conversion */
 741:../target/stm32/stdperiph/src/stm32f10x_adc.c ****     ADCx->CR1 |= CR1_JAUTO_Set;
 17986              		.loc 1 741 0
 17987 0012 7B68     		ldr	r3, [r7, #4]
 17988 0014 5B68     		ldr	r3, [r3, #4]
 17989 0016 43F48062 		orr	r2, r3, #1024
 17990 001a 7B68     		ldr	r3, [r7, #4]
 17991 001c 5A60     		str	r2, [r3, #4]
 17992 001e 05E0     		b	.L45
 17993              	.L46:
 742:../target/stm32/stdperiph/src/stm32f10x_adc.c ****   }
 743:../target/stm32/stdperiph/src/stm32f10x_adc.c ****   else
 744:../target/stm32/stdperiph/src/stm32f10x_adc.c ****   {
 745:../target/stm32/stdperiph/src/stm32f10x_adc.c ****     /* Disable the selected ADC automatic injected group conversion */
 746:../target/stm32/stdperiph/src/stm32f10x_adc.c ****     ADCx->CR1 &= CR1_JAUTO_Reset;
 17994              		.loc 1 746 0
 17995 0020 7B68     		ldr	r3, [r7, #4]
 17996 0022 5B68     		ldr	r3, [r3, #4]
 17997 0024 23F48062 		bic	r2, r3, #1024
 17998 0028 7B68     		ldr	r3, [r7, #4]
 17999 002a 5A60     		str	r2, [r3, #4]
 18000              	.L45:
 747:../target/stm32/stdperiph/src/stm32f10x_adc.c ****   }
 748:../target/stm32/stdperiph/src/stm32f10x_adc.c **** }
 18001              		.loc 1 748 0
 18002 002c 07F10C07 		add	r7, r7, #12
 18003 0030 BD46     		mov	sp, r7
 18004 0032 80BC     		pop	{r7}
 18005 0034 7047     		bx	lr
 18006              		.cfi_endproc
 18007              	.LFE47:
 18009 0036 00BF     		.section	.text.ADC_InjectedDiscModeCmd,"ax",%progbits
 18010              		.align	2
 18011              		.global	ADC_InjectedDiscModeCmd
 18012              		.thumb
 18013              		.thumb_func
 18015              	ADC_InjectedDiscModeCmd:
 18016              	.LFB48:
 749:../target/stm32/stdperiph/src/stm32f10x_adc.c **** 
 750:../target/stm32/stdperiph/src/stm32f10x_adc.c **** /**
 751:../target/stm32/stdperiph/src/stm32f10x_adc.c ****   * @brief  Enables or disables the discontinuous mode for injected group
 752:../target/stm32/stdperiph/src/stm32f10x_adc.c ****   *   channel for the specified ADC
 753:../target/stm32/stdperiph/src/stm32f10x_adc.c ****   * @param  ADCx: where x can be 1, 2 or 3 to select the ADC peripheral.
 754:../target/stm32/stdperiph/src/stm32f10x_adc.c ****   * @param  NewState: new state of the selected ADC discontinuous mode
 755:../target/stm32/stdperiph/src/stm32f10x_adc.c ****   *   on injected group channel.
 756:../target/stm32/stdperiph/src/stm32f10x_adc.c ****   *   This parameter can be: ENABLE or DISABLE.
 757:../target/stm32/stdperiph/src/stm32f10x_adc.c ****   * @retval None
 758:../target/stm32/stdperiph/src/stm32f10x_adc.c ****   */
 759:../target/stm32/stdperiph/src/stm32f10x_adc.c **** void ADC_InjectedDiscModeCmd(ADC_TypeDef* ADCx, FunctionalState NewState)
 760:../target/stm32/stdperiph/src/stm32f10x_adc.c **** {
 18017              		.loc 1 760 0
 18018              		.cfi_startproc
 18019              		@ args = 0, pretend = 0, frame = 8
 18020              		@ frame_needed = 1, uses_anonymous_args = 0
 18021              		@ link register save eliminated.
 18022 0000 80B4     		push	{r7}
 18023              	.LCFI56:
 18024              		.cfi_def_cfa_offset 4
 18025 0002 83B0     		sub	sp, sp, #12
 18026              	.LCFI57:
 18027              		.cfi_def_cfa_offset 16
 18028 0004 00AF     		add	r7, sp, #0
 18029              		.cfi_offset 7, -4
 18030              	.LCFI58:
 18031              		.cfi_def_cfa_register 7
 18032 0006 7860     		str	r0, [r7, #4]
 18033 0008 0B46     		mov	r3, r1
 18034 000a FB70     		strb	r3, [r7, #3]
 761:../target/stm32/stdperiph/src/stm32f10x_adc.c ****   /* Check the parameters */
 762:../target/stm32/stdperiph/src/stm32f10x_adc.c ****   assert_param(IS_ADC_ALL_PERIPH(ADCx));
 763:../target/stm32/stdperiph/src/stm32f10x_adc.c ****   assert_param(IS_FUNCTIONAL_STATE(NewState));
 764:../target/stm32/stdperiph/src/stm32f10x_adc.c ****   if (NewState != DISABLE)
 18035              		.loc 1 764 0
 18036 000c FB78     		ldrb	r3, [r7, #3]	@ zero_extendqisi2
 18037 000e 002B     		cmp	r3, #0
 18038 0010 06D0     		beq	.L49
 765:../target/stm32/stdperiph/src/stm32f10x_adc.c ****   {
 766:../target/stm32/stdperiph/src/stm32f10x_adc.c ****     /* Enable the selected ADC injected discontinuous mode */
 767:../target/stm32/stdperiph/src/stm32f10x_adc.c ****     ADCx->CR1 |= CR1_JDISCEN_Set;
 18039              		.loc 1 767 0
 18040 0012 7B68     		ldr	r3, [r7, #4]
 18041 0014 5B68     		ldr	r3, [r3, #4]
 18042 0016 43F48052 		orr	r2, r3, #4096
 18043 001a 7B68     		ldr	r3, [r7, #4]
 18044 001c 5A60     		str	r2, [r3, #4]
 18045 001e 05E0     		b	.L48
 18046              	.L49:
 768:../target/stm32/stdperiph/src/stm32f10x_adc.c ****   }
 769:../target/stm32/stdperiph/src/stm32f10x_adc.c ****   else
 770:../target/stm32/stdperiph/src/stm32f10x_adc.c ****   {
 771:../target/stm32/stdperiph/src/stm32f10x_adc.c ****     /* Disable the selected ADC injected discontinuous mode */
 772:../target/stm32/stdperiph/src/stm32f10x_adc.c ****     ADCx->CR1 &= CR1_JDISCEN_Reset;
 18047              		.loc 1 772 0
 18048 0020 7B68     		ldr	r3, [r7, #4]
 18049 0022 5B68     		ldr	r3, [r3, #4]
 18050 0024 23F48052 		bic	r2, r3, #4096
 18051 0028 7B68     		ldr	r3, [r7, #4]
 18052 002a 5A60     		str	r2, [r3, #4]
 18053              	.L48:
 773:../target/stm32/stdperiph/src/stm32f10x_adc.c ****   }
 774:../target/stm32/stdperiph/src/stm32f10x_adc.c **** }
 18054              		.loc 1 774 0
 18055 002c 07F10C07 		add	r7, r7, #12
 18056 0030 BD46     		mov	sp, r7
 18057 0032 80BC     		pop	{r7}
 18058 0034 7047     		bx	lr
 18059              		.cfi_endproc
 18060              	.LFE48:
 18062 0036 00BF     		.section	.text.ADC_ExternalTrigInjectedConvConfig,"ax",%progbits
 18063              		.align	2
 18064              		.global	ADC_ExternalTrigInjectedConvConfig
 18065              		.thumb
 18066              		.thumb_func
 18068              	ADC_ExternalTrigInjectedConvConfig:
 18069              	.LFB49:
 775:../target/stm32/stdperiph/src/stm32f10x_adc.c **** 
 776:../target/stm32/stdperiph/src/stm32f10x_adc.c **** /**
 777:../target/stm32/stdperiph/src/stm32f10x_adc.c ****   * @brief  Configures the ADCx external trigger for injected channels conversion.
 778:../target/stm32/stdperiph/src/stm32f10x_adc.c ****   * @param  ADCx: where x can be 1, 2 or 3 to select the ADC peripheral.
 779:../target/stm32/stdperiph/src/stm32f10x_adc.c ****   * @param  ADC_ExternalTrigInjecConv: specifies the ADC trigger to start injected conversion. 
 780:../target/stm32/stdperiph/src/stm32f10x_adc.c ****   *   This parameter can be one of the following values:
 781:../target/stm32/stdperiph/src/stm32f10x_adc.c ****   *     @arg ADC_ExternalTrigInjecConv_T1_TRGO: Timer1 TRGO event selected (for ADC1, ADC2 and ADC3
 782:../target/stm32/stdperiph/src/stm32f10x_adc.c ****   *     @arg ADC_ExternalTrigInjecConv_T1_CC4: Timer1 capture compare4 selected (for ADC1, ADC2 and
 783:../target/stm32/stdperiph/src/stm32f10x_adc.c ****   *     @arg ADC_ExternalTrigInjecConv_T2_TRGO: Timer2 TRGO event selected (for ADC1 and ADC2)
 784:../target/stm32/stdperiph/src/stm32f10x_adc.c ****   *     @arg ADC_ExternalTrigInjecConv_T2_CC1: Timer2 capture compare1 selected (for ADC1 and ADC2)
 785:../target/stm32/stdperiph/src/stm32f10x_adc.c ****   *     @arg ADC_ExternalTrigInjecConv_T3_CC4: Timer3 capture compare4 selected (for ADC1 and ADC2)
 786:../target/stm32/stdperiph/src/stm32f10x_adc.c ****   *     @arg ADC_ExternalTrigInjecConv_T4_TRGO: Timer4 TRGO event selected (for ADC1 and ADC2)
 787:../target/stm32/stdperiph/src/stm32f10x_adc.c ****   *     @arg ADC_ExternalTrigInjecConv_Ext_IT15_TIM8_CC4: External interrupt line 15 or Timer8
 788:../target/stm32/stdperiph/src/stm32f10x_adc.c ****   *                                                       capture compare4 event selected (for ADC1
 789:../target/stm32/stdperiph/src/stm32f10x_adc.c ****   *     @arg ADC_ExternalTrigInjecConv_T4_CC3: Timer4 capture compare3 selected (for ADC3 only)
 790:../target/stm32/stdperiph/src/stm32f10x_adc.c ****   *     @arg ADC_ExternalTrigInjecConv_T8_CC2: Timer8 capture compare2 selected (for ADC3 only)    
 791:../target/stm32/stdperiph/src/stm32f10x_adc.c ****   *     @arg ADC_ExternalTrigInjecConv_T8_CC4: Timer8 capture compare4 selected (for ADC3 only)
 792:../target/stm32/stdperiph/src/stm32f10x_adc.c ****   *     @arg ADC_ExternalTrigInjecConv_T5_TRGO: Timer5 TRGO event selected (for ADC3 only)         
 793:../target/stm32/stdperiph/src/stm32f10x_adc.c ****   *     @arg ADC_ExternalTrigInjecConv_T5_CC4: Timer5 capture compare4 selected (for ADC3 only)    
 794:../target/stm32/stdperiph/src/stm32f10x_adc.c ****   *     @arg ADC_ExternalTrigInjecConv_None: Injected conversion started by software and not
 795:../target/stm32/stdperiph/src/stm32f10x_adc.c ****   *                                          by external trigger (for ADC1, ADC2 and ADC3)
 796:../target/stm32/stdperiph/src/stm32f10x_adc.c ****   * @retval None
 797:../target/stm32/stdperiph/src/stm32f10x_adc.c ****   */
 798:../target/stm32/stdperiph/src/stm32f10x_adc.c **** void ADC_ExternalTrigInjectedConvConfig(ADC_TypeDef* ADCx, uint32_t ADC_ExternalTrigInjecConv)
 799:../target/stm32/stdperiph/src/stm32f10x_adc.c **** {
 18070              		.loc 1 799 0
 18071              		.cfi_startproc
 18072              		@ args = 0, pretend = 0, frame = 16
 18073              		@ frame_needed = 1, uses_anonymous_args = 0
 18074              		@ link register save eliminated.
 18075 0000 80B4     		push	{r7}
 18076              	.LCFI59:
 18077              		.cfi_def_cfa_offset 4
 18078 0002 85B0     		sub	sp, sp, #20
 18079              	.LCFI60:
 18080              		.cfi_def_cfa_offset 24
 18081 0004 00AF     		add	r7, sp, #0
 18082              		.cfi_offset 7, -4
 18083              	.LCFI61:
 18084              		.cfi_def_cfa_register 7
 18085 0006 7860     		str	r0, [r7, #4]
 18086 0008 3960     		str	r1, [r7, #0]
 800:../target/stm32/stdperiph/src/stm32f10x_adc.c ****   uint32_t tmpreg = 0;
 18087              		.loc 1 800 0
 18088 000a 4FF00003 		mov	r3, #0
 18089 000e FB60     		str	r3, [r7, #12]
 801:../target/stm32/stdperiph/src/stm32f10x_adc.c ****   /* Check the parameters */
 802:../target/stm32/stdperiph/src/stm32f10x_adc.c ****   assert_param(IS_ADC_ALL_PERIPH(ADCx));
 803:../target/stm32/stdperiph/src/stm32f10x_adc.c ****   assert_param(IS_ADC_EXT_INJEC_TRIG(ADC_ExternalTrigInjecConv));
 804:../target/stm32/stdperiph/src/stm32f10x_adc.c ****   /* Get the old register value */
 805:../target/stm32/stdperiph/src/stm32f10x_adc.c ****   tmpreg = ADCx->CR2;
 18090              		.loc 1 805 0
 18091 0010 7B68     		ldr	r3, [r7, #4]
 18092 0012 9B68     		ldr	r3, [r3, #8]
 18093 0014 FB60     		str	r3, [r7, #12]
 806:../target/stm32/stdperiph/src/stm32f10x_adc.c ****   /* Clear the old external event selection for injected group */
 807:../target/stm32/stdperiph/src/stm32f10x_adc.c ****   tmpreg &= CR2_JEXTSEL_Reset;
 18094              		.loc 1 807 0
 18095 0016 FB68     		ldr	r3, [r7, #12]
 18096 0018 23F4E043 		bic	r3, r3, #28672
 18097 001c FB60     		str	r3, [r7, #12]
 808:../target/stm32/stdperiph/src/stm32f10x_adc.c ****   /* Set the external event selection for injected group */
 809:../target/stm32/stdperiph/src/stm32f10x_adc.c ****   tmpreg |= ADC_ExternalTrigInjecConv;
 18098              		.loc 1 809 0
 18099 001e FA68     		ldr	r2, [r7, #12]
 18100 0020 3B68     		ldr	r3, [r7, #0]
 18101 0022 42EA0303 		orr	r3, r2, r3
 18102 0026 FB60     		str	r3, [r7, #12]
 810:../target/stm32/stdperiph/src/stm32f10x_adc.c ****   /* Store the new register value */
 811:../target/stm32/stdperiph/src/stm32f10x_adc.c ****   ADCx->CR2 = tmpreg;
 18103              		.loc 1 811 0
 18104 0028 7B68     		ldr	r3, [r7, #4]
 18105 002a FA68     		ldr	r2, [r7, #12]
 18106 002c 9A60     		str	r2, [r3, #8]
 812:../target/stm32/stdperiph/src/stm32f10x_adc.c **** }
 18107              		.loc 1 812 0
 18108 002e 07F11407 		add	r7, r7, #20
 18109 0032 BD46     		mov	sp, r7
 18110 0034 80BC     		pop	{r7}
 18111 0036 7047     		bx	lr
 18112              		.cfi_endproc
 18113              	.LFE49:
 18115              		.section	.text.ADC_ExternalTrigInjectedConvCmd,"ax",%progbits
 18116              		.align	2
 18117              		.global	ADC_ExternalTrigInjectedConvCmd
 18118              		.thumb
 18119              		.thumb_func
 18121              	ADC_ExternalTrigInjectedConvCmd:
 18122              	.LFB50:
 813:../target/stm32/stdperiph/src/stm32f10x_adc.c **** 
 814:../target/stm32/stdperiph/src/stm32f10x_adc.c **** /**
 815:../target/stm32/stdperiph/src/stm32f10x_adc.c ****   * @brief  Enables or disables the ADCx injected channels conversion through
 816:../target/stm32/stdperiph/src/stm32f10x_adc.c ****   *   external trigger
 817:../target/stm32/stdperiph/src/stm32f10x_adc.c ****   * @param  ADCx: where x can be 1, 2 or 3 to select the ADC peripheral.
 818:../target/stm32/stdperiph/src/stm32f10x_adc.c ****   * @param  NewState: new state of the selected ADC external trigger start of
 819:../target/stm32/stdperiph/src/stm32f10x_adc.c ****   *   injected conversion.
 820:../target/stm32/stdperiph/src/stm32f10x_adc.c ****   *   This parameter can be: ENABLE or DISABLE.
 821:../target/stm32/stdperiph/src/stm32f10x_adc.c ****   * @retval None
 822:../target/stm32/stdperiph/src/stm32f10x_adc.c ****   */
 823:../target/stm32/stdperiph/src/stm32f10x_adc.c **** void ADC_ExternalTrigInjectedConvCmd(ADC_TypeDef* ADCx, FunctionalState NewState)
 824:../target/stm32/stdperiph/src/stm32f10x_adc.c **** {
 18123              		.loc 1 824 0
 18124              		.cfi_startproc
 18125              		@ args = 0, pretend = 0, frame = 8
 18126              		@ frame_needed = 1, uses_anonymous_args = 0
 18127              		@ link register save eliminated.
 18128 0000 80B4     		push	{r7}
 18129              	.LCFI62:
 18130              		.cfi_def_cfa_offset 4
 18131 0002 83B0     		sub	sp, sp, #12
 18132              	.LCFI63:
 18133              		.cfi_def_cfa_offset 16
 18134 0004 00AF     		add	r7, sp, #0
 18135              		.cfi_offset 7, -4
 18136              	.LCFI64:
 18137              		.cfi_def_cfa_register 7
 18138 0006 7860     		str	r0, [r7, #4]
 18139 0008 0B46     		mov	r3, r1
 18140 000a FB70     		strb	r3, [r7, #3]
 825:../target/stm32/stdperiph/src/stm32f10x_adc.c ****   /* Check the parameters */
 826:../target/stm32/stdperiph/src/stm32f10x_adc.c ****   assert_param(IS_ADC_ALL_PERIPH(ADCx));
 827:../target/stm32/stdperiph/src/stm32f10x_adc.c ****   assert_param(IS_FUNCTIONAL_STATE(NewState));
 828:../target/stm32/stdperiph/src/stm32f10x_adc.c ****   if (NewState != DISABLE)
 18141              		.loc 1 828 0
 18142 000c FB78     		ldrb	r3, [r7, #3]	@ zero_extendqisi2
 18143 000e 002B     		cmp	r3, #0
 18144 0010 06D0     		beq	.L53
 829:../target/stm32/stdperiph/src/stm32f10x_adc.c ****   {
 830:../target/stm32/stdperiph/src/stm32f10x_adc.c ****     /* Enable the selected ADC external event selection for injected group */
 831:../target/stm32/stdperiph/src/stm32f10x_adc.c ****     ADCx->CR2 |= CR2_JEXTTRIG_Set;
 18145              		.loc 1 831 0
 18146 0012 7B68     		ldr	r3, [r7, #4]
 18147 0014 9B68     		ldr	r3, [r3, #8]
 18148 0016 43F40042 		orr	r2, r3, #32768
 18149 001a 7B68     		ldr	r3, [r7, #4]
 18150 001c 9A60     		str	r2, [r3, #8]
 18151 001e 05E0     		b	.L52
 18152              	.L53:
 832:../target/stm32/stdperiph/src/stm32f10x_adc.c ****   }
 833:../target/stm32/stdperiph/src/stm32f10x_adc.c ****   else
 834:../target/stm32/stdperiph/src/stm32f10x_adc.c ****   {
 835:../target/stm32/stdperiph/src/stm32f10x_adc.c ****     /* Disable the selected ADC external event selection for injected group */
 836:../target/stm32/stdperiph/src/stm32f10x_adc.c ****     ADCx->CR2 &= CR2_JEXTTRIG_Reset;
 18153              		.loc 1 836 0
 18154 0020 7B68     		ldr	r3, [r7, #4]
 18155 0022 9B68     		ldr	r3, [r3, #8]
 18156 0024 23F40042 		bic	r2, r3, #32768
 18157 0028 7B68     		ldr	r3, [r7, #4]
 18158 002a 9A60     		str	r2, [r3, #8]
 18159              	.L52:
 837:../target/stm32/stdperiph/src/stm32f10x_adc.c ****   }
 838:../target/stm32/stdperiph/src/stm32f10x_adc.c **** }
 18160              		.loc 1 838 0
 18161 002c 07F10C07 		add	r7, r7, #12
 18162 0030 BD46     		mov	sp, r7
 18163 0032 80BC     		pop	{r7}
 18164 0034 7047     		bx	lr
 18165              		.cfi_endproc
 18166              	.LFE50:
 18168 0036 00BF     		.section	.text.ADC_SoftwareStartInjectedConvCmd,"ax",%progbits
 18169              		.align	2
 18170              		.global	ADC_SoftwareStartInjectedConvCmd
 18171              		.thumb
 18172              		.thumb_func
 18174              	ADC_SoftwareStartInjectedConvCmd:
 18175              	.LFB51:
 839:../target/stm32/stdperiph/src/stm32f10x_adc.c **** 
 840:../target/stm32/stdperiph/src/stm32f10x_adc.c **** /**
 841:../target/stm32/stdperiph/src/stm32f10x_adc.c ****   * @brief  Enables or disables the selected ADC start of the injected 
 842:../target/stm32/stdperiph/src/stm32f10x_adc.c ****   *   channels conversion.
 843:../target/stm32/stdperiph/src/stm32f10x_adc.c ****   * @param  ADCx: where x can be 1, 2 or 3 to select the ADC peripheral.
 844:../target/stm32/stdperiph/src/stm32f10x_adc.c ****   * @param  NewState: new state of the selected ADC software start injected conversion.
 845:../target/stm32/stdperiph/src/stm32f10x_adc.c ****   *   This parameter can be: ENABLE or DISABLE.
 846:../target/stm32/stdperiph/src/stm32f10x_adc.c ****   * @retval None
 847:../target/stm32/stdperiph/src/stm32f10x_adc.c ****   */
 848:../target/stm32/stdperiph/src/stm32f10x_adc.c **** void ADC_SoftwareStartInjectedConvCmd(ADC_TypeDef* ADCx, FunctionalState NewState)
 849:../target/stm32/stdperiph/src/stm32f10x_adc.c **** {
 18176              		.loc 1 849 0
 18177              		.cfi_startproc
 18178              		@ args = 0, pretend = 0, frame = 8
 18179              		@ frame_needed = 1, uses_anonymous_args = 0
 18180              		@ link register save eliminated.
 18181 0000 80B4     		push	{r7}
 18182              	.LCFI65:
 18183              		.cfi_def_cfa_offset 4
 18184 0002 83B0     		sub	sp, sp, #12
 18185              	.LCFI66:
 18186              		.cfi_def_cfa_offset 16
 18187 0004 00AF     		add	r7, sp, #0
 18188              		.cfi_offset 7, -4
 18189              	.LCFI67:
 18190              		.cfi_def_cfa_register 7
 18191 0006 7860     		str	r0, [r7, #4]
 18192 0008 0B46     		mov	r3, r1
 18193 000a FB70     		strb	r3, [r7, #3]
 850:../target/stm32/stdperiph/src/stm32f10x_adc.c ****   /* Check the parameters */
 851:../target/stm32/stdperiph/src/stm32f10x_adc.c ****   assert_param(IS_ADC_ALL_PERIPH(ADCx));
 852:../target/stm32/stdperiph/src/stm32f10x_adc.c ****   assert_param(IS_FUNCTIONAL_STATE(NewState));
 853:../target/stm32/stdperiph/src/stm32f10x_adc.c ****   if (NewState != DISABLE)
 18194              		.loc 1 853 0
 18195 000c FB78     		ldrb	r3, [r7, #3]	@ zero_extendqisi2
 18196 000e 002B     		cmp	r3, #0
 18197 0010 06D0     		beq	.L56
 854:../target/stm32/stdperiph/src/stm32f10x_adc.c ****   {
 855:../target/stm32/stdperiph/src/stm32f10x_adc.c ****     /* Enable the selected ADC conversion for injected group on external event and start the select
 856:../target/stm32/stdperiph/src/stm32f10x_adc.c ****        ADC injected conversion */
 857:../target/stm32/stdperiph/src/stm32f10x_adc.c ****     ADCx->CR2 |= CR2_JEXTTRIG_JSWSTART_Set;
 18198              		.loc 1 857 0
 18199 0012 7B68     		ldr	r3, [r7, #4]
 18200 0014 9B68     		ldr	r3, [r3, #8]
 18201 0016 43F40212 		orr	r2, r3, #2129920
 18202 001a 7B68     		ldr	r3, [r7, #4]
 18203 001c 9A60     		str	r2, [r3, #8]
 18204 001e 05E0     		b	.L55
 18205              	.L56:
 858:../target/stm32/stdperiph/src/stm32f10x_adc.c ****   }
 859:../target/stm32/stdperiph/src/stm32f10x_adc.c ****   else
 860:../target/stm32/stdperiph/src/stm32f10x_adc.c ****   {
 861:../target/stm32/stdperiph/src/stm32f10x_adc.c ****     /* Disable the selected ADC conversion on external event for injected group and stop the select
 862:../target/stm32/stdperiph/src/stm32f10x_adc.c ****        ADC injected conversion */
 863:../target/stm32/stdperiph/src/stm32f10x_adc.c ****     ADCx->CR2 &= CR2_JEXTTRIG_JSWSTART_Reset;
 18206              		.loc 1 863 0
 18207 0020 7B68     		ldr	r3, [r7, #4]
 18208 0022 9B68     		ldr	r3, [r3, #8]
 18209 0024 23F40212 		bic	r2, r3, #2129920
 18210 0028 7B68     		ldr	r3, [r7, #4]
 18211 002a 9A60     		str	r2, [r3, #8]
 18212              	.L55:
 864:../target/stm32/stdperiph/src/stm32f10x_adc.c ****   }
 865:../target/stm32/stdperiph/src/stm32f10x_adc.c **** }
 18213              		.loc 1 865 0
 18214 002c 07F10C07 		add	r7, r7, #12
 18215 0030 BD46     		mov	sp, r7
 18216 0032 80BC     		pop	{r7}
 18217 0034 7047     		bx	lr
 18218              		.cfi_endproc
 18219              	.LFE51:
 18221 0036 00BF     		.section	.text.ADC_GetSoftwareStartInjectedConvCmdStatus,"ax",%progbits
 18222              		.align	2
 18223              		.global	ADC_GetSoftwareStartInjectedConvCmdStatus
 18224              		.thumb
 18225              		.thumb_func
 18227              	ADC_GetSoftwareStartInjectedConvCmdStatus:
 18228              	.LFB52:
 866:../target/stm32/stdperiph/src/stm32f10x_adc.c **** 
 867:../target/stm32/stdperiph/src/stm32f10x_adc.c **** /**
 868:../target/stm32/stdperiph/src/stm32f10x_adc.c ****   * @brief  Gets the selected ADC Software start injected conversion Status.
 869:../target/stm32/stdperiph/src/stm32f10x_adc.c ****   * @param  ADCx: where x can be 1, 2 or 3 to select the ADC peripheral.
 870:../target/stm32/stdperiph/src/stm32f10x_adc.c ****   * @retval The new state of ADC software start injected conversion (SET or RESET).
 871:../target/stm32/stdperiph/src/stm32f10x_adc.c ****   */
 872:../target/stm32/stdperiph/src/stm32f10x_adc.c **** FlagStatus ADC_GetSoftwareStartInjectedConvCmdStatus(ADC_TypeDef* ADCx)
 873:../target/stm32/stdperiph/src/stm32f10x_adc.c **** {
 18229              		.loc 1 873 0
 18230              		.cfi_startproc
 18231              		@ args = 0, pretend = 0, frame = 16
 18232              		@ frame_needed = 1, uses_anonymous_args = 0
 18233              		@ link register save eliminated.
 18234 0000 80B4     		push	{r7}
 18235              	.LCFI68:
 18236              		.cfi_def_cfa_offset 4
 18237 0002 85B0     		sub	sp, sp, #20
 18238              	.LCFI69:
 18239              		.cfi_def_cfa_offset 24
 18240 0004 00AF     		add	r7, sp, #0
 18241              		.cfi_offset 7, -4
 18242              	.LCFI70:
 18243              		.cfi_def_cfa_register 7
 18244 0006 7860     		str	r0, [r7, #4]
 874:../target/stm32/stdperiph/src/stm32f10x_adc.c ****   FlagStatus bitstatus = RESET;
 18245              		.loc 1 874 0
 18246 0008 4FF00003 		mov	r3, #0
 18247 000c FB73     		strb	r3, [r7, #15]
 875:../target/stm32/stdperiph/src/stm32f10x_adc.c ****   /* Check the parameters */
 876:../target/stm32/stdperiph/src/stm32f10x_adc.c ****   assert_param(IS_ADC_ALL_PERIPH(ADCx));
 877:../target/stm32/stdperiph/src/stm32f10x_adc.c ****   /* Check the status of JSWSTART bit */
 878:../target/stm32/stdperiph/src/stm32f10x_adc.c ****   if ((ADCx->CR2 & CR2_JSWSTART_Set) != (uint32_t)RESET)
 18248              		.loc 1 878 0
 18249 000e 7B68     		ldr	r3, [r7, #4]
 18250 0010 9B68     		ldr	r3, [r3, #8]
 18251 0012 03F40013 		and	r3, r3, #2097152
 18252 0016 002B     		cmp	r3, #0
 18253 0018 03D0     		beq	.L59
 879:../target/stm32/stdperiph/src/stm32f10x_adc.c ****   {
 880:../target/stm32/stdperiph/src/stm32f10x_adc.c ****     /* JSWSTART bit is set */
 881:../target/stm32/stdperiph/src/stm32f10x_adc.c ****     bitstatus = SET;
 18254              		.loc 1 881 0
 18255 001a 4FF00103 		mov	r3, #1
 18256 001e FB73     		strb	r3, [r7, #15]
 18257 0020 02E0     		b	.L60
 18258              	.L59:
 882:../target/stm32/stdperiph/src/stm32f10x_adc.c ****   }
 883:../target/stm32/stdperiph/src/stm32f10x_adc.c ****   else
 884:../target/stm32/stdperiph/src/stm32f10x_adc.c ****   {
 885:../target/stm32/stdperiph/src/stm32f10x_adc.c ****     /* JSWSTART bit is reset */
 886:../target/stm32/stdperiph/src/stm32f10x_adc.c ****     bitstatus = RESET;
 18259              		.loc 1 886 0
 18260 0022 4FF00003 		mov	r3, #0
 18261 0026 FB73     		strb	r3, [r7, #15]
 18262              	.L60:
 887:../target/stm32/stdperiph/src/stm32f10x_adc.c ****   }
 888:../target/stm32/stdperiph/src/stm32f10x_adc.c ****   /* Return the JSWSTART bit status */
 889:../target/stm32/stdperiph/src/stm32f10x_adc.c ****   return  bitstatus;
 18263              		.loc 1 889 0
 18264 0028 FB7B     		ldrb	r3, [r7, #15]	@ zero_extendqisi2
 890:../target/stm32/stdperiph/src/stm32f10x_adc.c **** }
 18265              		.loc 1 890 0
 18266 002a 1846     		mov	r0, r3
 18267 002c 07F11407 		add	r7, r7, #20
 18268 0030 BD46     		mov	sp, r7
 18269 0032 80BC     		pop	{r7}
 18270 0034 7047     		bx	lr
 18271              		.cfi_endproc
 18272              	.LFE52:
 18274 0036 00BF     		.section	.text.ADC_InjectedChannelConfig,"ax",%progbits
 18275              		.align	2
 18276              		.global	ADC_InjectedChannelConfig
 18277              		.thumb
 18278              		.thumb_func
 18280              	ADC_InjectedChannelConfig:
 18281              	.LFB53:
 891:../target/stm32/stdperiph/src/stm32f10x_adc.c **** 
 892:../target/stm32/stdperiph/src/stm32f10x_adc.c **** /**
 893:../target/stm32/stdperiph/src/stm32f10x_adc.c ****   * @brief  Configures for the selected ADC injected channel its corresponding
 894:../target/stm32/stdperiph/src/stm32f10x_adc.c ****   *   rank in the sequencer and its sample time.
 895:../target/stm32/stdperiph/src/stm32f10x_adc.c ****   * @param  ADCx: where x can be 1, 2 or 3 to select the ADC peripheral.
 896:../target/stm32/stdperiph/src/stm32f10x_adc.c ****   * @param  ADC_Channel: the ADC channel to configure. 
 897:../target/stm32/stdperiph/src/stm32f10x_adc.c ****   *   This parameter can be one of the following values:
 898:../target/stm32/stdperiph/src/stm32f10x_adc.c ****   *     @arg ADC_Channel_0: ADC Channel0 selected
 899:../target/stm32/stdperiph/src/stm32f10x_adc.c ****   *     @arg ADC_Channel_1: ADC Channel1 selected
 900:../target/stm32/stdperiph/src/stm32f10x_adc.c ****   *     @arg ADC_Channel_2: ADC Channel2 selected
 901:../target/stm32/stdperiph/src/stm32f10x_adc.c ****   *     @arg ADC_Channel_3: ADC Channel3 selected
 902:../target/stm32/stdperiph/src/stm32f10x_adc.c ****   *     @arg ADC_Channel_4: ADC Channel4 selected
 903:../target/stm32/stdperiph/src/stm32f10x_adc.c ****   *     @arg ADC_Channel_5: ADC Channel5 selected
 904:../target/stm32/stdperiph/src/stm32f10x_adc.c ****   *     @arg ADC_Channel_6: ADC Channel6 selected
 905:../target/stm32/stdperiph/src/stm32f10x_adc.c ****   *     @arg ADC_Channel_7: ADC Channel7 selected
 906:../target/stm32/stdperiph/src/stm32f10x_adc.c ****   *     @arg ADC_Channel_8: ADC Channel8 selected
 907:../target/stm32/stdperiph/src/stm32f10x_adc.c ****   *     @arg ADC_Channel_9: ADC Channel9 selected
 908:../target/stm32/stdperiph/src/stm32f10x_adc.c ****   *     @arg ADC_Channel_10: ADC Channel10 selected
 909:../target/stm32/stdperiph/src/stm32f10x_adc.c ****   *     @arg ADC_Channel_11: ADC Channel11 selected
 910:../target/stm32/stdperiph/src/stm32f10x_adc.c ****   *     @arg ADC_Channel_12: ADC Channel12 selected
 911:../target/stm32/stdperiph/src/stm32f10x_adc.c ****   *     @arg ADC_Channel_13: ADC Channel13 selected
 912:../target/stm32/stdperiph/src/stm32f10x_adc.c ****   *     @arg ADC_Channel_14: ADC Channel14 selected
 913:../target/stm32/stdperiph/src/stm32f10x_adc.c ****   *     @arg ADC_Channel_15: ADC Channel15 selected
 914:../target/stm32/stdperiph/src/stm32f10x_adc.c ****   *     @arg ADC_Channel_16: ADC Channel16 selected
 915:../target/stm32/stdperiph/src/stm32f10x_adc.c ****   *     @arg ADC_Channel_17: ADC Channel17 selected
 916:../target/stm32/stdperiph/src/stm32f10x_adc.c ****   * @param  Rank: The rank in the injected group sequencer. This parameter must be between 1 and 4.
 917:../target/stm32/stdperiph/src/stm32f10x_adc.c ****   * @param  ADC_SampleTime: The sample time value to be set for the selected channel. 
 918:../target/stm32/stdperiph/src/stm32f10x_adc.c ****   *   This parameter can be one of the following values:
 919:../target/stm32/stdperiph/src/stm32f10x_adc.c ****   *     @arg ADC_SampleTime_1Cycles5: Sample time equal to 1.5 cycles
 920:../target/stm32/stdperiph/src/stm32f10x_adc.c ****   *     @arg ADC_SampleTime_7Cycles5: Sample time equal to 7.5 cycles
 921:../target/stm32/stdperiph/src/stm32f10x_adc.c ****   *     @arg ADC_SampleTime_13Cycles5: Sample time equal to 13.5 cycles
 922:../target/stm32/stdperiph/src/stm32f10x_adc.c ****   *     @arg ADC_SampleTime_28Cycles5: Sample time equal to 28.5 cycles	
 923:../target/stm32/stdperiph/src/stm32f10x_adc.c ****   *     @arg ADC_SampleTime_41Cycles5: Sample time equal to 41.5 cycles	
 924:../target/stm32/stdperiph/src/stm32f10x_adc.c ****   *     @arg ADC_SampleTime_55Cycles5: Sample time equal to 55.5 cycles	
 925:../target/stm32/stdperiph/src/stm32f10x_adc.c ****   *     @arg ADC_SampleTime_71Cycles5: Sample time equal to 71.5 cycles	
 926:../target/stm32/stdperiph/src/stm32f10x_adc.c ****   *     @arg ADC_SampleTime_239Cycles5: Sample time equal to 239.5 cycles	
 927:../target/stm32/stdperiph/src/stm32f10x_adc.c ****   * @retval None
 928:../target/stm32/stdperiph/src/stm32f10x_adc.c ****   */
 929:../target/stm32/stdperiph/src/stm32f10x_adc.c **** void ADC_InjectedChannelConfig(ADC_TypeDef* ADCx, uint8_t ADC_Channel, uint8_t Rank, uint8_t ADC_Sa
 930:../target/stm32/stdperiph/src/stm32f10x_adc.c **** {
 18282              		.loc 1 930 0
 18283              		.cfi_startproc
 18284              		@ args = 0, pretend = 0, frame = 24
 18285              		@ frame_needed = 1, uses_anonymous_args = 0
 18286              		@ link register save eliminated.
 18287 0000 80B4     		push	{r7}
 18288              	.LCFI71:
 18289              		.cfi_def_cfa_offset 4
 18290 0002 87B0     		sub	sp, sp, #28
 18291              	.LCFI72:
 18292              		.cfi_def_cfa_offset 32
 18293 0004 00AF     		add	r7, sp, #0
 18294              		.cfi_offset 7, -4
 18295              	.LCFI73:
 18296              		.cfi_def_cfa_register 7
 18297 0006 7860     		str	r0, [r7, #4]
 18298 0008 F970     		strb	r1, [r7, #3]
 18299 000a BA70     		strb	r2, [r7, #2]
 18300 000c 7B70     		strb	r3, [r7, #1]
 931:../target/stm32/stdperiph/src/stm32f10x_adc.c ****   uint32_t tmpreg1 = 0, tmpreg2 = 0, tmpreg3 = 0;
 18301              		.loc 1 931 0
 18302 000e 4FF00003 		mov	r3, #0
 18303 0012 7B61     		str	r3, [r7, #20]
 18304 0014 4FF00003 		mov	r3, #0
 18305 0018 3B61     		str	r3, [r7, #16]
 18306 001a 4FF00003 		mov	r3, #0
 18307 001e FB60     		str	r3, [r7, #12]
 932:../target/stm32/stdperiph/src/stm32f10x_adc.c ****   /* Check the parameters */
 933:../target/stm32/stdperiph/src/stm32f10x_adc.c ****   assert_param(IS_ADC_ALL_PERIPH(ADCx));
 934:../target/stm32/stdperiph/src/stm32f10x_adc.c ****   assert_param(IS_ADC_CHANNEL(ADC_Channel));
 935:../target/stm32/stdperiph/src/stm32f10x_adc.c ****   assert_param(IS_ADC_INJECTED_RANK(Rank));
 936:../target/stm32/stdperiph/src/stm32f10x_adc.c ****   assert_param(IS_ADC_SAMPLE_TIME(ADC_SampleTime));
 937:../target/stm32/stdperiph/src/stm32f10x_adc.c ****   /* if ADC_Channel_10 ... ADC_Channel_17 is selected */
 938:../target/stm32/stdperiph/src/stm32f10x_adc.c ****   if (ADC_Channel > ADC_Channel_9)
 18308              		.loc 1 938 0
 18309 0020 FB78     		ldrb	r3, [r7, #3]	@ zero_extendqisi2
 18310 0022 092B     		cmp	r3, #9
 18311 0024 29D9     		bls	.L62
 939:../target/stm32/stdperiph/src/stm32f10x_adc.c ****   {
 940:../target/stm32/stdperiph/src/stm32f10x_adc.c ****     /* Get the old register value */
 941:../target/stm32/stdperiph/src/stm32f10x_adc.c ****     tmpreg1 = ADCx->SMPR1;
 18312              		.loc 1 941 0
 18313 0026 7B68     		ldr	r3, [r7, #4]
 18314 0028 DB68     		ldr	r3, [r3, #12]
 18315 002a 7B61     		str	r3, [r7, #20]
 942:../target/stm32/stdperiph/src/stm32f10x_adc.c ****     /* Calculate the mask to clear */
 943:../target/stm32/stdperiph/src/stm32f10x_adc.c ****     tmpreg2 = SMPR1_SMP_Set << (3*(ADC_Channel - 10));
 18316              		.loc 1 943 0
 18317 002c FA78     		ldrb	r2, [r7, #3]	@ zero_extendqisi2
 18318 002e 1346     		mov	r3, r2
 18319 0030 4FEA4303 		lsl	r3, r3, #1
 18320 0034 9B18     		adds	r3, r3, r2
 18321 0036 A3F11E03 		sub	r3, r3, #30
 18322 003a 4FF00702 		mov	r2, #7
 18323 003e 02FA03F3 		lsl	r3, r2, r3
 18324 0042 3B61     		str	r3, [r7, #16]
 944:../target/stm32/stdperiph/src/stm32f10x_adc.c ****     /* Clear the old channel sample time */
 945:../target/stm32/stdperiph/src/stm32f10x_adc.c ****     tmpreg1 &= ~tmpreg2;
 18325              		.loc 1 945 0
 18326 0044 3B69     		ldr	r3, [r7, #16]
 18327 0046 6FEA0303 		mvn	r3, r3
 18328 004a 7A69     		ldr	r2, [r7, #20]
 18329 004c 02EA0303 		and	r3, r2, r3
 18330 0050 7B61     		str	r3, [r7, #20]
 946:../target/stm32/stdperiph/src/stm32f10x_adc.c ****     /* Calculate the mask to set */
 947:../target/stm32/stdperiph/src/stm32f10x_adc.c ****     tmpreg2 = (uint32_t)ADC_SampleTime << (3*(ADC_Channel - 10));
 18331              		.loc 1 947 0
 18332 0052 7978     		ldrb	r1, [r7, #1]	@ zero_extendqisi2
 18333 0054 FA78     		ldrb	r2, [r7, #3]	@ zero_extendqisi2
 18334 0056 1346     		mov	r3, r2
 18335 0058 4FEA4303 		lsl	r3, r3, #1
 18336 005c 9B18     		adds	r3, r3, r2
 18337 005e A3F11E03 		sub	r3, r3, #30
 18338 0062 01FA03F3 		lsl	r3, r1, r3
 18339 0066 3B61     		str	r3, [r7, #16]
 948:../target/stm32/stdperiph/src/stm32f10x_adc.c ****     /* Set the new channel sample time */
 949:../target/stm32/stdperiph/src/stm32f10x_adc.c ****     tmpreg1 |= tmpreg2;
 18340              		.loc 1 949 0
 18341 0068 7A69     		ldr	r2, [r7, #20]
 18342 006a 3B69     		ldr	r3, [r7, #16]
 18343 006c 42EA0303 		orr	r3, r2, r3
 18344 0070 7B61     		str	r3, [r7, #20]
 950:../target/stm32/stdperiph/src/stm32f10x_adc.c ****     /* Store the new register value */
 951:../target/stm32/stdperiph/src/stm32f10x_adc.c ****     ADCx->SMPR1 = tmpreg1;
 18345              		.loc 1 951 0
 18346 0072 7B68     		ldr	r3, [r7, #4]
 18347 0074 7A69     		ldr	r2, [r7, #20]
 18348 0076 DA60     		str	r2, [r3, #12]
 18349 0078 24E0     		b	.L63
 18350              	.L62:
 952:../target/stm32/stdperiph/src/stm32f10x_adc.c ****   }
 953:../target/stm32/stdperiph/src/stm32f10x_adc.c ****   else /* ADC_Channel include in ADC_Channel_[0..9] */
 954:../target/stm32/stdperiph/src/stm32f10x_adc.c ****   {
 955:../target/stm32/stdperiph/src/stm32f10x_adc.c ****     /* Get the old register value */
 956:../target/stm32/stdperiph/src/stm32f10x_adc.c ****     tmpreg1 = ADCx->SMPR2;
 18351              		.loc 1 956 0
 18352 007a 7B68     		ldr	r3, [r7, #4]
 18353 007c 1B69     		ldr	r3, [r3, #16]
 18354 007e 7B61     		str	r3, [r7, #20]
 957:../target/stm32/stdperiph/src/stm32f10x_adc.c ****     /* Calculate the mask to clear */
 958:../target/stm32/stdperiph/src/stm32f10x_adc.c ****     tmpreg2 = SMPR2_SMP_Set << (3 * ADC_Channel);
 18355              		.loc 1 958 0
 18356 0080 FA78     		ldrb	r2, [r7, #3]	@ zero_extendqisi2
 18357 0082 1346     		mov	r3, r2
 18358 0084 4FEA4303 		lsl	r3, r3, #1
 18359 0088 9B18     		adds	r3, r3, r2
 18360 008a 4FF00702 		mov	r2, #7
 18361 008e 02FA03F3 		lsl	r3, r2, r3
 18362 0092 3B61     		str	r3, [r7, #16]
 959:../target/stm32/stdperiph/src/stm32f10x_adc.c ****     /* Clear the old channel sample time */
 960:../target/stm32/stdperiph/src/stm32f10x_adc.c ****     tmpreg1 &= ~tmpreg2;
 18363              		.loc 1 960 0
 18364 0094 3B69     		ldr	r3, [r7, #16]
 18365 0096 6FEA0303 		mvn	r3, r3
 18366 009a 7A69     		ldr	r2, [r7, #20]
 18367 009c 02EA0303 		and	r3, r2, r3
 18368 00a0 7B61     		str	r3, [r7, #20]
 961:../target/stm32/stdperiph/src/stm32f10x_adc.c ****     /* Calculate the mask to set */
 962:../target/stm32/stdperiph/src/stm32f10x_adc.c ****     tmpreg2 = (uint32_t)ADC_SampleTime << (3 * ADC_Channel);
 18369              		.loc 1 962 0
 18370 00a2 7978     		ldrb	r1, [r7, #1]	@ zero_extendqisi2
 18371 00a4 FA78     		ldrb	r2, [r7, #3]	@ zero_extendqisi2
 18372 00a6 1346     		mov	r3, r2
 18373 00a8 4FEA4303 		lsl	r3, r3, #1
 18374 00ac 9B18     		adds	r3, r3, r2
 18375 00ae 01FA03F3 		lsl	r3, r1, r3
 18376 00b2 3B61     		str	r3, [r7, #16]
 963:../target/stm32/stdperiph/src/stm32f10x_adc.c ****     /* Set the new channel sample time */
 964:../target/stm32/stdperiph/src/stm32f10x_adc.c ****     tmpreg1 |= tmpreg2;
 18377              		.loc 1 964 0
 18378 00b4 7A69     		ldr	r2, [r7, #20]
 18379 00b6 3B69     		ldr	r3, [r7, #16]
 18380 00b8 42EA0303 		orr	r3, r2, r3
 18381 00bc 7B61     		str	r3, [r7, #20]
 965:../target/stm32/stdperiph/src/stm32f10x_adc.c ****     /* Store the new register value */
 966:../target/stm32/stdperiph/src/stm32f10x_adc.c ****     ADCx->SMPR2 = tmpreg1;
 18382              		.loc 1 966 0
 18383 00be 7B68     		ldr	r3, [r7, #4]
 18384 00c0 7A69     		ldr	r2, [r7, #20]
 18385 00c2 1A61     		str	r2, [r3, #16]
 18386              	.L63:
 967:../target/stm32/stdperiph/src/stm32f10x_adc.c ****   }
 968:../target/stm32/stdperiph/src/stm32f10x_adc.c ****   /* Rank configuration */
 969:../target/stm32/stdperiph/src/stm32f10x_adc.c ****   /* Get the old register value */
 970:../target/stm32/stdperiph/src/stm32f10x_adc.c ****   tmpreg1 = ADCx->JSQR;
 18387              		.loc 1 970 0
 18388 00c4 7B68     		ldr	r3, [r7, #4]
 18389 00c6 9B6B     		ldr	r3, [r3, #56]
 18390 00c8 7B61     		str	r3, [r7, #20]
 971:../target/stm32/stdperiph/src/stm32f10x_adc.c ****   /* Get JL value: Number = JL+1 */
 972:../target/stm32/stdperiph/src/stm32f10x_adc.c ****   tmpreg3 =  (tmpreg1 & JSQR_JL_Set)>> 20;
 18391              		.loc 1 972 0
 18392 00ca 7B69     		ldr	r3, [r7, #20]
 18393 00cc 03F44013 		and	r3, r3, #3145728
 18394 00d0 4FEA1353 		lsr	r3, r3, #20
 18395 00d4 FB60     		str	r3, [r7, #12]
 973:../target/stm32/stdperiph/src/stm32f10x_adc.c ****   /* Calculate the mask to clear: ((Rank-1)+(4-JL-1)) */
 974:../target/stm32/stdperiph/src/stm32f10x_adc.c ****   tmpreg2 = JSQR_JSQ_Set << (5 * (uint8_t)((Rank + 3) - (tmpreg3 + 1)));
 18396              		.loc 1 974 0
 18397 00d6 FB68     		ldr	r3, [r7, #12]
 18398 00d8 DBB2     		uxtb	r3, r3
 18399 00da 6FEA0303 		mvn	r3, r3
 18400 00de DAB2     		uxtb	r2, r3
 18401 00e0 BB78     		ldrb	r3, [r7, #2]
 18402 00e2 D318     		adds	r3, r2, r3
 18403 00e4 DBB2     		uxtb	r3, r3
 18404 00e6 03F10303 		add	r3, r3, #3
 18405 00ea DBB2     		uxtb	r3, r3
 18406 00ec 1A46     		mov	r2, r3
 18407 00ee 1346     		mov	r3, r2
 18408 00f0 4FEA8303 		lsl	r3, r3, #2
 18409 00f4 9B18     		adds	r3, r3, r2
 18410 00f6 4FF01F02 		mov	r2, #31
 18411 00fa 02FA03F3 		lsl	r3, r2, r3
 18412 00fe 3B61     		str	r3, [r7, #16]
 975:../target/stm32/stdperiph/src/stm32f10x_adc.c ****   /* Clear the old JSQx bits for the selected rank */
 976:../target/stm32/stdperiph/src/stm32f10x_adc.c ****   tmpreg1 &= ~tmpreg2;
 18413              		.loc 1 976 0
 18414 0100 3B69     		ldr	r3, [r7, #16]
 18415 0102 6FEA0303 		mvn	r3, r3
 18416 0106 7A69     		ldr	r2, [r7, #20]
 18417 0108 02EA0303 		and	r3, r2, r3
 18418 010c 7B61     		str	r3, [r7, #20]
 977:../target/stm32/stdperiph/src/stm32f10x_adc.c ****   /* Calculate the mask to set: ((Rank-1)+(4-JL-1)) */
 978:../target/stm32/stdperiph/src/stm32f10x_adc.c ****   tmpreg2 = (uint32_t)ADC_Channel << (5 * (uint8_t)((Rank + 3) - (tmpreg3 + 1)));
 18419              		.loc 1 978 0
 18420 010e F978     		ldrb	r1, [r7, #3]	@ zero_extendqisi2
 18421 0110 FB68     		ldr	r3, [r7, #12]
 18422 0112 DBB2     		uxtb	r3, r3
 18423 0114 6FEA0303 		mvn	r3, r3
 18424 0118 DAB2     		uxtb	r2, r3
 18425 011a BB78     		ldrb	r3, [r7, #2]
 18426 011c D318     		adds	r3, r2, r3
 18427 011e DBB2     		uxtb	r3, r3
 18428 0120 03F10303 		add	r3, r3, #3
 18429 0124 DBB2     		uxtb	r3, r3
 18430 0126 1A46     		mov	r2, r3
 18431 0128 1346     		mov	r3, r2
 18432 012a 4FEA8303 		lsl	r3, r3, #2
 18433 012e 9B18     		adds	r3, r3, r2
 18434 0130 01FA03F3 		lsl	r3, r1, r3
 18435 0134 3B61     		str	r3, [r7, #16]
 979:../target/stm32/stdperiph/src/stm32f10x_adc.c ****   /* Set the JSQx bits for the selected rank */
 980:../target/stm32/stdperiph/src/stm32f10x_adc.c ****   tmpreg1 |= tmpreg2;
 18436              		.loc 1 980 0
 18437 0136 7A69     		ldr	r2, [r7, #20]
 18438 0138 3B69     		ldr	r3, [r7, #16]
 18439 013a 42EA0303 		orr	r3, r2, r3
 18440 013e 7B61     		str	r3, [r7, #20]
 981:../target/stm32/stdperiph/src/stm32f10x_adc.c ****   /* Store the new register value */
 982:../target/stm32/stdperiph/src/stm32f10x_adc.c ****   ADCx->JSQR = tmpreg1;
 18441              		.loc 1 982 0
 18442 0140 7B68     		ldr	r3, [r7, #4]
 18443 0142 7A69     		ldr	r2, [r7, #20]
 18444 0144 9A63     		str	r2, [r3, #56]
 983:../target/stm32/stdperiph/src/stm32f10x_adc.c **** }
 18445              		.loc 1 983 0
 18446 0146 07F11C07 		add	r7, r7, #28
 18447 014a BD46     		mov	sp, r7
 18448 014c 80BC     		pop	{r7}
 18449 014e 7047     		bx	lr
 18450              		.cfi_endproc
 18451              	.LFE53:
 18453              		.section	.text.ADC_InjectedSequencerLengthConfig,"ax",%progbits
 18454              		.align	2
 18455              		.global	ADC_InjectedSequencerLengthConfig
 18456              		.thumb
 18457              		.thumb_func
 18459              	ADC_InjectedSequencerLengthConfig:
 18460              	.LFB54:
 984:../target/stm32/stdperiph/src/stm32f10x_adc.c **** 
 985:../target/stm32/stdperiph/src/stm32f10x_adc.c **** /**
 986:../target/stm32/stdperiph/src/stm32f10x_adc.c ****   * @brief  Configures the sequencer length for injected channels
 987:../target/stm32/stdperiph/src/stm32f10x_adc.c ****   * @param  ADCx: where x can be 1, 2 or 3 to select the ADC peripheral.
 988:../target/stm32/stdperiph/src/stm32f10x_adc.c ****   * @param  Length: The sequencer length. 
 989:../target/stm32/stdperiph/src/stm32f10x_adc.c ****   *   This parameter must be a number between 1 to 4.
 990:../target/stm32/stdperiph/src/stm32f10x_adc.c ****   * @retval None
 991:../target/stm32/stdperiph/src/stm32f10x_adc.c ****   */
 992:../target/stm32/stdperiph/src/stm32f10x_adc.c **** void ADC_InjectedSequencerLengthConfig(ADC_TypeDef* ADCx, uint8_t Length)
 993:../target/stm32/stdperiph/src/stm32f10x_adc.c **** {
 18461              		.loc 1 993 0
 18462              		.cfi_startproc
 18463              		@ args = 0, pretend = 0, frame = 16
 18464              		@ frame_needed = 1, uses_anonymous_args = 0
 18465              		@ link register save eliminated.
 18466 0000 80B4     		push	{r7}
 18467              	.LCFI74:
 18468              		.cfi_def_cfa_offset 4
 18469 0002 85B0     		sub	sp, sp, #20
 18470              	.LCFI75:
 18471              		.cfi_def_cfa_offset 24
 18472 0004 00AF     		add	r7, sp, #0
 18473              		.cfi_offset 7, -4
 18474              	.LCFI76:
 18475              		.cfi_def_cfa_register 7
 18476 0006 7860     		str	r0, [r7, #4]
 18477 0008 0B46     		mov	r3, r1
 18478 000a FB70     		strb	r3, [r7, #3]
 994:../target/stm32/stdperiph/src/stm32f10x_adc.c ****   uint32_t tmpreg1 = 0;
 18479              		.loc 1 994 0
 18480 000c 4FF00003 		mov	r3, #0
 18481 0010 FB60     		str	r3, [r7, #12]
 995:../target/stm32/stdperiph/src/stm32f10x_adc.c ****   uint32_t tmpreg2 = 0;
 18482              		.loc 1 995 0
 18483 0012 4FF00003 		mov	r3, #0
 18484 0016 BB60     		str	r3, [r7, #8]
 996:../target/stm32/stdperiph/src/stm32f10x_adc.c ****   /* Check the parameters */
 997:../target/stm32/stdperiph/src/stm32f10x_adc.c ****   assert_param(IS_ADC_ALL_PERIPH(ADCx));
 998:../target/stm32/stdperiph/src/stm32f10x_adc.c ****   assert_param(IS_ADC_INJECTED_LENGTH(Length));
 999:../target/stm32/stdperiph/src/stm32f10x_adc.c ****   
1000:../target/stm32/stdperiph/src/stm32f10x_adc.c ****   /* Get the old register value */
1001:../target/stm32/stdperiph/src/stm32f10x_adc.c ****   tmpreg1 = ADCx->JSQR;
 18485              		.loc 1 1001 0
 18486 0018 7B68     		ldr	r3, [r7, #4]
 18487 001a 9B6B     		ldr	r3, [r3, #56]
 18488 001c FB60     		str	r3, [r7, #12]
1002:../target/stm32/stdperiph/src/stm32f10x_adc.c ****   /* Clear the old injected sequnence lenght JL bits */
1003:../target/stm32/stdperiph/src/stm32f10x_adc.c ****   tmpreg1 &= JSQR_JL_Reset;
 18489              		.loc 1 1003 0
 18490 001e FB68     		ldr	r3, [r7, #12]
 18491 0020 23F44013 		bic	r3, r3, #3145728
 18492 0024 FB60     		str	r3, [r7, #12]
1004:../target/stm32/stdperiph/src/stm32f10x_adc.c ****   /* Set the injected sequnence lenght JL bits */
1005:../target/stm32/stdperiph/src/stm32f10x_adc.c ****   tmpreg2 = Length - 1; 
 18493              		.loc 1 1005 0
 18494 0026 FB78     		ldrb	r3, [r7, #3]	@ zero_extendqisi2
 18495 0028 03F1FF33 		add	r3, r3, #-1
 18496 002c BB60     		str	r3, [r7, #8]
1006:../target/stm32/stdperiph/src/stm32f10x_adc.c ****   tmpreg1 |= tmpreg2 << 20;
 18497              		.loc 1 1006 0
 18498 002e BB68     		ldr	r3, [r7, #8]
 18499 0030 4FEA0353 		lsl	r3, r3, #20
 18500 0034 FA68     		ldr	r2, [r7, #12]
 18501 0036 42EA0303 		orr	r3, r2, r3
 18502 003a FB60     		str	r3, [r7, #12]
1007:../target/stm32/stdperiph/src/stm32f10x_adc.c ****   /* Store the new register value */
1008:../target/stm32/stdperiph/src/stm32f10x_adc.c ****   ADCx->JSQR = tmpreg1;
 18503              		.loc 1 1008 0
 18504 003c 7B68     		ldr	r3, [r7, #4]
 18505 003e FA68     		ldr	r2, [r7, #12]
 18506 0040 9A63     		str	r2, [r3, #56]
1009:../target/stm32/stdperiph/src/stm32f10x_adc.c **** }
 18507              		.loc 1 1009 0
 18508 0042 07F11407 		add	r7, r7, #20
 18509 0046 BD46     		mov	sp, r7
 18510 0048 80BC     		pop	{r7}
 18511 004a 7047     		bx	lr
 18512              		.cfi_endproc
 18513              	.LFE54:
 18515              		.section	.text.ADC_SetInjectedOffset,"ax",%progbits
 18516              		.align	2
 18517              		.global	ADC_SetInjectedOffset
 18518              		.thumb
 18519              		.thumb_func
 18521              	ADC_SetInjectedOffset:
 18522              	.LFB55:
1010:../target/stm32/stdperiph/src/stm32f10x_adc.c **** 
1011:../target/stm32/stdperiph/src/stm32f10x_adc.c **** /**
1012:../target/stm32/stdperiph/src/stm32f10x_adc.c ****   * @brief  Set the injected channels conversion value offset
1013:../target/stm32/stdperiph/src/stm32f10x_adc.c ****   * @param  ADCx: where x can be 1, 2 or 3 to select the ADC peripheral.
1014:../target/stm32/stdperiph/src/stm32f10x_adc.c ****   * @param  ADC_InjectedChannel: the ADC injected channel to set its offset. 
1015:../target/stm32/stdperiph/src/stm32f10x_adc.c ****   *   This parameter can be one of the following values:
1016:../target/stm32/stdperiph/src/stm32f10x_adc.c ****   *     @arg ADC_InjectedChannel_1: Injected Channel1 selected
1017:../target/stm32/stdperiph/src/stm32f10x_adc.c ****   *     @arg ADC_InjectedChannel_2: Injected Channel2 selected
1018:../target/stm32/stdperiph/src/stm32f10x_adc.c ****   *     @arg ADC_InjectedChannel_3: Injected Channel3 selected
1019:../target/stm32/stdperiph/src/stm32f10x_adc.c ****   *     @arg ADC_InjectedChannel_4: Injected Channel4 selected
1020:../target/stm32/stdperiph/src/stm32f10x_adc.c ****   * @param  Offset: the offset value for the selected ADC injected channel
1021:../target/stm32/stdperiph/src/stm32f10x_adc.c ****   *   This parameter must be a 12bit value.
1022:../target/stm32/stdperiph/src/stm32f10x_adc.c ****   * @retval None
1023:../target/stm32/stdperiph/src/stm32f10x_adc.c ****   */
1024:../target/stm32/stdperiph/src/stm32f10x_adc.c **** void ADC_SetInjectedOffset(ADC_TypeDef* ADCx, uint8_t ADC_InjectedChannel, uint16_t Offset)
1025:../target/stm32/stdperiph/src/stm32f10x_adc.c **** {
 18523              		.loc 1 1025 0
 18524              		.cfi_startproc
 18525              		@ args = 0, pretend = 0, frame = 16
 18526              		@ frame_needed = 1, uses_anonymous_args = 0
 18527              		@ link register save eliminated.
 18528 0000 80B4     		push	{r7}
 18529              	.LCFI77:
 18530              		.cfi_def_cfa_offset 4
 18531 0002 85B0     		sub	sp, sp, #20
 18532              	.LCFI78:
 18533              		.cfi_def_cfa_offset 24
 18534 0004 00AF     		add	r7, sp, #0
 18535              		.cfi_offset 7, -4
 18536              	.LCFI79:
 18537              		.cfi_def_cfa_register 7
 18538 0006 7860     		str	r0, [r7, #4]
 18539 0008 1346     		mov	r3, r2
 18540 000a 0A46     		mov	r2, r1
 18541 000c FA70     		strb	r2, [r7, #3]
 18542 000e 3B80     		strh	r3, [r7, #0]	@ movhi
1026:../target/stm32/stdperiph/src/stm32f10x_adc.c ****   __IO uint32_t tmp = 0;
 18543              		.loc 1 1026 0
 18544 0010 4FF00003 		mov	r3, #0
 18545 0014 FB60     		str	r3, [r7, #12]
1027:../target/stm32/stdperiph/src/stm32f10x_adc.c ****   
1028:../target/stm32/stdperiph/src/stm32f10x_adc.c ****   /* Check the parameters */
1029:../target/stm32/stdperiph/src/stm32f10x_adc.c ****   assert_param(IS_ADC_ALL_PERIPH(ADCx));
1030:../target/stm32/stdperiph/src/stm32f10x_adc.c ****   assert_param(IS_ADC_INJECTED_CHANNEL(ADC_InjectedChannel));
1031:../target/stm32/stdperiph/src/stm32f10x_adc.c ****   assert_param(IS_ADC_OFFSET(Offset));  
1032:../target/stm32/stdperiph/src/stm32f10x_adc.c ****   
1033:../target/stm32/stdperiph/src/stm32f10x_adc.c ****   tmp = (uint32_t)ADCx;
 18546              		.loc 1 1033 0
 18547 0016 7B68     		ldr	r3, [r7, #4]
 18548 0018 FB60     		str	r3, [r7, #12]
1034:../target/stm32/stdperiph/src/stm32f10x_adc.c ****   tmp += ADC_InjectedChannel;
 18549              		.loc 1 1034 0
 18550 001a FA78     		ldrb	r2, [r7, #3]	@ zero_extendqisi2
 18551 001c FB68     		ldr	r3, [r7, #12]
 18552 001e D318     		adds	r3, r2, r3
 18553 0020 FB60     		str	r3, [r7, #12]
1035:../target/stm32/stdperiph/src/stm32f10x_adc.c ****   
1036:../target/stm32/stdperiph/src/stm32f10x_adc.c ****   /* Set the selected injected channel data offset */
1037:../target/stm32/stdperiph/src/stm32f10x_adc.c ****   *(__IO uint32_t *) tmp = (uint32_t)Offset;
 18554              		.loc 1 1037 0
 18555 0022 FB68     		ldr	r3, [r7, #12]
 18556 0024 3A88     		ldrh	r2, [r7, #0]
 18557 0026 1A60     		str	r2, [r3, #0]
1038:../target/stm32/stdperiph/src/stm32f10x_adc.c **** }
 18558              		.loc 1 1038 0
 18559 0028 07F11407 		add	r7, r7, #20
 18560 002c BD46     		mov	sp, r7
 18561 002e 80BC     		pop	{r7}
 18562 0030 7047     		bx	lr
 18563              		.cfi_endproc
 18564              	.LFE55:
 18566 0032 00BF     		.section	.text.ADC_GetInjectedConversionValue,"ax",%progbits
 18567              		.align	2
 18568              		.global	ADC_GetInjectedConversionValue
 18569              		.thumb
 18570              		.thumb_func
 18572              	ADC_GetInjectedConversionValue:
 18573              	.LFB56:
1039:../target/stm32/stdperiph/src/stm32f10x_adc.c **** 
1040:../target/stm32/stdperiph/src/stm32f10x_adc.c **** /**
1041:../target/stm32/stdperiph/src/stm32f10x_adc.c ****   * @brief  Returns the ADC injected channel conversion result
1042:../target/stm32/stdperiph/src/stm32f10x_adc.c ****   * @param  ADCx: where x can be 1, 2 or 3 to select the ADC peripheral.
1043:../target/stm32/stdperiph/src/stm32f10x_adc.c ****   * @param  ADC_InjectedChannel: the converted ADC injected channel.
1044:../target/stm32/stdperiph/src/stm32f10x_adc.c ****   *   This parameter can be one of the following values:
1045:../target/stm32/stdperiph/src/stm32f10x_adc.c ****   *     @arg ADC_InjectedChannel_1: Injected Channel1 selected
1046:../target/stm32/stdperiph/src/stm32f10x_adc.c ****   *     @arg ADC_InjectedChannel_2: Injected Channel2 selected
1047:../target/stm32/stdperiph/src/stm32f10x_adc.c ****   *     @arg ADC_InjectedChannel_3: Injected Channel3 selected
1048:../target/stm32/stdperiph/src/stm32f10x_adc.c ****   *     @arg ADC_InjectedChannel_4: Injected Channel4 selected
1049:../target/stm32/stdperiph/src/stm32f10x_adc.c ****   * @retval The Data conversion value.
1050:../target/stm32/stdperiph/src/stm32f10x_adc.c ****   */
1051:../target/stm32/stdperiph/src/stm32f10x_adc.c **** uint16_t ADC_GetInjectedConversionValue(ADC_TypeDef* ADCx, uint8_t ADC_InjectedChannel)
1052:../target/stm32/stdperiph/src/stm32f10x_adc.c **** {
 18574              		.loc 1 1052 0
 18575              		.cfi_startproc
 18576              		@ args = 0, pretend = 0, frame = 16
 18577              		@ frame_needed = 1, uses_anonymous_args = 0
 18578              		@ link register save eliminated.
 18579 0000 80B4     		push	{r7}
 18580              	.LCFI80:
 18581              		.cfi_def_cfa_offset 4
 18582 0002 85B0     		sub	sp, sp, #20
 18583              	.LCFI81:
 18584              		.cfi_def_cfa_offset 24
 18585 0004 00AF     		add	r7, sp, #0
 18586              		.cfi_offset 7, -4
 18587              	.LCFI82:
 18588              		.cfi_def_cfa_register 7
 18589 0006 7860     		str	r0, [r7, #4]
 18590 0008 0B46     		mov	r3, r1
 18591 000a FB70     		strb	r3, [r7, #3]
1053:../target/stm32/stdperiph/src/stm32f10x_adc.c ****   __IO uint32_t tmp = 0;
 18592              		.loc 1 1053 0
 18593 000c 4FF00003 		mov	r3, #0
 18594 0010 FB60     		str	r3, [r7, #12]
1054:../target/stm32/stdperiph/src/stm32f10x_adc.c ****   
1055:../target/stm32/stdperiph/src/stm32f10x_adc.c ****   /* Check the parameters */
1056:../target/stm32/stdperiph/src/stm32f10x_adc.c ****   assert_param(IS_ADC_ALL_PERIPH(ADCx));
1057:../target/stm32/stdperiph/src/stm32f10x_adc.c ****   assert_param(IS_ADC_INJECTED_CHANNEL(ADC_InjectedChannel));
1058:../target/stm32/stdperiph/src/stm32f10x_adc.c **** 
1059:../target/stm32/stdperiph/src/stm32f10x_adc.c ****   tmp = (uint32_t)ADCx;
 18595              		.loc 1 1059 0
 18596 0012 7B68     		ldr	r3, [r7, #4]
 18597 0014 FB60     		str	r3, [r7, #12]
1060:../target/stm32/stdperiph/src/stm32f10x_adc.c ****   tmp += ADC_InjectedChannel + JDR_Offset;
 18598              		.loc 1 1060 0
 18599 0016 FA78     		ldrb	r2, [r7, #3]	@ zero_extendqisi2
 18600 0018 FB68     		ldr	r3, [r7, #12]
 18601 001a D318     		adds	r3, r2, r3
 18602 001c 03F12803 		add	r3, r3, #40
 18603 0020 FB60     		str	r3, [r7, #12]
1061:../target/stm32/stdperiph/src/stm32f10x_adc.c ****   
1062:../target/stm32/stdperiph/src/stm32f10x_adc.c ****   /* Returns the selected injected channel conversion data value */
1063:../target/stm32/stdperiph/src/stm32f10x_adc.c ****   return (uint16_t) (*(__IO uint32_t*)  tmp);   
 18604              		.loc 1 1063 0
 18605 0022 FB68     		ldr	r3, [r7, #12]
 18606 0024 1B68     		ldr	r3, [r3, #0]
 18607 0026 9BB2     		uxth	r3, r3
1064:../target/stm32/stdperiph/src/stm32f10x_adc.c **** }
 18608              		.loc 1 1064 0
 18609 0028 1846     		mov	r0, r3
 18610 002a 07F11407 		add	r7, r7, #20
 18611 002e BD46     		mov	sp, r7
 18612 0030 80BC     		pop	{r7}
 18613 0032 7047     		bx	lr
 18614              		.cfi_endproc
 18615              	.LFE56:
 18617              		.section	.text.ADC_AnalogWatchdogCmd,"ax",%progbits
 18618              		.align	2
 18619              		.global	ADC_AnalogWatchdogCmd
 18620              		.thumb
 18621              		.thumb_func
 18623              	ADC_AnalogWatchdogCmd:
 18624              	.LFB57:
1065:../target/stm32/stdperiph/src/stm32f10x_adc.c **** 
1066:../target/stm32/stdperiph/src/stm32f10x_adc.c **** /**
1067:../target/stm32/stdperiph/src/stm32f10x_adc.c ****   * @brief  Enables or disables the analog watchdog on single/all regular
1068:../target/stm32/stdperiph/src/stm32f10x_adc.c ****   *   or injected channels
1069:../target/stm32/stdperiph/src/stm32f10x_adc.c ****   * @param  ADCx: where x can be 1, 2 or 3 to select the ADC peripheral.
1070:../target/stm32/stdperiph/src/stm32f10x_adc.c ****   * @param  ADC_AnalogWatchdog: the ADC analog watchdog configuration.
1071:../target/stm32/stdperiph/src/stm32f10x_adc.c ****   *   This parameter can be one of the following values:
1072:../target/stm32/stdperiph/src/stm32f10x_adc.c ****   *     @arg ADC_AnalogWatchdog_SingleRegEnable: Analog watchdog on a single regular channel
1073:../target/stm32/stdperiph/src/stm32f10x_adc.c ****   *     @arg ADC_AnalogWatchdog_SingleInjecEnable: Analog watchdog on a single injected channel
1074:../target/stm32/stdperiph/src/stm32f10x_adc.c ****   *     @arg ADC_AnalogWatchdog_SingleRegOrInjecEnable: Analog watchdog on a single regular or inje
1075:../target/stm32/stdperiph/src/stm32f10x_adc.c ****   *     @arg ADC_AnalogWatchdog_AllRegEnable: Analog watchdog on  all regular channel
1076:../target/stm32/stdperiph/src/stm32f10x_adc.c ****   *     @arg ADC_AnalogWatchdog_AllInjecEnable: Analog watchdog on  all injected channel
1077:../target/stm32/stdperiph/src/stm32f10x_adc.c ****   *     @arg ADC_AnalogWatchdog_AllRegAllInjecEnable: Analog watchdog on all regular and injected c
1078:../target/stm32/stdperiph/src/stm32f10x_adc.c ****   *     @arg ADC_AnalogWatchdog_None: No channel guarded by the analog watchdog
1079:../target/stm32/stdperiph/src/stm32f10x_adc.c ****   * @retval None	  
1080:../target/stm32/stdperiph/src/stm32f10x_adc.c ****   */
1081:../target/stm32/stdperiph/src/stm32f10x_adc.c **** void ADC_AnalogWatchdogCmd(ADC_TypeDef* ADCx, uint32_t ADC_AnalogWatchdog)
1082:../target/stm32/stdperiph/src/stm32f10x_adc.c **** {
 18625              		.loc 1 1082 0
 18626              		.cfi_startproc
 18627              		@ args = 0, pretend = 0, frame = 16
 18628              		@ frame_needed = 1, uses_anonymous_args = 0
 18629              		@ link register save eliminated.
 18630 0000 80B4     		push	{r7}
 18631              	.LCFI83:
 18632              		.cfi_def_cfa_offset 4
 18633 0002 85B0     		sub	sp, sp, #20
 18634              	.LCFI84:
 18635              		.cfi_def_cfa_offset 24
 18636 0004 00AF     		add	r7, sp, #0
 18637              		.cfi_offset 7, -4
 18638              	.LCFI85:
 18639              		.cfi_def_cfa_register 7
 18640 0006 7860     		str	r0, [r7, #4]
 18641 0008 3960     		str	r1, [r7, #0]
1083:../target/stm32/stdperiph/src/stm32f10x_adc.c ****   uint32_t tmpreg = 0;
 18642              		.loc 1 1083 0
 18643 000a 4FF00003 		mov	r3, #0
 18644 000e FB60     		str	r3, [r7, #12]
1084:../target/stm32/stdperiph/src/stm32f10x_adc.c ****   /* Check the parameters */
1085:../target/stm32/stdperiph/src/stm32f10x_adc.c ****   assert_param(IS_ADC_ALL_PERIPH(ADCx));
1086:../target/stm32/stdperiph/src/stm32f10x_adc.c ****   assert_param(IS_ADC_ANALOG_WATCHDOG(ADC_AnalogWatchdog));
1087:../target/stm32/stdperiph/src/stm32f10x_adc.c ****   /* Get the old register value */
1088:../target/stm32/stdperiph/src/stm32f10x_adc.c ****   tmpreg = ADCx->CR1;
 18645              		.loc 1 1088 0
 18646 0010 7B68     		ldr	r3, [r7, #4]
 18647 0012 5B68     		ldr	r3, [r3, #4]
 18648 0014 FB60     		str	r3, [r7, #12]
1089:../target/stm32/stdperiph/src/stm32f10x_adc.c ****   /* Clear AWDEN, AWDENJ and AWDSGL bits */
1090:../target/stm32/stdperiph/src/stm32f10x_adc.c ****   tmpreg &= CR1_AWDMode_Reset;
 18649              		.loc 1 1090 0
 18650 0016 FB68     		ldr	r3, [r7, #12]
 18651 0018 23F44003 		bic	r3, r3, #12582912
 18652 001c 23F40073 		bic	r3, r3, #512
 18653 0020 FB60     		str	r3, [r7, #12]
1091:../target/stm32/stdperiph/src/stm32f10x_adc.c ****   /* Set the analog watchdog enable mode */
1092:../target/stm32/stdperiph/src/stm32f10x_adc.c ****   tmpreg |= ADC_AnalogWatchdog;
 18654              		.loc 1 1092 0
 18655 0022 FA68     		ldr	r2, [r7, #12]
 18656 0024 3B68     		ldr	r3, [r7, #0]
 18657 0026 42EA0303 		orr	r3, r2, r3
 18658 002a FB60     		str	r3, [r7, #12]
1093:../target/stm32/stdperiph/src/stm32f10x_adc.c ****   /* Store the new register value */
1094:../target/stm32/stdperiph/src/stm32f10x_adc.c ****   ADCx->CR1 = tmpreg;
 18659              		.loc 1 1094 0
 18660 002c 7B68     		ldr	r3, [r7, #4]
 18661 002e FA68     		ldr	r2, [r7, #12]
 18662 0030 5A60     		str	r2, [r3, #4]
1095:../target/stm32/stdperiph/src/stm32f10x_adc.c **** }
 18663              		.loc 1 1095 0
 18664 0032 07F11407 		add	r7, r7, #20
 18665 0036 BD46     		mov	sp, r7
 18666 0038 80BC     		pop	{r7}
 18667 003a 7047     		bx	lr
 18668              		.cfi_endproc
 18669              	.LFE57:
 18671              		.section	.text.ADC_AnalogWatchdogThresholdsConfig,"ax",%progbits
 18672              		.align	2
 18673              		.global	ADC_AnalogWatchdogThresholdsConfig
 18674              		.thumb
 18675              		.thumb_func
 18677              	ADC_AnalogWatchdogThresholdsConfig:
 18678              	.LFB58:
1096:../target/stm32/stdperiph/src/stm32f10x_adc.c **** 
1097:../target/stm32/stdperiph/src/stm32f10x_adc.c **** /**
1098:../target/stm32/stdperiph/src/stm32f10x_adc.c ****   * @brief  Configures the high and low thresholds of the analog watchdog.
1099:../target/stm32/stdperiph/src/stm32f10x_adc.c ****   * @param  ADCx: where x can be 1, 2 or 3 to select the ADC peripheral.
1100:../target/stm32/stdperiph/src/stm32f10x_adc.c ****   * @param  HighThreshold: the ADC analog watchdog High threshold value.
1101:../target/stm32/stdperiph/src/stm32f10x_adc.c ****   *   This parameter must be a 12bit value.
1102:../target/stm32/stdperiph/src/stm32f10x_adc.c ****   * @param  LowThreshold: the ADC analog watchdog Low threshold value.
1103:../target/stm32/stdperiph/src/stm32f10x_adc.c ****   *   This parameter must be a 12bit value.
1104:../target/stm32/stdperiph/src/stm32f10x_adc.c ****   * @retval None
1105:../target/stm32/stdperiph/src/stm32f10x_adc.c ****   */
1106:../target/stm32/stdperiph/src/stm32f10x_adc.c **** void ADC_AnalogWatchdogThresholdsConfig(ADC_TypeDef* ADCx, uint16_t HighThreshold,
1107:../target/stm32/stdperiph/src/stm32f10x_adc.c ****                                         uint16_t LowThreshold)
1108:../target/stm32/stdperiph/src/stm32f10x_adc.c **** {
 18679              		.loc 1 1108 0
 18680              		.cfi_startproc
 18681              		@ args = 0, pretend = 0, frame = 8
 18682              		@ frame_needed = 1, uses_anonymous_args = 0
 18683              		@ link register save eliminated.
 18684 0000 80B4     		push	{r7}
 18685              	.LCFI86:
 18686              		.cfi_def_cfa_offset 4
 18687 0002 83B0     		sub	sp, sp, #12
 18688              	.LCFI87:
 18689              		.cfi_def_cfa_offset 16
 18690 0004 00AF     		add	r7, sp, #0
 18691              		.cfi_offset 7, -4
 18692              	.LCFI88:
 18693              		.cfi_def_cfa_register 7
 18694 0006 7860     		str	r0, [r7, #4]
 18695 0008 1346     		mov	r3, r2
 18696 000a 0A46     		mov	r2, r1	@ movhi
 18697 000c 7A80     		strh	r2, [r7, #2]	@ movhi
 18698 000e 3B80     		strh	r3, [r7, #0]	@ movhi
1109:../target/stm32/stdperiph/src/stm32f10x_adc.c ****   /* Check the parameters */
1110:../target/stm32/stdperiph/src/stm32f10x_adc.c ****   assert_param(IS_ADC_ALL_PERIPH(ADCx));
1111:../target/stm32/stdperiph/src/stm32f10x_adc.c ****   assert_param(IS_ADC_THRESHOLD(HighThreshold));
1112:../target/stm32/stdperiph/src/stm32f10x_adc.c ****   assert_param(IS_ADC_THRESHOLD(LowThreshold));
1113:../target/stm32/stdperiph/src/stm32f10x_adc.c ****   /* Set the ADCx high threshold */
1114:../target/stm32/stdperiph/src/stm32f10x_adc.c ****   ADCx->HTR = HighThreshold;
 18699              		.loc 1 1114 0
 18700 0010 7A88     		ldrh	r2, [r7, #2]
 18701 0012 7B68     		ldr	r3, [r7, #4]
 18702 0014 5A62     		str	r2, [r3, #36]
1115:../target/stm32/stdperiph/src/stm32f10x_adc.c ****   /* Set the ADCx low threshold */
1116:../target/stm32/stdperiph/src/stm32f10x_adc.c ****   ADCx->LTR = LowThreshold;
 18703              		.loc 1 1116 0
 18704 0016 3A88     		ldrh	r2, [r7, #0]
 18705 0018 7B68     		ldr	r3, [r7, #4]
 18706 001a 9A62     		str	r2, [r3, #40]
1117:../target/stm32/stdperiph/src/stm32f10x_adc.c **** }
 18707              		.loc 1 1117 0
 18708 001c 07F10C07 		add	r7, r7, #12
 18709 0020 BD46     		mov	sp, r7
 18710 0022 80BC     		pop	{r7}
 18711 0024 7047     		bx	lr
 18712              		.cfi_endproc
 18713              	.LFE58:
 18715 0026 00BF     		.section	.text.ADC_AnalogWatchdogSingleChannelConfig,"ax",%progbits
 18716              		.align	2
 18717              		.global	ADC_AnalogWatchdogSingleChannelConfig
 18718              		.thumb
 18719              		.thumb_func
 18721              	ADC_AnalogWatchdogSingleChannelConfig:
 18722              	.LFB59:
1118:../target/stm32/stdperiph/src/stm32f10x_adc.c **** 
1119:../target/stm32/stdperiph/src/stm32f10x_adc.c **** /**
1120:../target/stm32/stdperiph/src/stm32f10x_adc.c ****   * @brief  Configures the analog watchdog guarded single channel
1121:../target/stm32/stdperiph/src/stm32f10x_adc.c ****   * @param  ADCx: where x can be 1, 2 or 3 to select the ADC peripheral.
1122:../target/stm32/stdperiph/src/stm32f10x_adc.c ****   * @param  ADC_Channel: the ADC channel to configure for the analog watchdog. 
1123:../target/stm32/stdperiph/src/stm32f10x_adc.c ****   *   This parameter can be one of the following values:
1124:../target/stm32/stdperiph/src/stm32f10x_adc.c ****   *     @arg ADC_Channel_0: ADC Channel0 selected
1125:../target/stm32/stdperiph/src/stm32f10x_adc.c ****   *     @arg ADC_Channel_1: ADC Channel1 selected
1126:../target/stm32/stdperiph/src/stm32f10x_adc.c ****   *     @arg ADC_Channel_2: ADC Channel2 selected
1127:../target/stm32/stdperiph/src/stm32f10x_adc.c ****   *     @arg ADC_Channel_3: ADC Channel3 selected
1128:../target/stm32/stdperiph/src/stm32f10x_adc.c ****   *     @arg ADC_Channel_4: ADC Channel4 selected
1129:../target/stm32/stdperiph/src/stm32f10x_adc.c ****   *     @arg ADC_Channel_5: ADC Channel5 selected
1130:../target/stm32/stdperiph/src/stm32f10x_adc.c ****   *     @arg ADC_Channel_6: ADC Channel6 selected
1131:../target/stm32/stdperiph/src/stm32f10x_adc.c ****   *     @arg ADC_Channel_7: ADC Channel7 selected
1132:../target/stm32/stdperiph/src/stm32f10x_adc.c ****   *     @arg ADC_Channel_8: ADC Channel8 selected
1133:../target/stm32/stdperiph/src/stm32f10x_adc.c ****   *     @arg ADC_Channel_9: ADC Channel9 selected
1134:../target/stm32/stdperiph/src/stm32f10x_adc.c ****   *     @arg ADC_Channel_10: ADC Channel10 selected
1135:../target/stm32/stdperiph/src/stm32f10x_adc.c ****   *     @arg ADC_Channel_11: ADC Channel11 selected
1136:../target/stm32/stdperiph/src/stm32f10x_adc.c ****   *     @arg ADC_Channel_12: ADC Channel12 selected
1137:../target/stm32/stdperiph/src/stm32f10x_adc.c ****   *     @arg ADC_Channel_13: ADC Channel13 selected
1138:../target/stm32/stdperiph/src/stm32f10x_adc.c ****   *     @arg ADC_Channel_14: ADC Channel14 selected
1139:../target/stm32/stdperiph/src/stm32f10x_adc.c ****   *     @arg ADC_Channel_15: ADC Channel15 selected
1140:../target/stm32/stdperiph/src/stm32f10x_adc.c ****   *     @arg ADC_Channel_16: ADC Channel16 selected
1141:../target/stm32/stdperiph/src/stm32f10x_adc.c ****   *     @arg ADC_Channel_17: ADC Channel17 selected
1142:../target/stm32/stdperiph/src/stm32f10x_adc.c ****   * @retval None
1143:../target/stm32/stdperiph/src/stm32f10x_adc.c ****   */
1144:../target/stm32/stdperiph/src/stm32f10x_adc.c **** void ADC_AnalogWatchdogSingleChannelConfig(ADC_TypeDef* ADCx, uint8_t ADC_Channel)
1145:../target/stm32/stdperiph/src/stm32f10x_adc.c **** {
 18723              		.loc 1 1145 0
 18724              		.cfi_startproc
 18725              		@ args = 0, pretend = 0, frame = 16
 18726              		@ frame_needed = 1, uses_anonymous_args = 0
 18727              		@ link register save eliminated.
 18728 0000 80B4     		push	{r7}
 18729              	.LCFI89:
 18730              		.cfi_def_cfa_offset 4
 18731 0002 85B0     		sub	sp, sp, #20
 18732              	.LCFI90:
 18733              		.cfi_def_cfa_offset 24
 18734 0004 00AF     		add	r7, sp, #0
 18735              		.cfi_offset 7, -4
 18736              	.LCFI91:
 18737              		.cfi_def_cfa_register 7
 18738 0006 7860     		str	r0, [r7, #4]
 18739 0008 0B46     		mov	r3, r1
 18740 000a FB70     		strb	r3, [r7, #3]
1146:../target/stm32/stdperiph/src/stm32f10x_adc.c ****   uint32_t tmpreg = 0;
 18741              		.loc 1 1146 0
 18742 000c 4FF00003 		mov	r3, #0
 18743 0010 FB60     		str	r3, [r7, #12]
1147:../target/stm32/stdperiph/src/stm32f10x_adc.c ****   /* Check the parameters */
1148:../target/stm32/stdperiph/src/stm32f10x_adc.c ****   assert_param(IS_ADC_ALL_PERIPH(ADCx));
1149:../target/stm32/stdperiph/src/stm32f10x_adc.c ****   assert_param(IS_ADC_CHANNEL(ADC_Channel));
1150:../target/stm32/stdperiph/src/stm32f10x_adc.c ****   /* Get the old register value */
1151:../target/stm32/stdperiph/src/stm32f10x_adc.c ****   tmpreg = ADCx->CR1;
 18744              		.loc 1 1151 0
 18745 0012 7B68     		ldr	r3, [r7, #4]
 18746 0014 5B68     		ldr	r3, [r3, #4]
 18747 0016 FB60     		str	r3, [r7, #12]
1152:../target/stm32/stdperiph/src/stm32f10x_adc.c ****   /* Clear the Analog watchdog channel select bits */
1153:../target/stm32/stdperiph/src/stm32f10x_adc.c ****   tmpreg &= CR1_AWDCH_Reset;
 18748              		.loc 1 1153 0
 18749 0018 FB68     		ldr	r3, [r7, #12]
 18750 001a 23F01F03 		bic	r3, r3, #31
 18751 001e FB60     		str	r3, [r7, #12]
1154:../target/stm32/stdperiph/src/stm32f10x_adc.c ****   /* Set the Analog watchdog channel */
1155:../target/stm32/stdperiph/src/stm32f10x_adc.c ****   tmpreg |= ADC_Channel;
 18752              		.loc 1 1155 0
 18753 0020 FB78     		ldrb	r3, [r7, #3]	@ zero_extendqisi2
 18754 0022 FA68     		ldr	r2, [r7, #12]
 18755 0024 42EA0303 		orr	r3, r2, r3
 18756 0028 FB60     		str	r3, [r7, #12]
1156:../target/stm32/stdperiph/src/stm32f10x_adc.c ****   /* Store the new register value */
1157:../target/stm32/stdperiph/src/stm32f10x_adc.c ****   ADCx->CR1 = tmpreg;
 18757              		.loc 1 1157 0
 18758 002a 7B68     		ldr	r3, [r7, #4]
 18759 002c FA68     		ldr	r2, [r7, #12]
 18760 002e 5A60     		str	r2, [r3, #4]
1158:../target/stm32/stdperiph/src/stm32f10x_adc.c **** }
 18761              		.loc 1 1158 0
 18762 0030 07F11407 		add	r7, r7, #20
 18763 0034 BD46     		mov	sp, r7
 18764 0036 80BC     		pop	{r7}
 18765 0038 7047     		bx	lr
 18766              		.cfi_endproc
 18767              	.LFE59:
 18769 003a 00BF     		.section	.text.ADC_TempSensorVrefintCmd,"ax",%progbits
 18770              		.align	2
 18771              		.global	ADC_TempSensorVrefintCmd
 18772              		.thumb
 18773              		.thumb_func
 18775              	ADC_TempSensorVrefintCmd:
 18776              	.LFB60:
1159:../target/stm32/stdperiph/src/stm32f10x_adc.c **** 
1160:../target/stm32/stdperiph/src/stm32f10x_adc.c **** /**
1161:../target/stm32/stdperiph/src/stm32f10x_adc.c ****   * @brief  Enables or disables the temperature sensor and Vrefint channel.
1162:../target/stm32/stdperiph/src/stm32f10x_adc.c ****   * @param  NewState: new state of the temperature sensor.
1163:../target/stm32/stdperiph/src/stm32f10x_adc.c ****   *   This parameter can be: ENABLE or DISABLE.
1164:../target/stm32/stdperiph/src/stm32f10x_adc.c ****   * @retval None
1165:../target/stm32/stdperiph/src/stm32f10x_adc.c ****   */
1166:../target/stm32/stdperiph/src/stm32f10x_adc.c **** void ADC_TempSensorVrefintCmd(FunctionalState NewState)
1167:../target/stm32/stdperiph/src/stm32f10x_adc.c **** {
 18777              		.loc 1 1167 0
 18778              		.cfi_startproc
 18779              		@ args = 0, pretend = 0, frame = 8
 18780              		@ frame_needed = 1, uses_anonymous_args = 0
 18781              		@ link register save eliminated.
 18782 0000 80B4     		push	{r7}
 18783              	.LCFI92:
 18784              		.cfi_def_cfa_offset 4
 18785 0002 83B0     		sub	sp, sp, #12
 18786              	.LCFI93:
 18787              		.cfi_def_cfa_offset 16
 18788 0004 00AF     		add	r7, sp, #0
 18789              		.cfi_offset 7, -4
 18790              	.LCFI94:
 18791              		.cfi_def_cfa_register 7
 18792 0006 0346     		mov	r3, r0
 18793 0008 FB71     		strb	r3, [r7, #7]
1168:../target/stm32/stdperiph/src/stm32f10x_adc.c ****   /* Check the parameters */
1169:../target/stm32/stdperiph/src/stm32f10x_adc.c ****   assert_param(IS_FUNCTIONAL_STATE(NewState));
1170:../target/stm32/stdperiph/src/stm32f10x_adc.c ****   if (NewState != DISABLE)
 18794              		.loc 1 1170 0
 18795 000a FB79     		ldrb	r3, [r7, #7]	@ zero_extendqisi2
 18796 000c 002B     		cmp	r3, #0
 18797 000e 0CD0     		beq	.L71
1171:../target/stm32/stdperiph/src/stm32f10x_adc.c ****   {
1172:../target/stm32/stdperiph/src/stm32f10x_adc.c ****     /* Enable the temperature sensor and Vrefint channel*/
1173:../target/stm32/stdperiph/src/stm32f10x_adc.c ****     ADC1->CR2 |= CR2_TSVREFE_Set;
 18798              		.loc 1 1173 0
 18799 0010 4FF41053 		mov	r3, #9216
 18800 0014 C4F20103 		movt	r3, 16385
 18801 0018 4FF41052 		mov	r2, #9216
 18802 001c C4F20102 		movt	r2, 16385
 18803 0020 9268     		ldr	r2, [r2, #8]
 18804 0022 42F40002 		orr	r2, r2, #8388608
 18805 0026 9A60     		str	r2, [r3, #8]
 18806 0028 0BE0     		b	.L70
 18807              	.L71:
1174:../target/stm32/stdperiph/src/stm32f10x_adc.c ****   }
1175:../target/stm32/stdperiph/src/stm32f10x_adc.c ****   else
1176:../target/stm32/stdperiph/src/stm32f10x_adc.c ****   {
1177:../target/stm32/stdperiph/src/stm32f10x_adc.c ****     /* Disable the temperature sensor and Vrefint channel*/
1178:../target/stm32/stdperiph/src/stm32f10x_adc.c ****     ADC1->CR2 &= CR2_TSVREFE_Reset;
 18808              		.loc 1 1178 0
 18809 002a 4FF41053 		mov	r3, #9216
 18810 002e C4F20103 		movt	r3, 16385
 18811 0032 4FF41052 		mov	r2, #9216
 18812 0036 C4F20102 		movt	r2, 16385
 18813 003a 9268     		ldr	r2, [r2, #8]
 18814 003c 22F40002 		bic	r2, r2, #8388608
 18815 0040 9A60     		str	r2, [r3, #8]
 18816              	.L70:
1179:../target/stm32/stdperiph/src/stm32f10x_adc.c ****   }
1180:../target/stm32/stdperiph/src/stm32f10x_adc.c **** }
 18817              		.loc 1 1180 0
 18818 0042 07F10C07 		add	r7, r7, #12
 18819 0046 BD46     		mov	sp, r7
 18820 0048 80BC     		pop	{r7}
 18821 004a 7047     		bx	lr
 18822              		.cfi_endproc
 18823              	.LFE60:
 18825              		.section	.text.ADC_GetFlagStatus,"ax",%progbits
 18826              		.align	2
 18827              		.global	ADC_GetFlagStatus
 18828              		.thumb
 18829              		.thumb_func
 18831              	ADC_GetFlagStatus:
 18832              	.LFB61:
1181:../target/stm32/stdperiph/src/stm32f10x_adc.c **** 
1182:../target/stm32/stdperiph/src/stm32f10x_adc.c **** /**
1183:../target/stm32/stdperiph/src/stm32f10x_adc.c ****   * @brief  Checks whether the specified ADC flag is set or not.
1184:../target/stm32/stdperiph/src/stm32f10x_adc.c ****   * @param  ADCx: where x can be 1, 2 or 3 to select the ADC peripheral.
1185:../target/stm32/stdperiph/src/stm32f10x_adc.c ****   * @param  ADC_FLAG: specifies the flag to check. 
1186:../target/stm32/stdperiph/src/stm32f10x_adc.c ****   *   This parameter can be one of the following values:
1187:../target/stm32/stdperiph/src/stm32f10x_adc.c ****   *     @arg ADC_FLAG_AWD: Analog watchdog flag
1188:../target/stm32/stdperiph/src/stm32f10x_adc.c ****   *     @arg ADC_FLAG_EOC: End of conversion flag
1189:../target/stm32/stdperiph/src/stm32f10x_adc.c ****   *     @arg ADC_FLAG_JEOC: End of injected group conversion flag
1190:../target/stm32/stdperiph/src/stm32f10x_adc.c ****   *     @arg ADC_FLAG_JSTRT: Start of injected group conversion flag
1191:../target/stm32/stdperiph/src/stm32f10x_adc.c ****   *     @arg ADC_FLAG_STRT: Start of regular group conversion flag
1192:../target/stm32/stdperiph/src/stm32f10x_adc.c ****   * @retval The new state of ADC_FLAG (SET or RESET).
1193:../target/stm32/stdperiph/src/stm32f10x_adc.c ****   */
1194:../target/stm32/stdperiph/src/stm32f10x_adc.c **** FlagStatus ADC_GetFlagStatus(ADC_TypeDef* ADCx, uint8_t ADC_FLAG)
1195:../target/stm32/stdperiph/src/stm32f10x_adc.c **** {
 18833              		.loc 1 1195 0
 18834              		.cfi_startproc
 18835              		@ args = 0, pretend = 0, frame = 16
 18836              		@ frame_needed = 1, uses_anonymous_args = 0
 18837              		@ link register save eliminated.
 18838 0000 80B4     		push	{r7}
 18839              	.LCFI95:
 18840              		.cfi_def_cfa_offset 4
 18841 0002 85B0     		sub	sp, sp, #20
 18842              	.LCFI96:
 18843              		.cfi_def_cfa_offset 24
 18844 0004 00AF     		add	r7, sp, #0
 18845              		.cfi_offset 7, -4
 18846              	.LCFI97:
 18847              		.cfi_def_cfa_register 7
 18848 0006 7860     		str	r0, [r7, #4]
 18849 0008 0B46     		mov	r3, r1
 18850 000a FB70     		strb	r3, [r7, #3]
1196:../target/stm32/stdperiph/src/stm32f10x_adc.c ****   FlagStatus bitstatus = RESET;
 18851              		.loc 1 1196 0
 18852 000c 4FF00003 		mov	r3, #0
 18853 0010 FB73     		strb	r3, [r7, #15]
1197:../target/stm32/stdperiph/src/stm32f10x_adc.c ****   /* Check the parameters */
1198:../target/stm32/stdperiph/src/stm32f10x_adc.c ****   assert_param(IS_ADC_ALL_PERIPH(ADCx));
1199:../target/stm32/stdperiph/src/stm32f10x_adc.c ****   assert_param(IS_ADC_GET_FLAG(ADC_FLAG));
1200:../target/stm32/stdperiph/src/stm32f10x_adc.c ****   /* Check the status of the specified ADC flag */
1201:../target/stm32/stdperiph/src/stm32f10x_adc.c ****   if ((ADCx->SR & ADC_FLAG) != (uint8_t)RESET)
 18854              		.loc 1 1201 0
 18855 0012 7B68     		ldr	r3, [r7, #4]
 18856 0014 1B68     		ldr	r3, [r3, #0]
 18857 0016 1A46     		mov	r2, r3
 18858 0018 FB78     		ldrb	r3, [r7, #3]	@ zero_extendqisi2
 18859 001a 02EA0303 		and	r3, r2, r3
 18860 001e 002B     		cmp	r3, #0
 18861 0020 03D0     		beq	.L74
1202:../target/stm32/stdperiph/src/stm32f10x_adc.c ****   {
1203:../target/stm32/stdperiph/src/stm32f10x_adc.c ****     /* ADC_FLAG is set */
1204:../target/stm32/stdperiph/src/stm32f10x_adc.c ****     bitstatus = SET;
 18862              		.loc 1 1204 0
 18863 0022 4FF00103 		mov	r3, #1
 18864 0026 FB73     		strb	r3, [r7, #15]
 18865 0028 02E0     		b	.L75
 18866              	.L74:
1205:../target/stm32/stdperiph/src/stm32f10x_adc.c ****   }
1206:../target/stm32/stdperiph/src/stm32f10x_adc.c ****   else
1207:../target/stm32/stdperiph/src/stm32f10x_adc.c ****   {
1208:../target/stm32/stdperiph/src/stm32f10x_adc.c ****     /* ADC_FLAG is reset */
1209:../target/stm32/stdperiph/src/stm32f10x_adc.c ****     bitstatus = RESET;
 18867              		.loc 1 1209 0
 18868 002a 4FF00003 		mov	r3, #0
 18869 002e FB73     		strb	r3, [r7, #15]
 18870              	.L75:
1210:../target/stm32/stdperiph/src/stm32f10x_adc.c ****   }
1211:../target/stm32/stdperiph/src/stm32f10x_adc.c ****   /* Return the ADC_FLAG status */
1212:../target/stm32/stdperiph/src/stm32f10x_adc.c ****   return  bitstatus;
 18871              		.loc 1 1212 0
 18872 0030 FB7B     		ldrb	r3, [r7, #15]	@ zero_extendqisi2
1213:../target/stm32/stdperiph/src/stm32f10x_adc.c **** }
 18873              		.loc 1 1213 0
 18874 0032 1846     		mov	r0, r3
 18875 0034 07F11407 		add	r7, r7, #20
 18876 0038 BD46     		mov	sp, r7
 18877 003a 80BC     		pop	{r7}
 18878 003c 7047     		bx	lr
 18879              		.cfi_endproc
 18880              	.LFE61:
 18882 003e 00BF     		.section	.text.ADC_ClearFlag,"ax",%progbits
 18883              		.align	2
 18884              		.global	ADC_ClearFlag
 18885              		.thumb
 18886              		.thumb_func
 18888              	ADC_ClearFlag:
 18889              	.LFB62:
1214:../target/stm32/stdperiph/src/stm32f10x_adc.c **** 
1215:../target/stm32/stdperiph/src/stm32f10x_adc.c **** /**
1216:../target/stm32/stdperiph/src/stm32f10x_adc.c ****   * @brief  Clears the ADCx's pending flags.
1217:../target/stm32/stdperiph/src/stm32f10x_adc.c ****   * @param  ADCx: where x can be 1, 2 or 3 to select the ADC peripheral.
1218:../target/stm32/stdperiph/src/stm32f10x_adc.c ****   * @param  ADC_FLAG: specifies the flag to clear. 
1219:../target/stm32/stdperiph/src/stm32f10x_adc.c ****   *   This parameter can be any combination of the following values:
1220:../target/stm32/stdperiph/src/stm32f10x_adc.c ****   *     @arg ADC_FLAG_AWD: Analog watchdog flag
1221:../target/stm32/stdperiph/src/stm32f10x_adc.c ****   *     @arg ADC_FLAG_EOC: End of conversion flag
1222:../target/stm32/stdperiph/src/stm32f10x_adc.c ****   *     @arg ADC_FLAG_JEOC: End of injected group conversion flag
1223:../target/stm32/stdperiph/src/stm32f10x_adc.c ****   *     @arg ADC_FLAG_JSTRT: Start of injected group conversion flag
1224:../target/stm32/stdperiph/src/stm32f10x_adc.c ****   *     @arg ADC_FLAG_STRT: Start of regular group conversion flag
1225:../target/stm32/stdperiph/src/stm32f10x_adc.c ****   * @retval None
1226:../target/stm32/stdperiph/src/stm32f10x_adc.c ****   */
1227:../target/stm32/stdperiph/src/stm32f10x_adc.c **** void ADC_ClearFlag(ADC_TypeDef* ADCx, uint8_t ADC_FLAG)
1228:../target/stm32/stdperiph/src/stm32f10x_adc.c **** {
 18890              		.loc 1 1228 0
 18891              		.cfi_startproc
 18892              		@ args = 0, pretend = 0, frame = 8
 18893              		@ frame_needed = 1, uses_anonymous_args = 0
 18894              		@ link register save eliminated.
 18895 0000 80B4     		push	{r7}
 18896              	.LCFI98:
 18897              		.cfi_def_cfa_offset 4
 18898 0002 83B0     		sub	sp, sp, #12
 18899              	.LCFI99:
 18900              		.cfi_def_cfa_offset 16
 18901 0004 00AF     		add	r7, sp, #0
 18902              		.cfi_offset 7, -4
 18903              	.LCFI100:
 18904              		.cfi_def_cfa_register 7
 18905 0006 7860     		str	r0, [r7, #4]
 18906 0008 0B46     		mov	r3, r1
 18907 000a FB70     		strb	r3, [r7, #3]
1229:../target/stm32/stdperiph/src/stm32f10x_adc.c ****   /* Check the parameters */
1230:../target/stm32/stdperiph/src/stm32f10x_adc.c ****   assert_param(IS_ADC_ALL_PERIPH(ADCx));
1231:../target/stm32/stdperiph/src/stm32f10x_adc.c ****   assert_param(IS_ADC_CLEAR_FLAG(ADC_FLAG));
1232:../target/stm32/stdperiph/src/stm32f10x_adc.c ****   /* Clear the selected ADC flags */
1233:../target/stm32/stdperiph/src/stm32f10x_adc.c ****   ADCx->SR = ~(uint32_t)ADC_FLAG;
 18908              		.loc 1 1233 0
 18909 000c FB78     		ldrb	r3, [r7, #3]	@ zero_extendqisi2
 18910 000e 6FEA0302 		mvn	r2, r3
 18911 0012 7B68     		ldr	r3, [r7, #4]
 18912 0014 1A60     		str	r2, [r3, #0]
1234:../target/stm32/stdperiph/src/stm32f10x_adc.c **** }
 18913              		.loc 1 1234 0
 18914 0016 07F10C07 		add	r7, r7, #12
 18915 001a BD46     		mov	sp, r7
 18916 001c 80BC     		pop	{r7}
 18917 001e 7047     		bx	lr
 18918              		.cfi_endproc
 18919              	.LFE62:
 18921              		.section	.text.ADC_GetITStatus,"ax",%progbits
 18922              		.align	2
 18923              		.global	ADC_GetITStatus
 18924              		.thumb
 18925              		.thumb_func
 18927              	ADC_GetITStatus:
 18928              	.LFB63:
1235:../target/stm32/stdperiph/src/stm32f10x_adc.c **** 
1236:../target/stm32/stdperiph/src/stm32f10x_adc.c **** /**
1237:../target/stm32/stdperiph/src/stm32f10x_adc.c ****   * @brief  Checks whether the specified ADC interrupt has occurred or not.
1238:../target/stm32/stdperiph/src/stm32f10x_adc.c ****   * @param  ADCx: where x can be 1, 2 or 3 to select the ADC peripheral.
1239:../target/stm32/stdperiph/src/stm32f10x_adc.c ****   * @param  ADC_IT: specifies the ADC interrupt source to check. 
1240:../target/stm32/stdperiph/src/stm32f10x_adc.c ****   *   This parameter can be one of the following values:
1241:../target/stm32/stdperiph/src/stm32f10x_adc.c ****   *     @arg ADC_IT_EOC: End of conversion interrupt mask
1242:../target/stm32/stdperiph/src/stm32f10x_adc.c ****   *     @arg ADC_IT_AWD: Analog watchdog interrupt mask
1243:../target/stm32/stdperiph/src/stm32f10x_adc.c ****   *     @arg ADC_IT_JEOC: End of injected conversion interrupt mask
1244:../target/stm32/stdperiph/src/stm32f10x_adc.c ****   * @retval The new state of ADC_IT (SET or RESET).
1245:../target/stm32/stdperiph/src/stm32f10x_adc.c ****   */
1246:../target/stm32/stdperiph/src/stm32f10x_adc.c **** ITStatus ADC_GetITStatus(ADC_TypeDef* ADCx, uint16_t ADC_IT)
1247:../target/stm32/stdperiph/src/stm32f10x_adc.c **** {
 18929              		.loc 1 1247 0
 18930              		.cfi_startproc
 18931              		@ args = 0, pretend = 0, frame = 24
 18932              		@ frame_needed = 1, uses_anonymous_args = 0
 18933              		@ link register save eliminated.
 18934 0000 80B4     		push	{r7}
 18935              	.LCFI101:
 18936              		.cfi_def_cfa_offset 4
 18937 0002 87B0     		sub	sp, sp, #28
 18938              	.LCFI102:
 18939              		.cfi_def_cfa_offset 32
 18940 0004 00AF     		add	r7, sp, #0
 18941              		.cfi_offset 7, -4
 18942              	.LCFI103:
 18943              		.cfi_def_cfa_register 7
 18944 0006 7860     		str	r0, [r7, #4]
 18945 0008 0B46     		mov	r3, r1
 18946 000a 7B80     		strh	r3, [r7, #2]	@ movhi
1248:../target/stm32/stdperiph/src/stm32f10x_adc.c ****   ITStatus bitstatus = RESET;
 18947              		.loc 1 1248 0
 18948 000c 4FF00003 		mov	r3, #0
 18949 0010 FB75     		strb	r3, [r7, #23]
1249:../target/stm32/stdperiph/src/stm32f10x_adc.c ****   uint32_t itmask = 0, enablestatus = 0;
 18950              		.loc 1 1249 0
 18951 0012 4FF00003 		mov	r3, #0
 18952 0016 3B61     		str	r3, [r7, #16]
 18953 0018 4FF00003 		mov	r3, #0
 18954 001c FB60     		str	r3, [r7, #12]
1250:../target/stm32/stdperiph/src/stm32f10x_adc.c ****   /* Check the parameters */
1251:../target/stm32/stdperiph/src/stm32f10x_adc.c ****   assert_param(IS_ADC_ALL_PERIPH(ADCx));
1252:../target/stm32/stdperiph/src/stm32f10x_adc.c ****   assert_param(IS_ADC_GET_IT(ADC_IT));
1253:../target/stm32/stdperiph/src/stm32f10x_adc.c ****   /* Get the ADC IT index */
1254:../target/stm32/stdperiph/src/stm32f10x_adc.c ****   itmask = ADC_IT >> 8;
 18955              		.loc 1 1254 0
 18956 001e 7B88     		ldrh	r3, [r7, #2]
 18957 0020 4FEA1323 		lsr	r3, r3, #8
 18958 0024 9BB2     		uxth	r3, r3
 18959 0026 3B61     		str	r3, [r7, #16]
1255:../target/stm32/stdperiph/src/stm32f10x_adc.c ****   /* Get the ADC_IT enable bit status */
1256:../target/stm32/stdperiph/src/stm32f10x_adc.c ****   enablestatus = (ADCx->CR1 & (uint8_t)ADC_IT) ;
 18960              		.loc 1 1256 0
 18961 0028 7B68     		ldr	r3, [r7, #4]
 18962 002a 5B68     		ldr	r3, [r3, #4]
 18963 002c 1A46     		mov	r2, r3
 18964 002e 7B88     		ldrh	r3, [r7, #2]	@ movhi
 18965 0030 DBB2     		uxtb	r3, r3
 18966 0032 02EA0303 		and	r3, r2, r3
 18967 0036 FB60     		str	r3, [r7, #12]
1257:../target/stm32/stdperiph/src/stm32f10x_adc.c ****   /* Check the status of the specified ADC interrupt */
1258:../target/stm32/stdperiph/src/stm32f10x_adc.c ****   if (((ADCx->SR & itmask) != (uint32_t)RESET) && enablestatus)
 18968              		.loc 1 1258 0
 18969 0038 7B68     		ldr	r3, [r7, #4]
 18970 003a 1B68     		ldr	r3, [r3, #0]
 18971 003c 1A46     		mov	r2, r3
 18972 003e 3B69     		ldr	r3, [r7, #16]
 18973 0040 02EA0303 		and	r3, r2, r3
 18974 0044 002B     		cmp	r3, #0
 18975 0046 06D0     		beq	.L78
 18976              		.loc 1 1258 0 is_stmt 0 discriminator 1
 18977 0048 FB68     		ldr	r3, [r7, #12]
 18978 004a 002B     		cmp	r3, #0
 18979 004c 03D0     		beq	.L78
1259:../target/stm32/stdperiph/src/stm32f10x_adc.c ****   {
1260:../target/stm32/stdperiph/src/stm32f10x_adc.c ****     /* ADC_IT is set */
1261:../target/stm32/stdperiph/src/stm32f10x_adc.c ****     bitstatus = SET;
 18980              		.loc 1 1261 0 is_stmt 1
 18981 004e 4FF00103 		mov	r3, #1
 18982 0052 FB75     		strb	r3, [r7, #23]
 18983 0054 02E0     		b	.L79
 18984              	.L78:
1262:../target/stm32/stdperiph/src/stm32f10x_adc.c ****   }
1263:../target/stm32/stdperiph/src/stm32f10x_adc.c ****   else
1264:../target/stm32/stdperiph/src/stm32f10x_adc.c ****   {
1265:../target/stm32/stdperiph/src/stm32f10x_adc.c ****     /* ADC_IT is reset */
1266:../target/stm32/stdperiph/src/stm32f10x_adc.c ****     bitstatus = RESET;
 18985              		.loc 1 1266 0
 18986 0056 4FF00003 		mov	r3, #0
 18987 005a FB75     		strb	r3, [r7, #23]
 18988              	.L79:
1267:../target/stm32/stdperiph/src/stm32f10x_adc.c ****   }
1268:../target/stm32/stdperiph/src/stm32f10x_adc.c ****   /* Return the ADC_IT status */
1269:../target/stm32/stdperiph/src/stm32f10x_adc.c ****   return  bitstatus;
 18989              		.loc 1 1269 0
 18990 005c FB7D     		ldrb	r3, [r7, #23]	@ zero_extendqisi2
1270:../target/stm32/stdperiph/src/stm32f10x_adc.c **** }
 18991              		.loc 1 1270 0
 18992 005e 1846     		mov	r0, r3
 18993 0060 07F11C07 		add	r7, r7, #28
 18994 0064 BD46     		mov	sp, r7
 18995 0066 80BC     		pop	{r7}
 18996 0068 7047     		bx	lr
 18997              		.cfi_endproc
 18998              	.LFE63:
 19000 006a 00BF     		.section	.text.ADC_ClearITPendingBit,"ax",%progbits
 19001              		.align	2
 19002              		.global	ADC_ClearITPendingBit
 19003              		.thumb
 19004              		.thumb_func
 19006              	ADC_ClearITPendingBit:
 19007              	.LFB64:
1271:../target/stm32/stdperiph/src/stm32f10x_adc.c **** 
1272:../target/stm32/stdperiph/src/stm32f10x_adc.c **** /**
1273:../target/stm32/stdperiph/src/stm32f10x_adc.c ****   * @brief  Clears the ADCxs interrupt pending bits.
1274:../target/stm32/stdperiph/src/stm32f10x_adc.c ****   * @param  ADCx: where x can be 1, 2 or 3 to select the ADC peripheral.
1275:../target/stm32/stdperiph/src/stm32f10x_adc.c ****   * @param  ADC_IT: specifies the ADC interrupt pending bit to clear.
1276:../target/stm32/stdperiph/src/stm32f10x_adc.c ****   *   This parameter can be any combination of the following values:
1277:../target/stm32/stdperiph/src/stm32f10x_adc.c ****   *     @arg ADC_IT_EOC: End of conversion interrupt mask
1278:../target/stm32/stdperiph/src/stm32f10x_adc.c ****   *     @arg ADC_IT_AWD: Analog watchdog interrupt mask
1279:../target/stm32/stdperiph/src/stm32f10x_adc.c ****   *     @arg ADC_IT_JEOC: End of injected conversion interrupt mask
1280:../target/stm32/stdperiph/src/stm32f10x_adc.c ****   * @retval None
1281:../target/stm32/stdperiph/src/stm32f10x_adc.c ****   */
1282:../target/stm32/stdperiph/src/stm32f10x_adc.c **** void ADC_ClearITPendingBit(ADC_TypeDef* ADCx, uint16_t ADC_IT)
1283:../target/stm32/stdperiph/src/stm32f10x_adc.c **** {
 19008              		.loc 1 1283 0
 19009              		.cfi_startproc
 19010              		@ args = 0, pretend = 0, frame = 16
 19011              		@ frame_needed = 1, uses_anonymous_args = 0
 19012              		@ link register save eliminated.
 19013 0000 80B4     		push	{r7}
 19014              	.LCFI104:
 19015              		.cfi_def_cfa_offset 4
 19016 0002 85B0     		sub	sp, sp, #20
 19017              	.LCFI105:
 19018              		.cfi_def_cfa_offset 24
 19019 0004 00AF     		add	r7, sp, #0
 19020              		.cfi_offset 7, -4
 19021              	.LCFI106:
 19022              		.cfi_def_cfa_register 7
 19023 0006 7860     		str	r0, [r7, #4]
 19024 0008 0B46     		mov	r3, r1
 19025 000a 7B80     		strh	r3, [r7, #2]	@ movhi
1284:../target/stm32/stdperiph/src/stm32f10x_adc.c ****   uint8_t itmask = 0;
 19026              		.loc 1 1284 0
 19027 000c 4FF00003 		mov	r3, #0
 19028 0010 FB73     		strb	r3, [r7, #15]
1285:../target/stm32/stdperiph/src/stm32f10x_adc.c ****   /* Check the parameters */
1286:../target/stm32/stdperiph/src/stm32f10x_adc.c ****   assert_param(IS_ADC_ALL_PERIPH(ADCx));
1287:../target/stm32/stdperiph/src/stm32f10x_adc.c ****   assert_param(IS_ADC_IT(ADC_IT));
1288:../target/stm32/stdperiph/src/stm32f10x_adc.c ****   /* Get the ADC IT index */
1289:../target/stm32/stdperiph/src/stm32f10x_adc.c ****   itmask = (uint8_t)(ADC_IT >> 8);
 19029              		.loc 1 1289 0
 19030 0012 7B88     		ldrh	r3, [r7, #2]
 19031 0014 4FEA1323 		lsr	r3, r3, #8
 19032 0018 9BB2     		uxth	r3, r3
 19033 001a FB73     		strb	r3, [r7, #15]
1290:../target/stm32/stdperiph/src/stm32f10x_adc.c ****   /* Clear the selected ADC interrupt pending bits */
1291:../target/stm32/stdperiph/src/stm32f10x_adc.c ****   ADCx->SR = ~(uint32_t)itmask;
 19034              		.loc 1 1291 0
 19035 001c FB7B     		ldrb	r3, [r7, #15]	@ zero_extendqisi2
 19036 001e 6FEA0302 		mvn	r2, r3
 19037 0022 7B68     		ldr	r3, [r7, #4]
 19038 0024 1A60     		str	r2, [r3, #0]
1292:../target/stm32/stdperiph/src/stm32f10x_adc.c **** }
 19039              		.loc 1 1292 0
 19040 0026 07F11407 		add	r7, r7, #20
 19041 002a BD46     		mov	sp, r7
 19042 002c 80BC     		pop	{r7}
 19043 002e 7047     		bx	lr
 19044              		.cfi_endproc
 19045              	.LFE64:
 19047              		.text
 19048              	.Letext0: