   1              		.syntax unified
   2              		.cpu cortex-m3
   3              		.fpu softvfp
   4              		.eabi_attribute 20, 1
   5              		.eabi_attribute 21, 1
   6              		.eabi_attribute 23, 3
   7              		.eabi_attribute 24, 1
   8              		.eabi_attribute 25, 1
   9              		.eabi_attribute 26, 1
  10              		.eabi_attribute 30, 6
  11              		.eabi_attribute 18, 4
  12              		.thumb
  13              		.file	"stm32f10x_rtc.c"
  23              	.Ltext0:
  24              		.file 1 "../target/stm32/stdperiph/src/stm32f10x_rtc.c"
 15788              		.align	2
 15789              		.global	RTC_ITConfig
 15790              		.thumb
 15791              		.thumb_func
 15793              	RTC_ITConfig:
 15794              	.LFB29:
   1:../target/stm32/stdperiph/src/stm32f10x_rtc.c **** /**
   2:../target/stm32/stdperiph/src/stm32f10x_rtc.c ****   ******************************************************************************
   3:../target/stm32/stdperiph/src/stm32f10x_rtc.c ****   * @file    stm32f10x_rtc.c
   4:../target/stm32/stdperiph/src/stm32f10x_rtc.c ****   * @author  MCD Application Team
   5:../target/stm32/stdperiph/src/stm32f10x_rtc.c ****   * @version V3.4.0
   6:../target/stm32/stdperiph/src/stm32f10x_rtc.c ****   * @date    10/15/2010
   7:../target/stm32/stdperiph/src/stm32f10x_rtc.c ****   * @brief   This file provides all the RTC firmware functions.
   8:../target/stm32/stdperiph/src/stm32f10x_rtc.c ****   ******************************************************************************
   9:../target/stm32/stdperiph/src/stm32f10x_rtc.c ****   * @copy
  10:../target/stm32/stdperiph/src/stm32f10x_rtc.c ****   *
  11:../target/stm32/stdperiph/src/stm32f10x_rtc.c ****   * THE PRESENT FIRMWARE WHICH IS FOR GUIDANCE ONLY AIMS AT PROVIDING CUSTOMERS
  12:../target/stm32/stdperiph/src/stm32f10x_rtc.c ****   * WITH CODING INFORMATION REGARDING THEIR PRODUCTS IN ORDER FOR THEM TO SAVE
  13:../target/stm32/stdperiph/src/stm32f10x_rtc.c ****   * TIME. AS A RESULT, STMICROELECTRONICS SHALL NOT BE HELD LIABLE FOR ANY
  14:../target/stm32/stdperiph/src/stm32f10x_rtc.c ****   * DIRECT, INDIRECT OR CONSEQUENTIAL DAMAGES WITH RESPECT TO ANY CLAIMS ARISING
  15:../target/stm32/stdperiph/src/stm32f10x_rtc.c ****   * FROM THE CONTENT OF SUCH FIRMWARE AND/OR THE USE MADE BY CUSTOMERS OF THE
  16:../target/stm32/stdperiph/src/stm32f10x_rtc.c ****   * CODING INFORMATION CONTAINED HEREIN IN CONNECTION WITH THEIR PRODUCTS.
  17:../target/stm32/stdperiph/src/stm32f10x_rtc.c ****   *
  18:../target/stm32/stdperiph/src/stm32f10x_rtc.c ****   * <h2><center>&copy; COPYRIGHT 2010 STMicroelectronics</center></h2>
  19:../target/stm32/stdperiph/src/stm32f10x_rtc.c ****   */ 
  20:../target/stm32/stdperiph/src/stm32f10x_rtc.c **** 
  21:../target/stm32/stdperiph/src/stm32f10x_rtc.c **** /* Includes ------------------------------------------------------------------*/
  22:../target/stm32/stdperiph/src/stm32f10x_rtc.c **** #include "stm32f10x_rtc.h"
  23:../target/stm32/stdperiph/src/stm32f10x_rtc.c **** 
  24:../target/stm32/stdperiph/src/stm32f10x_rtc.c **** /** @addtogroup STM32F10x_StdPeriph_Driver
  25:../target/stm32/stdperiph/src/stm32f10x_rtc.c ****   * @{
  26:../target/stm32/stdperiph/src/stm32f10x_rtc.c ****   */
  27:../target/stm32/stdperiph/src/stm32f10x_rtc.c **** 
  28:../target/stm32/stdperiph/src/stm32f10x_rtc.c **** /** @defgroup RTC 
  29:../target/stm32/stdperiph/src/stm32f10x_rtc.c ****   * @brief RTC driver modules
  30:../target/stm32/stdperiph/src/stm32f10x_rtc.c ****   * @{
  31:../target/stm32/stdperiph/src/stm32f10x_rtc.c ****   */
  32:../target/stm32/stdperiph/src/stm32f10x_rtc.c **** 
  33:../target/stm32/stdperiph/src/stm32f10x_rtc.c **** /** @defgroup RTC_Private_TypesDefinitions
  34:../target/stm32/stdperiph/src/stm32f10x_rtc.c ****   * @{
  35:../target/stm32/stdperiph/src/stm32f10x_rtc.c ****   */ 
  36:../target/stm32/stdperiph/src/stm32f10x_rtc.c **** /**
  37:../target/stm32/stdperiph/src/stm32f10x_rtc.c ****   * @}
  38:../target/stm32/stdperiph/src/stm32f10x_rtc.c ****   */
  39:../target/stm32/stdperiph/src/stm32f10x_rtc.c **** 
  40:../target/stm32/stdperiph/src/stm32f10x_rtc.c **** /** @defgroup RTC_Private_Defines
  41:../target/stm32/stdperiph/src/stm32f10x_rtc.c ****   * @{
  42:../target/stm32/stdperiph/src/stm32f10x_rtc.c ****   */
  43:../target/stm32/stdperiph/src/stm32f10x_rtc.c **** #define RTC_LSB_MASK     ((uint32_t)0x0000FFFF)  /*!< RTC LSB Mask */
  44:../target/stm32/stdperiph/src/stm32f10x_rtc.c **** #define PRLH_MSB_MASK    ((uint32_t)0x000F0000)  /*!< RTC Prescaler MSB Mask */
  45:../target/stm32/stdperiph/src/stm32f10x_rtc.c **** 
  46:../target/stm32/stdperiph/src/stm32f10x_rtc.c **** /**
  47:../target/stm32/stdperiph/src/stm32f10x_rtc.c ****   * @}
  48:../target/stm32/stdperiph/src/stm32f10x_rtc.c ****   */
  49:../target/stm32/stdperiph/src/stm32f10x_rtc.c **** 
  50:../target/stm32/stdperiph/src/stm32f10x_rtc.c **** /** @defgroup RTC_Private_Macros
  51:../target/stm32/stdperiph/src/stm32f10x_rtc.c ****   * @{
  52:../target/stm32/stdperiph/src/stm32f10x_rtc.c ****   */
  53:../target/stm32/stdperiph/src/stm32f10x_rtc.c **** 
  54:../target/stm32/stdperiph/src/stm32f10x_rtc.c **** /**
  55:../target/stm32/stdperiph/src/stm32f10x_rtc.c ****   * @}
  56:../target/stm32/stdperiph/src/stm32f10x_rtc.c ****   */
  57:../target/stm32/stdperiph/src/stm32f10x_rtc.c **** 
  58:../target/stm32/stdperiph/src/stm32f10x_rtc.c **** /** @defgroup RTC_Private_Variables
  59:../target/stm32/stdperiph/src/stm32f10x_rtc.c ****   * @{
  60:../target/stm32/stdperiph/src/stm32f10x_rtc.c ****   */
  61:../target/stm32/stdperiph/src/stm32f10x_rtc.c **** 
  62:../target/stm32/stdperiph/src/stm32f10x_rtc.c **** /**
  63:../target/stm32/stdperiph/src/stm32f10x_rtc.c ****   * @}
  64:../target/stm32/stdperiph/src/stm32f10x_rtc.c ****   */
  65:../target/stm32/stdperiph/src/stm32f10x_rtc.c **** 
  66:../target/stm32/stdperiph/src/stm32f10x_rtc.c **** /** @defgroup RTC_Private_FunctionPrototypes
  67:../target/stm32/stdperiph/src/stm32f10x_rtc.c ****   * @{
  68:../target/stm32/stdperiph/src/stm32f10x_rtc.c ****   */
  69:../target/stm32/stdperiph/src/stm32f10x_rtc.c **** 
  70:../target/stm32/stdperiph/src/stm32f10x_rtc.c **** /**
  71:../target/stm32/stdperiph/src/stm32f10x_rtc.c ****   * @}
  72:../target/stm32/stdperiph/src/stm32f10x_rtc.c ****   */
  73:../target/stm32/stdperiph/src/stm32f10x_rtc.c **** 
  74:../target/stm32/stdperiph/src/stm32f10x_rtc.c **** /** @defgroup RTC_Private_Functions
  75:../target/stm32/stdperiph/src/stm32f10x_rtc.c ****   * @{
  76:../target/stm32/stdperiph/src/stm32f10x_rtc.c ****   */
  77:../target/stm32/stdperiph/src/stm32f10x_rtc.c **** 
  78:../target/stm32/stdperiph/src/stm32f10x_rtc.c **** /**
  79:../target/stm32/stdperiph/src/stm32f10x_rtc.c ****   * @brief  Enables or disables the specified RTC interrupts.
  80:../target/stm32/stdperiph/src/stm32f10x_rtc.c ****   * @param  RTC_IT: specifies the RTC interrupts sources to be enabled or disabled.
  81:../target/stm32/stdperiph/src/stm32f10x_rtc.c ****   *   This parameter can be any combination of the following values:
  82:../target/stm32/stdperiph/src/stm32f10x_rtc.c ****   *     @arg RTC_IT_OW: Overflow interrupt
  83:../target/stm32/stdperiph/src/stm32f10x_rtc.c ****   *     @arg RTC_IT_ALR: Alarm interrupt
  84:../target/stm32/stdperiph/src/stm32f10x_rtc.c ****   *     @arg RTC_IT_SEC: Second interrupt
  85:../target/stm32/stdperiph/src/stm32f10x_rtc.c ****   * @param  NewState: new state of the specified RTC interrupts.
  86:../target/stm32/stdperiph/src/stm32f10x_rtc.c ****   *   This parameter can be: ENABLE or DISABLE.
  87:../target/stm32/stdperiph/src/stm32f10x_rtc.c ****   * @retval None
  88:../target/stm32/stdperiph/src/stm32f10x_rtc.c ****   */
  89:../target/stm32/stdperiph/src/stm32f10x_rtc.c **** void RTC_ITConfig(uint16_t RTC_IT, FunctionalState NewState)
  90:../target/stm32/stdperiph/src/stm32f10x_rtc.c **** {
 15795              		.loc 1 90 0
 15796              		.cfi_startproc
 15797              		@ args = 0, pretend = 0, frame = 8
 15798              		@ frame_needed = 1, uses_anonymous_args = 0
 15799              		@ link register save eliminated.
 15800 0000 80B4     		push	{r7}
 15801              	.LCFI0:
 15802              		.cfi_def_cfa_offset 4
 15803 0002 83B0     		sub	sp, sp, #12
 15804              	.LCFI1:
 15805              		.cfi_def_cfa_offset 16
 15806 0004 00AF     		add	r7, sp, #0
 15807              		.cfi_offset 7, -4
 15808              	.LCFI2:
 15809              		.cfi_def_cfa_register 7
 15810 0006 0246     		mov	r2, r0
 15811 0008 0B46     		mov	r3, r1
 15812 000a FA80     		strh	r2, [r7, #6]	@ movhi
 15813 000c 7B71     		strb	r3, [r7, #5]
  91:../target/stm32/stdperiph/src/stm32f10x_rtc.c ****   /* Check the parameters */
  92:../target/stm32/stdperiph/src/stm32f10x_rtc.c ****   assert_param(IS_RTC_IT(RTC_IT));  
  93:../target/stm32/stdperiph/src/stm32f10x_rtc.c ****   assert_param(IS_FUNCTIONAL_STATE(NewState));
  94:../target/stm32/stdperiph/src/stm32f10x_rtc.c ****   
  95:../target/stm32/stdperiph/src/stm32f10x_rtc.c ****   if (NewState != DISABLE)
 15814              		.loc 1 95 0
 15815 000e 7B79     		ldrb	r3, [r7, #5]	@ zero_extendqisi2
 15816 0010 002B     		cmp	r3, #0
 15817 0012 0FD0     		beq	.L2
  96:../target/stm32/stdperiph/src/stm32f10x_rtc.c ****   {
  97:../target/stm32/stdperiph/src/stm32f10x_rtc.c ****     RTC->CRH |= RTC_IT;
 15818              		.loc 1 97 0
 15819 0014 4FF42053 		mov	r3, #10240
 15820 0018 C4F20003 		movt	r3, 16384
 15821 001c 4FF42052 		mov	r2, #10240
 15822 0020 C4F20002 		movt	r2, 16384
 15823 0024 1288     		ldrh	r2, [r2, #0]	@ movhi
 15824 0026 91B2     		uxth	r1, r2
 15825 0028 FA88     		ldrh	r2, [r7, #6]	@ movhi
 15826 002a 41EA0202 		orr	r2, r1, r2
 15827 002e 92B2     		uxth	r2, r2
 15828 0030 1A80     		strh	r2, [r3, #0]	@ movhi
 15829 0032 11E0     		b	.L1
 15830              	.L2:
  98:../target/stm32/stdperiph/src/stm32f10x_rtc.c ****   }
  99:../target/stm32/stdperiph/src/stm32f10x_rtc.c ****   else
 100:../target/stm32/stdperiph/src/stm32f10x_rtc.c ****   {
 101:../target/stm32/stdperiph/src/stm32f10x_rtc.c ****     RTC->CRH &= (uint16_t)~RTC_IT;
 15831              		.loc 1 101 0
 15832 0034 4FF42053 		mov	r3, #10240
 15833 0038 C4F20003 		movt	r3, 16384
 15834 003c 4FF42052 		mov	r2, #10240
 15835 0040 C4F20002 		movt	r2, 16384
 15836 0044 1288     		ldrh	r2, [r2, #0]	@ movhi
 15837 0046 91B2     		uxth	r1, r2
 15838 0048 FA88     		ldrh	r2, [r7, #6]	@ movhi
 15839 004a 6FEA0202 		mvn	r2, r2
 15840 004e 92B2     		uxth	r2, r2
 15841 0050 01EA0202 		and	r2, r1, r2
 15842 0054 92B2     		uxth	r2, r2
 15843 0056 1A80     		strh	r2, [r3, #0]	@ movhi
 15844              	.L1:
 102:../target/stm32/stdperiph/src/stm32f10x_rtc.c ****   }
 103:../target/stm32/stdperiph/src/stm32f10x_rtc.c **** }
 15845              		.loc 1 103 0
 15846 0058 07F10C07 		add	r7, r7, #12
 15847 005c BD46     		mov	sp, r7
 15848 005e 80BC     		pop	{r7}
 15849 0060 7047     		bx	lr
 15850              		.cfi_endproc
 15851              	.LFE29:
 15853 0062 00BF     		.section	.text.RTC_EnterConfigMode,"ax",%progbits
 15854              		.align	2
 15855              		.global	RTC_EnterConfigMode
 15856              		.thumb
 15857              		.thumb_func
 15859              	RTC_EnterConfigMode:
 15860              	.LFB30:
 104:../target/stm32/stdperiph/src/stm32f10x_rtc.c **** 
 105:../target/stm32/stdperiph/src/stm32f10x_rtc.c **** /**
 106:../target/stm32/stdperiph/src/stm32f10x_rtc.c ****   * @brief  Enters the RTC configuration mode.
 107:../target/stm32/stdperiph/src/stm32f10x_rtc.c ****   * @param  None
 108:../target/stm32/stdperiph/src/stm32f10x_rtc.c ****   * @retval None
 109:../target/stm32/stdperiph/src/stm32f10x_rtc.c ****   */
 110:../target/stm32/stdperiph/src/stm32f10x_rtc.c **** void RTC_EnterConfigMode(void)
 111:../target/stm32/stdperiph/src/stm32f10x_rtc.c **** {
 15861              		.loc 1 111 0
 15862              		.cfi_startproc
 15863              		@ args = 0, pretend = 0, frame = 0
 15864              		@ frame_needed = 1, uses_anonymous_args = 0
 15865              		@ link register save eliminated.
 15866 0000 80B4     		push	{r7}
 15867              	.LCFI3:
 15868              		.cfi_def_cfa_offset 4
 15869 0002 00AF     		add	r7, sp, #0
 15870              		.cfi_offset 7, -4
 15871              	.LCFI4:
 15872              		.cfi_def_cfa_register 7
 112:../target/stm32/stdperiph/src/stm32f10x_rtc.c ****   /* Set the CNF flag to enter in the Configuration Mode */
 113:../target/stm32/stdperiph/src/stm32f10x_rtc.c ****   RTC->CRL |= RTC_CRL_CNF;
 15873              		.loc 1 113 0
 15874 0004 4FF42053 		mov	r3, #10240
 15875 0008 C4F20003 		movt	r3, 16384
 15876 000c 4FF42052 		mov	r2, #10240
 15877 0010 C4F20002 		movt	r2, 16384
 15878 0014 9288     		ldrh	r2, [r2, #4]	@ movhi
 15879 0016 92B2     		uxth	r2, r2
 15880 0018 42F01002 		orr	r2, r2, #16
 15881 001c 92B2     		uxth	r2, r2
 15882 001e 9A80     		strh	r2, [r3, #4]	@ movhi
 114:../target/stm32/stdperiph/src/stm32f10x_rtc.c **** }
 15883              		.loc 1 114 0
 15884 0020 BD46     		mov	sp, r7
 15885 0022 80BC     		pop	{r7}
 15886 0024 7047     		bx	lr
 15887              		.cfi_endproc
 15888              	.LFE30:
 15890 0026 00BF     		.section	.text.RTC_ExitConfigMode,"ax",%progbits
 15891              		.align	2
 15892              		.global	RTC_ExitConfigMode
 15893              		.thumb
 15894              		.thumb_func
 15896              	RTC_ExitConfigMode:
 15897              	.LFB31:
 115:../target/stm32/stdperiph/src/stm32f10x_rtc.c **** 
 116:../target/stm32/stdperiph/src/stm32f10x_rtc.c **** /**
 117:../target/stm32/stdperiph/src/stm32f10x_rtc.c ****   * @brief  Exits from the RTC configuration mode.
 118:../target/stm32/stdperiph/src/stm32f10x_rtc.c ****   * @param  None
 119:../target/stm32/stdperiph/src/stm32f10x_rtc.c ****   * @retval None
 120:../target/stm32/stdperiph/src/stm32f10x_rtc.c ****   */
 121:../target/stm32/stdperiph/src/stm32f10x_rtc.c **** void RTC_ExitConfigMode(void)
 122:../target/stm32/stdperiph/src/stm32f10x_rtc.c **** {
 15898              		.loc 1 122 0
 15899              		.cfi_startproc
 15900              		@ args = 0, pretend = 0, frame = 0
 15901              		@ frame_needed = 1, uses_anonymous_args = 0
 15902              		@ link register save eliminated.
 15903 0000 80B4     		push	{r7}
 15904              	.LCFI5:
 15905              		.cfi_def_cfa_offset 4
 15906 0002 00AF     		add	r7, sp, #0
 15907              		.cfi_offset 7, -4
 15908              	.LCFI6:
 15909              		.cfi_def_cfa_register 7
 123:../target/stm32/stdperiph/src/stm32f10x_rtc.c ****   /* Reset the CNF flag to exit from the Configuration Mode */
 124:../target/stm32/stdperiph/src/stm32f10x_rtc.c ****   RTC->CRL &= (uint16_t)~((uint16_t)RTC_CRL_CNF); 
 15910              		.loc 1 124 0
 15911 0004 4FF42053 		mov	r3, #10240
 15912 0008 C4F20003 		movt	r3, 16384
 15913 000c 4FF42052 		mov	r2, #10240
 15914 0010 C4F20002 		movt	r2, 16384
 15915 0014 9288     		ldrh	r2, [r2, #4]	@ movhi
 15916 0016 92B2     		uxth	r2, r2
 15917 0018 22F01002 		bic	r2, r2, #16
 15918 001c 92B2     		uxth	r2, r2
 15919 001e 9A80     		strh	r2, [r3, #4]	@ movhi
 125:../target/stm32/stdperiph/src/stm32f10x_rtc.c **** }
 15920              		.loc 1 125 0
 15921 0020 BD46     		mov	sp, r7
 15922 0022 80BC     		pop	{r7}
 15923 0024 7047     		bx	lr
 15924              		.cfi_endproc
 15925              	.LFE31:
 15927 0026 00BF     		.section	.text.RTC_GetCounter,"ax",%progbits
 15928              		.align	2
 15929              		.global	RTC_GetCounter
 15930              		.thumb
 15931              		.thumb_func
 15933              	RTC_GetCounter:
 15934              	.LFB32:
 126:../target/stm32/stdperiph/src/stm32f10x_rtc.c **** 
 127:../target/stm32/stdperiph/src/stm32f10x_rtc.c **** /**
 128:../target/stm32/stdperiph/src/stm32f10x_rtc.c ****   * @brief  Gets the RTC counter value.
 129:../target/stm32/stdperiph/src/stm32f10x_rtc.c ****   * @param  None
 130:../target/stm32/stdperiph/src/stm32f10x_rtc.c ****   * @retval RTC counter value.
 131:../target/stm32/stdperiph/src/stm32f10x_rtc.c ****   */
 132:../target/stm32/stdperiph/src/stm32f10x_rtc.c **** uint32_t RTC_GetCounter(void)
 133:../target/stm32/stdperiph/src/stm32f10x_rtc.c **** {
 15935              		.loc 1 133 0
 15936              		.cfi_startproc
 15937              		@ args = 0, pretend = 0, frame = 8
 15938              		@ frame_needed = 1, uses_anonymous_args = 0
 15939              		@ link register save eliminated.
 15940 0000 80B4     		push	{r7}
 15941              	.LCFI7:
 15942              		.cfi_def_cfa_offset 4
 15943 0002 83B0     		sub	sp, sp, #12
 15944              	.LCFI8:
 15945              		.cfi_def_cfa_offset 16
 15946 0004 00AF     		add	r7, sp, #0
 15947              		.cfi_offset 7, -4
 15948              	.LCFI9:
 15949              		.cfi_def_cfa_register 7
 134:../target/stm32/stdperiph/src/stm32f10x_rtc.c ****   uint16_t tmp = 0;
 15950              		.loc 1 134 0
 15951 0006 4FF00003 		mov	r3, #0
 15952 000a FB80     		strh	r3, [r7, #6]	@ movhi
 135:../target/stm32/stdperiph/src/stm32f10x_rtc.c ****   tmp = RTC->CNTL;
 15953              		.loc 1 135 0
 15954 000c 4FF42053 		mov	r3, #10240
 15955 0010 C4F20003 		movt	r3, 16384
 15956 0014 9B8B     		ldrh	r3, [r3, #28]	@ movhi
 15957 0016 FB80     		strh	r3, [r7, #6]	@ movhi
 136:../target/stm32/stdperiph/src/stm32f10x_rtc.c ****   return (((uint32_t)RTC->CNTH << 16 ) | tmp) ;
 15958              		.loc 1 136 0
 15959 0018 4FF42053 		mov	r3, #10240
 15960 001c C4F20003 		movt	r3, 16384
 15961 0020 1B8B     		ldrh	r3, [r3, #24]	@ movhi
 15962 0022 9BB2     		uxth	r3, r3
 15963 0024 4FEA0342 		lsl	r2, r3, #16
 15964 0028 FB88     		ldrh	r3, [r7, #6]
 15965 002a 42EA0303 		orr	r3, r2, r3
 137:../target/stm32/stdperiph/src/stm32f10x_rtc.c **** }
 15966              		.loc 1 137 0
 15967 002e 1846     		mov	r0, r3
 15968 0030 07F10C07 		add	r7, r7, #12
 15969 0034 BD46     		mov	sp, r7
 15970 0036 80BC     		pop	{r7}
 15971 0038 7047     		bx	lr
 15972              		.cfi_endproc
 15973              	.LFE32:
 15975 003a 00BF     		.section	.text.RTC_SetCounter,"ax",%progbits
 15976              		.align	2
 15977              		.global	RTC_SetCounter
 15978              		.thumb
 15979              		.thumb_func
 15981              	RTC_SetCounter:
 15982              	.LFB33:
 138:../target/stm32/stdperiph/src/stm32f10x_rtc.c **** 
 139:../target/stm32/stdperiph/src/stm32f10x_rtc.c **** /**
 140:../target/stm32/stdperiph/src/stm32f10x_rtc.c ****   * @brief  Sets the RTC counter value.
 141:../target/stm32/stdperiph/src/stm32f10x_rtc.c ****   * @param  CounterValue: RTC counter new value.
 142:../target/stm32/stdperiph/src/stm32f10x_rtc.c ****   * @retval None
 143:../target/stm32/stdperiph/src/stm32f10x_rtc.c ****   */
 144:../target/stm32/stdperiph/src/stm32f10x_rtc.c **** void RTC_SetCounter(uint32_t CounterValue)
 145:../target/stm32/stdperiph/src/stm32f10x_rtc.c **** { 
 15983              		.loc 1 145 0
 15984              		.cfi_startproc
 15985              		@ args = 0, pretend = 0, frame = 8
 15986              		@ frame_needed = 1, uses_anonymous_args = 0
 15987 0000 80B5     		push	{r7, lr}
 15988              	.LCFI10:
 15989              		.cfi_def_cfa_offset 8
 15990 0002 82B0     		sub	sp, sp, #8
 15991              	.LCFI11:
 15992              		.cfi_def_cfa_offset 16
 15993 0004 00AF     		add	r7, sp, #0
 15994              		.cfi_offset 14, -4
 15995              		.cfi_offset 7, -8
 15996              	.LCFI12:
 15997              		.cfi_def_cfa_register 7
 15998 0006 7860     		str	r0, [r7, #4]
 146:../target/stm32/stdperiph/src/stm32f10x_rtc.c ****   RTC_EnterConfigMode();
 15999              		.loc 1 146 0
 16000 0008 FFF7FEFF 		bl	RTC_EnterConfigMode
 147:../target/stm32/stdperiph/src/stm32f10x_rtc.c ****   /* Set RTC COUNTER MSB word */
 148:../target/stm32/stdperiph/src/stm32f10x_rtc.c ****   RTC->CNTH = CounterValue >> 16;
 16001              		.loc 1 148 0
 16002 000c 4FF42053 		mov	r3, #10240
 16003 0010 C4F20003 		movt	r3, 16384
 16004 0014 7A68     		ldr	r2, [r7, #4]
 16005 0016 4FEA1242 		lsr	r2, r2, #16
 16006 001a 92B2     		uxth	r2, r2
 16007 001c 1A83     		strh	r2, [r3, #24]	@ movhi
 149:../target/stm32/stdperiph/src/stm32f10x_rtc.c ****   /* Set RTC COUNTER LSB word */
 150:../target/stm32/stdperiph/src/stm32f10x_rtc.c ****   RTC->CNTL = (CounterValue & RTC_LSB_MASK);
 16008              		.loc 1 150 0
 16009 001e 4FF42053 		mov	r3, #10240
 16010 0022 C4F20003 		movt	r3, 16384
 16011 0026 7A68     		ldr	r2, [r7, #4]
 16012 0028 92B2     		uxth	r2, r2
 16013 002a 9A83     		strh	r2, [r3, #28]	@ movhi
 151:../target/stm32/stdperiph/src/stm32f10x_rtc.c ****   RTC_ExitConfigMode();
 16014              		.loc 1 151 0
 16015 002c FFF7FEFF 		bl	RTC_ExitConfigMode
 152:../target/stm32/stdperiph/src/stm32f10x_rtc.c **** }
 16016              		.loc 1 152 0
 16017 0030 07F10807 		add	r7, r7, #8
 16018 0034 BD46     		mov	sp, r7
 16019 0036 80BD     		pop	{r7, pc}
 16020              		.cfi_endproc
 16021              	.LFE33:
 16023              		.section	.text.RTC_SetPrescaler,"ax",%progbits
 16024              		.align	2
 16025              		.global	RTC_SetPrescaler
 16026              		.thumb
 16027              		.thumb_func
 16029              	RTC_SetPrescaler:
 16030              	.LFB34:
 153:../target/stm32/stdperiph/src/stm32f10x_rtc.c **** 
 154:../target/stm32/stdperiph/src/stm32f10x_rtc.c **** /**
 155:../target/stm32/stdperiph/src/stm32f10x_rtc.c ****   * @brief  Sets the RTC prescaler value.
 156:../target/stm32/stdperiph/src/stm32f10x_rtc.c ****   * @param  PrescalerValue: RTC prescaler new value.
 157:../target/stm32/stdperiph/src/stm32f10x_rtc.c ****   * @retval None
 158:../target/stm32/stdperiph/src/stm32f10x_rtc.c ****   */
 159:../target/stm32/stdperiph/src/stm32f10x_rtc.c **** void RTC_SetPrescaler(uint32_t PrescalerValue)
 160:../target/stm32/stdperiph/src/stm32f10x_rtc.c **** {
 16031              		.loc 1 160 0
 16032              		.cfi_startproc
 16033              		@ args = 0, pretend = 0, frame = 8
 16034              		@ frame_needed = 1, uses_anonymous_args = 0
 16035 0000 80B5     		push	{r7, lr}
 16036              	.LCFI13:
 16037              		.cfi_def_cfa_offset 8
 16038 0002 82B0     		sub	sp, sp, #8
 16039              	.LCFI14:
 16040              		.cfi_def_cfa_offset 16
 16041 0004 00AF     		add	r7, sp, #0
 16042              		.cfi_offset 14, -4
 16043              		.cfi_offset 7, -8
 16044              	.LCFI15:
 16045              		.cfi_def_cfa_register 7
 16046 0006 7860     		str	r0, [r7, #4]
 161:../target/stm32/stdperiph/src/stm32f10x_rtc.c ****   /* Check the parameters */
 162:../target/stm32/stdperiph/src/stm32f10x_rtc.c ****   assert_param(IS_RTC_PRESCALER(PrescalerValue));
 163:../target/stm32/stdperiph/src/stm32f10x_rtc.c ****   
 164:../target/stm32/stdperiph/src/stm32f10x_rtc.c ****   RTC_EnterConfigMode();
 16047              		.loc 1 164 0
 16048 0008 FFF7FEFF 		bl	RTC_EnterConfigMode
 165:../target/stm32/stdperiph/src/stm32f10x_rtc.c ****   /* Set RTC PRESCALER MSB word */
 166:../target/stm32/stdperiph/src/stm32f10x_rtc.c ****   RTC->PRLH = (PrescalerValue & PRLH_MSB_MASK) >> 16;
 16049              		.loc 1 166 0
 16050 000c 4FF42053 		mov	r3, #10240
 16051 0010 C4F20003 		movt	r3, 16384
 16052 0014 7A68     		ldr	r2, [r7, #4]
 16053 0016 02F47022 		and	r2, r2, #983040
 16054 001a 4FEA1242 		lsr	r2, r2, #16
 16055 001e 92B2     		uxth	r2, r2
 16056 0020 1A81     		strh	r2, [r3, #8]	@ movhi
 167:../target/stm32/stdperiph/src/stm32f10x_rtc.c ****   /* Set RTC PRESCALER LSB word */
 168:../target/stm32/stdperiph/src/stm32f10x_rtc.c ****   RTC->PRLL = (PrescalerValue & RTC_LSB_MASK);
 16057              		.loc 1 168 0
 16058 0022 4FF42053 		mov	r3, #10240
 16059 0026 C4F20003 		movt	r3, 16384
 16060 002a 7A68     		ldr	r2, [r7, #4]
 16061 002c 92B2     		uxth	r2, r2
 16062 002e 9A81     		strh	r2, [r3, #12]	@ movhi
 169:../target/stm32/stdperiph/src/stm32f10x_rtc.c ****   RTC_ExitConfigMode();
 16063              		.loc 1 169 0
 16064 0030 FFF7FEFF 		bl	RTC_ExitConfigMode
 170:../target/stm32/stdperiph/src/stm32f10x_rtc.c **** }
 16065              		.loc 1 170 0
 16066 0034 07F10807 		add	r7, r7, #8
 16067 0038 BD46     		mov	sp, r7
 16068 003a 80BD     		pop	{r7, pc}
 16069              		.cfi_endproc
 16070              	.LFE34:
 16072              		.section	.text.RTC_SetAlarm,"ax",%progbits
 16073              		.align	2
 16074              		.global	RTC_SetAlarm
 16075              		.thumb
 16076              		.thumb_func
 16078              	RTC_SetAlarm:
 16079              	.LFB35:
 171:../target/stm32/stdperiph/src/stm32f10x_rtc.c **** 
 172:../target/stm32/stdperiph/src/stm32f10x_rtc.c **** /**
 173:../target/stm32/stdperiph/src/stm32f10x_rtc.c ****   * @brief  Sets the RTC alarm value.
 174:../target/stm32/stdperiph/src/stm32f10x_rtc.c ****   * @param  AlarmValue: RTC alarm new value.
 175:../target/stm32/stdperiph/src/stm32f10x_rtc.c ****   * @retval None
 176:../target/stm32/stdperiph/src/stm32f10x_rtc.c ****   */
 177:../target/stm32/stdperiph/src/stm32f10x_rtc.c **** void RTC_SetAlarm(uint32_t AlarmValue)
 178:../target/stm32/stdperiph/src/stm32f10x_rtc.c **** {  
 16080              		.loc 1 178 0
 16081              		.cfi_startproc
 16082              		@ args = 0, pretend = 0, frame = 8
 16083              		@ frame_needed = 1, uses_anonymous_args = 0
 16084 0000 80B5     		push	{r7, lr}
 16085              	.LCFI16:
 16086              		.cfi_def_cfa_offset 8
 16087 0002 82B0     		sub	sp, sp, #8
 16088              	.LCFI17:
 16089              		.cfi_def_cfa_offset 16
 16090 0004 00AF     		add	r7, sp, #0
 16091              		.cfi_offset 14, -4
 16092              		.cfi_offset 7, -8
 16093              	.LCFI18:
 16094              		.cfi_def_cfa_register 7
 16095 0006 7860     		str	r0, [r7, #4]
 179:../target/stm32/stdperiph/src/stm32f10x_rtc.c ****   RTC_EnterConfigMode();
 16096              		.loc 1 179 0
 16097 0008 FFF7FEFF 		bl	RTC_EnterConfigMode
 180:../target/stm32/stdperiph/src/stm32f10x_rtc.c ****   /* Set the ALARM MSB word */
 181:../target/stm32/stdperiph/src/stm32f10x_rtc.c ****   RTC->ALRH = AlarmValue >> 16;
 16098              		.loc 1 181 0
 16099 000c 4FF42053 		mov	r3, #10240
 16100 0010 C4F20003 		movt	r3, 16384
 16101 0014 7A68     		ldr	r2, [r7, #4]
 16102 0016 4FEA1242 		lsr	r2, r2, #16
 16103 001a 92B2     		uxth	r2, r2
 16104 001c 1A84     		strh	r2, [r3, #32]	@ movhi
 182:../target/stm32/stdperiph/src/stm32f10x_rtc.c ****   /* Set the ALARM LSB word */
 183:../target/stm32/stdperiph/src/stm32f10x_rtc.c ****   RTC->ALRL = (AlarmValue & RTC_LSB_MASK);
 16105              		.loc 1 183 0
 16106 001e 4FF42053 		mov	r3, #10240
 16107 0022 C4F20003 		movt	r3, 16384
 16108 0026 7A68     		ldr	r2, [r7, #4]
 16109 0028 92B2     		uxth	r2, r2
 16110 002a 9A84     		strh	r2, [r3, #36]	@ movhi
 184:../target/stm32/stdperiph/src/stm32f10x_rtc.c ****   RTC_ExitConfigMode();
 16111              		.loc 1 184 0
 16112 002c FFF7FEFF 		bl	RTC_ExitConfigMode
 185:../target/stm32/stdperiph/src/stm32f10x_rtc.c **** }
 16113              		.loc 1 185 0
 16114 0030 07F10807 		add	r7, r7, #8
 16115 0034 BD46     		mov	sp, r7
 16116 0036 80BD     		pop	{r7, pc}
 16117              		.cfi_endproc
 16118              	.LFE35:
 16120              		.section	.text.RTC_GetDivider,"ax",%progbits
 16121              		.align	2
 16122              		.global	RTC_GetDivider
 16123              		.thumb
 16124              		.thumb_func
 16126              	RTC_GetDivider:
 16127              	.LFB36:
 186:../target/stm32/stdperiph/src/stm32f10x_rtc.c **** 
 187:../target/stm32/stdperiph/src/stm32f10x_rtc.c **** /**
 188:../target/stm32/stdperiph/src/stm32f10x_rtc.c ****   * @brief  Gets the RTC divider value.
 189:../target/stm32/stdperiph/src/stm32f10x_rtc.c ****   * @param  None
 190:../target/stm32/stdperiph/src/stm32f10x_rtc.c ****   * @retval RTC Divider value.
 191:../target/stm32/stdperiph/src/stm32f10x_rtc.c ****   */
 192:../target/stm32/stdperiph/src/stm32f10x_rtc.c **** uint32_t RTC_GetDivider(void)
 193:../target/stm32/stdperiph/src/stm32f10x_rtc.c **** {
 16128              		.loc 1 193 0
 16129              		.cfi_startproc
 16130              		@ args = 0, pretend = 0, frame = 8
 16131              		@ frame_needed = 1, uses_anonymous_args = 0
 16132              		@ link register save eliminated.
 16133 0000 80B4     		push	{r7}
 16134              	.LCFI19:
 16135              		.cfi_def_cfa_offset 4
 16136 0002 83B0     		sub	sp, sp, #12
 16137              	.LCFI20:
 16138              		.cfi_def_cfa_offset 16
 16139 0004 00AF     		add	r7, sp, #0
 16140              		.cfi_offset 7, -4
 16141              	.LCFI21:
 16142              		.cfi_def_cfa_register 7
 194:../target/stm32/stdperiph/src/stm32f10x_rtc.c ****   uint32_t tmp = 0x00;
 16143              		.loc 1 194 0
 16144 0006 4FF00003 		mov	r3, #0
 16145 000a 7B60     		str	r3, [r7, #4]
 195:../target/stm32/stdperiph/src/stm32f10x_rtc.c ****   tmp = ((uint32_t)RTC->DIVH & (uint32_t)0x000F) << 16;
 16146              		.loc 1 195 0
 16147 000c 4FF42053 		mov	r3, #10240
 16148 0010 C4F20003 		movt	r3, 16384
 16149 0014 1B8A     		ldrh	r3, [r3, #16]	@ movhi
 16150 0016 9BB2     		uxth	r3, r3
 16151 0018 03F00F03 		and	r3, r3, #15
 16152 001c 4FEA0343 		lsl	r3, r3, #16
 16153 0020 7B60     		str	r3, [r7, #4]
 196:../target/stm32/stdperiph/src/stm32f10x_rtc.c ****   tmp |= RTC->DIVL;
 16154              		.loc 1 196 0
 16155 0022 4FF42053 		mov	r3, #10240
 16156 0026 C4F20003 		movt	r3, 16384
 16157 002a 9B8A     		ldrh	r3, [r3, #20]	@ movhi
 16158 002c 9BB2     		uxth	r3, r3
 16159 002e 7A68     		ldr	r2, [r7, #4]
 16160 0030 42EA0303 		orr	r3, r2, r3
 16161 0034 7B60     		str	r3, [r7, #4]
 197:../target/stm32/stdperiph/src/stm32f10x_rtc.c ****   return tmp;
 16162              		.loc 1 197 0
 16163 0036 7B68     		ldr	r3, [r7, #4]
 198:../target/stm32/stdperiph/src/stm32f10x_rtc.c **** }
 16164              		.loc 1 198 0
 16165 0038 1846     		mov	r0, r3
 16166 003a 07F10C07 		add	r7, r7, #12
 16167 003e BD46     		mov	sp, r7
 16168 0040 80BC     		pop	{r7}
 16169 0042 7047     		bx	lr
 16170              		.cfi_endproc
 16171              	.LFE36:
 16173              		.section	.text.RTC_WaitForLastTask,"ax",%progbits
 16174              		.align	2
 16175              		.global	RTC_WaitForLastTask
 16176              		.thumb
 16177              		.thumb_func
 16179              	RTC_WaitForLastTask:
 16180              	.LFB37:
 199:../target/stm32/stdperiph/src/stm32f10x_rtc.c **** 
 200:../target/stm32/stdperiph/src/stm32f10x_rtc.c **** /**
 201:../target/stm32/stdperiph/src/stm32f10x_rtc.c ****   * @brief  Waits until last write operation on RTC registers has finished.
 202:../target/stm32/stdperiph/src/stm32f10x_rtc.c ****   * @note   This function must be called before any write to RTC registers.
 203:../target/stm32/stdperiph/src/stm32f10x_rtc.c ****   * @param  None
 204:../target/stm32/stdperiph/src/stm32f10x_rtc.c ****   * @retval None
 205:../target/stm32/stdperiph/src/stm32f10x_rtc.c ****   */
 206:../target/stm32/stdperiph/src/stm32f10x_rtc.c **** void RTC_WaitForLastTask(void)
 207:../target/stm32/stdperiph/src/stm32f10x_rtc.c **** {
 16181              		.loc 1 207 0
 16182              		.cfi_startproc
 16183              		@ args = 0, pretend = 0, frame = 0
 16184              		@ frame_needed = 1, uses_anonymous_args = 0
 16185              		@ link register save eliminated.
 16186 0000 80B4     		push	{r7}
 16187              	.LCFI22:
 16188              		.cfi_def_cfa_offset 4
 16189 0002 00AF     		add	r7, sp, #0
 16190              		.cfi_offset 7, -4
 16191              	.LCFI23:
 16192              		.cfi_def_cfa_register 7
 208:../target/stm32/stdperiph/src/stm32f10x_rtc.c ****   /* Loop until RTOFF flag is set */
 209:../target/stm32/stdperiph/src/stm32f10x_rtc.c ****   while ((RTC->CRL & RTC_FLAG_RTOFF) == (uint16_t)RESET)
 16193              		.loc 1 209 0
 16194 0004 00BF     		nop
 16195              	.L12:
 16196              		.loc 1 209 0 is_stmt 0 discriminator 1
 16197 0006 4FF42053 		mov	r3, #10240
 16198 000a C4F20003 		movt	r3, 16384
 16199 000e 9B88     		ldrh	r3, [r3, #4]	@ movhi
 16200 0010 9BB2     		uxth	r3, r3
 16201 0012 03F02003 		and	r3, r3, #32
 16202 0016 002B     		cmp	r3, #0
 16203 0018 F5D0     		beq	.L12
 210:../target/stm32/stdperiph/src/stm32f10x_rtc.c ****   {
 211:../target/stm32/stdperiph/src/stm32f10x_rtc.c ****   }
 212:../target/stm32/stdperiph/src/stm32f10x_rtc.c **** }
 16204              		.loc 1 212 0 is_stmt 1
 16205 001a BD46     		mov	sp, r7
 16206 001c 80BC     		pop	{r7}
 16207 001e 7047     		bx	lr
 16208              		.cfi_endproc
 16209              	.LFE37:
 16211              		.section	.text.RTC_WaitForSynchro,"ax",%progbits
 16212              		.align	2
 16213              		.global	RTC_WaitForSynchro
 16214              		.thumb
 16215              		.thumb_func
 16217              	RTC_WaitForSynchro:
 16218              	.LFB38:
 213:../target/stm32/stdperiph/src/stm32f10x_rtc.c **** 
 214:../target/stm32/stdperiph/src/stm32f10x_rtc.c **** /**
 215:../target/stm32/stdperiph/src/stm32f10x_rtc.c ****   * @brief  Waits until the RTC registers (RTC_CNT, RTC_ALR and RTC_PRL)
 216:../target/stm32/stdperiph/src/stm32f10x_rtc.c ****   *   are synchronized with RTC APB clock.
 217:../target/stm32/stdperiph/src/stm32f10x_rtc.c ****   * @note   This function must be called before any read operation after an APB reset
 218:../target/stm32/stdperiph/src/stm32f10x_rtc.c ****   *   or an APB clock stop.
 219:../target/stm32/stdperiph/src/stm32f10x_rtc.c ****   * @param  None
 220:../target/stm32/stdperiph/src/stm32f10x_rtc.c ****   * @retval None
 221:../target/stm32/stdperiph/src/stm32f10x_rtc.c ****   */
 222:../target/stm32/stdperiph/src/stm32f10x_rtc.c **** void RTC_WaitForSynchro(void)
 223:../target/stm32/stdperiph/src/stm32f10x_rtc.c **** {
 16219              		.loc 1 223 0
 16220              		.cfi_startproc
 16221              		@ args = 0, pretend = 0, frame = 0
 16222              		@ frame_needed = 1, uses_anonymous_args = 0
 16223              		@ link register save eliminated.
 16224 0000 80B4     		push	{r7}
 16225              	.LCFI24:
 16226              		.cfi_def_cfa_offset 4
 16227 0002 00AF     		add	r7, sp, #0
 16228              		.cfi_offset 7, -4
 16229              	.LCFI25:
 16230              		.cfi_def_cfa_register 7
 224:../target/stm32/stdperiph/src/stm32f10x_rtc.c ****   /* Clear RSF flag */
 225:../target/stm32/stdperiph/src/stm32f10x_rtc.c ****   RTC->CRL &= (uint16_t)~RTC_FLAG_RSF;
 16231              		.loc 1 225 0
 16232 0004 4FF42053 		mov	r3, #10240
 16233 0008 C4F20003 		movt	r3, 16384
 16234 000c 4FF42052 		mov	r2, #10240
 16235 0010 C4F20002 		movt	r2, 16384
 16236 0014 9288     		ldrh	r2, [r2, #4]	@ movhi
 16237 0016 92B2     		uxth	r2, r2
 16238 0018 22F00802 		bic	r2, r2, #8
 16239 001c 92B2     		uxth	r2, r2
 16240 001e 9A80     		strh	r2, [r3, #4]	@ movhi
 226:../target/stm32/stdperiph/src/stm32f10x_rtc.c ****   /* Loop until RSF flag is set */
 227:../target/stm32/stdperiph/src/stm32f10x_rtc.c ****   while ((RTC->CRL & RTC_FLAG_RSF) == (uint16_t)RESET)
 16241              		.loc 1 227 0
 16242 0020 00BF     		nop
 16243              	.L14:
 16244              		.loc 1 227 0 is_stmt 0 discriminator 1
 16245 0022 4FF42053 		mov	r3, #10240
 16246 0026 C4F20003 		movt	r3, 16384
 16247 002a 9B88     		ldrh	r3, [r3, #4]	@ movhi
 16248 002c 9BB2     		uxth	r3, r3
 16249 002e 03F00803 		and	r3, r3, #8
 16250 0032 002B     		cmp	r3, #0
 16251 0034 F5D0     		beq	.L14
 228:../target/stm32/stdperiph/src/stm32f10x_rtc.c ****   {
 229:../target/stm32/stdperiph/src/stm32f10x_rtc.c ****   }
 230:../target/stm32/stdperiph/src/stm32f10x_rtc.c **** }
 16252              		.loc 1 230 0 is_stmt 1
 16253 0036 BD46     		mov	sp, r7
 16254 0038 80BC     		pop	{r7}
 16255 003a 7047     		bx	lr
 16256              		.cfi_endproc
 16257              	.LFE38:
 16259              		.section	.text.RTC_GetFlagStatus,"ax",%progbits
 16260              		.align	2
 16261              		.global	RTC_GetFlagStatus
 16262              		.thumb
 16263              		.thumb_func
 16265              	RTC_GetFlagStatus:
 16266              	.LFB39:
 231:../target/stm32/stdperiph/src/stm32f10x_rtc.c **** 
 232:../target/stm32/stdperiph/src/stm32f10x_rtc.c **** /**
 233:../target/stm32/stdperiph/src/stm32f10x_rtc.c ****   * @brief  Checks whether the specified RTC flag is set or not.
 234:../target/stm32/stdperiph/src/stm32f10x_rtc.c ****   * @param  RTC_FLAG: specifies the flag to check.
 235:../target/stm32/stdperiph/src/stm32f10x_rtc.c ****   *   This parameter can be one the following values:
 236:../target/stm32/stdperiph/src/stm32f10x_rtc.c ****   *     @arg RTC_FLAG_RTOFF: RTC Operation OFF flag
 237:../target/stm32/stdperiph/src/stm32f10x_rtc.c ****   *     @arg RTC_FLAG_RSF: Registers Synchronized flag
 238:../target/stm32/stdperiph/src/stm32f10x_rtc.c ****   *     @arg RTC_FLAG_OW: Overflow flag
 239:../target/stm32/stdperiph/src/stm32f10x_rtc.c ****   *     @arg RTC_FLAG_ALR: Alarm flag
 240:../target/stm32/stdperiph/src/stm32f10x_rtc.c ****   *     @arg RTC_FLAG_SEC: Second flag
 241:../target/stm32/stdperiph/src/stm32f10x_rtc.c ****   * @retval The new state of RTC_FLAG (SET or RESET).
 242:../target/stm32/stdperiph/src/stm32f10x_rtc.c ****   */
 243:../target/stm32/stdperiph/src/stm32f10x_rtc.c **** FlagStatus RTC_GetFlagStatus(uint16_t RTC_FLAG)
 244:../target/stm32/stdperiph/src/stm32f10x_rtc.c **** {
 16267              		.loc 1 244 0
 16268              		.cfi_startproc
 16269              		@ args = 0, pretend = 0, frame = 16
 16270              		@ frame_needed = 1, uses_anonymous_args = 0
 16271              		@ link register save eliminated.
 16272 0000 80B4     		push	{r7}
 16273              	.LCFI26:
 16274              		.cfi_def_cfa_offset 4
 16275 0002 85B0     		sub	sp, sp, #20
 16276              	.LCFI27:
 16277              		.cfi_def_cfa_offset 24
 16278 0004 00AF     		add	r7, sp, #0
 16279              		.cfi_offset 7, -4
 16280              	.LCFI28:
 16281              		.cfi_def_cfa_register 7
 16282 0006 0346     		mov	r3, r0
 16283 0008 FB80     		strh	r3, [r7, #6]	@ movhi
 245:../target/stm32/stdperiph/src/stm32f10x_rtc.c ****   FlagStatus bitstatus = RESET;
 16284              		.loc 1 245 0
 16285 000a 4FF00003 		mov	r3, #0
 16286 000e FB73     		strb	r3, [r7, #15]
 246:../target/stm32/stdperiph/src/stm32f10x_rtc.c ****   
 247:../target/stm32/stdperiph/src/stm32f10x_rtc.c ****   /* Check the parameters */
 248:../target/stm32/stdperiph/src/stm32f10x_rtc.c ****   assert_param(IS_RTC_GET_FLAG(RTC_FLAG)); 
 249:../target/stm32/stdperiph/src/stm32f10x_rtc.c ****   
 250:../target/stm32/stdperiph/src/stm32f10x_rtc.c ****   if ((RTC->CRL & RTC_FLAG) != (uint16_t)RESET)
 16287              		.loc 1 250 0
 16288 0010 4FF42053 		mov	r3, #10240
 16289 0014 C4F20003 		movt	r3, 16384
 16290 0018 9B88     		ldrh	r3, [r3, #4]	@ movhi
 16291 001a 9AB2     		uxth	r2, r3
 16292 001c FB88     		ldrh	r3, [r7, #6]	@ movhi
 16293 001e 02EA0303 		and	r3, r2, r3
 16294 0022 9BB2     		uxth	r3, r3
 16295 0024 002B     		cmp	r3, #0
 16296 0026 03D0     		beq	.L16
 251:../target/stm32/stdperiph/src/stm32f10x_rtc.c ****   {
 252:../target/stm32/stdperiph/src/stm32f10x_rtc.c ****     bitstatus = SET;
 16297              		.loc 1 252 0
 16298 0028 4FF00103 		mov	r3, #1
 16299 002c FB73     		strb	r3, [r7, #15]
 16300 002e 02E0     		b	.L17
 16301              	.L16:
 253:../target/stm32/stdperiph/src/stm32f10x_rtc.c ****   }
 254:../target/stm32/stdperiph/src/stm32f10x_rtc.c ****   else
 255:../target/stm32/stdperiph/src/stm32f10x_rtc.c ****   {
 256:../target/stm32/stdperiph/src/stm32f10x_rtc.c ****     bitstatus = RESET;
 16302              		.loc 1 256 0
 16303 0030 4FF00003 		mov	r3, #0
 16304 0034 FB73     		strb	r3, [r7, #15]
 16305              	.L17:
 257:../target/stm32/stdperiph/src/stm32f10x_rtc.c ****   }
 258:../target/stm32/stdperiph/src/stm32f10x_rtc.c ****   return bitstatus;
 16306              		.loc 1 258 0
 16307 0036 FB7B     		ldrb	r3, [r7, #15]	@ zero_extendqisi2
 259:../target/stm32/stdperiph/src/stm32f10x_rtc.c **** }
 16308              		.loc 1 259 0
 16309 0038 1846     		mov	r0, r3
 16310 003a 07F11407 		add	r7, r7, #20
 16311 003e BD46     		mov	sp, r7
 16312 0040 80BC     		pop	{r7}
 16313 0042 7047     		bx	lr
 16314              		.cfi_endproc
 16315              	.LFE39:
 16317              		.section	.text.RTC_ClearFlag,"ax",%progbits
 16318              		.align	2
 16319              		.global	RTC_ClearFlag
 16320              		.thumb
 16321              		.thumb_func
 16323              	RTC_ClearFlag:
 16324              	.LFB40:
 260:../target/stm32/stdperiph/src/stm32f10x_rtc.c **** 
 261:../target/stm32/stdperiph/src/stm32f10x_rtc.c **** /**
 262:../target/stm32/stdperiph/src/stm32f10x_rtc.c ****   * @brief  Clears the RTC’s pending flags.
 263:../target/stm32/stdperiph/src/stm32f10x_rtc.c ****   * @param  RTC_FLAG: specifies the flag to clear.
 264:../target/stm32/stdperiph/src/stm32f10x_rtc.c ****   *   This parameter can be any combination of the following values:
 265:../target/stm32/stdperiph/src/stm32f10x_rtc.c ****   *     @arg RTC_FLAG_RSF: Registers Synchronized flag. This flag is cleared only after
 266:../target/stm32/stdperiph/src/stm32f10x_rtc.c ****   *                        an APB reset or an APB Clock stop.
 267:../target/stm32/stdperiph/src/stm32f10x_rtc.c ****   *     @arg RTC_FLAG_OW: Overflow flag
 268:../target/stm32/stdperiph/src/stm32f10x_rtc.c ****   *     @arg RTC_FLAG_ALR: Alarm flag
 269:../target/stm32/stdperiph/src/stm32f10x_rtc.c ****   *     @arg RTC_FLAG_SEC: Second flag
 270:../target/stm32/stdperiph/src/stm32f10x_rtc.c ****   * @retval None
 271:../target/stm32/stdperiph/src/stm32f10x_rtc.c ****   */
 272:../target/stm32/stdperiph/src/stm32f10x_rtc.c **** void RTC_ClearFlag(uint16_t RTC_FLAG)
 273:../target/stm32/stdperiph/src/stm32f10x_rtc.c **** {
 16325              		.loc 1 273 0
 16326              		.cfi_startproc
 16327              		@ args = 0, pretend = 0, frame = 8
 16328              		@ frame_needed = 1, uses_anonymous_args = 0
 16329              		@ link register save eliminated.
 16330 0000 80B4     		push	{r7}
 16331              	.LCFI29:
 16332              		.cfi_def_cfa_offset 4
 16333 0002 83B0     		sub	sp, sp, #12
 16334              	.LCFI30:
 16335              		.cfi_def_cfa_offset 16
 16336 0004 00AF     		add	r7, sp, #0
 16337              		.cfi_offset 7, -4
 16338              	.LCFI31:
 16339              		.cfi_def_cfa_register 7
 16340 0006 0346     		mov	r3, r0
 16341 0008 FB80     		strh	r3, [r7, #6]	@ movhi
 274:../target/stm32/stdperiph/src/stm32f10x_rtc.c ****   /* Check the parameters */
 275:../target/stm32/stdperiph/src/stm32f10x_rtc.c ****   assert_param(IS_RTC_CLEAR_FLAG(RTC_FLAG)); 
 276:../target/stm32/stdperiph/src/stm32f10x_rtc.c ****     
 277:../target/stm32/stdperiph/src/stm32f10x_rtc.c ****   /* Clear the coressponding RTC flag */
 278:../target/stm32/stdperiph/src/stm32f10x_rtc.c ****   RTC->CRL &= (uint16_t)~RTC_FLAG;
 16342              		.loc 1 278 0
 16343 000a 4FF42053 		mov	r3, #10240
 16344 000e C4F20003 		movt	r3, 16384
 16345 0012 4FF42052 		mov	r2, #10240
 16346 0016 C4F20002 		movt	r2, 16384
 16347 001a 9288     		ldrh	r2, [r2, #4]	@ movhi
 16348 001c 91B2     		uxth	r1, r2
 16349 001e FA88     		ldrh	r2, [r7, #6]	@ movhi
 16350 0020 6FEA0202 		mvn	r2, r2
 16351 0024 92B2     		uxth	r2, r2
 16352 0026 01EA0202 		and	r2, r1, r2
 16353 002a 92B2     		uxth	r2, r2
 16354 002c 9A80     		strh	r2, [r3, #4]	@ movhi
 279:../target/stm32/stdperiph/src/stm32f10x_rtc.c **** }
 16355              		.loc 1 279 0
 16356 002e 07F10C07 		add	r7, r7, #12
 16357 0032 BD46     		mov	sp, r7
 16358 0034 80BC     		pop	{r7}
 16359 0036 7047     		bx	lr
 16360              		.cfi_endproc
 16361              	.LFE40:
 16363              		.section	.text.RTC_GetITStatus,"ax",%progbits
 16364              		.align	2
 16365              		.global	RTC_GetITStatus
 16366              		.thumb
 16367              		.thumb_func
 16369              	RTC_GetITStatus:
 16370              	.LFB41:
 280:../target/stm32/stdperiph/src/stm32f10x_rtc.c **** 
 281:../target/stm32/stdperiph/src/stm32f10x_rtc.c **** /**
 282:../target/stm32/stdperiph/src/stm32f10x_rtc.c ****   * @brief  Checks whether the specified RTC interrupt has occured or not.
 283:../target/stm32/stdperiph/src/stm32f10x_rtc.c ****   * @param  RTC_IT: specifies the RTC interrupts sources to check.
 284:../target/stm32/stdperiph/src/stm32f10x_rtc.c ****   *   This parameter can be one of the following values:
 285:../target/stm32/stdperiph/src/stm32f10x_rtc.c ****   *     @arg RTC_IT_OW: Overflow interrupt
 286:../target/stm32/stdperiph/src/stm32f10x_rtc.c ****   *     @arg RTC_IT_ALR: Alarm interrupt
 287:../target/stm32/stdperiph/src/stm32f10x_rtc.c ****   *     @arg RTC_IT_SEC: Second interrupt
 288:../target/stm32/stdperiph/src/stm32f10x_rtc.c ****   * @retval The new state of the RTC_IT (SET or RESET).
 289:../target/stm32/stdperiph/src/stm32f10x_rtc.c ****   */
 290:../target/stm32/stdperiph/src/stm32f10x_rtc.c **** ITStatus RTC_GetITStatus(uint16_t RTC_IT)
 291:../target/stm32/stdperiph/src/stm32f10x_rtc.c **** {
 16371              		.loc 1 291 0
 16372              		.cfi_startproc
 16373              		@ args = 0, pretend = 0, frame = 16
 16374              		@ frame_needed = 1, uses_anonymous_args = 0
 16375              		@ link register save eliminated.
 16376 0000 80B4     		push	{r7}
 16377              	.LCFI32:
 16378              		.cfi_def_cfa_offset 4
 16379 0002 85B0     		sub	sp, sp, #20
 16380              	.LCFI33:
 16381              		.cfi_def_cfa_offset 24
 16382 0004 00AF     		add	r7, sp, #0
 16383              		.cfi_offset 7, -4
 16384              	.LCFI34:
 16385              		.cfi_def_cfa_register 7
 16386 0006 0346     		mov	r3, r0
 16387 0008 FB80     		strh	r3, [r7, #6]	@ movhi
 292:../target/stm32/stdperiph/src/stm32f10x_rtc.c ****   ITStatus bitstatus = RESET;
 16388              		.loc 1 292 0
 16389 000a 4FF00003 		mov	r3, #0
 16390 000e FB73     		strb	r3, [r7, #15]
 293:../target/stm32/stdperiph/src/stm32f10x_rtc.c ****   /* Check the parameters */
 294:../target/stm32/stdperiph/src/stm32f10x_rtc.c ****   assert_param(IS_RTC_GET_IT(RTC_IT)); 
 295:../target/stm32/stdperiph/src/stm32f10x_rtc.c ****   
 296:../target/stm32/stdperiph/src/stm32f10x_rtc.c ****   bitstatus = (ITStatus)(RTC->CRL & RTC_IT);
 16391              		.loc 1 296 0
 16392 0010 4FF42053 		mov	r3, #10240
 16393 0014 C4F20003 		movt	r3, 16384
 16394 0018 9B88     		ldrh	r3, [r3, #4]	@ movhi
 16395 001a 9BB2     		uxth	r3, r3
 16396 001c DAB2     		uxtb	r2, r3
 16397 001e FB88     		ldrh	r3, [r7, #6]	@ movhi
 16398 0020 DBB2     		uxtb	r3, r3
 16399 0022 02EA0303 		and	r3, r2, r3
 16400 0026 FB73     		strb	r3, [r7, #15]
 297:../target/stm32/stdperiph/src/stm32f10x_rtc.c ****   if (((RTC->CRH & RTC_IT) != (uint16_t)RESET) && (bitstatus != (uint16_t)RESET))
 16401              		.loc 1 297 0
 16402 0028 4FF42053 		mov	r3, #10240
 16403 002c C4F20003 		movt	r3, 16384
 16404 0030 1B88     		ldrh	r3, [r3, #0]	@ movhi
 16405 0032 9AB2     		uxth	r2, r3
 16406 0034 FB88     		ldrh	r3, [r7, #6]	@ movhi
 16407 0036 02EA0303 		and	r3, r2, r3
 16408 003a 9BB2     		uxth	r3, r3
 16409 003c 002B     		cmp	r3, #0
 16410 003e 06D0     		beq	.L20
 16411              		.loc 1 297 0 is_stmt 0 discriminator 1
 16412 0040 FB7B     		ldrb	r3, [r7, #15]	@ zero_extendqisi2
 16413 0042 002B     		cmp	r3, #0
 16414 0044 03D0     		beq	.L20
 298:../target/stm32/stdperiph/src/stm32f10x_rtc.c ****   {
 299:../target/stm32/stdperiph/src/stm32f10x_rtc.c ****     bitstatus = SET;
 16415              		.loc 1 299 0 is_stmt 1
 16416 0046 4FF00103 		mov	r3, #1
 16417 004a FB73     		strb	r3, [r7, #15]
 16418 004c 02E0     		b	.L21
 16419              	.L20:
 300:../target/stm32/stdperiph/src/stm32f10x_rtc.c ****   }
 301:../target/stm32/stdperiph/src/stm32f10x_rtc.c ****   else
 302:../target/stm32/stdperiph/src/stm32f10x_rtc.c ****   {
 303:../target/stm32/stdperiph/src/stm32f10x_rtc.c ****     bitstatus = RESET;
 16420              		.loc 1 303 0
 16421 004e 4FF00003 		mov	r3, #0
 16422 0052 FB73     		strb	r3, [r7, #15]
 16423              	.L21:
 304:../target/stm32/stdperiph/src/stm32f10x_rtc.c ****   }
 305:../target/stm32/stdperiph/src/stm32f10x_rtc.c ****   return bitstatus;
 16424              		.loc 1 305 0
 16425 0054 FB7B     		ldrb	r3, [r7, #15]	@ zero_extendqisi2
 306:../target/stm32/stdperiph/src/stm32f10x_rtc.c **** }
 16426              		.loc 1 306 0
 16427 0056 1846     		mov	r0, r3
 16428 0058 07F11407 		add	r7, r7, #20
 16429 005c BD46     		mov	sp, r7
 16430 005e 80BC     		pop	{r7}
 16431 0060 7047     		bx	lr
 16432              		.cfi_endproc
 16433              	.LFE41:
 16435 0062 00BF     		.section	.text.RTC_ClearITPendingBit,"ax",%progbits
 16436              		.align	2
 16437              		.global	RTC_ClearITPendingBit
 16438              		.thumb
 16439              		.thumb_func
 16441              	RTC_ClearITPendingBit:
 16442              	.LFB42:
 307:../target/stm32/stdperiph/src/stm32f10x_rtc.c **** 
 308:../target/stm32/stdperiph/src/stm32f10x_rtc.c **** /**
 309:../target/stm32/stdperiph/src/stm32f10x_rtc.c ****   * @brief  Clears the RTC’s interrupt pending bits.
 310:../target/stm32/stdperiph/src/stm32f10x_rtc.c ****   * @param  RTC_IT: specifies the interrupt pending bit to clear.
 311:../target/stm32/stdperiph/src/stm32f10x_rtc.c ****   *   This parameter can be any combination of the following values:
 312:../target/stm32/stdperiph/src/stm32f10x_rtc.c ****   *     @arg RTC_IT_OW: Overflow interrupt
 313:../target/stm32/stdperiph/src/stm32f10x_rtc.c ****   *     @arg RTC_IT_ALR: Alarm interrupt
 314:../target/stm32/stdperiph/src/stm32f10x_rtc.c ****   *     @arg RTC_IT_SEC: Second interrupt
 315:../target/stm32/stdperiph/src/stm32f10x_rtc.c ****   * @retval None
 316:../target/stm32/stdperiph/src/stm32f10x_rtc.c ****   */
 317:../target/stm32/stdperiph/src/stm32f10x_rtc.c **** void RTC_ClearITPendingBit(uint16_t RTC_IT)
 318:../target/stm32/stdperiph/src/stm32f10x_rtc.c **** {
 16443              		.loc 1 318 0
 16444              		.cfi_startproc
 16445              		@ args = 0, pretend = 0, frame = 8
 16446              		@ frame_needed = 1, uses_anonymous_args = 0
 16447              		@ link register save eliminated.
 16448 0000 80B4     		push	{r7}
 16449              	.LCFI35:
 16450              		.cfi_def_cfa_offset 4
 16451 0002 83B0     		sub	sp, sp, #12
 16452              	.LCFI36:
 16453              		.cfi_def_cfa_offset 16
 16454 0004 00AF     		add	r7, sp, #0
 16455              		.cfi_offset 7, -4
 16456              	.LCFI37:
 16457              		.cfi_def_cfa_register 7
 16458 0006 0346     		mov	r3, r0
 16459 0008 FB80     		strh	r3, [r7, #6]	@ movhi
 319:../target/stm32/stdperiph/src/stm32f10x_rtc.c ****   /* Check the parameters */
 320:../target/stm32/stdperiph/src/stm32f10x_rtc.c ****   assert_param(IS_RTC_IT(RTC_IT));  
 321:../target/stm32/stdperiph/src/stm32f10x_rtc.c ****   
 322:../target/stm32/stdperiph/src/stm32f10x_rtc.c ****   /* Clear the coressponding RTC pending bit */
 323:../target/stm32/stdperiph/src/stm32f10x_rtc.c ****   RTC->CRL &= (uint16_t)~RTC_IT;
 16460              		.loc 1 323 0
 16461 000a 4FF42053 		mov	r3, #10240
 16462 000e C4F20003 		movt	r3, 16384
 16463 0012 4FF42052 		mov	r2, #10240
 16464 0016 C4F20002 		movt	r2, 16384
 16465 001a 9288     		ldrh	r2, [r2, #4]	@ movhi
 16466 001c 91B2     		uxth	r1, r2
 16467 001e FA88     		ldrh	r2, [r7, #6]	@ movhi
 16468 0020 6FEA0202 		mvn	r2, r2
 16469 0024 92B2     		uxth	r2, r2
 16470 0026 01EA0202 		and	r2, r1, r2
 16471 002a 92B2     		uxth	r2, r2
 16472 002c 9A80     		strh	r2, [r3, #4]	@ movhi
 324:../target/stm32/stdperiph/src/stm32f10x_rtc.c **** }
 16473              		.loc 1 324 0
 16474 002e 07F10C07 		add	r7, r7, #12
 16475 0032 BD46     		mov	sp, r7
 16476 0034 80BC     		pop	{r7}
 16477 0036 7047     		bx	lr
 16478              		.cfi_endproc
 16479              	.LFE42:
 16481              		.text
 16482              	.Letext0: