   1              		.syntax unified
   2              		.cpu cortex-m3
   3              		.fpu softvfp
   4              		.eabi_attribute 20, 1
   5              		.eabi_attribute 21, 1
   6              		.eabi_attribute 23, 3
   7              		.eabi_attribute 24, 1
   8              		.eabi_attribute 25, 1
   9              		.eabi_attribute 26, 1
  10              		.eabi_attribute 30, 6
  11              		.eabi_attribute 18, 4
  12              		.thumb
  13              		.file	"playerview.cpp"
  23              	.Ltext0:
  24              		.file 1 "../air3t/ui/playerview.cpp"
 4021              		.align	2
 4022              		.weak	_ZnwjPv
 4023              		.thumb
 4024              		.thumb_func
 4026              	_ZnwjPv:
 4027              	.LFB191:
   1:/opt/toolchains/arm-none-eabi/bin/../lib/gcc/arm-none-eabi/4.5.2/../../../../arm-none-eabi/include/c++/4.5.2/new **** // The -*- C++ -*- dynamic memory management header.
   2:/opt/toolchains/arm-none-eabi/bin/../lib/gcc/arm-none-eabi/4.5.2/../../../../arm-none-eabi/include/c++/4.5.2/new **** 
   3:/opt/toolchains/arm-none-eabi/bin/../lib/gcc/arm-none-eabi/4.5.2/../../../../arm-none-eabi/include/c++/4.5.2/new **** // Copyright (C) 1994, 1995, 1996, 1997, 1998, 1999, 2000, 2001, 2002,
   4:/opt/toolchains/arm-none-eabi/bin/../lib/gcc/arm-none-eabi/4.5.2/../../../../arm-none-eabi/include/c++/4.5.2/new **** // 2003, 2004, 2005, 2006, 2007, 2009, 2010
   5:/opt/toolchains/arm-none-eabi/bin/../lib/gcc/arm-none-eabi/4.5.2/../../../../arm-none-eabi/include/c++/4.5.2/new **** // Free Software Foundation
   6:/opt/toolchains/arm-none-eabi/bin/../lib/gcc/arm-none-eabi/4.5.2/../../../../arm-none-eabi/include/c++/4.5.2/new **** 
   7:/opt/toolchains/arm-none-eabi/bin/../lib/gcc/arm-none-eabi/4.5.2/../../../../arm-none-eabi/include/c++/4.5.2/new **** // This file is part of GCC.
   8:/opt/toolchains/arm-none-eabi/bin/../lib/gcc/arm-none-eabi/4.5.2/../../../../arm-none-eabi/include/c++/4.5.2/new **** //
   9:/opt/toolchains/arm-none-eabi/bin/../lib/gcc/arm-none-eabi/4.5.2/../../../../arm-none-eabi/include/c++/4.5.2/new **** // GCC is free software; you can redistribute it and/or modify
  10:/opt/toolchains/arm-none-eabi/bin/../lib/gcc/arm-none-eabi/4.5.2/../../../../arm-none-eabi/include/c++/4.5.2/new **** // it under the terms of the GNU General Public License as published by
  11:/opt/toolchains/arm-none-eabi/bin/../lib/gcc/arm-none-eabi/4.5.2/../../../../arm-none-eabi/include/c++/4.5.2/new **** // the Free Software Foundation; either version 3, or (at your option)
  12:/opt/toolchains/arm-none-eabi/bin/../lib/gcc/arm-none-eabi/4.5.2/../../../../arm-none-eabi/include/c++/4.5.2/new **** // any later version.
  13:/opt/toolchains/arm-none-eabi/bin/../lib/gcc/arm-none-eabi/4.5.2/../../../../arm-none-eabi/include/c++/4.5.2/new **** // 
  14:/opt/toolchains/arm-none-eabi/bin/../lib/gcc/arm-none-eabi/4.5.2/../../../../arm-none-eabi/include/c++/4.5.2/new **** // GCC is distributed in the hope that it will be useful,
  15:/opt/toolchains/arm-none-eabi/bin/../lib/gcc/arm-none-eabi/4.5.2/../../../../arm-none-eabi/include/c++/4.5.2/new **** // but WITHOUT ANY WARRANTY; without even the implied warranty of
  16:/opt/toolchains/arm-none-eabi/bin/../lib/gcc/arm-none-eabi/4.5.2/../../../../arm-none-eabi/include/c++/4.5.2/new **** // MERCHANTABILITY or FITNESS FOR A PARTICULAR PURPOSE.  See the
  17:/opt/toolchains/arm-none-eabi/bin/../lib/gcc/arm-none-eabi/4.5.2/../../../../arm-none-eabi/include/c++/4.5.2/new **** // GNU General Public License for more details.
  18:/opt/toolchains/arm-none-eabi/bin/../lib/gcc/arm-none-eabi/4.5.2/../../../../arm-none-eabi/include/c++/4.5.2/new **** // 
  19:/opt/toolchains/arm-none-eabi/bin/../lib/gcc/arm-none-eabi/4.5.2/../../../../arm-none-eabi/include/c++/4.5.2/new **** // Under Section 7 of GPL version 3, you are granted additional
  20:/opt/toolchains/arm-none-eabi/bin/../lib/gcc/arm-none-eabi/4.5.2/../../../../arm-none-eabi/include/c++/4.5.2/new **** // permissions described in the GCC Runtime Library Exception, version
  21:/opt/toolchains/arm-none-eabi/bin/../lib/gcc/arm-none-eabi/4.5.2/../../../../arm-none-eabi/include/c++/4.5.2/new **** // 3.1, as published by the Free Software Foundation.
  22:/opt/toolchains/arm-none-eabi/bin/../lib/gcc/arm-none-eabi/4.5.2/../../../../arm-none-eabi/include/c++/4.5.2/new **** 
  23:/opt/toolchains/arm-none-eabi/bin/../lib/gcc/arm-none-eabi/4.5.2/../../../../arm-none-eabi/include/c++/4.5.2/new **** // You should have received a copy of the GNU General Public License and
  24:/opt/toolchains/arm-none-eabi/bin/../lib/gcc/arm-none-eabi/4.5.2/../../../../arm-none-eabi/include/c++/4.5.2/new **** // a copy of the GCC Runtime Library Exception along with this program;
  25:/opt/toolchains/arm-none-eabi/bin/../lib/gcc/arm-none-eabi/4.5.2/../../../../arm-none-eabi/include/c++/4.5.2/new **** // see the files COPYING3 and COPYING.RUNTIME respectively.  If not, see
  26:/opt/toolchains/arm-none-eabi/bin/../lib/gcc/arm-none-eabi/4.5.2/../../../../arm-none-eabi/include/c++/4.5.2/new **** // <http://www.gnu.org/licenses/>.
  27:/opt/toolchains/arm-none-eabi/bin/../lib/gcc/arm-none-eabi/4.5.2/../../../../arm-none-eabi/include/c++/4.5.2/new **** 
  28:/opt/toolchains/arm-none-eabi/bin/../lib/gcc/arm-none-eabi/4.5.2/../../../../arm-none-eabi/include/c++/4.5.2/new **** /** @file new
  29:/opt/toolchains/arm-none-eabi/bin/../lib/gcc/arm-none-eabi/4.5.2/../../../../arm-none-eabi/include/c++/4.5.2/new ****  *  This is a Standard C++ Library header.
  30:/opt/toolchains/arm-none-eabi/bin/../lib/gcc/arm-none-eabi/4.5.2/../../../../arm-none-eabi/include/c++/4.5.2/new ****  *
  31:/opt/toolchains/arm-none-eabi/bin/../lib/gcc/arm-none-eabi/4.5.2/../../../../arm-none-eabi/include/c++/4.5.2/new ****  *  The header @c new defines several functions to manage dynamic memory and
  32:/opt/toolchains/arm-none-eabi/bin/../lib/gcc/arm-none-eabi/4.5.2/../../../../arm-none-eabi/include/c++/4.5.2/new ****  *  handling memory allocation errors; see
  33:/opt/toolchains/arm-none-eabi/bin/../lib/gcc/arm-none-eabi/4.5.2/../../../../arm-none-eabi/include/c++/4.5.2/new ****  *  http://gcc.gnu.org/onlinedocs/libstdc++/18_support/howto.html#4 for more.
  34:/opt/toolchains/arm-none-eabi/bin/../lib/gcc/arm-none-eabi/4.5.2/../../../../arm-none-eabi/include/c++/4.5.2/new ****  */
  35:/opt/toolchains/arm-none-eabi/bin/../lib/gcc/arm-none-eabi/4.5.2/../../../../arm-none-eabi/include/c++/4.5.2/new **** 
  36:/opt/toolchains/arm-none-eabi/bin/../lib/gcc/arm-none-eabi/4.5.2/../../../../arm-none-eabi/include/c++/4.5.2/new **** #ifndef _NEW
  37:/opt/toolchains/arm-none-eabi/bin/../lib/gcc/arm-none-eabi/4.5.2/../../../../arm-none-eabi/include/c++/4.5.2/new **** #define _NEW
  38:/opt/toolchains/arm-none-eabi/bin/../lib/gcc/arm-none-eabi/4.5.2/../../../../arm-none-eabi/include/c++/4.5.2/new **** 
  39:/opt/toolchains/arm-none-eabi/bin/../lib/gcc/arm-none-eabi/4.5.2/../../../../arm-none-eabi/include/c++/4.5.2/new **** #pragma GCC system_header
  40:/opt/toolchains/arm-none-eabi/bin/../lib/gcc/arm-none-eabi/4.5.2/../../../../arm-none-eabi/include/c++/4.5.2/new **** 
  41:/opt/toolchains/arm-none-eabi/bin/../lib/gcc/arm-none-eabi/4.5.2/../../../../arm-none-eabi/include/c++/4.5.2/new **** #include <cstddef>
  42:/opt/toolchains/arm-none-eabi/bin/../lib/gcc/arm-none-eabi/4.5.2/../../../../arm-none-eabi/include/c++/4.5.2/new **** #include <exception>
  43:/opt/toolchains/arm-none-eabi/bin/../lib/gcc/arm-none-eabi/4.5.2/../../../../arm-none-eabi/include/c++/4.5.2/new **** 
  44:/opt/toolchains/arm-none-eabi/bin/../lib/gcc/arm-none-eabi/4.5.2/../../../../arm-none-eabi/include/c++/4.5.2/new **** #pragma GCC visibility push(default)
  45:/opt/toolchains/arm-none-eabi/bin/../lib/gcc/arm-none-eabi/4.5.2/../../../../arm-none-eabi/include/c++/4.5.2/new **** 
  46:/opt/toolchains/arm-none-eabi/bin/../lib/gcc/arm-none-eabi/4.5.2/../../../../arm-none-eabi/include/c++/4.5.2/new **** extern "C++" {
  47:/opt/toolchains/arm-none-eabi/bin/../lib/gcc/arm-none-eabi/4.5.2/../../../../arm-none-eabi/include/c++/4.5.2/new **** 
  48:/opt/toolchains/arm-none-eabi/bin/../lib/gcc/arm-none-eabi/4.5.2/../../../../arm-none-eabi/include/c++/4.5.2/new **** namespace std 
  49:/opt/toolchains/arm-none-eabi/bin/../lib/gcc/arm-none-eabi/4.5.2/../../../../arm-none-eabi/include/c++/4.5.2/new **** {
  50:/opt/toolchains/arm-none-eabi/bin/../lib/gcc/arm-none-eabi/4.5.2/../../../../arm-none-eabi/include/c++/4.5.2/new ****   /**
  51:/opt/toolchains/arm-none-eabi/bin/../lib/gcc/arm-none-eabi/4.5.2/../../../../arm-none-eabi/include/c++/4.5.2/new ****    *  @brief  Exception possibly thrown by @c new.
  52:/opt/toolchains/arm-none-eabi/bin/../lib/gcc/arm-none-eabi/4.5.2/../../../../arm-none-eabi/include/c++/4.5.2/new ****    *  @ingroup exceptions
  53:/opt/toolchains/arm-none-eabi/bin/../lib/gcc/arm-none-eabi/4.5.2/../../../../arm-none-eabi/include/c++/4.5.2/new ****    *
  54:/opt/toolchains/arm-none-eabi/bin/../lib/gcc/arm-none-eabi/4.5.2/../../../../arm-none-eabi/include/c++/4.5.2/new ****    *  @c bad_alloc (or classes derived from it) is used to report allocation
  55:/opt/toolchains/arm-none-eabi/bin/../lib/gcc/arm-none-eabi/4.5.2/../../../../arm-none-eabi/include/c++/4.5.2/new ****    *  errors from the throwing forms of @c new.  */
  56:/opt/toolchains/arm-none-eabi/bin/../lib/gcc/arm-none-eabi/4.5.2/../../../../arm-none-eabi/include/c++/4.5.2/new ****   class bad_alloc : public exception 
  57:/opt/toolchains/arm-none-eabi/bin/../lib/gcc/arm-none-eabi/4.5.2/../../../../arm-none-eabi/include/c++/4.5.2/new ****   {
  58:/opt/toolchains/arm-none-eabi/bin/../lib/gcc/arm-none-eabi/4.5.2/../../../../arm-none-eabi/include/c++/4.5.2/new ****   public:
  59:/opt/toolchains/arm-none-eabi/bin/../lib/gcc/arm-none-eabi/4.5.2/../../../../arm-none-eabi/include/c++/4.5.2/new ****     bad_alloc() throw() { }
  60:/opt/toolchains/arm-none-eabi/bin/../lib/gcc/arm-none-eabi/4.5.2/../../../../arm-none-eabi/include/c++/4.5.2/new **** 
  61:/opt/toolchains/arm-none-eabi/bin/../lib/gcc/arm-none-eabi/4.5.2/../../../../arm-none-eabi/include/c++/4.5.2/new ****     // This declaration is not useless:
  62:/opt/toolchains/arm-none-eabi/bin/../lib/gcc/arm-none-eabi/4.5.2/../../../../arm-none-eabi/include/c++/4.5.2/new ****     // http://gcc.gnu.org/onlinedocs/gcc-3.0.2/gcc_6.html#SEC118
  63:/opt/toolchains/arm-none-eabi/bin/../lib/gcc/arm-none-eabi/4.5.2/../../../../arm-none-eabi/include/c++/4.5.2/new ****     virtual ~bad_alloc() throw();
  64:/opt/toolchains/arm-none-eabi/bin/../lib/gcc/arm-none-eabi/4.5.2/../../../../arm-none-eabi/include/c++/4.5.2/new **** 
  65:/opt/toolchains/arm-none-eabi/bin/../lib/gcc/arm-none-eabi/4.5.2/../../../../arm-none-eabi/include/c++/4.5.2/new ****     // See comment in eh_exception.cc.
  66:/opt/toolchains/arm-none-eabi/bin/../lib/gcc/arm-none-eabi/4.5.2/../../../../arm-none-eabi/include/c++/4.5.2/new ****     virtual const char* what() const throw();
  67:/opt/toolchains/arm-none-eabi/bin/../lib/gcc/arm-none-eabi/4.5.2/../../../../arm-none-eabi/include/c++/4.5.2/new ****   };
  68:/opt/toolchains/arm-none-eabi/bin/../lib/gcc/arm-none-eabi/4.5.2/../../../../arm-none-eabi/include/c++/4.5.2/new **** 
  69:/opt/toolchains/arm-none-eabi/bin/../lib/gcc/arm-none-eabi/4.5.2/../../../../arm-none-eabi/include/c++/4.5.2/new ****   struct nothrow_t { };
  70:/opt/toolchains/arm-none-eabi/bin/../lib/gcc/arm-none-eabi/4.5.2/../../../../arm-none-eabi/include/c++/4.5.2/new **** 
  71:/opt/toolchains/arm-none-eabi/bin/../lib/gcc/arm-none-eabi/4.5.2/../../../../arm-none-eabi/include/c++/4.5.2/new ****   extern const nothrow_t nothrow;
  72:/opt/toolchains/arm-none-eabi/bin/../lib/gcc/arm-none-eabi/4.5.2/../../../../arm-none-eabi/include/c++/4.5.2/new **** 
  73:/opt/toolchains/arm-none-eabi/bin/../lib/gcc/arm-none-eabi/4.5.2/../../../../arm-none-eabi/include/c++/4.5.2/new ****   /** If you write your own error handler to be called by @c new, it must
  74:/opt/toolchains/arm-none-eabi/bin/../lib/gcc/arm-none-eabi/4.5.2/../../../../arm-none-eabi/include/c++/4.5.2/new ****    *  be of this type.  */
  75:/opt/toolchains/arm-none-eabi/bin/../lib/gcc/arm-none-eabi/4.5.2/../../../../arm-none-eabi/include/c++/4.5.2/new ****   typedef void (*new_handler)();
  76:/opt/toolchains/arm-none-eabi/bin/../lib/gcc/arm-none-eabi/4.5.2/../../../../arm-none-eabi/include/c++/4.5.2/new **** 
  77:/opt/toolchains/arm-none-eabi/bin/../lib/gcc/arm-none-eabi/4.5.2/../../../../arm-none-eabi/include/c++/4.5.2/new ****   /// Takes a replacement handler as the argument, returns the
  78:/opt/toolchains/arm-none-eabi/bin/../lib/gcc/arm-none-eabi/4.5.2/../../../../arm-none-eabi/include/c++/4.5.2/new ****   /// previous handler.
  79:/opt/toolchains/arm-none-eabi/bin/../lib/gcc/arm-none-eabi/4.5.2/../../../../arm-none-eabi/include/c++/4.5.2/new ****   new_handler set_new_handler(new_handler) throw();
  80:/opt/toolchains/arm-none-eabi/bin/../lib/gcc/arm-none-eabi/4.5.2/../../../../arm-none-eabi/include/c++/4.5.2/new **** } // namespace std
  81:/opt/toolchains/arm-none-eabi/bin/../lib/gcc/arm-none-eabi/4.5.2/../../../../arm-none-eabi/include/c++/4.5.2/new **** 
  82:/opt/toolchains/arm-none-eabi/bin/../lib/gcc/arm-none-eabi/4.5.2/../../../../arm-none-eabi/include/c++/4.5.2/new **** //@{
  83:/opt/toolchains/arm-none-eabi/bin/../lib/gcc/arm-none-eabi/4.5.2/../../../../arm-none-eabi/include/c++/4.5.2/new **** /** These are replaceable signatures:
  84:/opt/toolchains/arm-none-eabi/bin/../lib/gcc/arm-none-eabi/4.5.2/../../../../arm-none-eabi/include/c++/4.5.2/new ****  *  - normal single new and delete (no arguments, throw @c bad_alloc on error)
  85:/opt/toolchains/arm-none-eabi/bin/../lib/gcc/arm-none-eabi/4.5.2/../../../../arm-none-eabi/include/c++/4.5.2/new ****  *  - normal array new and delete (same)
  86:/opt/toolchains/arm-none-eabi/bin/../lib/gcc/arm-none-eabi/4.5.2/../../../../arm-none-eabi/include/c++/4.5.2/new ****  *  - @c nothrow single new and delete (take a @c nothrow argument, return
  87:/opt/toolchains/arm-none-eabi/bin/../lib/gcc/arm-none-eabi/4.5.2/../../../../arm-none-eabi/include/c++/4.5.2/new ****  *    @c NULL on error)
  88:/opt/toolchains/arm-none-eabi/bin/../lib/gcc/arm-none-eabi/4.5.2/../../../../arm-none-eabi/include/c++/4.5.2/new ****  *  - @c nothrow array new and delete (same)
  89:/opt/toolchains/arm-none-eabi/bin/../lib/gcc/arm-none-eabi/4.5.2/../../../../arm-none-eabi/include/c++/4.5.2/new ****  *
  90:/opt/toolchains/arm-none-eabi/bin/../lib/gcc/arm-none-eabi/4.5.2/../../../../arm-none-eabi/include/c++/4.5.2/new ****  *  Placement new and delete signatures (take a memory address argument,
  91:/opt/toolchains/arm-none-eabi/bin/../lib/gcc/arm-none-eabi/4.5.2/../../../../arm-none-eabi/include/c++/4.5.2/new ****  *  does nothing) may not be replaced by a user's program.
  92:/opt/toolchains/arm-none-eabi/bin/../lib/gcc/arm-none-eabi/4.5.2/../../../../arm-none-eabi/include/c++/4.5.2/new **** */
  93:/opt/toolchains/arm-none-eabi/bin/../lib/gcc/arm-none-eabi/4.5.2/../../../../arm-none-eabi/include/c++/4.5.2/new **** void* operator new(std::size_t) throw (std::bad_alloc);
  94:/opt/toolchains/arm-none-eabi/bin/../lib/gcc/arm-none-eabi/4.5.2/../../../../arm-none-eabi/include/c++/4.5.2/new **** void* operator new[](std::size_t) throw (std::bad_alloc);
  95:/opt/toolchains/arm-none-eabi/bin/../lib/gcc/arm-none-eabi/4.5.2/../../../../arm-none-eabi/include/c++/4.5.2/new **** void operator delete(void*) throw();
  96:/opt/toolchains/arm-none-eabi/bin/../lib/gcc/arm-none-eabi/4.5.2/../../../../arm-none-eabi/include/c++/4.5.2/new **** void operator delete[](void*) throw();
  97:/opt/toolchains/arm-none-eabi/bin/../lib/gcc/arm-none-eabi/4.5.2/../../../../arm-none-eabi/include/c++/4.5.2/new **** void* operator new(std::size_t, const std::nothrow_t&) throw();
  98:/opt/toolchains/arm-none-eabi/bin/../lib/gcc/arm-none-eabi/4.5.2/../../../../arm-none-eabi/include/c++/4.5.2/new **** void* operator new[](std::size_t, const std::nothrow_t&) throw();
  99:/opt/toolchains/arm-none-eabi/bin/../lib/gcc/arm-none-eabi/4.5.2/../../../../arm-none-eabi/include/c++/4.5.2/new **** void operator delete(void*, const std::nothrow_t&) throw();
 100:/opt/toolchains/arm-none-eabi/bin/../lib/gcc/arm-none-eabi/4.5.2/../../../../arm-none-eabi/include/c++/4.5.2/new **** void operator delete[](void*, const std::nothrow_t&) throw();
 101:/opt/toolchains/arm-none-eabi/bin/../lib/gcc/arm-none-eabi/4.5.2/../../../../arm-none-eabi/include/c++/4.5.2/new **** 
 102:/opt/toolchains/arm-none-eabi/bin/../lib/gcc/arm-none-eabi/4.5.2/../../../../arm-none-eabi/include/c++/4.5.2/new **** // Default placement versions of operator new.
 103:/opt/toolchains/arm-none-eabi/bin/../lib/gcc/arm-none-eabi/4.5.2/../../../../arm-none-eabi/include/c++/4.5.2/new **** inline void* operator new(std::size_t, void* __p) throw() { return __p; }
 4028              		.loc 49 103 0
 4029              		.cfi_startproc
 4030              		@ args = 0, pretend = 0, frame = 8
 4031              		@ frame_needed = 1, uses_anonymous_args = 0
 4032              		@ link register save eliminated.
 4033 0000 80B4     		push	{r7}
 4034              	.LCFI0:
 4035              		.cfi_def_cfa_offset 4
 4036 0002 83B0     		sub	sp, sp, #12
 4037              	.LCFI1:
 4038              		.cfi_def_cfa_offset 16
 4039 0004 00AF     		add	r7, sp, #0
 4040              		.cfi_offset 7, -4
 4041              	.LCFI2:
 4042              		.cfi_def_cfa_register 7
 4043 0006 7860     		str	r0, [r7, #4]
 4044 0008 3960     		str	r1, [r7, #0]
 4045              		.loc 49 103 0
 4046 000a 3B68     		ldr	r3, [r7, #0]
 4047 000c 1846     		mov	r0, r3
 4048 000e 07F10C07 		add	r7, r7, #12
 4049 0012 BD46     		mov	sp, r7
 4050 0014 80BC     		pop	{r7}
 4051 0016 7047     		bx	lr
 4052              		.cfi_endproc
 4053              	.LFE191:
 4055              		.section	.text._ZL20__gthread_key_deletei,"ax",%progbits
 4056              		.align	2
 4057              		.thumb
 4058              		.thumb_func
 4060              	_ZL20__gthread_key_deletei:
 4061              	.LFB607:
   1:/opt/toolchains/arm-none-eabi/bin/../lib/gcc/arm-none-eabi/4.5.2/../../../../arm-none-eabi/include/c++/4.5.2/arm-none-eabi/thumb/bits/gthr-single.h **** /* Threads compatibility routines for libgcc2 and libobjc.  */
   2:/opt/toolchains/arm-none-eabi/bin/../lib/gcc/arm-none-eabi/4.5.2/../../../../arm-none-eabi/include/c++/4.5.2/arm-none-eabi/thumb/bits/gthr-single.h **** /* Compile this one with gcc.  */
   3:/opt/toolchains/arm-none-eabi/bin/../lib/gcc/arm-none-eabi/4.5.2/../../../../arm-none-eabi/include/c++/4.5.2/arm-none-eabi/thumb/bits/gthr-single.h **** /* Copyright (C) 1997, 1999, 2000, 2004, 2008, 2009
   4:/opt/toolchains/arm-none-eabi/bin/../lib/gcc/arm-none-eabi/4.5.2/../../../../arm-none-eabi/include/c++/4.5.2/arm-none-eabi/thumb/bits/gthr-single.h ****    Free Software Foundation, Inc.
   5:/opt/toolchains/arm-none-eabi/bin/../lib/gcc/arm-none-eabi/4.5.2/../../../../arm-none-eabi/include/c++/4.5.2/arm-none-eabi/thumb/bits/gthr-single.h **** 
   6:/opt/toolchains/arm-none-eabi/bin/../lib/gcc/arm-none-eabi/4.5.2/../../../../arm-none-eabi/include/c++/4.5.2/arm-none-eabi/thumb/bits/gthr-single.h **** This file is part of GCC.
   7:/opt/toolchains/arm-none-eabi/bin/../lib/gcc/arm-none-eabi/4.5.2/../../../../arm-none-eabi/include/c++/4.5.2/arm-none-eabi/thumb/bits/gthr-single.h **** 
   8:/opt/toolchains/arm-none-eabi/bin/../lib/gcc/arm-none-eabi/4.5.2/../../../../arm-none-eabi/include/c++/4.5.2/arm-none-eabi/thumb/bits/gthr-single.h **** GCC is free software; you can redistribute it and/or modify it under
   9:/opt/toolchains/arm-none-eabi/bin/../lib/gcc/arm-none-eabi/4.5.2/../../../../arm-none-eabi/include/c++/4.5.2/arm-none-eabi/thumb/bits/gthr-single.h **** the terms of the GNU General Public License as published by the Free
  10:/opt/toolchains/arm-none-eabi/bin/../lib/gcc/arm-none-eabi/4.5.2/../../../../arm-none-eabi/include/c++/4.5.2/arm-none-eabi/thumb/bits/gthr-single.h **** Software Foundation; either version 3, or (at your option) any later
  11:/opt/toolchains/arm-none-eabi/bin/../lib/gcc/arm-none-eabi/4.5.2/../../../../arm-none-eabi/include/c++/4.5.2/arm-none-eabi/thumb/bits/gthr-single.h **** version.
  12:/opt/toolchains/arm-none-eabi/bin/../lib/gcc/arm-none-eabi/4.5.2/../../../../arm-none-eabi/include/c++/4.5.2/arm-none-eabi/thumb/bits/gthr-single.h **** 
  13:/opt/toolchains/arm-none-eabi/bin/../lib/gcc/arm-none-eabi/4.5.2/../../../../arm-none-eabi/include/c++/4.5.2/arm-none-eabi/thumb/bits/gthr-single.h **** GCC is distributed in the hope that it will be useful, but WITHOUT ANY
  14:/opt/toolchains/arm-none-eabi/bin/../lib/gcc/arm-none-eabi/4.5.2/../../../../arm-none-eabi/include/c++/4.5.2/arm-none-eabi/thumb/bits/gthr-single.h **** WARRANTY; without even the implied warranty of MERCHANTABILITY or
  15:/opt/toolchains/arm-none-eabi/bin/../lib/gcc/arm-none-eabi/4.5.2/../../../../arm-none-eabi/include/c++/4.5.2/arm-none-eabi/thumb/bits/gthr-single.h **** FITNESS FOR A PARTICULAR PURPOSE.  See the GNU General Public License
  16:/opt/toolchains/arm-none-eabi/bin/../lib/gcc/arm-none-eabi/4.5.2/../../../../arm-none-eabi/include/c++/4.5.2/arm-none-eabi/thumb/bits/gthr-single.h **** for more details.
  17:/opt/toolchains/arm-none-eabi/bin/../lib/gcc/arm-none-eabi/4.5.2/../../../../arm-none-eabi/include/c++/4.5.2/arm-none-eabi/thumb/bits/gthr-single.h **** 
  18:/opt/toolchains/arm-none-eabi/bin/../lib/gcc/arm-none-eabi/4.5.2/../../../../arm-none-eabi/include/c++/4.5.2/arm-none-eabi/thumb/bits/gthr-single.h **** Under Section 7 of GPL version 3, you are granted additional
  19:/opt/toolchains/arm-none-eabi/bin/../lib/gcc/arm-none-eabi/4.5.2/../../../../arm-none-eabi/include/c++/4.5.2/arm-none-eabi/thumb/bits/gthr-single.h **** permissions described in the GCC Runtime Library Exception, version
  20:/opt/toolchains/arm-none-eabi/bin/../lib/gcc/arm-none-eabi/4.5.2/../../../../arm-none-eabi/include/c++/4.5.2/arm-none-eabi/thumb/bits/gthr-single.h **** 3.1, as published by the Free Software Foundation.
  21:/opt/toolchains/arm-none-eabi/bin/../lib/gcc/arm-none-eabi/4.5.2/../../../../arm-none-eabi/include/c++/4.5.2/arm-none-eabi/thumb/bits/gthr-single.h **** 
  22:/opt/toolchains/arm-none-eabi/bin/../lib/gcc/arm-none-eabi/4.5.2/../../../../arm-none-eabi/include/c++/4.5.2/arm-none-eabi/thumb/bits/gthr-single.h **** You should have received a copy of the GNU General Public License and
  23:/opt/toolchains/arm-none-eabi/bin/../lib/gcc/arm-none-eabi/4.5.2/../../../../arm-none-eabi/include/c++/4.5.2/arm-none-eabi/thumb/bits/gthr-single.h **** a copy of the GCC Runtime Library Exception along with this program;
  24:/opt/toolchains/arm-none-eabi/bin/../lib/gcc/arm-none-eabi/4.5.2/../../../../arm-none-eabi/include/c++/4.5.2/arm-none-eabi/thumb/bits/gthr-single.h **** see the files COPYING3 and COPYING.RUNTIME respectively.  If not, see
  25:/opt/toolchains/arm-none-eabi/bin/../lib/gcc/arm-none-eabi/4.5.2/../../../../arm-none-eabi/include/c++/4.5.2/arm-none-eabi/thumb/bits/gthr-single.h **** <http://www.gnu.org/licenses/>.  */
  26:/opt/toolchains/arm-none-eabi/bin/../lib/gcc/arm-none-eabi/4.5.2/../../../../arm-none-eabi/include/c++/4.5.2/arm-none-eabi/thumb/bits/gthr-single.h **** 
  27:/opt/toolchains/arm-none-eabi/bin/../lib/gcc/arm-none-eabi/4.5.2/../../../../arm-none-eabi/include/c++/4.5.2/arm-none-eabi/thumb/bits/gthr-single.h **** #ifndef _GLIBCXX_GCC_GTHR_SINGLE_H
  28:/opt/toolchains/arm-none-eabi/bin/../lib/gcc/arm-none-eabi/4.5.2/../../../../arm-none-eabi/include/c++/4.5.2/arm-none-eabi/thumb/bits/gthr-single.h **** #define _GLIBCXX_GCC_GTHR_SINGLE_H
  29:/opt/toolchains/arm-none-eabi/bin/../lib/gcc/arm-none-eabi/4.5.2/../../../../arm-none-eabi/include/c++/4.5.2/arm-none-eabi/thumb/bits/gthr-single.h **** 
  30:/opt/toolchains/arm-none-eabi/bin/../lib/gcc/arm-none-eabi/4.5.2/../../../../arm-none-eabi/include/c++/4.5.2/arm-none-eabi/thumb/bits/gthr-single.h **** /* Just provide compatibility for mutex handling.  */
  31:/opt/toolchains/arm-none-eabi/bin/../lib/gcc/arm-none-eabi/4.5.2/../../../../arm-none-eabi/include/c++/4.5.2/arm-none-eabi/thumb/bits/gthr-single.h **** 
  32:/opt/toolchains/arm-none-eabi/bin/../lib/gcc/arm-none-eabi/4.5.2/../../../../arm-none-eabi/include/c++/4.5.2/arm-none-eabi/thumb/bits/gthr-single.h **** typedef int __gthread_key_t;
  33:/opt/toolchains/arm-none-eabi/bin/../lib/gcc/arm-none-eabi/4.5.2/../../../../arm-none-eabi/include/c++/4.5.2/arm-none-eabi/thumb/bits/gthr-single.h **** typedef int __gthread_once_t;
  34:/opt/toolchains/arm-none-eabi/bin/../lib/gcc/arm-none-eabi/4.5.2/../../../../arm-none-eabi/include/c++/4.5.2/arm-none-eabi/thumb/bits/gthr-single.h **** typedef int __gthread_mutex_t;
  35:/opt/toolchains/arm-none-eabi/bin/../lib/gcc/arm-none-eabi/4.5.2/../../../../arm-none-eabi/include/c++/4.5.2/arm-none-eabi/thumb/bits/gthr-single.h **** typedef int __gthread_recursive_mutex_t;
  36:/opt/toolchains/arm-none-eabi/bin/../lib/gcc/arm-none-eabi/4.5.2/../../../../arm-none-eabi/include/c++/4.5.2/arm-none-eabi/thumb/bits/gthr-single.h **** 
  37:/opt/toolchains/arm-none-eabi/bin/../lib/gcc/arm-none-eabi/4.5.2/../../../../arm-none-eabi/include/c++/4.5.2/arm-none-eabi/thumb/bits/gthr-single.h **** #define __GTHREAD_ONCE_INIT 0
  38:/opt/toolchains/arm-none-eabi/bin/../lib/gcc/arm-none-eabi/4.5.2/../../../../arm-none-eabi/include/c++/4.5.2/arm-none-eabi/thumb/bits/gthr-single.h **** #define __GTHREAD_MUTEX_INIT 0
  39:/opt/toolchains/arm-none-eabi/bin/../lib/gcc/arm-none-eabi/4.5.2/../../../../arm-none-eabi/include/c++/4.5.2/arm-none-eabi/thumb/bits/gthr-single.h **** #define __GTHREAD_RECURSIVE_MUTEX_INIT 0
  40:/opt/toolchains/arm-none-eabi/bin/../lib/gcc/arm-none-eabi/4.5.2/../../../../arm-none-eabi/include/c++/4.5.2/arm-none-eabi/thumb/bits/gthr-single.h **** 
  41:/opt/toolchains/arm-none-eabi/bin/../lib/gcc/arm-none-eabi/4.5.2/../../../../arm-none-eabi/include/c++/4.5.2/arm-none-eabi/thumb/bits/gthr-single.h **** #define _GLIBCXX_UNUSED __attribute__((unused))
  42:/opt/toolchains/arm-none-eabi/bin/../lib/gcc/arm-none-eabi/4.5.2/../../../../arm-none-eabi/include/c++/4.5.2/arm-none-eabi/thumb/bits/gthr-single.h **** 
  43:/opt/toolchains/arm-none-eabi/bin/../lib/gcc/arm-none-eabi/4.5.2/../../../../arm-none-eabi/include/c++/4.5.2/arm-none-eabi/thumb/bits/gthr-single.h **** #ifdef _LIBOBJC
  44:/opt/toolchains/arm-none-eabi/bin/../lib/gcc/arm-none-eabi/4.5.2/../../../../arm-none-eabi/include/c++/4.5.2/arm-none-eabi/thumb/bits/gthr-single.h **** 
  45:/opt/toolchains/arm-none-eabi/bin/../lib/gcc/arm-none-eabi/4.5.2/../../../../arm-none-eabi/include/c++/4.5.2/arm-none-eabi/thumb/bits/gthr-single.h **** /* Thread local storage for a single thread */
  46:/opt/toolchains/arm-none-eabi/bin/../lib/gcc/arm-none-eabi/4.5.2/../../../../arm-none-eabi/include/c++/4.5.2/arm-none-eabi/thumb/bits/gthr-single.h **** static void *thread_local_storage = NULL;
  47:/opt/toolchains/arm-none-eabi/bin/../lib/gcc/arm-none-eabi/4.5.2/../../../../arm-none-eabi/include/c++/4.5.2/arm-none-eabi/thumb/bits/gthr-single.h **** 
  48:/opt/toolchains/arm-none-eabi/bin/../lib/gcc/arm-none-eabi/4.5.2/../../../../arm-none-eabi/include/c++/4.5.2/arm-none-eabi/thumb/bits/gthr-single.h **** /* Backend initialization functions */
  49:/opt/toolchains/arm-none-eabi/bin/../lib/gcc/arm-none-eabi/4.5.2/../../../../arm-none-eabi/include/c++/4.5.2/arm-none-eabi/thumb/bits/gthr-single.h **** 
  50:/opt/toolchains/arm-none-eabi/bin/../lib/gcc/arm-none-eabi/4.5.2/../../../../arm-none-eabi/include/c++/4.5.2/arm-none-eabi/thumb/bits/gthr-single.h **** /* Initialize the threads subsystem.  */
  51:/opt/toolchains/arm-none-eabi/bin/../lib/gcc/arm-none-eabi/4.5.2/../../../../arm-none-eabi/include/c++/4.5.2/arm-none-eabi/thumb/bits/gthr-single.h **** static inline int
  52:/opt/toolchains/arm-none-eabi/bin/../lib/gcc/arm-none-eabi/4.5.2/../../../../arm-none-eabi/include/c++/4.5.2/arm-none-eabi/thumb/bits/gthr-single.h **** __gthread_objc_init_thread_system (void)
  53:/opt/toolchains/arm-none-eabi/bin/../lib/gcc/arm-none-eabi/4.5.2/../../../../arm-none-eabi/include/c++/4.5.2/arm-none-eabi/thumb/bits/gthr-single.h **** {
  54:/opt/toolchains/arm-none-eabi/bin/../lib/gcc/arm-none-eabi/4.5.2/../../../../arm-none-eabi/include/c++/4.5.2/arm-none-eabi/thumb/bits/gthr-single.h ****   /* No thread support available */
  55:/opt/toolchains/arm-none-eabi/bin/../lib/gcc/arm-none-eabi/4.5.2/../../../../arm-none-eabi/include/c++/4.5.2/arm-none-eabi/thumb/bits/gthr-single.h ****   return -1;
  56:/opt/toolchains/arm-none-eabi/bin/../lib/gcc/arm-none-eabi/4.5.2/../../../../arm-none-eabi/include/c++/4.5.2/arm-none-eabi/thumb/bits/gthr-single.h **** }
  57:/opt/toolchains/arm-none-eabi/bin/../lib/gcc/arm-none-eabi/4.5.2/../../../../arm-none-eabi/include/c++/4.5.2/arm-none-eabi/thumb/bits/gthr-single.h **** 
  58:/opt/toolchains/arm-none-eabi/bin/../lib/gcc/arm-none-eabi/4.5.2/../../../../arm-none-eabi/include/c++/4.5.2/arm-none-eabi/thumb/bits/gthr-single.h **** /* Close the threads subsystem.  */
  59:/opt/toolchains/arm-none-eabi/bin/../lib/gcc/arm-none-eabi/4.5.2/../../../../arm-none-eabi/include/c++/4.5.2/arm-none-eabi/thumb/bits/gthr-single.h **** static inline int
  60:/opt/toolchains/arm-none-eabi/bin/../lib/gcc/arm-none-eabi/4.5.2/../../../../arm-none-eabi/include/c++/4.5.2/arm-none-eabi/thumb/bits/gthr-single.h **** __gthread_objc_close_thread_system (void)
  61:/opt/toolchains/arm-none-eabi/bin/../lib/gcc/arm-none-eabi/4.5.2/../../../../arm-none-eabi/include/c++/4.5.2/arm-none-eabi/thumb/bits/gthr-single.h **** {
  62:/opt/toolchains/arm-none-eabi/bin/../lib/gcc/arm-none-eabi/4.5.2/../../../../arm-none-eabi/include/c++/4.5.2/arm-none-eabi/thumb/bits/gthr-single.h ****   /* No thread support available */
  63:/opt/toolchains/arm-none-eabi/bin/../lib/gcc/arm-none-eabi/4.5.2/../../../../arm-none-eabi/include/c++/4.5.2/arm-none-eabi/thumb/bits/gthr-single.h ****   return -1;
  64:/opt/toolchains/arm-none-eabi/bin/../lib/gcc/arm-none-eabi/4.5.2/../../../../arm-none-eabi/include/c++/4.5.2/arm-none-eabi/thumb/bits/gthr-single.h **** }
  65:/opt/toolchains/arm-none-eabi/bin/../lib/gcc/arm-none-eabi/4.5.2/../../../../arm-none-eabi/include/c++/4.5.2/arm-none-eabi/thumb/bits/gthr-single.h **** 
  66:/opt/toolchains/arm-none-eabi/bin/../lib/gcc/arm-none-eabi/4.5.2/../../../../arm-none-eabi/include/c++/4.5.2/arm-none-eabi/thumb/bits/gthr-single.h **** /* Backend thread functions */
  67:/opt/toolchains/arm-none-eabi/bin/../lib/gcc/arm-none-eabi/4.5.2/../../../../arm-none-eabi/include/c++/4.5.2/arm-none-eabi/thumb/bits/gthr-single.h **** 
  68:/opt/toolchains/arm-none-eabi/bin/../lib/gcc/arm-none-eabi/4.5.2/../../../../arm-none-eabi/include/c++/4.5.2/arm-none-eabi/thumb/bits/gthr-single.h **** /* Create a new thread of execution.  */
  69:/opt/toolchains/arm-none-eabi/bin/../lib/gcc/arm-none-eabi/4.5.2/../../../../arm-none-eabi/include/c++/4.5.2/arm-none-eabi/thumb/bits/gthr-single.h **** static inline objc_thread_t
  70:/opt/toolchains/arm-none-eabi/bin/../lib/gcc/arm-none-eabi/4.5.2/../../../../arm-none-eabi/include/c++/4.5.2/arm-none-eabi/thumb/bits/gthr-single.h **** __gthread_objc_thread_detach (void (* func)(void *), void * arg _GLIBCXX_UNUSED)
  71:/opt/toolchains/arm-none-eabi/bin/../lib/gcc/arm-none-eabi/4.5.2/../../../../arm-none-eabi/include/c++/4.5.2/arm-none-eabi/thumb/bits/gthr-single.h **** {
  72:/opt/toolchains/arm-none-eabi/bin/../lib/gcc/arm-none-eabi/4.5.2/../../../../arm-none-eabi/include/c++/4.5.2/arm-none-eabi/thumb/bits/gthr-single.h ****   /* No thread support available */
  73:/opt/toolchains/arm-none-eabi/bin/../lib/gcc/arm-none-eabi/4.5.2/../../../../arm-none-eabi/include/c++/4.5.2/arm-none-eabi/thumb/bits/gthr-single.h ****   return NULL;
  74:/opt/toolchains/arm-none-eabi/bin/../lib/gcc/arm-none-eabi/4.5.2/../../../../arm-none-eabi/include/c++/4.5.2/arm-none-eabi/thumb/bits/gthr-single.h **** }
  75:/opt/toolchains/arm-none-eabi/bin/../lib/gcc/arm-none-eabi/4.5.2/../../../../arm-none-eabi/include/c++/4.5.2/arm-none-eabi/thumb/bits/gthr-single.h **** 
  76:/opt/toolchains/arm-none-eabi/bin/../lib/gcc/arm-none-eabi/4.5.2/../../../../arm-none-eabi/include/c++/4.5.2/arm-none-eabi/thumb/bits/gthr-single.h **** /* Set the current thread's priority.  */
  77:/opt/toolchains/arm-none-eabi/bin/../lib/gcc/arm-none-eabi/4.5.2/../../../../arm-none-eabi/include/c++/4.5.2/arm-none-eabi/thumb/bits/gthr-single.h **** static inline int
  78:/opt/toolchains/arm-none-eabi/bin/../lib/gcc/arm-none-eabi/4.5.2/../../../../arm-none-eabi/include/c++/4.5.2/arm-none-eabi/thumb/bits/gthr-single.h **** __gthread_objc_thread_set_priority (int priority _GLIBCXX_UNUSED)
  79:/opt/toolchains/arm-none-eabi/bin/../lib/gcc/arm-none-eabi/4.5.2/../../../../arm-none-eabi/include/c++/4.5.2/arm-none-eabi/thumb/bits/gthr-single.h **** {
  80:/opt/toolchains/arm-none-eabi/bin/../lib/gcc/arm-none-eabi/4.5.2/../../../../arm-none-eabi/include/c++/4.5.2/arm-none-eabi/thumb/bits/gthr-single.h ****   /* No thread support available */
  81:/opt/toolchains/arm-none-eabi/bin/../lib/gcc/arm-none-eabi/4.5.2/../../../../arm-none-eabi/include/c++/4.5.2/arm-none-eabi/thumb/bits/gthr-single.h ****   return -1;
  82:/opt/toolchains/arm-none-eabi/bin/../lib/gcc/arm-none-eabi/4.5.2/../../../../arm-none-eabi/include/c++/4.5.2/arm-none-eabi/thumb/bits/gthr-single.h **** }
  83:/opt/toolchains/arm-none-eabi/bin/../lib/gcc/arm-none-eabi/4.5.2/../../../../arm-none-eabi/include/c++/4.5.2/arm-none-eabi/thumb/bits/gthr-single.h **** 
  84:/opt/toolchains/arm-none-eabi/bin/../lib/gcc/arm-none-eabi/4.5.2/../../../../arm-none-eabi/include/c++/4.5.2/arm-none-eabi/thumb/bits/gthr-single.h **** /* Return the current thread's priority.  */
  85:/opt/toolchains/arm-none-eabi/bin/../lib/gcc/arm-none-eabi/4.5.2/../../../../arm-none-eabi/include/c++/4.5.2/arm-none-eabi/thumb/bits/gthr-single.h **** static inline int
  86:/opt/toolchains/arm-none-eabi/bin/../lib/gcc/arm-none-eabi/4.5.2/../../../../arm-none-eabi/include/c++/4.5.2/arm-none-eabi/thumb/bits/gthr-single.h **** __gthread_objc_thread_get_priority (void)
  87:/opt/toolchains/arm-none-eabi/bin/../lib/gcc/arm-none-eabi/4.5.2/../../../../arm-none-eabi/include/c++/4.5.2/arm-none-eabi/thumb/bits/gthr-single.h **** {
  88:/opt/toolchains/arm-none-eabi/bin/../lib/gcc/arm-none-eabi/4.5.2/../../../../arm-none-eabi/include/c++/4.5.2/arm-none-eabi/thumb/bits/gthr-single.h ****   return OBJC_THREAD_INTERACTIVE_PRIORITY;
  89:/opt/toolchains/arm-none-eabi/bin/../lib/gcc/arm-none-eabi/4.5.2/../../../../arm-none-eabi/include/c++/4.5.2/arm-none-eabi/thumb/bits/gthr-single.h **** }
  90:/opt/toolchains/arm-none-eabi/bin/../lib/gcc/arm-none-eabi/4.5.2/../../../../arm-none-eabi/include/c++/4.5.2/arm-none-eabi/thumb/bits/gthr-single.h **** 
  91:/opt/toolchains/arm-none-eabi/bin/../lib/gcc/arm-none-eabi/4.5.2/../../../../arm-none-eabi/include/c++/4.5.2/arm-none-eabi/thumb/bits/gthr-single.h **** /* Yield our process time to another thread.  */
  92:/opt/toolchains/arm-none-eabi/bin/../lib/gcc/arm-none-eabi/4.5.2/../../../../arm-none-eabi/include/c++/4.5.2/arm-none-eabi/thumb/bits/gthr-single.h **** static inline void
  93:/opt/toolchains/arm-none-eabi/bin/../lib/gcc/arm-none-eabi/4.5.2/../../../../arm-none-eabi/include/c++/4.5.2/arm-none-eabi/thumb/bits/gthr-single.h **** __gthread_objc_thread_yield (void)
  94:/opt/toolchains/arm-none-eabi/bin/../lib/gcc/arm-none-eabi/4.5.2/../../../../arm-none-eabi/include/c++/4.5.2/arm-none-eabi/thumb/bits/gthr-single.h **** {
  95:/opt/toolchains/arm-none-eabi/bin/../lib/gcc/arm-none-eabi/4.5.2/../../../../arm-none-eabi/include/c++/4.5.2/arm-none-eabi/thumb/bits/gthr-single.h ****   return;
  96:/opt/toolchains/arm-none-eabi/bin/../lib/gcc/arm-none-eabi/4.5.2/../../../../arm-none-eabi/include/c++/4.5.2/arm-none-eabi/thumb/bits/gthr-single.h **** }
  97:/opt/toolchains/arm-none-eabi/bin/../lib/gcc/arm-none-eabi/4.5.2/../../../../arm-none-eabi/include/c++/4.5.2/arm-none-eabi/thumb/bits/gthr-single.h **** 
  98:/opt/toolchains/arm-none-eabi/bin/../lib/gcc/arm-none-eabi/4.5.2/../../../../arm-none-eabi/include/c++/4.5.2/arm-none-eabi/thumb/bits/gthr-single.h **** /* Terminate the current thread.  */
  99:/opt/toolchains/arm-none-eabi/bin/../lib/gcc/arm-none-eabi/4.5.2/../../../../arm-none-eabi/include/c++/4.5.2/arm-none-eabi/thumb/bits/gthr-single.h **** static inline int
 100:/opt/toolchains/arm-none-eabi/bin/../lib/gcc/arm-none-eabi/4.5.2/../../../../arm-none-eabi/include/c++/4.5.2/arm-none-eabi/thumb/bits/gthr-single.h **** __gthread_objc_thread_exit (void)
 101:/opt/toolchains/arm-none-eabi/bin/../lib/gcc/arm-none-eabi/4.5.2/../../../../arm-none-eabi/include/c++/4.5.2/arm-none-eabi/thumb/bits/gthr-single.h **** {
 102:/opt/toolchains/arm-none-eabi/bin/../lib/gcc/arm-none-eabi/4.5.2/../../../../arm-none-eabi/include/c++/4.5.2/arm-none-eabi/thumb/bits/gthr-single.h ****   /* No thread support available */
 103:/opt/toolchains/arm-none-eabi/bin/../lib/gcc/arm-none-eabi/4.5.2/../../../../arm-none-eabi/include/c++/4.5.2/arm-none-eabi/thumb/bits/gthr-single.h ****   /* Should we really exit the program */
 104:/opt/toolchains/arm-none-eabi/bin/../lib/gcc/arm-none-eabi/4.5.2/../../../../arm-none-eabi/include/c++/4.5.2/arm-none-eabi/thumb/bits/gthr-single.h ****   /* exit (&__objc_thread_exit_status); */
 105:/opt/toolchains/arm-none-eabi/bin/../lib/gcc/arm-none-eabi/4.5.2/../../../../arm-none-eabi/include/c++/4.5.2/arm-none-eabi/thumb/bits/gthr-single.h ****   return -1;
 106:/opt/toolchains/arm-none-eabi/bin/../lib/gcc/arm-none-eabi/4.5.2/../../../../arm-none-eabi/include/c++/4.5.2/arm-none-eabi/thumb/bits/gthr-single.h **** }
 107:/opt/toolchains/arm-none-eabi/bin/../lib/gcc/arm-none-eabi/4.5.2/../../../../arm-none-eabi/include/c++/4.5.2/arm-none-eabi/thumb/bits/gthr-single.h **** 
 108:/opt/toolchains/arm-none-eabi/bin/../lib/gcc/arm-none-eabi/4.5.2/../../../../arm-none-eabi/include/c++/4.5.2/arm-none-eabi/thumb/bits/gthr-single.h **** /* Returns an integer value which uniquely describes a thread.  */
 109:/opt/toolchains/arm-none-eabi/bin/../lib/gcc/arm-none-eabi/4.5.2/../../../../arm-none-eabi/include/c++/4.5.2/arm-none-eabi/thumb/bits/gthr-single.h **** static inline objc_thread_t
 110:/opt/toolchains/arm-none-eabi/bin/../lib/gcc/arm-none-eabi/4.5.2/../../../../arm-none-eabi/include/c++/4.5.2/arm-none-eabi/thumb/bits/gthr-single.h **** __gthread_objc_thread_id (void)
 111:/opt/toolchains/arm-none-eabi/bin/../lib/gcc/arm-none-eabi/4.5.2/../../../../arm-none-eabi/include/c++/4.5.2/arm-none-eabi/thumb/bits/gthr-single.h **** {
 112:/opt/toolchains/arm-none-eabi/bin/../lib/gcc/arm-none-eabi/4.5.2/../../../../arm-none-eabi/include/c++/4.5.2/arm-none-eabi/thumb/bits/gthr-single.h ****   /* No thread support, use 1.  */
 113:/opt/toolchains/arm-none-eabi/bin/../lib/gcc/arm-none-eabi/4.5.2/../../../../arm-none-eabi/include/c++/4.5.2/arm-none-eabi/thumb/bits/gthr-single.h ****   return (objc_thread_t) 1;
 114:/opt/toolchains/arm-none-eabi/bin/../lib/gcc/arm-none-eabi/4.5.2/../../../../arm-none-eabi/include/c++/4.5.2/arm-none-eabi/thumb/bits/gthr-single.h **** }
 115:/opt/toolchains/arm-none-eabi/bin/../lib/gcc/arm-none-eabi/4.5.2/../../../../arm-none-eabi/include/c++/4.5.2/arm-none-eabi/thumb/bits/gthr-single.h **** 
 116:/opt/toolchains/arm-none-eabi/bin/../lib/gcc/arm-none-eabi/4.5.2/../../../../arm-none-eabi/include/c++/4.5.2/arm-none-eabi/thumb/bits/gthr-single.h **** /* Sets the thread's local storage pointer.  */
 117:/opt/toolchains/arm-none-eabi/bin/../lib/gcc/arm-none-eabi/4.5.2/../../../../arm-none-eabi/include/c++/4.5.2/arm-none-eabi/thumb/bits/gthr-single.h **** static inline int
 118:/opt/toolchains/arm-none-eabi/bin/../lib/gcc/arm-none-eabi/4.5.2/../../../../arm-none-eabi/include/c++/4.5.2/arm-none-eabi/thumb/bits/gthr-single.h **** __gthread_objc_thread_set_data (void *value)
 119:/opt/toolchains/arm-none-eabi/bin/../lib/gcc/arm-none-eabi/4.5.2/../../../../arm-none-eabi/include/c++/4.5.2/arm-none-eabi/thumb/bits/gthr-single.h **** {
 120:/opt/toolchains/arm-none-eabi/bin/../lib/gcc/arm-none-eabi/4.5.2/../../../../arm-none-eabi/include/c++/4.5.2/arm-none-eabi/thumb/bits/gthr-single.h ****   thread_local_storage = value;
 121:/opt/toolchains/arm-none-eabi/bin/../lib/gcc/arm-none-eabi/4.5.2/../../../../arm-none-eabi/include/c++/4.5.2/arm-none-eabi/thumb/bits/gthr-single.h ****   return 0;
 122:/opt/toolchains/arm-none-eabi/bin/../lib/gcc/arm-none-eabi/4.5.2/../../../../arm-none-eabi/include/c++/4.5.2/arm-none-eabi/thumb/bits/gthr-single.h **** }
 123:/opt/toolchains/arm-none-eabi/bin/../lib/gcc/arm-none-eabi/4.5.2/../../../../arm-none-eabi/include/c++/4.5.2/arm-none-eabi/thumb/bits/gthr-single.h **** 
 124:/opt/toolchains/arm-none-eabi/bin/../lib/gcc/arm-none-eabi/4.5.2/../../../../arm-none-eabi/include/c++/4.5.2/arm-none-eabi/thumb/bits/gthr-single.h **** /* Returns the thread's local storage pointer.  */
 125:/opt/toolchains/arm-none-eabi/bin/../lib/gcc/arm-none-eabi/4.5.2/../../../../arm-none-eabi/include/c++/4.5.2/arm-none-eabi/thumb/bits/gthr-single.h **** static inline void *
 126:/opt/toolchains/arm-none-eabi/bin/../lib/gcc/arm-none-eabi/4.5.2/../../../../arm-none-eabi/include/c++/4.5.2/arm-none-eabi/thumb/bits/gthr-single.h **** __gthread_objc_thread_get_data (void)
 127:/opt/toolchains/arm-none-eabi/bin/../lib/gcc/arm-none-eabi/4.5.2/../../../../arm-none-eabi/include/c++/4.5.2/arm-none-eabi/thumb/bits/gthr-single.h **** {
 128:/opt/toolchains/arm-none-eabi/bin/../lib/gcc/arm-none-eabi/4.5.2/../../../../arm-none-eabi/include/c++/4.5.2/arm-none-eabi/thumb/bits/gthr-single.h ****   return thread_local_storage;
 129:/opt/toolchains/arm-none-eabi/bin/../lib/gcc/arm-none-eabi/4.5.2/../../../../arm-none-eabi/include/c++/4.5.2/arm-none-eabi/thumb/bits/gthr-single.h **** }
 130:/opt/toolchains/arm-none-eabi/bin/../lib/gcc/arm-none-eabi/4.5.2/../../../../arm-none-eabi/include/c++/4.5.2/arm-none-eabi/thumb/bits/gthr-single.h **** 
 131:/opt/toolchains/arm-none-eabi/bin/../lib/gcc/arm-none-eabi/4.5.2/../../../../arm-none-eabi/include/c++/4.5.2/arm-none-eabi/thumb/bits/gthr-single.h **** /* Backend mutex functions */
 132:/opt/toolchains/arm-none-eabi/bin/../lib/gcc/arm-none-eabi/4.5.2/../../../../arm-none-eabi/include/c++/4.5.2/arm-none-eabi/thumb/bits/gthr-single.h **** 
 133:/opt/toolchains/arm-none-eabi/bin/../lib/gcc/arm-none-eabi/4.5.2/../../../../arm-none-eabi/include/c++/4.5.2/arm-none-eabi/thumb/bits/gthr-single.h **** /* Allocate a mutex.  */
 134:/opt/toolchains/arm-none-eabi/bin/../lib/gcc/arm-none-eabi/4.5.2/../../../../arm-none-eabi/include/c++/4.5.2/arm-none-eabi/thumb/bits/gthr-single.h **** static inline int
 135:/opt/toolchains/arm-none-eabi/bin/../lib/gcc/arm-none-eabi/4.5.2/../../../../arm-none-eabi/include/c++/4.5.2/arm-none-eabi/thumb/bits/gthr-single.h **** __gthread_objc_mutex_allocate (objc_mutex_t mutex _GLIBCXX_UNUSED)
 136:/opt/toolchains/arm-none-eabi/bin/../lib/gcc/arm-none-eabi/4.5.2/../../../../arm-none-eabi/include/c++/4.5.2/arm-none-eabi/thumb/bits/gthr-single.h **** {
 137:/opt/toolchains/arm-none-eabi/bin/../lib/gcc/arm-none-eabi/4.5.2/../../../../arm-none-eabi/include/c++/4.5.2/arm-none-eabi/thumb/bits/gthr-single.h ****   return 0;
 138:/opt/toolchains/arm-none-eabi/bin/../lib/gcc/arm-none-eabi/4.5.2/../../../../arm-none-eabi/include/c++/4.5.2/arm-none-eabi/thumb/bits/gthr-single.h **** }
 139:/opt/toolchains/arm-none-eabi/bin/../lib/gcc/arm-none-eabi/4.5.2/../../../../arm-none-eabi/include/c++/4.5.2/arm-none-eabi/thumb/bits/gthr-single.h **** 
 140:/opt/toolchains/arm-none-eabi/bin/../lib/gcc/arm-none-eabi/4.5.2/../../../../arm-none-eabi/include/c++/4.5.2/arm-none-eabi/thumb/bits/gthr-single.h **** /* Deallocate a mutex.  */
 141:/opt/toolchains/arm-none-eabi/bin/../lib/gcc/arm-none-eabi/4.5.2/../../../../arm-none-eabi/include/c++/4.5.2/arm-none-eabi/thumb/bits/gthr-single.h **** static inline int
 142:/opt/toolchains/arm-none-eabi/bin/../lib/gcc/arm-none-eabi/4.5.2/../../../../arm-none-eabi/include/c++/4.5.2/arm-none-eabi/thumb/bits/gthr-single.h **** __gthread_objc_mutex_deallocate (objc_mutex_t mutex _GLIBCXX_UNUSED)
 143:/opt/toolchains/arm-none-eabi/bin/../lib/gcc/arm-none-eabi/4.5.2/../../../../arm-none-eabi/include/c++/4.5.2/arm-none-eabi/thumb/bits/gthr-single.h **** {
 144:/opt/toolchains/arm-none-eabi/bin/../lib/gcc/arm-none-eabi/4.5.2/../../../../arm-none-eabi/include/c++/4.5.2/arm-none-eabi/thumb/bits/gthr-single.h ****   return 0;
 145:/opt/toolchains/arm-none-eabi/bin/../lib/gcc/arm-none-eabi/4.5.2/../../../../arm-none-eabi/include/c++/4.5.2/arm-none-eabi/thumb/bits/gthr-single.h **** }
 146:/opt/toolchains/arm-none-eabi/bin/../lib/gcc/arm-none-eabi/4.5.2/../../../../arm-none-eabi/include/c++/4.5.2/arm-none-eabi/thumb/bits/gthr-single.h **** 
 147:/opt/toolchains/arm-none-eabi/bin/../lib/gcc/arm-none-eabi/4.5.2/../../../../arm-none-eabi/include/c++/4.5.2/arm-none-eabi/thumb/bits/gthr-single.h **** /* Grab a lock on a mutex.  */
 148:/opt/toolchains/arm-none-eabi/bin/../lib/gcc/arm-none-eabi/4.5.2/../../../../arm-none-eabi/include/c++/4.5.2/arm-none-eabi/thumb/bits/gthr-single.h **** static inline int
 149:/opt/toolchains/arm-none-eabi/bin/../lib/gcc/arm-none-eabi/4.5.2/../../../../arm-none-eabi/include/c++/4.5.2/arm-none-eabi/thumb/bits/gthr-single.h **** __gthread_objc_mutex_lock (objc_mutex_t mutex _GLIBCXX_UNUSED)
 150:/opt/toolchains/arm-none-eabi/bin/../lib/gcc/arm-none-eabi/4.5.2/../../../../arm-none-eabi/include/c++/4.5.2/arm-none-eabi/thumb/bits/gthr-single.h **** {
 151:/opt/toolchains/arm-none-eabi/bin/../lib/gcc/arm-none-eabi/4.5.2/../../../../arm-none-eabi/include/c++/4.5.2/arm-none-eabi/thumb/bits/gthr-single.h ****   /* There can only be one thread, so we always get the lock */
 152:/opt/toolchains/arm-none-eabi/bin/../lib/gcc/arm-none-eabi/4.5.2/../../../../arm-none-eabi/include/c++/4.5.2/arm-none-eabi/thumb/bits/gthr-single.h ****   return 0;
 153:/opt/toolchains/arm-none-eabi/bin/../lib/gcc/arm-none-eabi/4.5.2/../../../../arm-none-eabi/include/c++/4.5.2/arm-none-eabi/thumb/bits/gthr-single.h **** }
 154:/opt/toolchains/arm-none-eabi/bin/../lib/gcc/arm-none-eabi/4.5.2/../../../../arm-none-eabi/include/c++/4.5.2/arm-none-eabi/thumb/bits/gthr-single.h **** 
 155:/opt/toolchains/arm-none-eabi/bin/../lib/gcc/arm-none-eabi/4.5.2/../../../../arm-none-eabi/include/c++/4.5.2/arm-none-eabi/thumb/bits/gthr-single.h **** /* Try to grab a lock on a mutex.  */
 156:/opt/toolchains/arm-none-eabi/bin/../lib/gcc/arm-none-eabi/4.5.2/../../../../arm-none-eabi/include/c++/4.5.2/arm-none-eabi/thumb/bits/gthr-single.h **** static inline int
 157:/opt/toolchains/arm-none-eabi/bin/../lib/gcc/arm-none-eabi/4.5.2/../../../../arm-none-eabi/include/c++/4.5.2/arm-none-eabi/thumb/bits/gthr-single.h **** __gthread_objc_mutex_trylock (objc_mutex_t mutex _GLIBCXX_UNUSED)
 158:/opt/toolchains/arm-none-eabi/bin/../lib/gcc/arm-none-eabi/4.5.2/../../../../arm-none-eabi/include/c++/4.5.2/arm-none-eabi/thumb/bits/gthr-single.h **** {
 159:/opt/toolchains/arm-none-eabi/bin/../lib/gcc/arm-none-eabi/4.5.2/../../../../arm-none-eabi/include/c++/4.5.2/arm-none-eabi/thumb/bits/gthr-single.h ****   /* There can only be one thread, so we always get the lock */
 160:/opt/toolchains/arm-none-eabi/bin/../lib/gcc/arm-none-eabi/4.5.2/../../../../arm-none-eabi/include/c++/4.5.2/arm-none-eabi/thumb/bits/gthr-single.h ****   return 0;
 161:/opt/toolchains/arm-none-eabi/bin/../lib/gcc/arm-none-eabi/4.5.2/../../../../arm-none-eabi/include/c++/4.5.2/arm-none-eabi/thumb/bits/gthr-single.h **** }
 162:/opt/toolchains/arm-none-eabi/bin/../lib/gcc/arm-none-eabi/4.5.2/../../../../arm-none-eabi/include/c++/4.5.2/arm-none-eabi/thumb/bits/gthr-single.h **** 
 163:/opt/toolchains/arm-none-eabi/bin/../lib/gcc/arm-none-eabi/4.5.2/../../../../arm-none-eabi/include/c++/4.5.2/arm-none-eabi/thumb/bits/gthr-single.h **** /* Unlock the mutex */
 164:/opt/toolchains/arm-none-eabi/bin/../lib/gcc/arm-none-eabi/4.5.2/../../../../arm-none-eabi/include/c++/4.5.2/arm-none-eabi/thumb/bits/gthr-single.h **** static inline int
 165:/opt/toolchains/arm-none-eabi/bin/../lib/gcc/arm-none-eabi/4.5.2/../../../../arm-none-eabi/include/c++/4.5.2/arm-none-eabi/thumb/bits/gthr-single.h **** __gthread_objc_mutex_unlock (objc_mutex_t mutex _GLIBCXX_UNUSED)
 166:/opt/toolchains/arm-none-eabi/bin/../lib/gcc/arm-none-eabi/4.5.2/../../../../arm-none-eabi/include/c++/4.5.2/arm-none-eabi/thumb/bits/gthr-single.h **** {
 167:/opt/toolchains/arm-none-eabi/bin/../lib/gcc/arm-none-eabi/4.5.2/../../../../arm-none-eabi/include/c++/4.5.2/arm-none-eabi/thumb/bits/gthr-single.h ****   return 0;
 168:/opt/toolchains/arm-none-eabi/bin/../lib/gcc/arm-none-eabi/4.5.2/../../../../arm-none-eabi/include/c++/4.5.2/arm-none-eabi/thumb/bits/gthr-single.h **** }
 169:/opt/toolchains/arm-none-eabi/bin/../lib/gcc/arm-none-eabi/4.5.2/../../../../arm-none-eabi/include/c++/4.5.2/arm-none-eabi/thumb/bits/gthr-single.h **** 
 170:/opt/toolchains/arm-none-eabi/bin/../lib/gcc/arm-none-eabi/4.5.2/../../../../arm-none-eabi/include/c++/4.5.2/arm-none-eabi/thumb/bits/gthr-single.h **** /* Backend condition mutex functions */
 171:/opt/toolchains/arm-none-eabi/bin/../lib/gcc/arm-none-eabi/4.5.2/../../../../arm-none-eabi/include/c++/4.5.2/arm-none-eabi/thumb/bits/gthr-single.h **** 
 172:/opt/toolchains/arm-none-eabi/bin/../lib/gcc/arm-none-eabi/4.5.2/../../../../arm-none-eabi/include/c++/4.5.2/arm-none-eabi/thumb/bits/gthr-single.h **** /* Allocate a condition.  */
 173:/opt/toolchains/arm-none-eabi/bin/../lib/gcc/arm-none-eabi/4.5.2/../../../../arm-none-eabi/include/c++/4.5.2/arm-none-eabi/thumb/bits/gthr-single.h **** static inline int
 174:/opt/toolchains/arm-none-eabi/bin/../lib/gcc/arm-none-eabi/4.5.2/../../../../arm-none-eabi/include/c++/4.5.2/arm-none-eabi/thumb/bits/gthr-single.h **** __gthread_objc_condition_allocate (objc_condition_t condition _GLIBCXX_UNUSED)
 175:/opt/toolchains/arm-none-eabi/bin/../lib/gcc/arm-none-eabi/4.5.2/../../../../arm-none-eabi/include/c++/4.5.2/arm-none-eabi/thumb/bits/gthr-single.h **** {
 176:/opt/toolchains/arm-none-eabi/bin/../lib/gcc/arm-none-eabi/4.5.2/../../../../arm-none-eabi/include/c++/4.5.2/arm-none-eabi/thumb/bits/gthr-single.h ****   return 0;
 177:/opt/toolchains/arm-none-eabi/bin/../lib/gcc/arm-none-eabi/4.5.2/../../../../arm-none-eabi/include/c++/4.5.2/arm-none-eabi/thumb/bits/gthr-single.h **** }
 178:/opt/toolchains/arm-none-eabi/bin/../lib/gcc/arm-none-eabi/4.5.2/../../../../arm-none-eabi/include/c++/4.5.2/arm-none-eabi/thumb/bits/gthr-single.h **** 
 179:/opt/toolchains/arm-none-eabi/bin/../lib/gcc/arm-none-eabi/4.5.2/../../../../arm-none-eabi/include/c++/4.5.2/arm-none-eabi/thumb/bits/gthr-single.h **** /* Deallocate a condition.  */
 180:/opt/toolchains/arm-none-eabi/bin/../lib/gcc/arm-none-eabi/4.5.2/../../../../arm-none-eabi/include/c++/4.5.2/arm-none-eabi/thumb/bits/gthr-single.h **** static inline int
 181:/opt/toolchains/arm-none-eabi/bin/../lib/gcc/arm-none-eabi/4.5.2/../../../../arm-none-eabi/include/c++/4.5.2/arm-none-eabi/thumb/bits/gthr-single.h **** __gthread_objc_condition_deallocate (objc_condition_t condition _GLIBCXX_UNUSED)
 182:/opt/toolchains/arm-none-eabi/bin/../lib/gcc/arm-none-eabi/4.5.2/../../../../arm-none-eabi/include/c++/4.5.2/arm-none-eabi/thumb/bits/gthr-single.h **** {
 183:/opt/toolchains/arm-none-eabi/bin/../lib/gcc/arm-none-eabi/4.5.2/../../../../arm-none-eabi/include/c++/4.5.2/arm-none-eabi/thumb/bits/gthr-single.h ****   return 0;
 184:/opt/toolchains/arm-none-eabi/bin/../lib/gcc/arm-none-eabi/4.5.2/../../../../arm-none-eabi/include/c++/4.5.2/arm-none-eabi/thumb/bits/gthr-single.h **** }
 185:/opt/toolchains/arm-none-eabi/bin/../lib/gcc/arm-none-eabi/4.5.2/../../../../arm-none-eabi/include/c++/4.5.2/arm-none-eabi/thumb/bits/gthr-single.h **** 
 186:/opt/toolchains/arm-none-eabi/bin/../lib/gcc/arm-none-eabi/4.5.2/../../../../arm-none-eabi/include/c++/4.5.2/arm-none-eabi/thumb/bits/gthr-single.h **** /* Wait on the condition */
 187:/opt/toolchains/arm-none-eabi/bin/../lib/gcc/arm-none-eabi/4.5.2/../../../../arm-none-eabi/include/c++/4.5.2/arm-none-eabi/thumb/bits/gthr-single.h **** static inline int
 188:/opt/toolchains/arm-none-eabi/bin/../lib/gcc/arm-none-eabi/4.5.2/../../../../arm-none-eabi/include/c++/4.5.2/arm-none-eabi/thumb/bits/gthr-single.h **** __gthread_objc_condition_wait (objc_condition_t condition _GLIBCXX_UNUSED,
 189:/opt/toolchains/arm-none-eabi/bin/../lib/gcc/arm-none-eabi/4.5.2/../../../../arm-none-eabi/include/c++/4.5.2/arm-none-eabi/thumb/bits/gthr-single.h **** 			       objc_mutex_t mutex _GLIBCXX_UNUSED)
 190:/opt/toolchains/arm-none-eabi/bin/../lib/gcc/arm-none-eabi/4.5.2/../../../../arm-none-eabi/include/c++/4.5.2/arm-none-eabi/thumb/bits/gthr-single.h **** {
 191:/opt/toolchains/arm-none-eabi/bin/../lib/gcc/arm-none-eabi/4.5.2/../../../../arm-none-eabi/include/c++/4.5.2/arm-none-eabi/thumb/bits/gthr-single.h ****   return 0;
 192:/opt/toolchains/arm-none-eabi/bin/../lib/gcc/arm-none-eabi/4.5.2/../../../../arm-none-eabi/include/c++/4.5.2/arm-none-eabi/thumb/bits/gthr-single.h **** }
 193:/opt/toolchains/arm-none-eabi/bin/../lib/gcc/arm-none-eabi/4.5.2/../../../../arm-none-eabi/include/c++/4.5.2/arm-none-eabi/thumb/bits/gthr-single.h **** 
 194:/opt/toolchains/arm-none-eabi/bin/../lib/gcc/arm-none-eabi/4.5.2/../../../../arm-none-eabi/include/c++/4.5.2/arm-none-eabi/thumb/bits/gthr-single.h **** /* Wake up all threads waiting on this condition.  */
 195:/opt/toolchains/arm-none-eabi/bin/../lib/gcc/arm-none-eabi/4.5.2/../../../../arm-none-eabi/include/c++/4.5.2/arm-none-eabi/thumb/bits/gthr-single.h **** static inline int
 196:/opt/toolchains/arm-none-eabi/bin/../lib/gcc/arm-none-eabi/4.5.2/../../../../arm-none-eabi/include/c++/4.5.2/arm-none-eabi/thumb/bits/gthr-single.h **** __gthread_objc_condition_broadcast (objc_condition_t condition _GLIBCXX_UNUSED)
 197:/opt/toolchains/arm-none-eabi/bin/../lib/gcc/arm-none-eabi/4.5.2/../../../../arm-none-eabi/include/c++/4.5.2/arm-none-eabi/thumb/bits/gthr-single.h **** {
 198:/opt/toolchains/arm-none-eabi/bin/../lib/gcc/arm-none-eabi/4.5.2/../../../../arm-none-eabi/include/c++/4.5.2/arm-none-eabi/thumb/bits/gthr-single.h ****   return 0;
 199:/opt/toolchains/arm-none-eabi/bin/../lib/gcc/arm-none-eabi/4.5.2/../../../../arm-none-eabi/include/c++/4.5.2/arm-none-eabi/thumb/bits/gthr-single.h **** }
 200:/opt/toolchains/arm-none-eabi/bin/../lib/gcc/arm-none-eabi/4.5.2/../../../../arm-none-eabi/include/c++/4.5.2/arm-none-eabi/thumb/bits/gthr-single.h **** 
 201:/opt/toolchains/arm-none-eabi/bin/../lib/gcc/arm-none-eabi/4.5.2/../../../../arm-none-eabi/include/c++/4.5.2/arm-none-eabi/thumb/bits/gthr-single.h **** /* Wake up one thread waiting on this condition.  */
 202:/opt/toolchains/arm-none-eabi/bin/../lib/gcc/arm-none-eabi/4.5.2/../../../../arm-none-eabi/include/c++/4.5.2/arm-none-eabi/thumb/bits/gthr-single.h **** static inline int
 203:/opt/toolchains/arm-none-eabi/bin/../lib/gcc/arm-none-eabi/4.5.2/../../../../arm-none-eabi/include/c++/4.5.2/arm-none-eabi/thumb/bits/gthr-single.h **** __gthread_objc_condition_signal (objc_condition_t condition _GLIBCXX_UNUSED)
 204:/opt/toolchains/arm-none-eabi/bin/../lib/gcc/arm-none-eabi/4.5.2/../../../../arm-none-eabi/include/c++/4.5.2/arm-none-eabi/thumb/bits/gthr-single.h **** {
 205:/opt/toolchains/arm-none-eabi/bin/../lib/gcc/arm-none-eabi/4.5.2/../../../../arm-none-eabi/include/c++/4.5.2/arm-none-eabi/thumb/bits/gthr-single.h ****   return 0;
 206:/opt/toolchains/arm-none-eabi/bin/../lib/gcc/arm-none-eabi/4.5.2/../../../../arm-none-eabi/include/c++/4.5.2/arm-none-eabi/thumb/bits/gthr-single.h **** }
 207:/opt/toolchains/arm-none-eabi/bin/../lib/gcc/arm-none-eabi/4.5.2/../../../../arm-none-eabi/include/c++/4.5.2/arm-none-eabi/thumb/bits/gthr-single.h **** 
 208:/opt/toolchains/arm-none-eabi/bin/../lib/gcc/arm-none-eabi/4.5.2/../../../../arm-none-eabi/include/c++/4.5.2/arm-none-eabi/thumb/bits/gthr-single.h **** #else /* _LIBOBJC */
 209:/opt/toolchains/arm-none-eabi/bin/../lib/gcc/arm-none-eabi/4.5.2/../../../../arm-none-eabi/include/c++/4.5.2/arm-none-eabi/thumb/bits/gthr-single.h **** 
 210:/opt/toolchains/arm-none-eabi/bin/../lib/gcc/arm-none-eabi/4.5.2/../../../../arm-none-eabi/include/c++/4.5.2/arm-none-eabi/thumb/bits/gthr-single.h **** static inline int
 211:/opt/toolchains/arm-none-eabi/bin/../lib/gcc/arm-none-eabi/4.5.2/../../../../arm-none-eabi/include/c++/4.5.2/arm-none-eabi/thumb/bits/gthr-single.h **** __gthread_active_p (void)
 212:/opt/toolchains/arm-none-eabi/bin/../lib/gcc/arm-none-eabi/4.5.2/../../../../arm-none-eabi/include/c++/4.5.2/arm-none-eabi/thumb/bits/gthr-single.h **** {
 213:/opt/toolchains/arm-none-eabi/bin/../lib/gcc/arm-none-eabi/4.5.2/../../../../arm-none-eabi/include/c++/4.5.2/arm-none-eabi/thumb/bits/gthr-single.h ****   return 0;
 214:/opt/toolchains/arm-none-eabi/bin/../lib/gcc/arm-none-eabi/4.5.2/../../../../arm-none-eabi/include/c++/4.5.2/arm-none-eabi/thumb/bits/gthr-single.h **** }
 215:/opt/toolchains/arm-none-eabi/bin/../lib/gcc/arm-none-eabi/4.5.2/../../../../arm-none-eabi/include/c++/4.5.2/arm-none-eabi/thumb/bits/gthr-single.h **** 
 216:/opt/toolchains/arm-none-eabi/bin/../lib/gcc/arm-none-eabi/4.5.2/../../../../arm-none-eabi/include/c++/4.5.2/arm-none-eabi/thumb/bits/gthr-single.h **** static inline int
 217:/opt/toolchains/arm-none-eabi/bin/../lib/gcc/arm-none-eabi/4.5.2/../../../../arm-none-eabi/include/c++/4.5.2/arm-none-eabi/thumb/bits/gthr-single.h **** __gthread_once (__gthread_once_t *__once _GLIBCXX_UNUSED, void (*__func) (void) _GLIBCXX_UNUSED)
 218:/opt/toolchains/arm-none-eabi/bin/../lib/gcc/arm-none-eabi/4.5.2/../../../../arm-none-eabi/include/c++/4.5.2/arm-none-eabi/thumb/bits/gthr-single.h **** {
 219:/opt/toolchains/arm-none-eabi/bin/../lib/gcc/arm-none-eabi/4.5.2/../../../../arm-none-eabi/include/c++/4.5.2/arm-none-eabi/thumb/bits/gthr-single.h ****   return 0;
 220:/opt/toolchains/arm-none-eabi/bin/../lib/gcc/arm-none-eabi/4.5.2/../../../../arm-none-eabi/include/c++/4.5.2/arm-none-eabi/thumb/bits/gthr-single.h **** }
 221:/opt/toolchains/arm-none-eabi/bin/../lib/gcc/arm-none-eabi/4.5.2/../../../../arm-none-eabi/include/c++/4.5.2/arm-none-eabi/thumb/bits/gthr-single.h **** 
 222:/opt/toolchains/arm-none-eabi/bin/../lib/gcc/arm-none-eabi/4.5.2/../../../../arm-none-eabi/include/c++/4.5.2/arm-none-eabi/thumb/bits/gthr-single.h **** static inline int _GLIBCXX_UNUSED
 223:/opt/toolchains/arm-none-eabi/bin/../lib/gcc/arm-none-eabi/4.5.2/../../../../arm-none-eabi/include/c++/4.5.2/arm-none-eabi/thumb/bits/gthr-single.h **** __gthread_key_create (__gthread_key_t *__key _GLIBCXX_UNUSED, void (*__func) (void *) _GLIBCXX_UNUS
 224:/opt/toolchains/arm-none-eabi/bin/../lib/gcc/arm-none-eabi/4.5.2/../../../../arm-none-eabi/include/c++/4.5.2/arm-none-eabi/thumb/bits/gthr-single.h **** {
 225:/opt/toolchains/arm-none-eabi/bin/../lib/gcc/arm-none-eabi/4.5.2/../../../../arm-none-eabi/include/c++/4.5.2/arm-none-eabi/thumb/bits/gthr-single.h ****   return 0;
 226:/opt/toolchains/arm-none-eabi/bin/../lib/gcc/arm-none-eabi/4.5.2/../../../../arm-none-eabi/include/c++/4.5.2/arm-none-eabi/thumb/bits/gthr-single.h **** }
 227:/opt/toolchains/arm-none-eabi/bin/../lib/gcc/arm-none-eabi/4.5.2/../../../../arm-none-eabi/include/c++/4.5.2/arm-none-eabi/thumb/bits/gthr-single.h **** 
 228:/opt/toolchains/arm-none-eabi/bin/../lib/gcc/arm-none-eabi/4.5.2/../../../../arm-none-eabi/include/c++/4.5.2/arm-none-eabi/thumb/bits/gthr-single.h **** static int _GLIBCXX_UNUSED
 229:/opt/toolchains/arm-none-eabi/bin/../lib/gcc/arm-none-eabi/4.5.2/../../../../arm-none-eabi/include/c++/4.5.2/arm-none-eabi/thumb/bits/gthr-single.h **** __gthread_key_delete (__gthread_key_t __key _GLIBCXX_UNUSED)
 230:/opt/toolchains/arm-none-eabi/bin/../lib/gcc/arm-none-eabi/4.5.2/../../../../arm-none-eabi/include/c++/4.5.2/arm-none-eabi/thumb/bits/gthr-single.h **** {
 4062              		.loc 78 230 0
 4063              		.cfi_startproc
 4064              		@ args = 0, pretend = 0, frame = 8
 4065              		@ frame_needed = 1, uses_anonymous_args = 0
 4066              		@ link register save eliminated.
 4067 0000 80B4     		push	{r7}
 4068              	.LCFI3:
 4069              		.cfi_def_cfa_offset 4
 4070 0002 83B0     		sub	sp, sp, #12
 4071              	.LCFI4:
 4072              		.cfi_def_cfa_offset 16
 4073 0004 00AF     		add	r7, sp, #0
 4074              		.cfi_offset 7, -4
 4075              	.LCFI5:
 4076              		.cfi_def_cfa_register 7
 4077 0006 7860     		str	r0, [r7, #4]
 231:/opt/toolchains/arm-none-eabi/bin/../lib/gcc/arm-none-eabi/4.5.2/../../../../arm-none-eabi/include/c++/4.5.2/arm-none-eabi/thumb/bits/gthr-single.h ****   return 0;
 4078              		.loc 78 231 0
 4079 0008 4FF00003 		mov	r3, #0
 232:/opt/toolchains/arm-none-eabi/bin/../lib/gcc/arm-none-eabi/4.5.2/../../../../arm-none-eabi/include/c++/4.5.2/arm-none-eabi/thumb/bits/gthr-single.h **** }
 4080              		.loc 78 232 0
 4081 000c 1846     		mov	r0, r3
 4082 000e 07F10C07 		add	r7, r7, #12
 4083 0012 BD46     		mov	sp, r7
 4084 0014 80BC     		pop	{r7}
 4085 0016 7047     		bx	lr
 4086              		.cfi_endproc
 4087              	.LFE607:
 4089              		.section	.text._ZN5Air3T8MenuView4menuEv,"axG",%progbits,_ZN5Air3T8MenuView4menuEv,comdat
 4090              		.align	2
 4091              		.weak	_ZN5Air3T8MenuView4menuEv
 4092              		.thumb
 4093              		.thumb_func
 4095              	_ZN5Air3T8MenuView4menuEv:
 4096              	.LFB810:
   1:../air3t/ui/menuview.h **** #pragma once
   2:../air3t/ui/menuview.h **** #include "View"
   3:../air3t/ui/menuview.h **** class MonochromeDisplayPainter;
   4:../air3t/ui/menuview.h **** #include <vector>
   5:../air3t/ui/menuview.h **** #include <string>
   6:../air3t/ui/menuview.h **** 
   7:../air3t/ui/menuview.h **** namespace Air3T
   8:../air3t/ui/menuview.h **** {
   9:../air3t/ui/menuview.h **** 	/**
  10:../air3t/ui/menuview.h **** 	 * @ingroup ui
  11:../air3t/ui/menuview.h **** 	 * @brief Base class for all menu based views.
  12:../air3t/ui/menuview.h **** 	 *
  13:../air3t/ui/menuview.h **** 	 * The view already implements the whole scrolling and selection tasks and the menu can be customi
  14:../air3t/ui/menuview.h **** 	 */
  15:../air3t/ui/menuview.h **** 	class MenuView : public View
  16:../air3t/ui/menuview.h **** 	{
  17:../air3t/ui/menuview.h **** 	public:
  18:../air3t/ui/menuview.h **** 		/**
  19:../air3t/ui/menuview.h **** 		 * @brief Creates a new menu view with the given title that uses the given painter to render hims
  20:../air3t/ui/menuview.h **** 		 *
  21:../air3t/ui/menuview.h **** 		 * @param painter The painter to use for view rendering.
  22:../air3t/ui/menuview.h **** 		 * @param title The title of the view.
  23:../air3t/ui/menuview.h **** 		 */
  24:../air3t/ui/menuview.h **** 		explicit MenuView( MonochromeDisplayPainter & painter , const std::string & title );
  25:../air3t/ui/menuview.h **** 
  26:../air3t/ui/menuview.h **** 		/**
  27:../air3t/ui/menuview.h **** 		 * @brief Destructor, does nothing.
  28:../air3t/ui/menuview.h **** 		 */
  29:../air3t/ui/menuview.h **** 		virtual ~MenuView();
  30:../air3t/ui/menuview.h **** 
  31:../air3t/ui/menuview.h **** 		/**
  32:../air3t/ui/menuview.h **** 		 * @brief Triggers a repaint of the view.
  33:../air3t/ui/menuview.h **** 		 */
  34:../air3t/ui/menuview.h **** 		void repaint();
  35:../air3t/ui/menuview.h **** 
  36:../air3t/ui/menuview.h **** 		/**
  37:../air3t/ui/menuview.h **** 		 * @name IJoystickObserver interface implementation.
  38:../air3t/ui/menuview.h **** 		 * @{
  39:../air3t/ui/menuview.h **** 		 */
  40:../air3t/ui/menuview.h **** 
  41:../air3t/ui/menuview.h **** 		/**
  42:../air3t/ui/menuview.h **** 		 * @brief Called by the IJoystick implementation upon the actual joystick position has been chang
  43:../air3t/ui/menuview.h **** 		 *
  44:../air3t/ui/menuview.h **** 		 * @param position	The actual joystick position.
  45:../air3t/ui/menuview.h **** 		 */
  46:../air3t/ui/menuview.h **** 		void onPositionChange( IJoystick::Position position );
  47:../air3t/ui/menuview.h **** 
  48:../air3t/ui/menuview.h **** 		//@}
  49:../air3t/ui/menuview.h **** 
  50:../air3t/ui/menuview.h **** 	protected:
  51:../air3t/ui/menuview.h **** 		/**
  52:../air3t/ui/menuview.h **** 		 * @brief Direct access to the menu for derived classes using a reference to the menu vector.
  53:../air3t/ui/menuview.h **** 		 *
  54:../air3t/ui/menuview.h **** 		 * @return The reference to the menu that should be displayed.
  55:../air3t/ui/menuview.h **** 		 */
  56:../air3t/ui/menuview.h **** 		inline std::vector<std::string> & menu() { return _menu; }
 4097              		.loc 5 56 0
 4098              		.cfi_startproc
 4099              		@ args = 0, pretend = 0, frame = 8
 4100              		@ frame_needed = 1, uses_anonymous_args = 0
 4101              		@ link register save eliminated.
 4102 0000 80B4     		push	{r7}
 4103              	.LCFI6:
 4104              		.cfi_def_cfa_offset 4
 4105 0002 83B0     		sub	sp, sp, #12
 4106              	.LCFI7:
 4107              		.cfi_def_cfa_offset 16
 4108 0004 00AF     		add	r7, sp, #0
 4109              		.cfi_offset 7, -4
 4110              	.LCFI8:
 4111              		.cfi_def_cfa_register 7
 4112 0006 7860     		str	r0, [r7, #4]
 4113              		.loc 5 56 0
 4114 0008 7B68     		ldr	r3, [r7, #4]
 4115 000a 03F11003 		add	r3, r3, #16
 4116 000e 1846     		mov	r0, r3
 4117 0010 07F10C07 		add	r7, r7, #12
 4118 0014 BD46     		mov	sp, r7
 4119 0016 80BC     		pop	{r7}
 4120 0018 7047     		bx	lr
 4121              		.cfi_endproc
 4122              	.LFE810:
 4124 001a 00BF     		.section	.rodata
 4125              		.align	2
 4126              	.LC0:
 4127 0000 4F70706F 		.ascii	"Opponent...\000"
 4127      6E656E74 
 4127      2E2E2E00 
 4128              		.section	.text._ZN5Air3T10PlayerViewC2ER24MonochromeDisplayPainterRKNS_5ModelE,"ax",%progbits
 4129              		.align	2
 4130              		.global	_ZN5Air3T10PlayerViewC2ER24MonochromeDisplayPainterRKNS_5ModelE
 4131              		.thumb
 4132              		.thumb_func
 4134              	_ZN5Air3T10PlayerViewC2ER24MonochromeDisplayPainterRKNS_5ModelE:
 4135              	.LFB1110:
   1:../air3t/ui/playerview.cpp **** #include "PlayerView"
   2:../air3t/ui/playerview.cpp **** #include <air3t/data/Model>
   3:../air3t/ui/playerview.cpp **** 
   4:../air3t/ui/playerview.cpp **** namespace Air3T
   5:../air3t/ui/playerview.cpp **** {
   6:../air3t/ui/playerview.cpp **** 	PlayerView::PlayerView( MonochromeDisplayPainter & painter , const Model & model )
 4136              		.loc 1 6 0
 4137              		.cfi_startproc
 4138              		@ args = 0, pretend = 0, frame = 24
 4139              		@ frame_needed = 1, uses_anonymous_args = 0
 4140 0000 90B5     		push	{r4, r7, lr}
 4141              	.LCFI9:
 4142              		.cfi_def_cfa_offset 12
 4143 0002 87B0     		sub	sp, sp, #28
 4144              	.LCFI10:
 4145              		.cfi_def_cfa_offset 40
 4146 0004 00AF     		add	r7, sp, #0
 4147              		.cfi_offset 14, -4
 4148              		.cfi_offset 7, -8
 4149              		.cfi_offset 4, -12
 4150              	.LCFI11:
 4151              		.cfi_def_cfa_register 7
 4152 0006 F860     		str	r0, [r7, #12]
 4153 0008 B960     		str	r1, [r7, #8]
 4154 000a 7A60     		str	r2, [r7, #4]
 4155              	.LBB2:
   7:../air3t/ui/playerview.cpp **** 		: MenuView( painter , "Opponent..." ) , _model( model )
 4156              		.loc 1 7 0
 4157 000c FC68     		ldr	r4, [r7, #12]
 4158 000e 07F11403 		add	r3, r7, #20
 4159 0012 1846     		mov	r0, r3
 4160 0014 FFF7FEFF 		bl	_ZNSaIcEC1Ev
 4161 0018 07F11002 		add	r2, r7, #16
 4162 001c 07F11403 		add	r3, r7, #20
 4163 0020 1046     		mov	r0, r2
 4164 0022 40F20001 		movw	r1, #:lower16:.LC0
 4165 0026 C0F20001 		movt	r1, #:upper16:.LC0
 4166 002a 1A46     		mov	r2, r3
 4167 002c FFF7FEFF 		bl	_ZNSsC1EPKcRKSaIcE
 4168 0030 07F11003 		add	r3, r7, #16
 4169 0034 2046     		mov	r0, r4
 4170 0036 B968     		ldr	r1, [r7, #8]
 4171 0038 1A46     		mov	r2, r3
 4172 003a FFF7FEFF 		bl	_ZN5Air3T8MenuViewC2ER24MonochromeDisplayPainterRKSs
 4173 003e 07F11003 		add	r3, r7, #16
 4174 0042 1846     		mov	r0, r3
 4175 0044 FFF7FEFF 		bl	_ZNSsD1Ev
 4176 0048 07F11403 		add	r3, r7, #20
 4177 004c 1846     		mov	r0, r3
 4178 004e FFF7FEFF 		bl	_ZNSaIcED1Ev
 4179 0052 FB68     		ldr	r3, [r7, #12]
 4180 0054 054A     		ldr	r2, .L6
 4181 0056 1A60     		str	r2, [r3, #0]
 4182 0058 FB68     		ldr	r3, [r7, #12]
 4183 005a 7A68     		ldr	r2, [r7, #4]
 4184 005c 5A62     		str	r2, [r3, #36]
 4185              	.LBE2:
   8:../air3t/ui/playerview.cpp **** 	{}
 4186              		.loc 1 8 0
 4187 005e FB68     		ldr	r3, [r7, #12]
 4188 0060 1846     		mov	r0, r3
 4189 0062 07F11C07 		add	r7, r7, #28
 4190 0066 BD46     		mov	sp, r7
 4191 0068 90BD     		pop	{r4, r7, pc}
 4192              	.L7:
 4193 006a 00BF     		.align	2
 4194              	.L6:
 4195 006c 08000000 		.word	_ZTVN5Air3T10PlayerViewE+8
 4196              		.cfi_endproc
 4197              	.LFE1110:
 4199              		.global	_ZN5Air3T10PlayerViewC1ER24MonochromeDisplayPainterRKNS_5ModelE
 4200              		.thumb_set _ZN5Air3T10PlayerViewC1ER24MonochromeDisplayPainterRKNS_5ModelE,_ZN5Air3T10PlayerViewC2
 4201              		.section	.text._ZN5Air3T10PlayerViewD2Ev,"ax",%progbits
 4202              		.align	2
 4203              		.global	_ZN5Air3T10PlayerViewD2Ev
 4204              		.thumb
 4205              		.thumb_func
 4207              	_ZN5Air3T10PlayerViewD2Ev:
 4208              	.LFB1113:
   9:../air3t/ui/playerview.cpp **** 
  10:../air3t/ui/playerview.cpp **** 	PlayerView::~PlayerView()
 4209              		.loc 1 10 0
 4210              		.cfi_startproc
 4211              		@ args = 0, pretend = 0, frame = 8
 4212              		@ frame_needed = 1, uses_anonymous_args = 0
 4213 0000 80B5     		push	{r7, lr}
 4214              	.LCFI12:
 4215              		.cfi_def_cfa_offset 8
 4216 0002 82B0     		sub	sp, sp, #8
 4217              	.LCFI13:
 4218              		.cfi_def_cfa_offset 16
 4219 0004 00AF     		add	r7, sp, #0
 4220              		.cfi_offset 14, -4
 4221              		.cfi_offset 7, -8
 4222              	.LCFI14:
 4223              		.cfi_def_cfa_register 7
 4224 0006 7860     		str	r0, [r7, #4]
 4225              	.LBB3:
 4226              		.loc 1 10 0
 4227 0008 7B68     		ldr	r3, [r7, #4]
 4228 000a 0B4A     		ldr	r2, .L11
 4229 000c 1A60     		str	r2, [r3, #0]
 4230 000e 7B68     		ldr	r3, [r7, #4]
  11:../air3t/ui/playerview.cpp **** 	{}
 4231              		.loc 1 11 0
 4232 0010 1846     		mov	r0, r3
 4233 0012 FFF7FEFF 		bl	_ZN5Air3T8MenuViewD2Ev
 4234              	.LBE3:
 4235 0016 4FF00003 		mov	r3, #0
 4236 001a 03F00103 		and	r3, r3, #1
 4237 001e DBB2     		uxtb	r3, r3
 4238 0020 002B     		cmp	r3, #0
 4239 0022 02D0     		beq	.L10
 4240              		.loc 1 11 0 is_stmt 0 discriminator 2
 4241 0024 7868     		ldr	r0, [r7, #4]
 4242 0026 FFF7FEFF 		bl	_ZdlPv
 4243              	.L10:
 4244              		.loc 1 11 0 discriminator 3
 4245 002a 7B68     		ldr	r3, [r7, #4]
 4246 002c 1846     		mov	r0, r3
 4247 002e 07F10807 		add	r7, r7, #8
 4248 0032 BD46     		mov	sp, r7
 4249 0034 80BD     		pop	{r7, pc}
 4250              	.L12:
 4251 0036 00BF     		.align	2
 4252              	.L11:
 4253 0038 08000000 		.word	_ZTVN5Air3T10PlayerViewE+8
 4254              		.cfi_endproc
 4255              	.LFE1113:
 4257              		.global	_ZN5Air3T10PlayerViewD1Ev
 4258              		.thumb_set _ZN5Air3T10PlayerViewD1Ev,_ZN5Air3T10PlayerViewD2Ev
 4259              		.section	.text._ZN5Air3T10PlayerViewD0Ev,"ax",%progbits
 4260              		.align	2
 4261              		.global	_ZN5Air3T10PlayerViewD0Ev
 4262              		.thumb
 4263              		.thumb_func
 4265              	_ZN5Air3T10PlayerViewD0Ev:
 4266              	.LFB1115:
  10:../air3t/ui/playerview.cpp **** 	PlayerView::~PlayerView()
 4267              		.loc 1 10 0 is_stmt 1
 4268              		.cfi_startproc
 4269              		@ args = 0, pretend = 0, frame = 8
 4270              		@ frame_needed = 1, uses_anonymous_args = 0
 4271 0000 80B5     		push	{r7, lr}
 4272              	.LCFI15:
 4273              		.cfi_def_cfa_offset 8
 4274 0002 82B0     		sub	sp, sp, #8
 4275              	.LCFI16:
 4276              		.cfi_def_cfa_offset 16
 4277 0004 00AF     		add	r7, sp, #0
 4278              		.cfi_offset 14, -4
 4279              		.cfi_offset 7, -8
 4280              	.LCFI17:
 4281              		.cfi_def_cfa_register 7
 4282 0006 7860     		str	r0, [r7, #4]
 4283              		.loc 1 11 0
 4284 0008 7868     		ldr	r0, [r7, #4]
 4285 000a FFF7FEFF 		bl	_ZN5Air3T10PlayerViewD1Ev
 4286 000e 7868     		ldr	r0, [r7, #4]
 4287 0010 FFF7FEFF 		bl	_ZdlPv
 4288 0014 7B68     		ldr	r3, [r7, #4]
 4289 0016 1846     		mov	r0, r3
 4290 0018 07F10807 		add	r7, r7, #8
 4291 001c BD46     		mov	sp, r7
 4292 001e 80BD     		pop	{r7, pc}
 4293              		.cfi_endproc
 4294              	.LFE1115:
 4296              		.section	.text._ZN5Air3T10PlayerView6updateEi,"ax",%progbits
 4297              		.align	2
 4298              		.global	_ZN5Air3T10PlayerView6updateEi
 4299              		.thumb
 4300              		.thumb_func
 4302              	_ZN5Air3T10PlayerView6updateEi:
 4303              	.LFB1116:
  12:../air3t/ui/playerview.cpp **** 
  13:../air3t/ui/playerview.cpp **** 	void PlayerView::update( int section )
  14:../air3t/ui/playerview.cpp **** 	{
 4304              		.loc 1 14 0
 4305              		.cfi_startproc
 4306              		@ args = 0, pretend = 0, frame = 24
 4307              		@ frame_needed = 1, uses_anonymous_args = 0
 4308 0000 90B5     		push	{r4, r7, lr}
 4309              	.LCFI18:
 4310              		.cfi_def_cfa_offset 12
 4311 0002 87B0     		sub	sp, sp, #28
 4312              	.LCFI19:
 4313              		.cfi_def_cfa_offset 40
 4314 0004 00AF     		add	r7, sp, #0
 4315              		.cfi_offset 14, -4
 4316              		.cfi_offset 7, -8
 4317              		.cfi_offset 4, -12
 4318              	.LCFI20:
 4319              		.cfi_def_cfa_register 7
 4320 0006 7860     		str	r0, [r7, #4]
 4321 0008 3960     		str	r1, [r7, #0]
 4322              	.LBB4:
 4323              	.LBB5:
  15:../air3t/ui/playerview.cpp **** 		if ( section == Model::AvailablePlayerSection || section == Model::UnknownSection )
 4324              		.loc 1 15 0
 4325 000a 3B68     		ldr	r3, [r7, #0]
 4326 000c 012B     		cmp	r3, #1
 4327 000e 02D0     		beq	.L16
 4328              		.loc 1 15 0 is_stmt 0 discriminator 1
 4329 0010 3B68     		ldr	r3, [r7, #0]
 4330 0012 002B     		cmp	r3, #0
 4331 0014 4ED1     		bne	.L15
 4332              	.L16:
 4333              	.LBB6:
  16:../air3t/ui/playerview.cpp **** 		{
  17:../air3t/ui/playerview.cpp **** 			menu().clear();
 4334              		.loc 1 17 0 is_stmt 1
 4335 0016 7B68     		ldr	r3, [r7, #4]
 4336 0018 1846     		mov	r0, r3
 4337 001a FFF7FEFF 		bl	_ZN5Air3T8MenuView4menuEv
 4338 001e 0346     		mov	r3, r0
 4339 0020 1846     		mov	r0, r3
 4340 0022 FFF7FEFF 		bl	_ZNSt6vectorISsSaISsEE5clearEv
 4341              	.LBB7:
  18:../air3t/ui/playerview.cpp **** 			for ( std::list<Player>::const_iterator i = _model.availablePlayers().begin() ;
 4342              		.loc 1 18 0
 4343 0026 7B68     		ldr	r3, [r7, #4]
 4344 0028 5B6A     		ldr	r3, [r3, #36]
 4345 002a 1846     		mov	r0, r3
 4346 002c FFF7FEFF 		bl	_ZNK5Air3T5Model16availablePlayersEv
 4347 0030 0346     		mov	r3, r0
 4348 0032 1846     		mov	r0, r3
 4349 0034 FFF7FEFF 		bl	_ZNKSt4listIN5Air3T6PlayerESaIS1_EE5beginEv
 4350 0038 0346     		mov	r3, r0
 4351 003a FB60     		str	r3, [r7, #12]
 4352 003c 20E0     		b	.L18
 4353              	.L19:
  19:../air3t/ui/playerview.cpp **** 				  i != _model.availablePlayers().end() ; ++i )
  20:../air3t/ui/playerview.cpp **** 				menu().push_back( i->nickname() );
 4354              		.loc 1 20 0 discriminator 2
 4355 003e 7B68     		ldr	r3, [r7, #4]
 4356 0040 1846     		mov	r0, r3
 4357 0042 FFF7FEFF 		bl	_ZN5Air3T8MenuView4menuEv
 4358 0046 0446     		mov	r4, r0
 4359 0048 07F10C03 		add	r3, r7, #12
 4360 004c 1846     		mov	r0, r3
 4361 004e FFF7FEFF 		bl	_ZNKSt20_List_const_iteratorIN5Air3T6PlayerEEptEv
 4362 0052 0346     		mov	r3, r0
 4363 0054 07F11402 		add	r2, r7, #20
 4364 0058 1046     		mov	r0, r2
 4365 005a 1946     		mov	r1, r3
 4366 005c FFF7FEFF 		bl	_ZNK5Air3T6Player8nicknameEv
 4367 0060 07F11403 		add	r3, r7, #20
 4368 0064 2046     		mov	r0, r4
 4369 0066 1946     		mov	r1, r3
 4370 0068 FFF7FEFF 		bl	_ZNSt6vectorISsSaISsEE9push_backERKSs
 4371 006c 07F11403 		add	r3, r7, #20
 4372 0070 1846     		mov	r0, r3
 4373 0072 FFF7FEFF 		bl	_ZNSsD1Ev
  19:../air3t/ui/playerview.cpp **** 				  i != _model.availablePlayers().end() ; ++i )
 4374              		.loc 1 19 0 discriminator 2
 4375 0076 07F10C03 		add	r3, r7, #12
  18:../air3t/ui/playerview.cpp **** 			for ( std::list<Player>::const_iterator i = _model.availablePlayers().begin() ;
 4376              		.loc 1 18 0 discriminator 2
 4377 007a 1846     		mov	r0, r3
 4378 007c FFF7FEFF 		bl	_ZNSt20_List_const_iteratorIN5Air3T6PlayerEEppEv
 4379              	.L18:
  19:../air3t/ui/playerview.cpp **** 				  i != _model.availablePlayers().end() ; ++i )
 4380              		.loc 1 19 0 discriminator 1
 4381 0080 7B68     		ldr	r3, [r7, #4]
 4382 0082 5B6A     		ldr	r3, [r3, #36]
 4383 0084 1846     		mov	r0, r3
 4384 0086 FFF7FEFF 		bl	_ZNK5Air3T5Model16availablePlayersEv
 4385 008a 0346     		mov	r3, r0
 4386 008c 1846     		mov	r0, r3
 4387 008e FFF7FEFF 		bl	_ZNKSt4listIN5Air3T6PlayerESaIS1_EE3endEv
 4388 0092 0346     		mov	r3, r0
 4389 0094 3B61     		str	r3, [r7, #16]
 4390 0096 07F10C02 		add	r2, r7, #12
  18:../air3t/ui/playerview.cpp **** 			for ( std::list<Player>::const_iterator i = _model.availablePlayers().begin() ;
 4391              		.loc 1 18 0 discriminator 1
 4392 009a 07F11003 		add	r3, r7, #16
 4393 009e 1046     		mov	r0, r2
 4394 00a0 1946     		mov	r1, r3
 4395 00a2 FFF7FEFF 		bl	_ZNKSt20_List_const_iteratorIN5Air3T6PlayerEEneERKS2_
 4396 00a6 0346     		mov	r3, r0
 4397 00a8 002B     		cmp	r3, #0
 4398 00aa C8D1     		bne	.L19
 4399              	.LBE7:
  21:../air3t/ui/playerview.cpp **** 
  22:../air3t/ui/playerview.cpp **** 			repaint();
 4400              		.loc 1 22 0
 4401 00ac 7B68     		ldr	r3, [r7, #4]
 4402 00ae 1846     		mov	r0, r3
 4403 00b0 FFF7FEFF 		bl	_ZN5Air3T8MenuView7repaintEv
 4404              	.L15:
 4405              	.LBE6:
 4406              	.LBE5:
 4407              	.LBE4:
  23:../air3t/ui/playerview.cpp **** 		}
  24:../air3t/ui/playerview.cpp **** 	}
 4408              		.loc 1 24 0
 4409 00b4 07F11C07 		add	r7, r7, #28
 4410 00b8 BD46     		mov	sp, r7
 4411 00ba 90BD     		pop	{r4, r7, pc}
 4412              		.cfi_endproc
 4413              	.LFE1116:
 4415              		.section	.text._ZNSt6vectorISsSaISsEE5clearEv,"axG",%progbits,_ZNSt6vectorISsSaISsEE5clearEv,comda
 4416              		.align	2
 4417              		.weak	_ZNSt6vectorISsSaISsEE5clearEv
 4418              		.thumb
 4419              		.thumb_func
 4421              	_ZNSt6vectorISsSaISsEE5clearEv:
 4422              	.LFB1130:
   1:/opt/toolchains/arm-none-eabi/bin/../lib/gcc/arm-none-eabi/4.5.2/../../../../arm-none-eabi/include/c++/4.5.2/bits/stl_vector.h **** // Vector implementation -*- C++ -*-
   2:/opt/toolchains/arm-none-eabi/bin/../lib/gcc/arm-none-eabi/4.5.2/../../../../arm-none-eabi/include/c++/4.5.2/bits/stl_vector.h **** 
   3:/opt/toolchains/arm-none-eabi/bin/../lib/gcc/arm-none-eabi/4.5.2/../../../../arm-none-eabi/include/c++/4.5.2/bits/stl_vector.h **** // Copyright (C) 2001, 2002, 2003, 2004, 2005, 2006, 2007, 2008, 2009, 2010
   4:/opt/toolchains/arm-none-eabi/bin/../lib/gcc/arm-none-eabi/4.5.2/../../../../arm-none-eabi/include/c++/4.5.2/bits/stl_vector.h **** // Free Software Foundation, Inc.
   5:/opt/toolchains/arm-none-eabi/bin/../lib/gcc/arm-none-eabi/4.5.2/../../../../arm-none-eabi/include/c++/4.5.2/bits/stl_vector.h **** //
   6:/opt/toolchains/arm-none-eabi/bin/../lib/gcc/arm-none-eabi/4.5.2/../../../../arm-none-eabi/include/c++/4.5.2/bits/stl_vector.h **** // This file is part of the GNU ISO C++ Library.  This library is free
   7:/opt/toolchains/arm-none-eabi/bin/../lib/gcc/arm-none-eabi/4.5.2/../../../../arm-none-eabi/include/c++/4.5.2/bits/stl_vector.h **** // software; you can redistribute it and/or modify it under the
   8:/opt/toolchains/arm-none-eabi/bin/../lib/gcc/arm-none-eabi/4.5.2/../../../../arm-none-eabi/include/c++/4.5.2/bits/stl_vector.h **** // terms of the GNU General Public License as published by the
   9:/opt/toolchains/arm-none-eabi/bin/../lib/gcc/arm-none-eabi/4.5.2/../../../../arm-none-eabi/include/c++/4.5.2/bits/stl_vector.h **** // Free Software Foundation; either version 3, or (at your option)
  10:/opt/toolchains/arm-none-eabi/bin/../lib/gcc/arm-none-eabi/4.5.2/../../../../arm-none-eabi/include/c++/4.5.2/bits/stl_vector.h **** // any later version.
  11:/opt/toolchains/arm-none-eabi/bin/../lib/gcc/arm-none-eabi/4.5.2/../../../../arm-none-eabi/include/c++/4.5.2/bits/stl_vector.h **** 
  12:/opt/toolchains/arm-none-eabi/bin/../lib/gcc/arm-none-eabi/4.5.2/../../../../arm-none-eabi/include/c++/4.5.2/bits/stl_vector.h **** // This library is distributed in the hope that it will be useful,
  13:/opt/toolchains/arm-none-eabi/bin/../lib/gcc/arm-none-eabi/4.5.2/../../../../arm-none-eabi/include/c++/4.5.2/bits/stl_vector.h **** // but WITHOUT ANY WARRANTY; without even the implied warranty of
  14:/opt/toolchains/arm-none-eabi/bin/../lib/gcc/arm-none-eabi/4.5.2/../../../../arm-none-eabi/include/c++/4.5.2/bits/stl_vector.h **** // MERCHANTABILITY or FITNESS FOR A PARTICULAR PURPOSE.  See the
  15:/opt/toolchains/arm-none-eabi/bin/../lib/gcc/arm-none-eabi/4.5.2/../../../../arm-none-eabi/include/c++/4.5.2/bits/stl_vector.h **** // GNU General Public License for more details.
  16:/opt/toolchains/arm-none-eabi/bin/../lib/gcc/arm-none-eabi/4.5.2/../../../../arm-none-eabi/include/c++/4.5.2/bits/stl_vector.h **** 
  17:/opt/toolchains/arm-none-eabi/bin/../lib/gcc/arm-none-eabi/4.5.2/../../../../arm-none-eabi/include/c++/4.5.2/bits/stl_vector.h **** // Under Section 7 of GPL version 3, you are granted additional
  18:/opt/toolchains/arm-none-eabi/bin/../lib/gcc/arm-none-eabi/4.5.2/../../../../arm-none-eabi/include/c++/4.5.2/bits/stl_vector.h **** // permissions described in the GCC Runtime Library Exception, version
  19:/opt/toolchains/arm-none-eabi/bin/../lib/gcc/arm-none-eabi/4.5.2/../../../../arm-none-eabi/include/c++/4.5.2/bits/stl_vector.h **** // 3.1, as published by the Free Software Foundation.
  20:/opt/toolchains/arm-none-eabi/bin/../lib/gcc/arm-none-eabi/4.5.2/../../../../arm-none-eabi/include/c++/4.5.2/bits/stl_vector.h **** 
  21:/opt/toolchains/arm-none-eabi/bin/../lib/gcc/arm-none-eabi/4.5.2/../../../../arm-none-eabi/include/c++/4.5.2/bits/stl_vector.h **** // You should have received a copy of the GNU General Public License and
  22:/opt/toolchains/arm-none-eabi/bin/../lib/gcc/arm-none-eabi/4.5.2/../../../../arm-none-eabi/include/c++/4.5.2/bits/stl_vector.h **** // a copy of the GCC Runtime Library Exception along with this program;
  23:/opt/toolchains/arm-none-eabi/bin/../lib/gcc/arm-none-eabi/4.5.2/../../../../arm-none-eabi/include/c++/4.5.2/bits/stl_vector.h **** // see the files COPYING3 and COPYING.RUNTIME respectively.  If not, see
  24:/opt/toolchains/arm-none-eabi/bin/../lib/gcc/arm-none-eabi/4.5.2/../../../../arm-none-eabi/include/c++/4.5.2/bits/stl_vector.h **** // <http://www.gnu.org/licenses/>.
  25:/opt/toolchains/arm-none-eabi/bin/../lib/gcc/arm-none-eabi/4.5.2/../../../../arm-none-eabi/include/c++/4.5.2/bits/stl_vector.h **** 
  26:/opt/toolchains/arm-none-eabi/bin/../lib/gcc/arm-none-eabi/4.5.2/../../../../arm-none-eabi/include/c++/4.5.2/bits/stl_vector.h **** /*
  27:/opt/toolchains/arm-none-eabi/bin/../lib/gcc/arm-none-eabi/4.5.2/../../../../arm-none-eabi/include/c++/4.5.2/bits/stl_vector.h ****  *
  28:/opt/toolchains/arm-none-eabi/bin/../lib/gcc/arm-none-eabi/4.5.2/../../../../arm-none-eabi/include/c++/4.5.2/bits/stl_vector.h ****  * Copyright (c) 1994
  29:/opt/toolchains/arm-none-eabi/bin/../lib/gcc/arm-none-eabi/4.5.2/../../../../arm-none-eabi/include/c++/4.5.2/bits/stl_vector.h ****  * Hewlett-Packard Company
  30:/opt/toolchains/arm-none-eabi/bin/../lib/gcc/arm-none-eabi/4.5.2/../../../../arm-none-eabi/include/c++/4.5.2/bits/stl_vector.h ****  *
  31:/opt/toolchains/arm-none-eabi/bin/../lib/gcc/arm-none-eabi/4.5.2/../../../../arm-none-eabi/include/c++/4.5.2/bits/stl_vector.h ****  * Permission to use, copy, modify, distribute and sell this software
  32:/opt/toolchains/arm-none-eabi/bin/../lib/gcc/arm-none-eabi/4.5.2/../../../../arm-none-eabi/include/c++/4.5.2/bits/stl_vector.h ****  * and its documentation for any purpose is hereby granted without fee,
  33:/opt/toolchains/arm-none-eabi/bin/../lib/gcc/arm-none-eabi/4.5.2/../../../../arm-none-eabi/include/c++/4.5.2/bits/stl_vector.h ****  * provided that the above copyright notice appear in all copies and
  34:/opt/toolchains/arm-none-eabi/bin/../lib/gcc/arm-none-eabi/4.5.2/../../../../arm-none-eabi/include/c++/4.5.2/bits/stl_vector.h ****  * that both that copyright notice and this permission notice appear
  35:/opt/toolchains/arm-none-eabi/bin/../lib/gcc/arm-none-eabi/4.5.2/../../../../arm-none-eabi/include/c++/4.5.2/bits/stl_vector.h ****  * in supporting documentation.  Hewlett-Packard Company makes no
  36:/opt/toolchains/arm-none-eabi/bin/../lib/gcc/arm-none-eabi/4.5.2/../../../../arm-none-eabi/include/c++/4.5.2/bits/stl_vector.h ****  * representations about the suitability of this software for any
  37:/opt/toolchains/arm-none-eabi/bin/../lib/gcc/arm-none-eabi/4.5.2/../../../../arm-none-eabi/include/c++/4.5.2/bits/stl_vector.h ****  * purpose.  It is provided "as is" without express or implied warranty.
  38:/opt/toolchains/arm-none-eabi/bin/../lib/gcc/arm-none-eabi/4.5.2/../../../../arm-none-eabi/include/c++/4.5.2/bits/stl_vector.h ****  *
  39:/opt/toolchains/arm-none-eabi/bin/../lib/gcc/arm-none-eabi/4.5.2/../../../../arm-none-eabi/include/c++/4.5.2/bits/stl_vector.h ****  *
  40:/opt/toolchains/arm-none-eabi/bin/../lib/gcc/arm-none-eabi/4.5.2/../../../../arm-none-eabi/include/c++/4.5.2/bits/stl_vector.h ****  * Copyright (c) 1996
  41:/opt/toolchains/arm-none-eabi/bin/../lib/gcc/arm-none-eabi/4.5.2/../../../../arm-none-eabi/include/c++/4.5.2/bits/stl_vector.h ****  * Silicon Graphics Computer Systems, Inc.
  42:/opt/toolchains/arm-none-eabi/bin/../lib/gcc/arm-none-eabi/4.5.2/../../../../arm-none-eabi/include/c++/4.5.2/bits/stl_vector.h ****  *
  43:/opt/toolchains/arm-none-eabi/bin/../lib/gcc/arm-none-eabi/4.5.2/../../../../arm-none-eabi/include/c++/4.5.2/bits/stl_vector.h ****  * Permission to use, copy, modify, distribute and sell this software
  44:/opt/toolchains/arm-none-eabi/bin/../lib/gcc/arm-none-eabi/4.5.2/../../../../arm-none-eabi/include/c++/4.5.2/bits/stl_vector.h ****  * and its documentation for any purpose is hereby granted without fee,
  45:/opt/toolchains/arm-none-eabi/bin/../lib/gcc/arm-none-eabi/4.5.2/../../../../arm-none-eabi/include/c++/4.5.2/bits/stl_vector.h ****  * provided that the above copyright notice appear in all copies and
  46:/opt/toolchains/arm-none-eabi/bin/../lib/gcc/arm-none-eabi/4.5.2/../../../../arm-none-eabi/include/c++/4.5.2/bits/stl_vector.h ****  * that both that copyright notice and this permission notice appear
  47:/opt/toolchains/arm-none-eabi/bin/../lib/gcc/arm-none-eabi/4.5.2/../../../../arm-none-eabi/include/c++/4.5.2/bits/stl_vector.h ****  * in supporting documentation.  Silicon Graphics makes no
  48:/opt/toolchains/arm-none-eabi/bin/../lib/gcc/arm-none-eabi/4.5.2/../../../../arm-none-eabi/include/c++/4.5.2/bits/stl_vector.h ****  * representations about the suitability of this  software for any
  49:/opt/toolchains/arm-none-eabi/bin/../lib/gcc/arm-none-eabi/4.5.2/../../../../arm-none-eabi/include/c++/4.5.2/bits/stl_vector.h ****  * purpose.  It is provided "as is" without express or implied warranty.
  50:/opt/toolchains/arm-none-eabi/bin/../lib/gcc/arm-none-eabi/4.5.2/../../../../arm-none-eabi/include/c++/4.5.2/bits/stl_vector.h ****  */
  51:/opt/toolchains/arm-none-eabi/bin/../lib/gcc/arm-none-eabi/4.5.2/../../../../arm-none-eabi/include/c++/4.5.2/bits/stl_vector.h **** 
  52:/opt/toolchains/arm-none-eabi/bin/../lib/gcc/arm-none-eabi/4.5.2/../../../../arm-none-eabi/include/c++/4.5.2/bits/stl_vector.h **** /** @file stl_vector.h
  53:/opt/toolchains/arm-none-eabi/bin/../lib/gcc/arm-none-eabi/4.5.2/../../../../arm-none-eabi/include/c++/4.5.2/bits/stl_vector.h ****  *  This is an internal header file, included by other library headers.
  54:/opt/toolchains/arm-none-eabi/bin/../lib/gcc/arm-none-eabi/4.5.2/../../../../arm-none-eabi/include/c++/4.5.2/bits/stl_vector.h ****  *  You should not attempt to use it directly.
  55:/opt/toolchains/arm-none-eabi/bin/../lib/gcc/arm-none-eabi/4.5.2/../../../../arm-none-eabi/include/c++/4.5.2/bits/stl_vector.h ****  */
  56:/opt/toolchains/arm-none-eabi/bin/../lib/gcc/arm-none-eabi/4.5.2/../../../../arm-none-eabi/include/c++/4.5.2/bits/stl_vector.h **** 
  57:/opt/toolchains/arm-none-eabi/bin/../lib/gcc/arm-none-eabi/4.5.2/../../../../arm-none-eabi/include/c++/4.5.2/bits/stl_vector.h **** #ifndef _STL_VECTOR_H
  58:/opt/toolchains/arm-none-eabi/bin/../lib/gcc/arm-none-eabi/4.5.2/../../../../arm-none-eabi/include/c++/4.5.2/bits/stl_vector.h **** #define _STL_VECTOR_H 1
  59:/opt/toolchains/arm-none-eabi/bin/../lib/gcc/arm-none-eabi/4.5.2/../../../../arm-none-eabi/include/c++/4.5.2/bits/stl_vector.h **** 
  60:/opt/toolchains/arm-none-eabi/bin/../lib/gcc/arm-none-eabi/4.5.2/../../../../arm-none-eabi/include/c++/4.5.2/bits/stl_vector.h **** #include <bits/stl_iterator_base_funcs.h>
  61:/opt/toolchains/arm-none-eabi/bin/../lib/gcc/arm-none-eabi/4.5.2/../../../../arm-none-eabi/include/c++/4.5.2/bits/stl_vector.h **** #include <bits/functexcept.h>
  62:/opt/toolchains/arm-none-eabi/bin/../lib/gcc/arm-none-eabi/4.5.2/../../../../arm-none-eabi/include/c++/4.5.2/bits/stl_vector.h **** #include <bits/concept_check.h>
  63:/opt/toolchains/arm-none-eabi/bin/../lib/gcc/arm-none-eabi/4.5.2/../../../../arm-none-eabi/include/c++/4.5.2/bits/stl_vector.h **** #include <initializer_list>
  64:/opt/toolchains/arm-none-eabi/bin/../lib/gcc/arm-none-eabi/4.5.2/../../../../arm-none-eabi/include/c++/4.5.2/bits/stl_vector.h **** 
  65:/opt/toolchains/arm-none-eabi/bin/../lib/gcc/arm-none-eabi/4.5.2/../../../../arm-none-eabi/include/c++/4.5.2/bits/stl_vector.h **** _GLIBCXX_BEGIN_NESTED_NAMESPACE(std, _GLIBCXX_STD_D)
  66:/opt/toolchains/arm-none-eabi/bin/../lib/gcc/arm-none-eabi/4.5.2/../../../../arm-none-eabi/include/c++/4.5.2/bits/stl_vector.h **** 
  67:/opt/toolchains/arm-none-eabi/bin/../lib/gcc/arm-none-eabi/4.5.2/../../../../arm-none-eabi/include/c++/4.5.2/bits/stl_vector.h ****   /// See bits/stl_deque.h's _Deque_base for an explanation.
  68:/opt/toolchains/arm-none-eabi/bin/../lib/gcc/arm-none-eabi/4.5.2/../../../../arm-none-eabi/include/c++/4.5.2/bits/stl_vector.h ****   template<typename _Tp, typename _Alloc>
  69:/opt/toolchains/arm-none-eabi/bin/../lib/gcc/arm-none-eabi/4.5.2/../../../../arm-none-eabi/include/c++/4.5.2/bits/stl_vector.h ****     struct _Vector_base
  70:/opt/toolchains/arm-none-eabi/bin/../lib/gcc/arm-none-eabi/4.5.2/../../../../arm-none-eabi/include/c++/4.5.2/bits/stl_vector.h ****     {
  71:/opt/toolchains/arm-none-eabi/bin/../lib/gcc/arm-none-eabi/4.5.2/../../../../arm-none-eabi/include/c++/4.5.2/bits/stl_vector.h ****       typedef typename _Alloc::template rebind<_Tp>::other _Tp_alloc_type;
  72:/opt/toolchains/arm-none-eabi/bin/../lib/gcc/arm-none-eabi/4.5.2/../../../../arm-none-eabi/include/c++/4.5.2/bits/stl_vector.h **** 
  73:/opt/toolchains/arm-none-eabi/bin/../lib/gcc/arm-none-eabi/4.5.2/../../../../arm-none-eabi/include/c++/4.5.2/bits/stl_vector.h ****       struct _Vector_impl 
  74:/opt/toolchains/arm-none-eabi/bin/../lib/gcc/arm-none-eabi/4.5.2/../../../../arm-none-eabi/include/c++/4.5.2/bits/stl_vector.h ****       : public _Tp_alloc_type
  75:/opt/toolchains/arm-none-eabi/bin/../lib/gcc/arm-none-eabi/4.5.2/../../../../arm-none-eabi/include/c++/4.5.2/bits/stl_vector.h ****       {
  76:/opt/toolchains/arm-none-eabi/bin/../lib/gcc/arm-none-eabi/4.5.2/../../../../arm-none-eabi/include/c++/4.5.2/bits/stl_vector.h **** 	typename _Tp_alloc_type::pointer _M_start;
  77:/opt/toolchains/arm-none-eabi/bin/../lib/gcc/arm-none-eabi/4.5.2/../../../../arm-none-eabi/include/c++/4.5.2/bits/stl_vector.h **** 	typename _Tp_alloc_type::pointer _M_finish;
  78:/opt/toolchains/arm-none-eabi/bin/../lib/gcc/arm-none-eabi/4.5.2/../../../../arm-none-eabi/include/c++/4.5.2/bits/stl_vector.h **** 	typename _Tp_alloc_type::pointer _M_end_of_storage;
  79:/opt/toolchains/arm-none-eabi/bin/../lib/gcc/arm-none-eabi/4.5.2/../../../../arm-none-eabi/include/c++/4.5.2/bits/stl_vector.h **** 
  80:/opt/toolchains/arm-none-eabi/bin/../lib/gcc/arm-none-eabi/4.5.2/../../../../arm-none-eabi/include/c++/4.5.2/bits/stl_vector.h **** 	_Vector_impl()
  81:/opt/toolchains/arm-none-eabi/bin/../lib/gcc/arm-none-eabi/4.5.2/../../../../arm-none-eabi/include/c++/4.5.2/bits/stl_vector.h **** 	: _Tp_alloc_type(), _M_start(0), _M_finish(0), _M_end_of_storage(0)
  82:/opt/toolchains/arm-none-eabi/bin/../lib/gcc/arm-none-eabi/4.5.2/../../../../arm-none-eabi/include/c++/4.5.2/bits/stl_vector.h **** 	{ }
  83:/opt/toolchains/arm-none-eabi/bin/../lib/gcc/arm-none-eabi/4.5.2/../../../../arm-none-eabi/include/c++/4.5.2/bits/stl_vector.h **** 
  84:/opt/toolchains/arm-none-eabi/bin/../lib/gcc/arm-none-eabi/4.5.2/../../../../arm-none-eabi/include/c++/4.5.2/bits/stl_vector.h **** 	_Vector_impl(_Tp_alloc_type const& __a)
  85:/opt/toolchains/arm-none-eabi/bin/../lib/gcc/arm-none-eabi/4.5.2/../../../../arm-none-eabi/include/c++/4.5.2/bits/stl_vector.h **** 	: _Tp_alloc_type(__a), _M_start(0), _M_finish(0), _M_end_of_storage(0)
  86:/opt/toolchains/arm-none-eabi/bin/../lib/gcc/arm-none-eabi/4.5.2/../../../../arm-none-eabi/include/c++/4.5.2/bits/stl_vector.h **** 	{ }
  87:/opt/toolchains/arm-none-eabi/bin/../lib/gcc/arm-none-eabi/4.5.2/../../../../arm-none-eabi/include/c++/4.5.2/bits/stl_vector.h ****       };
  88:/opt/toolchains/arm-none-eabi/bin/../lib/gcc/arm-none-eabi/4.5.2/../../../../arm-none-eabi/include/c++/4.5.2/bits/stl_vector.h ****       
  89:/opt/toolchains/arm-none-eabi/bin/../lib/gcc/arm-none-eabi/4.5.2/../../../../arm-none-eabi/include/c++/4.5.2/bits/stl_vector.h ****     public:
  90:/opt/toolchains/arm-none-eabi/bin/../lib/gcc/arm-none-eabi/4.5.2/../../../../arm-none-eabi/include/c++/4.5.2/bits/stl_vector.h ****       typedef _Alloc allocator_type;
  91:/opt/toolchains/arm-none-eabi/bin/../lib/gcc/arm-none-eabi/4.5.2/../../../../arm-none-eabi/include/c++/4.5.2/bits/stl_vector.h **** 
  92:/opt/toolchains/arm-none-eabi/bin/../lib/gcc/arm-none-eabi/4.5.2/../../../../arm-none-eabi/include/c++/4.5.2/bits/stl_vector.h ****       _Tp_alloc_type&
  93:/opt/toolchains/arm-none-eabi/bin/../lib/gcc/arm-none-eabi/4.5.2/../../../../arm-none-eabi/include/c++/4.5.2/bits/stl_vector.h ****       _M_get_Tp_allocator()
  94:/opt/toolchains/arm-none-eabi/bin/../lib/gcc/arm-none-eabi/4.5.2/../../../../arm-none-eabi/include/c++/4.5.2/bits/stl_vector.h ****       { return *static_cast<_Tp_alloc_type*>(&this->_M_impl); }
  95:/opt/toolchains/arm-none-eabi/bin/../lib/gcc/arm-none-eabi/4.5.2/../../../../arm-none-eabi/include/c++/4.5.2/bits/stl_vector.h **** 
  96:/opt/toolchains/arm-none-eabi/bin/../lib/gcc/arm-none-eabi/4.5.2/../../../../arm-none-eabi/include/c++/4.5.2/bits/stl_vector.h ****       const _Tp_alloc_type&
  97:/opt/toolchains/arm-none-eabi/bin/../lib/gcc/arm-none-eabi/4.5.2/../../../../arm-none-eabi/include/c++/4.5.2/bits/stl_vector.h ****       _M_get_Tp_allocator() const
  98:/opt/toolchains/arm-none-eabi/bin/../lib/gcc/arm-none-eabi/4.5.2/../../../../arm-none-eabi/include/c++/4.5.2/bits/stl_vector.h ****       { return *static_cast<const _Tp_alloc_type*>(&this->_M_impl); }
  99:/opt/toolchains/arm-none-eabi/bin/../lib/gcc/arm-none-eabi/4.5.2/../../../../arm-none-eabi/include/c++/4.5.2/bits/stl_vector.h **** 
 100:/opt/toolchains/arm-none-eabi/bin/../lib/gcc/arm-none-eabi/4.5.2/../../../../arm-none-eabi/include/c++/4.5.2/bits/stl_vector.h ****       allocator_type
 101:/opt/toolchains/arm-none-eabi/bin/../lib/gcc/arm-none-eabi/4.5.2/../../../../arm-none-eabi/include/c++/4.5.2/bits/stl_vector.h ****       get_allocator() const
 102:/opt/toolchains/arm-none-eabi/bin/../lib/gcc/arm-none-eabi/4.5.2/../../../../arm-none-eabi/include/c++/4.5.2/bits/stl_vector.h ****       { return allocator_type(_M_get_Tp_allocator()); }
 103:/opt/toolchains/arm-none-eabi/bin/../lib/gcc/arm-none-eabi/4.5.2/../../../../arm-none-eabi/include/c++/4.5.2/bits/stl_vector.h **** 
 104:/opt/toolchains/arm-none-eabi/bin/../lib/gcc/arm-none-eabi/4.5.2/../../../../arm-none-eabi/include/c++/4.5.2/bits/stl_vector.h ****       _Vector_base()
 105:/opt/toolchains/arm-none-eabi/bin/../lib/gcc/arm-none-eabi/4.5.2/../../../../arm-none-eabi/include/c++/4.5.2/bits/stl_vector.h ****       : _M_impl() { }
 106:/opt/toolchains/arm-none-eabi/bin/../lib/gcc/arm-none-eabi/4.5.2/../../../../arm-none-eabi/include/c++/4.5.2/bits/stl_vector.h **** 
 107:/opt/toolchains/arm-none-eabi/bin/../lib/gcc/arm-none-eabi/4.5.2/../../../../arm-none-eabi/include/c++/4.5.2/bits/stl_vector.h ****       _Vector_base(const allocator_type& __a)
 108:/opt/toolchains/arm-none-eabi/bin/../lib/gcc/arm-none-eabi/4.5.2/../../../../arm-none-eabi/include/c++/4.5.2/bits/stl_vector.h ****       : _M_impl(__a) { }
 109:/opt/toolchains/arm-none-eabi/bin/../lib/gcc/arm-none-eabi/4.5.2/../../../../arm-none-eabi/include/c++/4.5.2/bits/stl_vector.h **** 
 110:/opt/toolchains/arm-none-eabi/bin/../lib/gcc/arm-none-eabi/4.5.2/../../../../arm-none-eabi/include/c++/4.5.2/bits/stl_vector.h ****       _Vector_base(size_t __n, const allocator_type& __a)
 111:/opt/toolchains/arm-none-eabi/bin/../lib/gcc/arm-none-eabi/4.5.2/../../../../arm-none-eabi/include/c++/4.5.2/bits/stl_vector.h ****       : _M_impl(__a)
 112:/opt/toolchains/arm-none-eabi/bin/../lib/gcc/arm-none-eabi/4.5.2/../../../../arm-none-eabi/include/c++/4.5.2/bits/stl_vector.h ****       {
 113:/opt/toolchains/arm-none-eabi/bin/../lib/gcc/arm-none-eabi/4.5.2/../../../../arm-none-eabi/include/c++/4.5.2/bits/stl_vector.h **** 	this->_M_impl._M_start = this->_M_allocate(__n);
 114:/opt/toolchains/arm-none-eabi/bin/../lib/gcc/arm-none-eabi/4.5.2/../../../../arm-none-eabi/include/c++/4.5.2/bits/stl_vector.h **** 	this->_M_impl._M_finish = this->_M_impl._M_start;
 115:/opt/toolchains/arm-none-eabi/bin/../lib/gcc/arm-none-eabi/4.5.2/../../../../arm-none-eabi/include/c++/4.5.2/bits/stl_vector.h **** 	this->_M_impl._M_end_of_storage = this->_M_impl._M_start + __n;
 116:/opt/toolchains/arm-none-eabi/bin/../lib/gcc/arm-none-eabi/4.5.2/../../../../arm-none-eabi/include/c++/4.5.2/bits/stl_vector.h ****       }
 117:/opt/toolchains/arm-none-eabi/bin/../lib/gcc/arm-none-eabi/4.5.2/../../../../arm-none-eabi/include/c++/4.5.2/bits/stl_vector.h **** 
 118:/opt/toolchains/arm-none-eabi/bin/../lib/gcc/arm-none-eabi/4.5.2/../../../../arm-none-eabi/include/c++/4.5.2/bits/stl_vector.h **** #ifdef __GXX_EXPERIMENTAL_CXX0X__
 119:/opt/toolchains/arm-none-eabi/bin/../lib/gcc/arm-none-eabi/4.5.2/../../../../arm-none-eabi/include/c++/4.5.2/bits/stl_vector.h ****       _Vector_base(_Vector_base&& __x)
 120:/opt/toolchains/arm-none-eabi/bin/../lib/gcc/arm-none-eabi/4.5.2/../../../../arm-none-eabi/include/c++/4.5.2/bits/stl_vector.h ****       : _M_impl(__x._M_get_Tp_allocator())
 121:/opt/toolchains/arm-none-eabi/bin/../lib/gcc/arm-none-eabi/4.5.2/../../../../arm-none-eabi/include/c++/4.5.2/bits/stl_vector.h ****       {
 122:/opt/toolchains/arm-none-eabi/bin/../lib/gcc/arm-none-eabi/4.5.2/../../../../arm-none-eabi/include/c++/4.5.2/bits/stl_vector.h **** 	this->_M_impl._M_start = __x._M_impl._M_start;
 123:/opt/toolchains/arm-none-eabi/bin/../lib/gcc/arm-none-eabi/4.5.2/../../../../arm-none-eabi/include/c++/4.5.2/bits/stl_vector.h **** 	this->_M_impl._M_finish = __x._M_impl._M_finish;
 124:/opt/toolchains/arm-none-eabi/bin/../lib/gcc/arm-none-eabi/4.5.2/../../../../arm-none-eabi/include/c++/4.5.2/bits/stl_vector.h **** 	this->_M_impl._M_end_of_storage = __x._M_impl._M_end_of_storage;
 125:/opt/toolchains/arm-none-eabi/bin/../lib/gcc/arm-none-eabi/4.5.2/../../../../arm-none-eabi/include/c++/4.5.2/bits/stl_vector.h **** 	__x._M_impl._M_start = 0;
 126:/opt/toolchains/arm-none-eabi/bin/../lib/gcc/arm-none-eabi/4.5.2/../../../../arm-none-eabi/include/c++/4.5.2/bits/stl_vector.h **** 	__x._M_impl._M_finish = 0;
 127:/opt/toolchains/arm-none-eabi/bin/../lib/gcc/arm-none-eabi/4.5.2/../../../../arm-none-eabi/include/c++/4.5.2/bits/stl_vector.h **** 	__x._M_impl._M_end_of_storage = 0;
 128:/opt/toolchains/arm-none-eabi/bin/../lib/gcc/arm-none-eabi/4.5.2/../../../../arm-none-eabi/include/c++/4.5.2/bits/stl_vector.h ****       }
 129:/opt/toolchains/arm-none-eabi/bin/../lib/gcc/arm-none-eabi/4.5.2/../../../../arm-none-eabi/include/c++/4.5.2/bits/stl_vector.h **** #endif
 130:/opt/toolchains/arm-none-eabi/bin/../lib/gcc/arm-none-eabi/4.5.2/../../../../arm-none-eabi/include/c++/4.5.2/bits/stl_vector.h **** 
 131:/opt/toolchains/arm-none-eabi/bin/../lib/gcc/arm-none-eabi/4.5.2/../../../../arm-none-eabi/include/c++/4.5.2/bits/stl_vector.h ****       ~_Vector_base()
 132:/opt/toolchains/arm-none-eabi/bin/../lib/gcc/arm-none-eabi/4.5.2/../../../../arm-none-eabi/include/c++/4.5.2/bits/stl_vector.h ****       { _M_deallocate(this->_M_impl._M_start, this->_M_impl._M_end_of_storage
 133:/opt/toolchains/arm-none-eabi/bin/../lib/gcc/arm-none-eabi/4.5.2/../../../../arm-none-eabi/include/c++/4.5.2/bits/stl_vector.h **** 		      - this->_M_impl._M_start); }
 134:/opt/toolchains/arm-none-eabi/bin/../lib/gcc/arm-none-eabi/4.5.2/../../../../arm-none-eabi/include/c++/4.5.2/bits/stl_vector.h **** 
 135:/opt/toolchains/arm-none-eabi/bin/../lib/gcc/arm-none-eabi/4.5.2/../../../../arm-none-eabi/include/c++/4.5.2/bits/stl_vector.h ****     public:
 136:/opt/toolchains/arm-none-eabi/bin/../lib/gcc/arm-none-eabi/4.5.2/../../../../arm-none-eabi/include/c++/4.5.2/bits/stl_vector.h ****       _Vector_impl _M_impl;
 137:/opt/toolchains/arm-none-eabi/bin/../lib/gcc/arm-none-eabi/4.5.2/../../../../arm-none-eabi/include/c++/4.5.2/bits/stl_vector.h **** 
 138:/opt/toolchains/arm-none-eabi/bin/../lib/gcc/arm-none-eabi/4.5.2/../../../../arm-none-eabi/include/c++/4.5.2/bits/stl_vector.h ****       typename _Tp_alloc_type::pointer
 139:/opt/toolchains/arm-none-eabi/bin/../lib/gcc/arm-none-eabi/4.5.2/../../../../arm-none-eabi/include/c++/4.5.2/bits/stl_vector.h ****       _M_allocate(size_t __n)
 140:/opt/toolchains/arm-none-eabi/bin/../lib/gcc/arm-none-eabi/4.5.2/../../../../arm-none-eabi/include/c++/4.5.2/bits/stl_vector.h ****       { return __n != 0 ? _M_impl.allocate(__n) : 0; }
 141:/opt/toolchains/arm-none-eabi/bin/../lib/gcc/arm-none-eabi/4.5.2/../../../../arm-none-eabi/include/c++/4.5.2/bits/stl_vector.h **** 
 142:/opt/toolchains/arm-none-eabi/bin/../lib/gcc/arm-none-eabi/4.5.2/../../../../arm-none-eabi/include/c++/4.5.2/bits/stl_vector.h ****       void
 143:/opt/toolchains/arm-none-eabi/bin/../lib/gcc/arm-none-eabi/4.5.2/../../../../arm-none-eabi/include/c++/4.5.2/bits/stl_vector.h ****       _M_deallocate(typename _Tp_alloc_type::pointer __p, size_t __n)
 144:/opt/toolchains/arm-none-eabi/bin/../lib/gcc/arm-none-eabi/4.5.2/../../../../arm-none-eabi/include/c++/4.5.2/bits/stl_vector.h ****       {
 145:/opt/toolchains/arm-none-eabi/bin/../lib/gcc/arm-none-eabi/4.5.2/../../../../arm-none-eabi/include/c++/4.5.2/bits/stl_vector.h **** 	if (__p)
 146:/opt/toolchains/arm-none-eabi/bin/../lib/gcc/arm-none-eabi/4.5.2/../../../../arm-none-eabi/include/c++/4.5.2/bits/stl_vector.h **** 	  _M_impl.deallocate(__p, __n);
 147:/opt/toolchains/arm-none-eabi/bin/../lib/gcc/arm-none-eabi/4.5.2/../../../../arm-none-eabi/include/c++/4.5.2/bits/stl_vector.h ****       }
 148:/opt/toolchains/arm-none-eabi/bin/../lib/gcc/arm-none-eabi/4.5.2/../../../../arm-none-eabi/include/c++/4.5.2/bits/stl_vector.h ****     };
 149:/opt/toolchains/arm-none-eabi/bin/../lib/gcc/arm-none-eabi/4.5.2/../../../../arm-none-eabi/include/c++/4.5.2/bits/stl_vector.h **** 
 150:/opt/toolchains/arm-none-eabi/bin/../lib/gcc/arm-none-eabi/4.5.2/../../../../arm-none-eabi/include/c++/4.5.2/bits/stl_vector.h **** 
 151:/opt/toolchains/arm-none-eabi/bin/../lib/gcc/arm-none-eabi/4.5.2/../../../../arm-none-eabi/include/c++/4.5.2/bits/stl_vector.h ****   /**
 152:/opt/toolchains/arm-none-eabi/bin/../lib/gcc/arm-none-eabi/4.5.2/../../../../arm-none-eabi/include/c++/4.5.2/bits/stl_vector.h ****    *  @brief A standard container which offers fixed time access to
 153:/opt/toolchains/arm-none-eabi/bin/../lib/gcc/arm-none-eabi/4.5.2/../../../../arm-none-eabi/include/c++/4.5.2/bits/stl_vector.h ****    *  individual elements in any order.
 154:/opt/toolchains/arm-none-eabi/bin/../lib/gcc/arm-none-eabi/4.5.2/../../../../arm-none-eabi/include/c++/4.5.2/bits/stl_vector.h ****    *
 155:/opt/toolchains/arm-none-eabi/bin/../lib/gcc/arm-none-eabi/4.5.2/../../../../arm-none-eabi/include/c++/4.5.2/bits/stl_vector.h ****    *  @ingroup sequences
 156:/opt/toolchains/arm-none-eabi/bin/../lib/gcc/arm-none-eabi/4.5.2/../../../../arm-none-eabi/include/c++/4.5.2/bits/stl_vector.h ****    *
 157:/opt/toolchains/arm-none-eabi/bin/../lib/gcc/arm-none-eabi/4.5.2/../../../../arm-none-eabi/include/c++/4.5.2/bits/stl_vector.h ****    *  Meets the requirements of a <a href="tables.html#65">container</a>, a
 158:/opt/toolchains/arm-none-eabi/bin/../lib/gcc/arm-none-eabi/4.5.2/../../../../arm-none-eabi/include/c++/4.5.2/bits/stl_vector.h ****    *  <a href="tables.html#66">reversible container</a>, and a
 159:/opt/toolchains/arm-none-eabi/bin/../lib/gcc/arm-none-eabi/4.5.2/../../../../arm-none-eabi/include/c++/4.5.2/bits/stl_vector.h ****    *  <a href="tables.html#67">sequence</a>, including the
 160:/opt/toolchains/arm-none-eabi/bin/../lib/gcc/arm-none-eabi/4.5.2/../../../../arm-none-eabi/include/c++/4.5.2/bits/stl_vector.h ****    *  <a href="tables.html#68">optional sequence requirements</a> with the
 161:/opt/toolchains/arm-none-eabi/bin/../lib/gcc/arm-none-eabi/4.5.2/../../../../arm-none-eabi/include/c++/4.5.2/bits/stl_vector.h ****    *  %exception of @c push_front and @c pop_front.
 162:/opt/toolchains/arm-none-eabi/bin/../lib/gcc/arm-none-eabi/4.5.2/../../../../arm-none-eabi/include/c++/4.5.2/bits/stl_vector.h ****    *
 163:/opt/toolchains/arm-none-eabi/bin/../lib/gcc/arm-none-eabi/4.5.2/../../../../arm-none-eabi/include/c++/4.5.2/bits/stl_vector.h ****    *  In some terminology a %vector can be described as a dynamic
 164:/opt/toolchains/arm-none-eabi/bin/../lib/gcc/arm-none-eabi/4.5.2/../../../../arm-none-eabi/include/c++/4.5.2/bits/stl_vector.h ****    *  C-style array, it offers fast and efficient access to individual
 165:/opt/toolchains/arm-none-eabi/bin/../lib/gcc/arm-none-eabi/4.5.2/../../../../arm-none-eabi/include/c++/4.5.2/bits/stl_vector.h ****    *  elements in any order and saves the user from worrying about
 166:/opt/toolchains/arm-none-eabi/bin/../lib/gcc/arm-none-eabi/4.5.2/../../../../arm-none-eabi/include/c++/4.5.2/bits/stl_vector.h ****    *  memory and size allocation.  Subscripting ( @c [] ) access is
 167:/opt/toolchains/arm-none-eabi/bin/../lib/gcc/arm-none-eabi/4.5.2/../../../../arm-none-eabi/include/c++/4.5.2/bits/stl_vector.h ****    *  also provided as with C-style arrays.
 168:/opt/toolchains/arm-none-eabi/bin/../lib/gcc/arm-none-eabi/4.5.2/../../../../arm-none-eabi/include/c++/4.5.2/bits/stl_vector.h ****   */
 169:/opt/toolchains/arm-none-eabi/bin/../lib/gcc/arm-none-eabi/4.5.2/../../../../arm-none-eabi/include/c++/4.5.2/bits/stl_vector.h ****   template<typename _Tp, typename _Alloc = std::allocator<_Tp> >
 170:/opt/toolchains/arm-none-eabi/bin/../lib/gcc/arm-none-eabi/4.5.2/../../../../arm-none-eabi/include/c++/4.5.2/bits/stl_vector.h ****     class vector : protected _Vector_base<_Tp, _Alloc>
 171:/opt/toolchains/arm-none-eabi/bin/../lib/gcc/arm-none-eabi/4.5.2/../../../../arm-none-eabi/include/c++/4.5.2/bits/stl_vector.h ****     {
 172:/opt/toolchains/arm-none-eabi/bin/../lib/gcc/arm-none-eabi/4.5.2/../../../../arm-none-eabi/include/c++/4.5.2/bits/stl_vector.h ****       // Concept requirements.
 173:/opt/toolchains/arm-none-eabi/bin/../lib/gcc/arm-none-eabi/4.5.2/../../../../arm-none-eabi/include/c++/4.5.2/bits/stl_vector.h ****       typedef typename _Alloc::value_type                _Alloc_value_type;
 174:/opt/toolchains/arm-none-eabi/bin/../lib/gcc/arm-none-eabi/4.5.2/../../../../arm-none-eabi/include/c++/4.5.2/bits/stl_vector.h ****       __glibcxx_class_requires(_Tp, _SGIAssignableConcept)
 175:/opt/toolchains/arm-none-eabi/bin/../lib/gcc/arm-none-eabi/4.5.2/../../../../arm-none-eabi/include/c++/4.5.2/bits/stl_vector.h ****       __glibcxx_class_requires2(_Tp, _Alloc_value_type, _SameTypeConcept)
 176:/opt/toolchains/arm-none-eabi/bin/../lib/gcc/arm-none-eabi/4.5.2/../../../../arm-none-eabi/include/c++/4.5.2/bits/stl_vector.h ****       
 177:/opt/toolchains/arm-none-eabi/bin/../lib/gcc/arm-none-eabi/4.5.2/../../../../arm-none-eabi/include/c++/4.5.2/bits/stl_vector.h ****       typedef _Vector_base<_Tp, _Alloc>			 _Base;
 178:/opt/toolchains/arm-none-eabi/bin/../lib/gcc/arm-none-eabi/4.5.2/../../../../arm-none-eabi/include/c++/4.5.2/bits/stl_vector.h ****       typedef typename _Base::_Tp_alloc_type		 _Tp_alloc_type;
 179:/opt/toolchains/arm-none-eabi/bin/../lib/gcc/arm-none-eabi/4.5.2/../../../../arm-none-eabi/include/c++/4.5.2/bits/stl_vector.h **** 
 180:/opt/toolchains/arm-none-eabi/bin/../lib/gcc/arm-none-eabi/4.5.2/../../../../arm-none-eabi/include/c++/4.5.2/bits/stl_vector.h ****     public:
 181:/opt/toolchains/arm-none-eabi/bin/../lib/gcc/arm-none-eabi/4.5.2/../../../../arm-none-eabi/include/c++/4.5.2/bits/stl_vector.h ****       typedef _Tp					 value_type;
 182:/opt/toolchains/arm-none-eabi/bin/../lib/gcc/arm-none-eabi/4.5.2/../../../../arm-none-eabi/include/c++/4.5.2/bits/stl_vector.h ****       typedef typename _Tp_alloc_type::pointer           pointer;
 183:/opt/toolchains/arm-none-eabi/bin/../lib/gcc/arm-none-eabi/4.5.2/../../../../arm-none-eabi/include/c++/4.5.2/bits/stl_vector.h ****       typedef typename _Tp_alloc_type::const_pointer     const_pointer;
 184:/opt/toolchains/arm-none-eabi/bin/../lib/gcc/arm-none-eabi/4.5.2/../../../../arm-none-eabi/include/c++/4.5.2/bits/stl_vector.h ****       typedef typename _Tp_alloc_type::reference         reference;
 185:/opt/toolchains/arm-none-eabi/bin/../lib/gcc/arm-none-eabi/4.5.2/../../../../arm-none-eabi/include/c++/4.5.2/bits/stl_vector.h ****       typedef typename _Tp_alloc_type::const_reference   const_reference;
 186:/opt/toolchains/arm-none-eabi/bin/../lib/gcc/arm-none-eabi/4.5.2/../../../../arm-none-eabi/include/c++/4.5.2/bits/stl_vector.h ****       typedef __gnu_cxx::__normal_iterator<pointer, vector> iterator;
 187:/opt/toolchains/arm-none-eabi/bin/../lib/gcc/arm-none-eabi/4.5.2/../../../../arm-none-eabi/include/c++/4.5.2/bits/stl_vector.h ****       typedef __gnu_cxx::__normal_iterator<const_pointer, vector>
 188:/opt/toolchains/arm-none-eabi/bin/../lib/gcc/arm-none-eabi/4.5.2/../../../../arm-none-eabi/include/c++/4.5.2/bits/stl_vector.h ****       const_iterator;
 189:/opt/toolchains/arm-none-eabi/bin/../lib/gcc/arm-none-eabi/4.5.2/../../../../arm-none-eabi/include/c++/4.5.2/bits/stl_vector.h ****       typedef std::reverse_iterator<const_iterator>  const_reverse_iterator;
 190:/opt/toolchains/arm-none-eabi/bin/../lib/gcc/arm-none-eabi/4.5.2/../../../../arm-none-eabi/include/c++/4.5.2/bits/stl_vector.h ****       typedef std::reverse_iterator<iterator>		 reverse_iterator;
 191:/opt/toolchains/arm-none-eabi/bin/../lib/gcc/arm-none-eabi/4.5.2/../../../../arm-none-eabi/include/c++/4.5.2/bits/stl_vector.h ****       typedef size_t					 size_type;
 192:/opt/toolchains/arm-none-eabi/bin/../lib/gcc/arm-none-eabi/4.5.2/../../../../arm-none-eabi/include/c++/4.5.2/bits/stl_vector.h ****       typedef ptrdiff_t					 difference_type;
 193:/opt/toolchains/arm-none-eabi/bin/../lib/gcc/arm-none-eabi/4.5.2/../../../../arm-none-eabi/include/c++/4.5.2/bits/stl_vector.h ****       typedef _Alloc                        		 allocator_type;
 194:/opt/toolchains/arm-none-eabi/bin/../lib/gcc/arm-none-eabi/4.5.2/../../../../arm-none-eabi/include/c++/4.5.2/bits/stl_vector.h **** 
 195:/opt/toolchains/arm-none-eabi/bin/../lib/gcc/arm-none-eabi/4.5.2/../../../../arm-none-eabi/include/c++/4.5.2/bits/stl_vector.h ****     protected:
 196:/opt/toolchains/arm-none-eabi/bin/../lib/gcc/arm-none-eabi/4.5.2/../../../../arm-none-eabi/include/c++/4.5.2/bits/stl_vector.h ****       using _Base::_M_allocate;
 197:/opt/toolchains/arm-none-eabi/bin/../lib/gcc/arm-none-eabi/4.5.2/../../../../arm-none-eabi/include/c++/4.5.2/bits/stl_vector.h ****       using _Base::_M_deallocate;
 198:/opt/toolchains/arm-none-eabi/bin/../lib/gcc/arm-none-eabi/4.5.2/../../../../arm-none-eabi/include/c++/4.5.2/bits/stl_vector.h ****       using _Base::_M_impl;
 199:/opt/toolchains/arm-none-eabi/bin/../lib/gcc/arm-none-eabi/4.5.2/../../../../arm-none-eabi/include/c++/4.5.2/bits/stl_vector.h ****       using _Base::_M_get_Tp_allocator;
 200:/opt/toolchains/arm-none-eabi/bin/../lib/gcc/arm-none-eabi/4.5.2/../../../../arm-none-eabi/include/c++/4.5.2/bits/stl_vector.h **** 
 201:/opt/toolchains/arm-none-eabi/bin/../lib/gcc/arm-none-eabi/4.5.2/../../../../arm-none-eabi/include/c++/4.5.2/bits/stl_vector.h ****     public:
 202:/opt/toolchains/arm-none-eabi/bin/../lib/gcc/arm-none-eabi/4.5.2/../../../../arm-none-eabi/include/c++/4.5.2/bits/stl_vector.h ****       // [23.2.4.1] construct/copy/destroy
 203:/opt/toolchains/arm-none-eabi/bin/../lib/gcc/arm-none-eabi/4.5.2/../../../../arm-none-eabi/include/c++/4.5.2/bits/stl_vector.h ****       // (assign() and get_allocator() are also listed in this section)
 204:/opt/toolchains/arm-none-eabi/bin/../lib/gcc/arm-none-eabi/4.5.2/../../../../arm-none-eabi/include/c++/4.5.2/bits/stl_vector.h ****       /**
 205:/opt/toolchains/arm-none-eabi/bin/../lib/gcc/arm-none-eabi/4.5.2/../../../../arm-none-eabi/include/c++/4.5.2/bits/stl_vector.h ****        *  @brief  Default constructor creates no elements.
 206:/opt/toolchains/arm-none-eabi/bin/../lib/gcc/arm-none-eabi/4.5.2/../../../../arm-none-eabi/include/c++/4.5.2/bits/stl_vector.h ****        */
 207:/opt/toolchains/arm-none-eabi/bin/../lib/gcc/arm-none-eabi/4.5.2/../../../../arm-none-eabi/include/c++/4.5.2/bits/stl_vector.h ****       vector()
 208:/opt/toolchains/arm-none-eabi/bin/../lib/gcc/arm-none-eabi/4.5.2/../../../../arm-none-eabi/include/c++/4.5.2/bits/stl_vector.h ****       : _Base() { }
 209:/opt/toolchains/arm-none-eabi/bin/../lib/gcc/arm-none-eabi/4.5.2/../../../../arm-none-eabi/include/c++/4.5.2/bits/stl_vector.h **** 
 210:/opt/toolchains/arm-none-eabi/bin/../lib/gcc/arm-none-eabi/4.5.2/../../../../arm-none-eabi/include/c++/4.5.2/bits/stl_vector.h ****       /**
 211:/opt/toolchains/arm-none-eabi/bin/../lib/gcc/arm-none-eabi/4.5.2/../../../../arm-none-eabi/include/c++/4.5.2/bits/stl_vector.h ****        *  @brief  Creates a %vector with no elements.
 212:/opt/toolchains/arm-none-eabi/bin/../lib/gcc/arm-none-eabi/4.5.2/../../../../arm-none-eabi/include/c++/4.5.2/bits/stl_vector.h ****        *  @param  a  An allocator object.
 213:/opt/toolchains/arm-none-eabi/bin/../lib/gcc/arm-none-eabi/4.5.2/../../../../arm-none-eabi/include/c++/4.5.2/bits/stl_vector.h ****        */
 214:/opt/toolchains/arm-none-eabi/bin/../lib/gcc/arm-none-eabi/4.5.2/../../../../arm-none-eabi/include/c++/4.5.2/bits/stl_vector.h ****       explicit
 215:/opt/toolchains/arm-none-eabi/bin/../lib/gcc/arm-none-eabi/4.5.2/../../../../arm-none-eabi/include/c++/4.5.2/bits/stl_vector.h ****       vector(const allocator_type& __a)
 216:/opt/toolchains/arm-none-eabi/bin/../lib/gcc/arm-none-eabi/4.5.2/../../../../arm-none-eabi/include/c++/4.5.2/bits/stl_vector.h ****       : _Base(__a) { }
 217:/opt/toolchains/arm-none-eabi/bin/../lib/gcc/arm-none-eabi/4.5.2/../../../../arm-none-eabi/include/c++/4.5.2/bits/stl_vector.h **** 
 218:/opt/toolchains/arm-none-eabi/bin/../lib/gcc/arm-none-eabi/4.5.2/../../../../arm-none-eabi/include/c++/4.5.2/bits/stl_vector.h ****       /**
 219:/opt/toolchains/arm-none-eabi/bin/../lib/gcc/arm-none-eabi/4.5.2/../../../../arm-none-eabi/include/c++/4.5.2/bits/stl_vector.h ****        *  @brief  Creates a %vector with copies of an exemplar element.
 220:/opt/toolchains/arm-none-eabi/bin/../lib/gcc/arm-none-eabi/4.5.2/../../../../arm-none-eabi/include/c++/4.5.2/bits/stl_vector.h ****        *  @param  n  The number of elements to initially create.
 221:/opt/toolchains/arm-none-eabi/bin/../lib/gcc/arm-none-eabi/4.5.2/../../../../arm-none-eabi/include/c++/4.5.2/bits/stl_vector.h ****        *  @param  value  An element to copy.
 222:/opt/toolchains/arm-none-eabi/bin/../lib/gcc/arm-none-eabi/4.5.2/../../../../arm-none-eabi/include/c++/4.5.2/bits/stl_vector.h ****        *  @param  a  An allocator.
 223:/opt/toolchains/arm-none-eabi/bin/../lib/gcc/arm-none-eabi/4.5.2/../../../../arm-none-eabi/include/c++/4.5.2/bits/stl_vector.h ****        *
 224:/opt/toolchains/arm-none-eabi/bin/../lib/gcc/arm-none-eabi/4.5.2/../../../../arm-none-eabi/include/c++/4.5.2/bits/stl_vector.h ****        *  This constructor fills the %vector with @a n copies of @a value.
 225:/opt/toolchains/arm-none-eabi/bin/../lib/gcc/arm-none-eabi/4.5.2/../../../../arm-none-eabi/include/c++/4.5.2/bits/stl_vector.h ****        */
 226:/opt/toolchains/arm-none-eabi/bin/../lib/gcc/arm-none-eabi/4.5.2/../../../../arm-none-eabi/include/c++/4.5.2/bits/stl_vector.h ****       explicit
 227:/opt/toolchains/arm-none-eabi/bin/../lib/gcc/arm-none-eabi/4.5.2/../../../../arm-none-eabi/include/c++/4.5.2/bits/stl_vector.h ****       vector(size_type __n, const value_type& __value = value_type(),
 228:/opt/toolchains/arm-none-eabi/bin/../lib/gcc/arm-none-eabi/4.5.2/../../../../arm-none-eabi/include/c++/4.5.2/bits/stl_vector.h **** 	     const allocator_type& __a = allocator_type())
 229:/opt/toolchains/arm-none-eabi/bin/../lib/gcc/arm-none-eabi/4.5.2/../../../../arm-none-eabi/include/c++/4.5.2/bits/stl_vector.h ****       : _Base(__n, __a)
 230:/opt/toolchains/arm-none-eabi/bin/../lib/gcc/arm-none-eabi/4.5.2/../../../../arm-none-eabi/include/c++/4.5.2/bits/stl_vector.h ****       { _M_fill_initialize(__n, __value); }
 231:/opt/toolchains/arm-none-eabi/bin/../lib/gcc/arm-none-eabi/4.5.2/../../../../arm-none-eabi/include/c++/4.5.2/bits/stl_vector.h **** 
 232:/opt/toolchains/arm-none-eabi/bin/../lib/gcc/arm-none-eabi/4.5.2/../../../../arm-none-eabi/include/c++/4.5.2/bits/stl_vector.h ****       /**
 233:/opt/toolchains/arm-none-eabi/bin/../lib/gcc/arm-none-eabi/4.5.2/../../../../arm-none-eabi/include/c++/4.5.2/bits/stl_vector.h ****        *  @brief  %Vector copy constructor.
 234:/opt/toolchains/arm-none-eabi/bin/../lib/gcc/arm-none-eabi/4.5.2/../../../../arm-none-eabi/include/c++/4.5.2/bits/stl_vector.h ****        *  @param  x  A %vector of identical element and allocator types.
 235:/opt/toolchains/arm-none-eabi/bin/../lib/gcc/arm-none-eabi/4.5.2/../../../../arm-none-eabi/include/c++/4.5.2/bits/stl_vector.h ****        *
 236:/opt/toolchains/arm-none-eabi/bin/../lib/gcc/arm-none-eabi/4.5.2/../../../../arm-none-eabi/include/c++/4.5.2/bits/stl_vector.h ****        *  The newly-created %vector uses a copy of the allocation
 237:/opt/toolchains/arm-none-eabi/bin/../lib/gcc/arm-none-eabi/4.5.2/../../../../arm-none-eabi/include/c++/4.5.2/bits/stl_vector.h ****        *  object used by @a x.  All the elements of @a x are copied,
 238:/opt/toolchains/arm-none-eabi/bin/../lib/gcc/arm-none-eabi/4.5.2/../../../../arm-none-eabi/include/c++/4.5.2/bits/stl_vector.h ****        *  but any extra memory in
 239:/opt/toolchains/arm-none-eabi/bin/../lib/gcc/arm-none-eabi/4.5.2/../../../../arm-none-eabi/include/c++/4.5.2/bits/stl_vector.h ****        *  @a x (for fast expansion) will not be copied.
 240:/opt/toolchains/arm-none-eabi/bin/../lib/gcc/arm-none-eabi/4.5.2/../../../../arm-none-eabi/include/c++/4.5.2/bits/stl_vector.h ****        */
 241:/opt/toolchains/arm-none-eabi/bin/../lib/gcc/arm-none-eabi/4.5.2/../../../../arm-none-eabi/include/c++/4.5.2/bits/stl_vector.h ****       vector(const vector& __x)
 242:/opt/toolchains/arm-none-eabi/bin/../lib/gcc/arm-none-eabi/4.5.2/../../../../arm-none-eabi/include/c++/4.5.2/bits/stl_vector.h ****       : _Base(__x.size(), __x._M_get_Tp_allocator())
 243:/opt/toolchains/arm-none-eabi/bin/../lib/gcc/arm-none-eabi/4.5.2/../../../../arm-none-eabi/include/c++/4.5.2/bits/stl_vector.h ****       { this->_M_impl._M_finish =
 244:/opt/toolchains/arm-none-eabi/bin/../lib/gcc/arm-none-eabi/4.5.2/../../../../arm-none-eabi/include/c++/4.5.2/bits/stl_vector.h **** 	  std::__uninitialized_copy_a(__x.begin(), __x.end(),
 245:/opt/toolchains/arm-none-eabi/bin/../lib/gcc/arm-none-eabi/4.5.2/../../../../arm-none-eabi/include/c++/4.5.2/bits/stl_vector.h **** 				      this->_M_impl._M_start,
 246:/opt/toolchains/arm-none-eabi/bin/../lib/gcc/arm-none-eabi/4.5.2/../../../../arm-none-eabi/include/c++/4.5.2/bits/stl_vector.h **** 				      _M_get_Tp_allocator());
 247:/opt/toolchains/arm-none-eabi/bin/../lib/gcc/arm-none-eabi/4.5.2/../../../../arm-none-eabi/include/c++/4.5.2/bits/stl_vector.h ****       }
 248:/opt/toolchains/arm-none-eabi/bin/../lib/gcc/arm-none-eabi/4.5.2/../../../../arm-none-eabi/include/c++/4.5.2/bits/stl_vector.h **** 
 249:/opt/toolchains/arm-none-eabi/bin/../lib/gcc/arm-none-eabi/4.5.2/../../../../arm-none-eabi/include/c++/4.5.2/bits/stl_vector.h **** #ifdef __GXX_EXPERIMENTAL_CXX0X__
 250:/opt/toolchains/arm-none-eabi/bin/../lib/gcc/arm-none-eabi/4.5.2/../../../../arm-none-eabi/include/c++/4.5.2/bits/stl_vector.h ****       /**
 251:/opt/toolchains/arm-none-eabi/bin/../lib/gcc/arm-none-eabi/4.5.2/../../../../arm-none-eabi/include/c++/4.5.2/bits/stl_vector.h ****        *  @brief  %Vector move constructor.
 252:/opt/toolchains/arm-none-eabi/bin/../lib/gcc/arm-none-eabi/4.5.2/../../../../arm-none-eabi/include/c++/4.5.2/bits/stl_vector.h ****        *  @param  x  A %vector of identical element and allocator types.
 253:/opt/toolchains/arm-none-eabi/bin/../lib/gcc/arm-none-eabi/4.5.2/../../../../arm-none-eabi/include/c++/4.5.2/bits/stl_vector.h ****        *
 254:/opt/toolchains/arm-none-eabi/bin/../lib/gcc/arm-none-eabi/4.5.2/../../../../arm-none-eabi/include/c++/4.5.2/bits/stl_vector.h ****        *  The newly-created %vector contains the exact contents of @a x.
 255:/opt/toolchains/arm-none-eabi/bin/../lib/gcc/arm-none-eabi/4.5.2/../../../../arm-none-eabi/include/c++/4.5.2/bits/stl_vector.h ****        *  The contents of @a x are a valid, but unspecified %vector.
 256:/opt/toolchains/arm-none-eabi/bin/../lib/gcc/arm-none-eabi/4.5.2/../../../../arm-none-eabi/include/c++/4.5.2/bits/stl_vector.h ****        */
 257:/opt/toolchains/arm-none-eabi/bin/../lib/gcc/arm-none-eabi/4.5.2/../../../../arm-none-eabi/include/c++/4.5.2/bits/stl_vector.h ****       vector(vector&& __x)
 258:/opt/toolchains/arm-none-eabi/bin/../lib/gcc/arm-none-eabi/4.5.2/../../../../arm-none-eabi/include/c++/4.5.2/bits/stl_vector.h ****       : _Base(std::forward<_Base>(__x)) { }
 259:/opt/toolchains/arm-none-eabi/bin/../lib/gcc/arm-none-eabi/4.5.2/../../../../arm-none-eabi/include/c++/4.5.2/bits/stl_vector.h **** 
 260:/opt/toolchains/arm-none-eabi/bin/../lib/gcc/arm-none-eabi/4.5.2/../../../../arm-none-eabi/include/c++/4.5.2/bits/stl_vector.h ****       /**
 261:/opt/toolchains/arm-none-eabi/bin/../lib/gcc/arm-none-eabi/4.5.2/../../../../arm-none-eabi/include/c++/4.5.2/bits/stl_vector.h ****        *  @brief  Builds a %vector from an initializer list.
 262:/opt/toolchains/arm-none-eabi/bin/../lib/gcc/arm-none-eabi/4.5.2/../../../../arm-none-eabi/include/c++/4.5.2/bits/stl_vector.h ****        *  @param  l  An initializer_list.
 263:/opt/toolchains/arm-none-eabi/bin/../lib/gcc/arm-none-eabi/4.5.2/../../../../arm-none-eabi/include/c++/4.5.2/bits/stl_vector.h ****        *  @param  a  An allocator.
 264:/opt/toolchains/arm-none-eabi/bin/../lib/gcc/arm-none-eabi/4.5.2/../../../../arm-none-eabi/include/c++/4.5.2/bits/stl_vector.h ****        *
 265:/opt/toolchains/arm-none-eabi/bin/../lib/gcc/arm-none-eabi/4.5.2/../../../../arm-none-eabi/include/c++/4.5.2/bits/stl_vector.h ****        *  Create a %vector consisting of copies of the elements in the
 266:/opt/toolchains/arm-none-eabi/bin/../lib/gcc/arm-none-eabi/4.5.2/../../../../arm-none-eabi/include/c++/4.5.2/bits/stl_vector.h ****        *  initializer_list @a l.
 267:/opt/toolchains/arm-none-eabi/bin/../lib/gcc/arm-none-eabi/4.5.2/../../../../arm-none-eabi/include/c++/4.5.2/bits/stl_vector.h ****        *
 268:/opt/toolchains/arm-none-eabi/bin/../lib/gcc/arm-none-eabi/4.5.2/../../../../arm-none-eabi/include/c++/4.5.2/bits/stl_vector.h ****        *  This will call the element type's copy constructor N times
 269:/opt/toolchains/arm-none-eabi/bin/../lib/gcc/arm-none-eabi/4.5.2/../../../../arm-none-eabi/include/c++/4.5.2/bits/stl_vector.h ****        *  (where N is @a l.size()) and do no memory reallocation.
 270:/opt/toolchains/arm-none-eabi/bin/../lib/gcc/arm-none-eabi/4.5.2/../../../../arm-none-eabi/include/c++/4.5.2/bits/stl_vector.h ****        */
 271:/opt/toolchains/arm-none-eabi/bin/../lib/gcc/arm-none-eabi/4.5.2/../../../../arm-none-eabi/include/c++/4.5.2/bits/stl_vector.h ****       vector(initializer_list<value_type> __l,
 272:/opt/toolchains/arm-none-eabi/bin/../lib/gcc/arm-none-eabi/4.5.2/../../../../arm-none-eabi/include/c++/4.5.2/bits/stl_vector.h **** 	     const allocator_type& __a = allocator_type())
 273:/opt/toolchains/arm-none-eabi/bin/../lib/gcc/arm-none-eabi/4.5.2/../../../../arm-none-eabi/include/c++/4.5.2/bits/stl_vector.h ****       : _Base(__a)
 274:/opt/toolchains/arm-none-eabi/bin/../lib/gcc/arm-none-eabi/4.5.2/../../../../arm-none-eabi/include/c++/4.5.2/bits/stl_vector.h ****       {
 275:/opt/toolchains/arm-none-eabi/bin/../lib/gcc/arm-none-eabi/4.5.2/../../../../arm-none-eabi/include/c++/4.5.2/bits/stl_vector.h **** 	_M_range_initialize(__l.begin(), __l.end(),
 276:/opt/toolchains/arm-none-eabi/bin/../lib/gcc/arm-none-eabi/4.5.2/../../../../arm-none-eabi/include/c++/4.5.2/bits/stl_vector.h **** 			    random_access_iterator_tag());
 277:/opt/toolchains/arm-none-eabi/bin/../lib/gcc/arm-none-eabi/4.5.2/../../../../arm-none-eabi/include/c++/4.5.2/bits/stl_vector.h ****       }
 278:/opt/toolchains/arm-none-eabi/bin/../lib/gcc/arm-none-eabi/4.5.2/../../../../arm-none-eabi/include/c++/4.5.2/bits/stl_vector.h **** #endif
 279:/opt/toolchains/arm-none-eabi/bin/../lib/gcc/arm-none-eabi/4.5.2/../../../../arm-none-eabi/include/c++/4.5.2/bits/stl_vector.h **** 
 280:/opt/toolchains/arm-none-eabi/bin/../lib/gcc/arm-none-eabi/4.5.2/../../../../arm-none-eabi/include/c++/4.5.2/bits/stl_vector.h ****       /**
 281:/opt/toolchains/arm-none-eabi/bin/../lib/gcc/arm-none-eabi/4.5.2/../../../../arm-none-eabi/include/c++/4.5.2/bits/stl_vector.h ****        *  @brief  Builds a %vector from a range.
 282:/opt/toolchains/arm-none-eabi/bin/../lib/gcc/arm-none-eabi/4.5.2/../../../../arm-none-eabi/include/c++/4.5.2/bits/stl_vector.h ****        *  @param  first  An input iterator.
 283:/opt/toolchains/arm-none-eabi/bin/../lib/gcc/arm-none-eabi/4.5.2/../../../../arm-none-eabi/include/c++/4.5.2/bits/stl_vector.h ****        *  @param  last  An input iterator.
 284:/opt/toolchains/arm-none-eabi/bin/../lib/gcc/arm-none-eabi/4.5.2/../../../../arm-none-eabi/include/c++/4.5.2/bits/stl_vector.h ****        *  @param  a  An allocator.
 285:/opt/toolchains/arm-none-eabi/bin/../lib/gcc/arm-none-eabi/4.5.2/../../../../arm-none-eabi/include/c++/4.5.2/bits/stl_vector.h ****        *
 286:/opt/toolchains/arm-none-eabi/bin/../lib/gcc/arm-none-eabi/4.5.2/../../../../arm-none-eabi/include/c++/4.5.2/bits/stl_vector.h ****        *  Create a %vector consisting of copies of the elements from
 287:/opt/toolchains/arm-none-eabi/bin/../lib/gcc/arm-none-eabi/4.5.2/../../../../arm-none-eabi/include/c++/4.5.2/bits/stl_vector.h ****        *  [first,last).
 288:/opt/toolchains/arm-none-eabi/bin/../lib/gcc/arm-none-eabi/4.5.2/../../../../arm-none-eabi/include/c++/4.5.2/bits/stl_vector.h ****        *
 289:/opt/toolchains/arm-none-eabi/bin/../lib/gcc/arm-none-eabi/4.5.2/../../../../arm-none-eabi/include/c++/4.5.2/bits/stl_vector.h ****        *  If the iterators are forward, bidirectional, or
 290:/opt/toolchains/arm-none-eabi/bin/../lib/gcc/arm-none-eabi/4.5.2/../../../../arm-none-eabi/include/c++/4.5.2/bits/stl_vector.h ****        *  random-access, then this will call the elements' copy
 291:/opt/toolchains/arm-none-eabi/bin/../lib/gcc/arm-none-eabi/4.5.2/../../../../arm-none-eabi/include/c++/4.5.2/bits/stl_vector.h ****        *  constructor N times (where N is distance(first,last)) and do
 292:/opt/toolchains/arm-none-eabi/bin/../lib/gcc/arm-none-eabi/4.5.2/../../../../arm-none-eabi/include/c++/4.5.2/bits/stl_vector.h ****        *  no memory reallocation.  But if only input iterators are
 293:/opt/toolchains/arm-none-eabi/bin/../lib/gcc/arm-none-eabi/4.5.2/../../../../arm-none-eabi/include/c++/4.5.2/bits/stl_vector.h ****        *  used, then this will do at most 2N calls to the copy
 294:/opt/toolchains/arm-none-eabi/bin/../lib/gcc/arm-none-eabi/4.5.2/../../../../arm-none-eabi/include/c++/4.5.2/bits/stl_vector.h ****        *  constructor, and logN memory reallocations.
 295:/opt/toolchains/arm-none-eabi/bin/../lib/gcc/arm-none-eabi/4.5.2/../../../../arm-none-eabi/include/c++/4.5.2/bits/stl_vector.h ****        */
 296:/opt/toolchains/arm-none-eabi/bin/../lib/gcc/arm-none-eabi/4.5.2/../../../../arm-none-eabi/include/c++/4.5.2/bits/stl_vector.h ****       template<typename _InputIterator>
 297:/opt/toolchains/arm-none-eabi/bin/../lib/gcc/arm-none-eabi/4.5.2/../../../../arm-none-eabi/include/c++/4.5.2/bits/stl_vector.h ****         vector(_InputIterator __first, _InputIterator __last,
 298:/opt/toolchains/arm-none-eabi/bin/../lib/gcc/arm-none-eabi/4.5.2/../../../../arm-none-eabi/include/c++/4.5.2/bits/stl_vector.h **** 	       const allocator_type& __a = allocator_type())
 299:/opt/toolchains/arm-none-eabi/bin/../lib/gcc/arm-none-eabi/4.5.2/../../../../arm-none-eabi/include/c++/4.5.2/bits/stl_vector.h **** 	: _Base(__a)
 300:/opt/toolchains/arm-none-eabi/bin/../lib/gcc/arm-none-eabi/4.5.2/../../../../arm-none-eabi/include/c++/4.5.2/bits/stl_vector.h ****         {
 301:/opt/toolchains/arm-none-eabi/bin/../lib/gcc/arm-none-eabi/4.5.2/../../../../arm-none-eabi/include/c++/4.5.2/bits/stl_vector.h **** 	  // Check whether it's an integral type.  If so, it's not an iterator.
 302:/opt/toolchains/arm-none-eabi/bin/../lib/gcc/arm-none-eabi/4.5.2/../../../../arm-none-eabi/include/c++/4.5.2/bits/stl_vector.h **** 	  typedef typename std::__is_integer<_InputIterator>::__type _Integral;
 303:/opt/toolchains/arm-none-eabi/bin/../lib/gcc/arm-none-eabi/4.5.2/../../../../arm-none-eabi/include/c++/4.5.2/bits/stl_vector.h **** 	  _M_initialize_dispatch(__first, __last, _Integral());
 304:/opt/toolchains/arm-none-eabi/bin/../lib/gcc/arm-none-eabi/4.5.2/../../../../arm-none-eabi/include/c++/4.5.2/bits/stl_vector.h **** 	}
 305:/opt/toolchains/arm-none-eabi/bin/../lib/gcc/arm-none-eabi/4.5.2/../../../../arm-none-eabi/include/c++/4.5.2/bits/stl_vector.h **** 
 306:/opt/toolchains/arm-none-eabi/bin/../lib/gcc/arm-none-eabi/4.5.2/../../../../arm-none-eabi/include/c++/4.5.2/bits/stl_vector.h ****       /**
 307:/opt/toolchains/arm-none-eabi/bin/../lib/gcc/arm-none-eabi/4.5.2/../../../../arm-none-eabi/include/c++/4.5.2/bits/stl_vector.h ****        *  The dtor only erases the elements, and note that if the
 308:/opt/toolchains/arm-none-eabi/bin/../lib/gcc/arm-none-eabi/4.5.2/../../../../arm-none-eabi/include/c++/4.5.2/bits/stl_vector.h ****        *  elements themselves are pointers, the pointed-to memory is
 309:/opt/toolchains/arm-none-eabi/bin/../lib/gcc/arm-none-eabi/4.5.2/../../../../arm-none-eabi/include/c++/4.5.2/bits/stl_vector.h ****        *  not touched in any way.  Managing the pointer is the user's
 310:/opt/toolchains/arm-none-eabi/bin/../lib/gcc/arm-none-eabi/4.5.2/../../../../arm-none-eabi/include/c++/4.5.2/bits/stl_vector.h ****        *  responsibility.
 311:/opt/toolchains/arm-none-eabi/bin/../lib/gcc/arm-none-eabi/4.5.2/../../../../arm-none-eabi/include/c++/4.5.2/bits/stl_vector.h ****        */
 312:/opt/toolchains/arm-none-eabi/bin/../lib/gcc/arm-none-eabi/4.5.2/../../../../arm-none-eabi/include/c++/4.5.2/bits/stl_vector.h ****       ~vector()
 313:/opt/toolchains/arm-none-eabi/bin/../lib/gcc/arm-none-eabi/4.5.2/../../../../arm-none-eabi/include/c++/4.5.2/bits/stl_vector.h ****       { std::_Destroy(this->_M_impl._M_start, this->_M_impl._M_finish,
 314:/opt/toolchains/arm-none-eabi/bin/../lib/gcc/arm-none-eabi/4.5.2/../../../../arm-none-eabi/include/c++/4.5.2/bits/stl_vector.h **** 		      _M_get_Tp_allocator()); }
 315:/opt/toolchains/arm-none-eabi/bin/../lib/gcc/arm-none-eabi/4.5.2/../../../../arm-none-eabi/include/c++/4.5.2/bits/stl_vector.h **** 
 316:/opt/toolchains/arm-none-eabi/bin/../lib/gcc/arm-none-eabi/4.5.2/../../../../arm-none-eabi/include/c++/4.5.2/bits/stl_vector.h ****       /**
 317:/opt/toolchains/arm-none-eabi/bin/../lib/gcc/arm-none-eabi/4.5.2/../../../../arm-none-eabi/include/c++/4.5.2/bits/stl_vector.h ****        *  @brief  %Vector assignment operator.
 318:/opt/toolchains/arm-none-eabi/bin/../lib/gcc/arm-none-eabi/4.5.2/../../../../arm-none-eabi/include/c++/4.5.2/bits/stl_vector.h ****        *  @param  x  A %vector of identical element and allocator types.
 319:/opt/toolchains/arm-none-eabi/bin/../lib/gcc/arm-none-eabi/4.5.2/../../../../arm-none-eabi/include/c++/4.5.2/bits/stl_vector.h ****        *
 320:/opt/toolchains/arm-none-eabi/bin/../lib/gcc/arm-none-eabi/4.5.2/../../../../arm-none-eabi/include/c++/4.5.2/bits/stl_vector.h ****        *  All the elements of @a x are copied, but any extra memory in
 321:/opt/toolchains/arm-none-eabi/bin/../lib/gcc/arm-none-eabi/4.5.2/../../../../arm-none-eabi/include/c++/4.5.2/bits/stl_vector.h ****        *  @a x (for fast expansion) will not be copied.  Unlike the
 322:/opt/toolchains/arm-none-eabi/bin/../lib/gcc/arm-none-eabi/4.5.2/../../../../arm-none-eabi/include/c++/4.5.2/bits/stl_vector.h ****        *  copy constructor, the allocator object is not copied.
 323:/opt/toolchains/arm-none-eabi/bin/../lib/gcc/arm-none-eabi/4.5.2/../../../../arm-none-eabi/include/c++/4.5.2/bits/stl_vector.h ****        */
 324:/opt/toolchains/arm-none-eabi/bin/../lib/gcc/arm-none-eabi/4.5.2/../../../../arm-none-eabi/include/c++/4.5.2/bits/stl_vector.h ****       vector&
 325:/opt/toolchains/arm-none-eabi/bin/../lib/gcc/arm-none-eabi/4.5.2/../../../../arm-none-eabi/include/c++/4.5.2/bits/stl_vector.h ****       operator=(const vector& __x);
 326:/opt/toolchains/arm-none-eabi/bin/../lib/gcc/arm-none-eabi/4.5.2/../../../../arm-none-eabi/include/c++/4.5.2/bits/stl_vector.h **** 
 327:/opt/toolchains/arm-none-eabi/bin/../lib/gcc/arm-none-eabi/4.5.2/../../../../arm-none-eabi/include/c++/4.5.2/bits/stl_vector.h **** #ifdef __GXX_EXPERIMENTAL_CXX0X__
 328:/opt/toolchains/arm-none-eabi/bin/../lib/gcc/arm-none-eabi/4.5.2/../../../../arm-none-eabi/include/c++/4.5.2/bits/stl_vector.h ****       /**
 329:/opt/toolchains/arm-none-eabi/bin/../lib/gcc/arm-none-eabi/4.5.2/../../../../arm-none-eabi/include/c++/4.5.2/bits/stl_vector.h ****        *  @brief  %Vector move assignment operator.
 330:/opt/toolchains/arm-none-eabi/bin/../lib/gcc/arm-none-eabi/4.5.2/../../../../arm-none-eabi/include/c++/4.5.2/bits/stl_vector.h ****        *  @param  x  A %vector of identical element and allocator types.
 331:/opt/toolchains/arm-none-eabi/bin/../lib/gcc/arm-none-eabi/4.5.2/../../../../arm-none-eabi/include/c++/4.5.2/bits/stl_vector.h ****        *
 332:/opt/toolchains/arm-none-eabi/bin/../lib/gcc/arm-none-eabi/4.5.2/../../../../arm-none-eabi/include/c++/4.5.2/bits/stl_vector.h ****        *  The contents of @a x are moved into this %vector (without copying).
 333:/opt/toolchains/arm-none-eabi/bin/../lib/gcc/arm-none-eabi/4.5.2/../../../../arm-none-eabi/include/c++/4.5.2/bits/stl_vector.h ****        *  @a x is a valid, but unspecified %vector.
 334:/opt/toolchains/arm-none-eabi/bin/../lib/gcc/arm-none-eabi/4.5.2/../../../../arm-none-eabi/include/c++/4.5.2/bits/stl_vector.h ****        */
 335:/opt/toolchains/arm-none-eabi/bin/../lib/gcc/arm-none-eabi/4.5.2/../../../../arm-none-eabi/include/c++/4.5.2/bits/stl_vector.h ****       vector&
 336:/opt/toolchains/arm-none-eabi/bin/../lib/gcc/arm-none-eabi/4.5.2/../../../../arm-none-eabi/include/c++/4.5.2/bits/stl_vector.h ****       operator=(vector&& __x)
 337:/opt/toolchains/arm-none-eabi/bin/../lib/gcc/arm-none-eabi/4.5.2/../../../../arm-none-eabi/include/c++/4.5.2/bits/stl_vector.h ****       {
 338:/opt/toolchains/arm-none-eabi/bin/../lib/gcc/arm-none-eabi/4.5.2/../../../../arm-none-eabi/include/c++/4.5.2/bits/stl_vector.h **** 	// NB: DR 1204.
 339:/opt/toolchains/arm-none-eabi/bin/../lib/gcc/arm-none-eabi/4.5.2/../../../../arm-none-eabi/include/c++/4.5.2/bits/stl_vector.h **** 	// NB: DR 675.
 340:/opt/toolchains/arm-none-eabi/bin/../lib/gcc/arm-none-eabi/4.5.2/../../../../arm-none-eabi/include/c++/4.5.2/bits/stl_vector.h **** 	this->clear();
 341:/opt/toolchains/arm-none-eabi/bin/../lib/gcc/arm-none-eabi/4.5.2/../../../../arm-none-eabi/include/c++/4.5.2/bits/stl_vector.h **** 	this->swap(__x);
 342:/opt/toolchains/arm-none-eabi/bin/../lib/gcc/arm-none-eabi/4.5.2/../../../../arm-none-eabi/include/c++/4.5.2/bits/stl_vector.h **** 	return *this;
 343:/opt/toolchains/arm-none-eabi/bin/../lib/gcc/arm-none-eabi/4.5.2/../../../../arm-none-eabi/include/c++/4.5.2/bits/stl_vector.h ****       }
 344:/opt/toolchains/arm-none-eabi/bin/../lib/gcc/arm-none-eabi/4.5.2/../../../../arm-none-eabi/include/c++/4.5.2/bits/stl_vector.h **** 
 345:/opt/toolchains/arm-none-eabi/bin/../lib/gcc/arm-none-eabi/4.5.2/../../../../arm-none-eabi/include/c++/4.5.2/bits/stl_vector.h ****       /**
 346:/opt/toolchains/arm-none-eabi/bin/../lib/gcc/arm-none-eabi/4.5.2/../../../../arm-none-eabi/include/c++/4.5.2/bits/stl_vector.h ****        *  @brief  %Vector list assignment operator.
 347:/opt/toolchains/arm-none-eabi/bin/../lib/gcc/arm-none-eabi/4.5.2/../../../../arm-none-eabi/include/c++/4.5.2/bits/stl_vector.h ****        *  @param  l  An initializer_list.
 348:/opt/toolchains/arm-none-eabi/bin/../lib/gcc/arm-none-eabi/4.5.2/../../../../arm-none-eabi/include/c++/4.5.2/bits/stl_vector.h ****        *
 349:/opt/toolchains/arm-none-eabi/bin/../lib/gcc/arm-none-eabi/4.5.2/../../../../arm-none-eabi/include/c++/4.5.2/bits/stl_vector.h ****        *  This function fills a %vector with copies of the elements in the
 350:/opt/toolchains/arm-none-eabi/bin/../lib/gcc/arm-none-eabi/4.5.2/../../../../arm-none-eabi/include/c++/4.5.2/bits/stl_vector.h ****        *  initializer list @a l.
 351:/opt/toolchains/arm-none-eabi/bin/../lib/gcc/arm-none-eabi/4.5.2/../../../../arm-none-eabi/include/c++/4.5.2/bits/stl_vector.h ****        *
 352:/opt/toolchains/arm-none-eabi/bin/../lib/gcc/arm-none-eabi/4.5.2/../../../../arm-none-eabi/include/c++/4.5.2/bits/stl_vector.h ****        *  Note that the assignment completely changes the %vector and
 353:/opt/toolchains/arm-none-eabi/bin/../lib/gcc/arm-none-eabi/4.5.2/../../../../arm-none-eabi/include/c++/4.5.2/bits/stl_vector.h ****        *  that the resulting %vector's size is the same as the number
 354:/opt/toolchains/arm-none-eabi/bin/../lib/gcc/arm-none-eabi/4.5.2/../../../../arm-none-eabi/include/c++/4.5.2/bits/stl_vector.h ****        *  of elements assigned.  Old data may be lost.
 355:/opt/toolchains/arm-none-eabi/bin/../lib/gcc/arm-none-eabi/4.5.2/../../../../arm-none-eabi/include/c++/4.5.2/bits/stl_vector.h ****        */
 356:/opt/toolchains/arm-none-eabi/bin/../lib/gcc/arm-none-eabi/4.5.2/../../../../arm-none-eabi/include/c++/4.5.2/bits/stl_vector.h ****       vector&
 357:/opt/toolchains/arm-none-eabi/bin/../lib/gcc/arm-none-eabi/4.5.2/../../../../arm-none-eabi/include/c++/4.5.2/bits/stl_vector.h ****       operator=(initializer_list<value_type> __l)
 358:/opt/toolchains/arm-none-eabi/bin/../lib/gcc/arm-none-eabi/4.5.2/../../../../arm-none-eabi/include/c++/4.5.2/bits/stl_vector.h ****       {
 359:/opt/toolchains/arm-none-eabi/bin/../lib/gcc/arm-none-eabi/4.5.2/../../../../arm-none-eabi/include/c++/4.5.2/bits/stl_vector.h **** 	this->assign(__l.begin(), __l.end());
 360:/opt/toolchains/arm-none-eabi/bin/../lib/gcc/arm-none-eabi/4.5.2/../../../../arm-none-eabi/include/c++/4.5.2/bits/stl_vector.h **** 	return *this;
 361:/opt/toolchains/arm-none-eabi/bin/../lib/gcc/arm-none-eabi/4.5.2/../../../../arm-none-eabi/include/c++/4.5.2/bits/stl_vector.h ****       }
 362:/opt/toolchains/arm-none-eabi/bin/../lib/gcc/arm-none-eabi/4.5.2/../../../../arm-none-eabi/include/c++/4.5.2/bits/stl_vector.h **** #endif
 363:/opt/toolchains/arm-none-eabi/bin/../lib/gcc/arm-none-eabi/4.5.2/../../../../arm-none-eabi/include/c++/4.5.2/bits/stl_vector.h **** 
 364:/opt/toolchains/arm-none-eabi/bin/../lib/gcc/arm-none-eabi/4.5.2/../../../../arm-none-eabi/include/c++/4.5.2/bits/stl_vector.h ****       /**
 365:/opt/toolchains/arm-none-eabi/bin/../lib/gcc/arm-none-eabi/4.5.2/../../../../arm-none-eabi/include/c++/4.5.2/bits/stl_vector.h ****        *  @brief  Assigns a given value to a %vector.
 366:/opt/toolchains/arm-none-eabi/bin/../lib/gcc/arm-none-eabi/4.5.2/../../../../arm-none-eabi/include/c++/4.5.2/bits/stl_vector.h ****        *  @param  n  Number of elements to be assigned.
 367:/opt/toolchains/arm-none-eabi/bin/../lib/gcc/arm-none-eabi/4.5.2/../../../../arm-none-eabi/include/c++/4.5.2/bits/stl_vector.h ****        *  @param  val  Value to be assigned.
 368:/opt/toolchains/arm-none-eabi/bin/../lib/gcc/arm-none-eabi/4.5.2/../../../../arm-none-eabi/include/c++/4.5.2/bits/stl_vector.h ****        *
 369:/opt/toolchains/arm-none-eabi/bin/../lib/gcc/arm-none-eabi/4.5.2/../../../../arm-none-eabi/include/c++/4.5.2/bits/stl_vector.h ****        *  This function fills a %vector with @a n copies of the given
 370:/opt/toolchains/arm-none-eabi/bin/../lib/gcc/arm-none-eabi/4.5.2/../../../../arm-none-eabi/include/c++/4.5.2/bits/stl_vector.h ****        *  value.  Note that the assignment completely changes the
 371:/opt/toolchains/arm-none-eabi/bin/../lib/gcc/arm-none-eabi/4.5.2/../../../../arm-none-eabi/include/c++/4.5.2/bits/stl_vector.h ****        *  %vector and that the resulting %vector's size is the same as
 372:/opt/toolchains/arm-none-eabi/bin/../lib/gcc/arm-none-eabi/4.5.2/../../../../arm-none-eabi/include/c++/4.5.2/bits/stl_vector.h ****        *  the number of elements assigned.  Old data may be lost.
 373:/opt/toolchains/arm-none-eabi/bin/../lib/gcc/arm-none-eabi/4.5.2/../../../../arm-none-eabi/include/c++/4.5.2/bits/stl_vector.h ****        */
 374:/opt/toolchains/arm-none-eabi/bin/../lib/gcc/arm-none-eabi/4.5.2/../../../../arm-none-eabi/include/c++/4.5.2/bits/stl_vector.h ****       void
 375:/opt/toolchains/arm-none-eabi/bin/../lib/gcc/arm-none-eabi/4.5.2/../../../../arm-none-eabi/include/c++/4.5.2/bits/stl_vector.h ****       assign(size_type __n, const value_type& __val)
 376:/opt/toolchains/arm-none-eabi/bin/../lib/gcc/arm-none-eabi/4.5.2/../../../../arm-none-eabi/include/c++/4.5.2/bits/stl_vector.h ****       { _M_fill_assign(__n, __val); }
 377:/opt/toolchains/arm-none-eabi/bin/../lib/gcc/arm-none-eabi/4.5.2/../../../../arm-none-eabi/include/c++/4.5.2/bits/stl_vector.h **** 
 378:/opt/toolchains/arm-none-eabi/bin/../lib/gcc/arm-none-eabi/4.5.2/../../../../arm-none-eabi/include/c++/4.5.2/bits/stl_vector.h ****       /**
 379:/opt/toolchains/arm-none-eabi/bin/../lib/gcc/arm-none-eabi/4.5.2/../../../../arm-none-eabi/include/c++/4.5.2/bits/stl_vector.h ****        *  @brief  Assigns a range to a %vector.
 380:/opt/toolchains/arm-none-eabi/bin/../lib/gcc/arm-none-eabi/4.5.2/../../../../arm-none-eabi/include/c++/4.5.2/bits/stl_vector.h ****        *  @param  first  An input iterator.
 381:/opt/toolchains/arm-none-eabi/bin/../lib/gcc/arm-none-eabi/4.5.2/../../../../arm-none-eabi/include/c++/4.5.2/bits/stl_vector.h ****        *  @param  last   An input iterator.
 382:/opt/toolchains/arm-none-eabi/bin/../lib/gcc/arm-none-eabi/4.5.2/../../../../arm-none-eabi/include/c++/4.5.2/bits/stl_vector.h ****        *
 383:/opt/toolchains/arm-none-eabi/bin/../lib/gcc/arm-none-eabi/4.5.2/../../../../arm-none-eabi/include/c++/4.5.2/bits/stl_vector.h ****        *  This function fills a %vector with copies of the elements in the
 384:/opt/toolchains/arm-none-eabi/bin/../lib/gcc/arm-none-eabi/4.5.2/../../../../arm-none-eabi/include/c++/4.5.2/bits/stl_vector.h ****        *  range [first,last).
 385:/opt/toolchains/arm-none-eabi/bin/../lib/gcc/arm-none-eabi/4.5.2/../../../../arm-none-eabi/include/c++/4.5.2/bits/stl_vector.h ****        *
 386:/opt/toolchains/arm-none-eabi/bin/../lib/gcc/arm-none-eabi/4.5.2/../../../../arm-none-eabi/include/c++/4.5.2/bits/stl_vector.h ****        *  Note that the assignment completely changes the %vector and
 387:/opt/toolchains/arm-none-eabi/bin/../lib/gcc/arm-none-eabi/4.5.2/../../../../arm-none-eabi/include/c++/4.5.2/bits/stl_vector.h ****        *  that the resulting %vector's size is the same as the number
 388:/opt/toolchains/arm-none-eabi/bin/../lib/gcc/arm-none-eabi/4.5.2/../../../../arm-none-eabi/include/c++/4.5.2/bits/stl_vector.h ****        *  of elements assigned.  Old data may be lost.
 389:/opt/toolchains/arm-none-eabi/bin/../lib/gcc/arm-none-eabi/4.5.2/../../../../arm-none-eabi/include/c++/4.5.2/bits/stl_vector.h ****        */
 390:/opt/toolchains/arm-none-eabi/bin/../lib/gcc/arm-none-eabi/4.5.2/../../../../arm-none-eabi/include/c++/4.5.2/bits/stl_vector.h ****       template<typename _InputIterator>
 391:/opt/toolchains/arm-none-eabi/bin/../lib/gcc/arm-none-eabi/4.5.2/../../../../arm-none-eabi/include/c++/4.5.2/bits/stl_vector.h ****         void
 392:/opt/toolchains/arm-none-eabi/bin/../lib/gcc/arm-none-eabi/4.5.2/../../../../arm-none-eabi/include/c++/4.5.2/bits/stl_vector.h ****         assign(_InputIterator __first, _InputIterator __last)
 393:/opt/toolchains/arm-none-eabi/bin/../lib/gcc/arm-none-eabi/4.5.2/../../../../arm-none-eabi/include/c++/4.5.2/bits/stl_vector.h ****         {
 394:/opt/toolchains/arm-none-eabi/bin/../lib/gcc/arm-none-eabi/4.5.2/../../../../arm-none-eabi/include/c++/4.5.2/bits/stl_vector.h **** 	  // Check whether it's an integral type.  If so, it's not an iterator.
 395:/opt/toolchains/arm-none-eabi/bin/../lib/gcc/arm-none-eabi/4.5.2/../../../../arm-none-eabi/include/c++/4.5.2/bits/stl_vector.h **** 	  typedef typename std::__is_integer<_InputIterator>::__type _Integral;
 396:/opt/toolchains/arm-none-eabi/bin/../lib/gcc/arm-none-eabi/4.5.2/../../../../arm-none-eabi/include/c++/4.5.2/bits/stl_vector.h **** 	  _M_assign_dispatch(__first, __last, _Integral());
 397:/opt/toolchains/arm-none-eabi/bin/../lib/gcc/arm-none-eabi/4.5.2/../../../../arm-none-eabi/include/c++/4.5.2/bits/stl_vector.h **** 	}
 398:/opt/toolchains/arm-none-eabi/bin/../lib/gcc/arm-none-eabi/4.5.2/../../../../arm-none-eabi/include/c++/4.5.2/bits/stl_vector.h **** 
 399:/opt/toolchains/arm-none-eabi/bin/../lib/gcc/arm-none-eabi/4.5.2/../../../../arm-none-eabi/include/c++/4.5.2/bits/stl_vector.h **** #ifdef __GXX_EXPERIMENTAL_CXX0X__
 400:/opt/toolchains/arm-none-eabi/bin/../lib/gcc/arm-none-eabi/4.5.2/../../../../arm-none-eabi/include/c++/4.5.2/bits/stl_vector.h ****       /**
 401:/opt/toolchains/arm-none-eabi/bin/../lib/gcc/arm-none-eabi/4.5.2/../../../../arm-none-eabi/include/c++/4.5.2/bits/stl_vector.h ****        *  @brief  Assigns an initializer list to a %vector.
 402:/opt/toolchains/arm-none-eabi/bin/../lib/gcc/arm-none-eabi/4.5.2/../../../../arm-none-eabi/include/c++/4.5.2/bits/stl_vector.h ****        *  @param  l  An initializer_list.
 403:/opt/toolchains/arm-none-eabi/bin/../lib/gcc/arm-none-eabi/4.5.2/../../../../arm-none-eabi/include/c++/4.5.2/bits/stl_vector.h ****        *
 404:/opt/toolchains/arm-none-eabi/bin/../lib/gcc/arm-none-eabi/4.5.2/../../../../arm-none-eabi/include/c++/4.5.2/bits/stl_vector.h ****        *  This function fills a %vector with copies of the elements in the
 405:/opt/toolchains/arm-none-eabi/bin/../lib/gcc/arm-none-eabi/4.5.2/../../../../arm-none-eabi/include/c++/4.5.2/bits/stl_vector.h ****        *  initializer list @a l.
 406:/opt/toolchains/arm-none-eabi/bin/../lib/gcc/arm-none-eabi/4.5.2/../../../../arm-none-eabi/include/c++/4.5.2/bits/stl_vector.h ****        *
 407:/opt/toolchains/arm-none-eabi/bin/../lib/gcc/arm-none-eabi/4.5.2/../../../../arm-none-eabi/include/c++/4.5.2/bits/stl_vector.h ****        *  Note that the assignment completely changes the %vector and
 408:/opt/toolchains/arm-none-eabi/bin/../lib/gcc/arm-none-eabi/4.5.2/../../../../arm-none-eabi/include/c++/4.5.2/bits/stl_vector.h ****        *  that the resulting %vector's size is the same as the number
 409:/opt/toolchains/arm-none-eabi/bin/../lib/gcc/arm-none-eabi/4.5.2/../../../../arm-none-eabi/include/c++/4.5.2/bits/stl_vector.h ****        *  of elements assigned.  Old data may be lost.
 410:/opt/toolchains/arm-none-eabi/bin/../lib/gcc/arm-none-eabi/4.5.2/../../../../arm-none-eabi/include/c++/4.5.2/bits/stl_vector.h ****        */
 411:/opt/toolchains/arm-none-eabi/bin/../lib/gcc/arm-none-eabi/4.5.2/../../../../arm-none-eabi/include/c++/4.5.2/bits/stl_vector.h ****       void
 412:/opt/toolchains/arm-none-eabi/bin/../lib/gcc/arm-none-eabi/4.5.2/../../../../arm-none-eabi/include/c++/4.5.2/bits/stl_vector.h ****       assign(initializer_list<value_type> __l)
 413:/opt/toolchains/arm-none-eabi/bin/../lib/gcc/arm-none-eabi/4.5.2/../../../../arm-none-eabi/include/c++/4.5.2/bits/stl_vector.h ****       { this->assign(__l.begin(), __l.end()); }
 414:/opt/toolchains/arm-none-eabi/bin/../lib/gcc/arm-none-eabi/4.5.2/../../../../arm-none-eabi/include/c++/4.5.2/bits/stl_vector.h **** #endif
 415:/opt/toolchains/arm-none-eabi/bin/../lib/gcc/arm-none-eabi/4.5.2/../../../../arm-none-eabi/include/c++/4.5.2/bits/stl_vector.h **** 
 416:/opt/toolchains/arm-none-eabi/bin/../lib/gcc/arm-none-eabi/4.5.2/../../../../arm-none-eabi/include/c++/4.5.2/bits/stl_vector.h ****       /// Get a copy of the memory allocation object.
 417:/opt/toolchains/arm-none-eabi/bin/../lib/gcc/arm-none-eabi/4.5.2/../../../../arm-none-eabi/include/c++/4.5.2/bits/stl_vector.h ****       using _Base::get_allocator;
 418:/opt/toolchains/arm-none-eabi/bin/../lib/gcc/arm-none-eabi/4.5.2/../../../../arm-none-eabi/include/c++/4.5.2/bits/stl_vector.h **** 
 419:/opt/toolchains/arm-none-eabi/bin/../lib/gcc/arm-none-eabi/4.5.2/../../../../arm-none-eabi/include/c++/4.5.2/bits/stl_vector.h ****       // iterators
 420:/opt/toolchains/arm-none-eabi/bin/../lib/gcc/arm-none-eabi/4.5.2/../../../../arm-none-eabi/include/c++/4.5.2/bits/stl_vector.h ****       /**
 421:/opt/toolchains/arm-none-eabi/bin/../lib/gcc/arm-none-eabi/4.5.2/../../../../arm-none-eabi/include/c++/4.5.2/bits/stl_vector.h ****        *  Returns a read/write iterator that points to the first
 422:/opt/toolchains/arm-none-eabi/bin/../lib/gcc/arm-none-eabi/4.5.2/../../../../arm-none-eabi/include/c++/4.5.2/bits/stl_vector.h ****        *  element in the %vector.  Iteration is done in ordinary
 423:/opt/toolchains/arm-none-eabi/bin/../lib/gcc/arm-none-eabi/4.5.2/../../../../arm-none-eabi/include/c++/4.5.2/bits/stl_vector.h ****        *  element order.
 424:/opt/toolchains/arm-none-eabi/bin/../lib/gcc/arm-none-eabi/4.5.2/../../../../arm-none-eabi/include/c++/4.5.2/bits/stl_vector.h ****        */
 425:/opt/toolchains/arm-none-eabi/bin/../lib/gcc/arm-none-eabi/4.5.2/../../../../arm-none-eabi/include/c++/4.5.2/bits/stl_vector.h ****       iterator
 426:/opt/toolchains/arm-none-eabi/bin/../lib/gcc/arm-none-eabi/4.5.2/../../../../arm-none-eabi/include/c++/4.5.2/bits/stl_vector.h ****       begin()
 427:/opt/toolchains/arm-none-eabi/bin/../lib/gcc/arm-none-eabi/4.5.2/../../../../arm-none-eabi/include/c++/4.5.2/bits/stl_vector.h ****       { return iterator(this->_M_impl._M_start); }
 428:/opt/toolchains/arm-none-eabi/bin/../lib/gcc/arm-none-eabi/4.5.2/../../../../arm-none-eabi/include/c++/4.5.2/bits/stl_vector.h **** 
 429:/opt/toolchains/arm-none-eabi/bin/../lib/gcc/arm-none-eabi/4.5.2/../../../../arm-none-eabi/include/c++/4.5.2/bits/stl_vector.h ****       /**
 430:/opt/toolchains/arm-none-eabi/bin/../lib/gcc/arm-none-eabi/4.5.2/../../../../arm-none-eabi/include/c++/4.5.2/bits/stl_vector.h ****        *  Returns a read-only (constant) iterator that points to the
 431:/opt/toolchains/arm-none-eabi/bin/../lib/gcc/arm-none-eabi/4.5.2/../../../../arm-none-eabi/include/c++/4.5.2/bits/stl_vector.h ****        *  first element in the %vector.  Iteration is done in ordinary
 432:/opt/toolchains/arm-none-eabi/bin/../lib/gcc/arm-none-eabi/4.5.2/../../../../arm-none-eabi/include/c++/4.5.2/bits/stl_vector.h ****        *  element order.
 433:/opt/toolchains/arm-none-eabi/bin/../lib/gcc/arm-none-eabi/4.5.2/../../../../arm-none-eabi/include/c++/4.5.2/bits/stl_vector.h ****        */
 434:/opt/toolchains/arm-none-eabi/bin/../lib/gcc/arm-none-eabi/4.5.2/../../../../arm-none-eabi/include/c++/4.5.2/bits/stl_vector.h ****       const_iterator
 435:/opt/toolchains/arm-none-eabi/bin/../lib/gcc/arm-none-eabi/4.5.2/../../../../arm-none-eabi/include/c++/4.5.2/bits/stl_vector.h ****       begin() const
 436:/opt/toolchains/arm-none-eabi/bin/../lib/gcc/arm-none-eabi/4.5.2/../../../../arm-none-eabi/include/c++/4.5.2/bits/stl_vector.h ****       { return const_iterator(this->_M_impl._M_start); }
 437:/opt/toolchains/arm-none-eabi/bin/../lib/gcc/arm-none-eabi/4.5.2/../../../../arm-none-eabi/include/c++/4.5.2/bits/stl_vector.h **** 
 438:/opt/toolchains/arm-none-eabi/bin/../lib/gcc/arm-none-eabi/4.5.2/../../../../arm-none-eabi/include/c++/4.5.2/bits/stl_vector.h ****       /**
 439:/opt/toolchains/arm-none-eabi/bin/../lib/gcc/arm-none-eabi/4.5.2/../../../../arm-none-eabi/include/c++/4.5.2/bits/stl_vector.h ****        *  Returns a read/write iterator that points one past the last
 440:/opt/toolchains/arm-none-eabi/bin/../lib/gcc/arm-none-eabi/4.5.2/../../../../arm-none-eabi/include/c++/4.5.2/bits/stl_vector.h ****        *  element in the %vector.  Iteration is done in ordinary
 441:/opt/toolchains/arm-none-eabi/bin/../lib/gcc/arm-none-eabi/4.5.2/../../../../arm-none-eabi/include/c++/4.5.2/bits/stl_vector.h ****        *  element order.
 442:/opt/toolchains/arm-none-eabi/bin/../lib/gcc/arm-none-eabi/4.5.2/../../../../arm-none-eabi/include/c++/4.5.2/bits/stl_vector.h ****        */
 443:/opt/toolchains/arm-none-eabi/bin/../lib/gcc/arm-none-eabi/4.5.2/../../../../arm-none-eabi/include/c++/4.5.2/bits/stl_vector.h ****       iterator
 444:/opt/toolchains/arm-none-eabi/bin/../lib/gcc/arm-none-eabi/4.5.2/../../../../arm-none-eabi/include/c++/4.5.2/bits/stl_vector.h ****       end()
 445:/opt/toolchains/arm-none-eabi/bin/../lib/gcc/arm-none-eabi/4.5.2/../../../../arm-none-eabi/include/c++/4.5.2/bits/stl_vector.h ****       { return iterator(this->_M_impl._M_finish); }
 446:/opt/toolchains/arm-none-eabi/bin/../lib/gcc/arm-none-eabi/4.5.2/../../../../arm-none-eabi/include/c++/4.5.2/bits/stl_vector.h **** 
 447:/opt/toolchains/arm-none-eabi/bin/../lib/gcc/arm-none-eabi/4.5.2/../../../../arm-none-eabi/include/c++/4.5.2/bits/stl_vector.h ****       /**
 448:/opt/toolchains/arm-none-eabi/bin/../lib/gcc/arm-none-eabi/4.5.2/../../../../arm-none-eabi/include/c++/4.5.2/bits/stl_vector.h ****        *  Returns a read-only (constant) iterator that points one past
 449:/opt/toolchains/arm-none-eabi/bin/../lib/gcc/arm-none-eabi/4.5.2/../../../../arm-none-eabi/include/c++/4.5.2/bits/stl_vector.h ****        *  the last element in the %vector.  Iteration is done in
 450:/opt/toolchains/arm-none-eabi/bin/../lib/gcc/arm-none-eabi/4.5.2/../../../../arm-none-eabi/include/c++/4.5.2/bits/stl_vector.h ****        *  ordinary element order.
 451:/opt/toolchains/arm-none-eabi/bin/../lib/gcc/arm-none-eabi/4.5.2/../../../../arm-none-eabi/include/c++/4.5.2/bits/stl_vector.h ****        */
 452:/opt/toolchains/arm-none-eabi/bin/../lib/gcc/arm-none-eabi/4.5.2/../../../../arm-none-eabi/include/c++/4.5.2/bits/stl_vector.h ****       const_iterator
 453:/opt/toolchains/arm-none-eabi/bin/../lib/gcc/arm-none-eabi/4.5.2/../../../../arm-none-eabi/include/c++/4.5.2/bits/stl_vector.h ****       end() const
 454:/opt/toolchains/arm-none-eabi/bin/../lib/gcc/arm-none-eabi/4.5.2/../../../../arm-none-eabi/include/c++/4.5.2/bits/stl_vector.h ****       { return const_iterator(this->_M_impl._M_finish); }
 455:/opt/toolchains/arm-none-eabi/bin/../lib/gcc/arm-none-eabi/4.5.2/../../../../arm-none-eabi/include/c++/4.5.2/bits/stl_vector.h **** 
 456:/opt/toolchains/arm-none-eabi/bin/../lib/gcc/arm-none-eabi/4.5.2/../../../../arm-none-eabi/include/c++/4.5.2/bits/stl_vector.h ****       /**
 457:/opt/toolchains/arm-none-eabi/bin/../lib/gcc/arm-none-eabi/4.5.2/../../../../arm-none-eabi/include/c++/4.5.2/bits/stl_vector.h ****        *  Returns a read/write reverse iterator that points to the
 458:/opt/toolchains/arm-none-eabi/bin/../lib/gcc/arm-none-eabi/4.5.2/../../../../arm-none-eabi/include/c++/4.5.2/bits/stl_vector.h ****        *  last element in the %vector.  Iteration is done in reverse
 459:/opt/toolchains/arm-none-eabi/bin/../lib/gcc/arm-none-eabi/4.5.2/../../../../arm-none-eabi/include/c++/4.5.2/bits/stl_vector.h ****        *  element order.
 460:/opt/toolchains/arm-none-eabi/bin/../lib/gcc/arm-none-eabi/4.5.2/../../../../arm-none-eabi/include/c++/4.5.2/bits/stl_vector.h ****        */
 461:/opt/toolchains/arm-none-eabi/bin/../lib/gcc/arm-none-eabi/4.5.2/../../../../arm-none-eabi/include/c++/4.5.2/bits/stl_vector.h ****       reverse_iterator
 462:/opt/toolchains/arm-none-eabi/bin/../lib/gcc/arm-none-eabi/4.5.2/../../../../arm-none-eabi/include/c++/4.5.2/bits/stl_vector.h ****       rbegin()
 463:/opt/toolchains/arm-none-eabi/bin/../lib/gcc/arm-none-eabi/4.5.2/../../../../arm-none-eabi/include/c++/4.5.2/bits/stl_vector.h ****       { return reverse_iterator(end()); }
 464:/opt/toolchains/arm-none-eabi/bin/../lib/gcc/arm-none-eabi/4.5.2/../../../../arm-none-eabi/include/c++/4.5.2/bits/stl_vector.h **** 
 465:/opt/toolchains/arm-none-eabi/bin/../lib/gcc/arm-none-eabi/4.5.2/../../../../arm-none-eabi/include/c++/4.5.2/bits/stl_vector.h ****       /**
 466:/opt/toolchains/arm-none-eabi/bin/../lib/gcc/arm-none-eabi/4.5.2/../../../../arm-none-eabi/include/c++/4.5.2/bits/stl_vector.h ****        *  Returns a read-only (constant) reverse iterator that points
 467:/opt/toolchains/arm-none-eabi/bin/../lib/gcc/arm-none-eabi/4.5.2/../../../../arm-none-eabi/include/c++/4.5.2/bits/stl_vector.h ****        *  to the last element in the %vector.  Iteration is done in
 468:/opt/toolchains/arm-none-eabi/bin/../lib/gcc/arm-none-eabi/4.5.2/../../../../arm-none-eabi/include/c++/4.5.2/bits/stl_vector.h ****        *  reverse element order.
 469:/opt/toolchains/arm-none-eabi/bin/../lib/gcc/arm-none-eabi/4.5.2/../../../../arm-none-eabi/include/c++/4.5.2/bits/stl_vector.h ****        */
 470:/opt/toolchains/arm-none-eabi/bin/../lib/gcc/arm-none-eabi/4.5.2/../../../../arm-none-eabi/include/c++/4.5.2/bits/stl_vector.h ****       const_reverse_iterator
 471:/opt/toolchains/arm-none-eabi/bin/../lib/gcc/arm-none-eabi/4.5.2/../../../../arm-none-eabi/include/c++/4.5.2/bits/stl_vector.h ****       rbegin() const
 472:/opt/toolchains/arm-none-eabi/bin/../lib/gcc/arm-none-eabi/4.5.2/../../../../arm-none-eabi/include/c++/4.5.2/bits/stl_vector.h ****       { return const_reverse_iterator(end()); }
 473:/opt/toolchains/arm-none-eabi/bin/../lib/gcc/arm-none-eabi/4.5.2/../../../../arm-none-eabi/include/c++/4.5.2/bits/stl_vector.h **** 
 474:/opt/toolchains/arm-none-eabi/bin/../lib/gcc/arm-none-eabi/4.5.2/../../../../arm-none-eabi/include/c++/4.5.2/bits/stl_vector.h ****       /**
 475:/opt/toolchains/arm-none-eabi/bin/../lib/gcc/arm-none-eabi/4.5.2/../../../../arm-none-eabi/include/c++/4.5.2/bits/stl_vector.h ****        *  Returns a read/write reverse iterator that points to one
 476:/opt/toolchains/arm-none-eabi/bin/../lib/gcc/arm-none-eabi/4.5.2/../../../../arm-none-eabi/include/c++/4.5.2/bits/stl_vector.h ****        *  before the first element in the %vector.  Iteration is done
 477:/opt/toolchains/arm-none-eabi/bin/../lib/gcc/arm-none-eabi/4.5.2/../../../../arm-none-eabi/include/c++/4.5.2/bits/stl_vector.h ****        *  in reverse element order.
 478:/opt/toolchains/arm-none-eabi/bin/../lib/gcc/arm-none-eabi/4.5.2/../../../../arm-none-eabi/include/c++/4.5.2/bits/stl_vector.h ****        */
 479:/opt/toolchains/arm-none-eabi/bin/../lib/gcc/arm-none-eabi/4.5.2/../../../../arm-none-eabi/include/c++/4.5.2/bits/stl_vector.h ****       reverse_iterator
 480:/opt/toolchains/arm-none-eabi/bin/../lib/gcc/arm-none-eabi/4.5.2/../../../../arm-none-eabi/include/c++/4.5.2/bits/stl_vector.h ****       rend()
 481:/opt/toolchains/arm-none-eabi/bin/../lib/gcc/arm-none-eabi/4.5.2/../../../../arm-none-eabi/include/c++/4.5.2/bits/stl_vector.h ****       { return reverse_iterator(begin()); }
 482:/opt/toolchains/arm-none-eabi/bin/../lib/gcc/arm-none-eabi/4.5.2/../../../../arm-none-eabi/include/c++/4.5.2/bits/stl_vector.h **** 
 483:/opt/toolchains/arm-none-eabi/bin/../lib/gcc/arm-none-eabi/4.5.2/../../../../arm-none-eabi/include/c++/4.5.2/bits/stl_vector.h ****       /**
 484:/opt/toolchains/arm-none-eabi/bin/../lib/gcc/arm-none-eabi/4.5.2/../../../../arm-none-eabi/include/c++/4.5.2/bits/stl_vector.h ****        *  Returns a read-only (constant) reverse iterator that points
 485:/opt/toolchains/arm-none-eabi/bin/../lib/gcc/arm-none-eabi/4.5.2/../../../../arm-none-eabi/include/c++/4.5.2/bits/stl_vector.h ****        *  to one before the first element in the %vector.  Iteration
 486:/opt/toolchains/arm-none-eabi/bin/../lib/gcc/arm-none-eabi/4.5.2/../../../../arm-none-eabi/include/c++/4.5.2/bits/stl_vector.h ****        *  is done in reverse element order.
 487:/opt/toolchains/arm-none-eabi/bin/../lib/gcc/arm-none-eabi/4.5.2/../../../../arm-none-eabi/include/c++/4.5.2/bits/stl_vector.h ****        */
 488:/opt/toolchains/arm-none-eabi/bin/../lib/gcc/arm-none-eabi/4.5.2/../../../../arm-none-eabi/include/c++/4.5.2/bits/stl_vector.h ****       const_reverse_iterator
 489:/opt/toolchains/arm-none-eabi/bin/../lib/gcc/arm-none-eabi/4.5.2/../../../../arm-none-eabi/include/c++/4.5.2/bits/stl_vector.h ****       rend() const
 490:/opt/toolchains/arm-none-eabi/bin/../lib/gcc/arm-none-eabi/4.5.2/../../../../arm-none-eabi/include/c++/4.5.2/bits/stl_vector.h ****       { return const_reverse_iterator(begin()); }
 491:/opt/toolchains/arm-none-eabi/bin/../lib/gcc/arm-none-eabi/4.5.2/../../../../arm-none-eabi/include/c++/4.5.2/bits/stl_vector.h **** 
 492:/opt/toolchains/arm-none-eabi/bin/../lib/gcc/arm-none-eabi/4.5.2/../../../../arm-none-eabi/include/c++/4.5.2/bits/stl_vector.h **** #ifdef __GXX_EXPERIMENTAL_CXX0X__
 493:/opt/toolchains/arm-none-eabi/bin/../lib/gcc/arm-none-eabi/4.5.2/../../../../arm-none-eabi/include/c++/4.5.2/bits/stl_vector.h ****       /**
 494:/opt/toolchains/arm-none-eabi/bin/../lib/gcc/arm-none-eabi/4.5.2/../../../../arm-none-eabi/include/c++/4.5.2/bits/stl_vector.h ****        *  Returns a read-only (constant) iterator that points to the
 495:/opt/toolchains/arm-none-eabi/bin/../lib/gcc/arm-none-eabi/4.5.2/../../../../arm-none-eabi/include/c++/4.5.2/bits/stl_vector.h ****        *  first element in the %vector.  Iteration is done in ordinary
 496:/opt/toolchains/arm-none-eabi/bin/../lib/gcc/arm-none-eabi/4.5.2/../../../../arm-none-eabi/include/c++/4.5.2/bits/stl_vector.h ****        *  element order.
 497:/opt/toolchains/arm-none-eabi/bin/../lib/gcc/arm-none-eabi/4.5.2/../../../../arm-none-eabi/include/c++/4.5.2/bits/stl_vector.h ****        */
 498:/opt/toolchains/arm-none-eabi/bin/../lib/gcc/arm-none-eabi/4.5.2/../../../../arm-none-eabi/include/c++/4.5.2/bits/stl_vector.h ****       const_iterator
 499:/opt/toolchains/arm-none-eabi/bin/../lib/gcc/arm-none-eabi/4.5.2/../../../../arm-none-eabi/include/c++/4.5.2/bits/stl_vector.h ****       cbegin() const
 500:/opt/toolchains/arm-none-eabi/bin/../lib/gcc/arm-none-eabi/4.5.2/../../../../arm-none-eabi/include/c++/4.5.2/bits/stl_vector.h ****       { return const_iterator(this->_M_impl._M_start); }
 501:/opt/toolchains/arm-none-eabi/bin/../lib/gcc/arm-none-eabi/4.5.2/../../../../arm-none-eabi/include/c++/4.5.2/bits/stl_vector.h **** 
 502:/opt/toolchains/arm-none-eabi/bin/../lib/gcc/arm-none-eabi/4.5.2/../../../../arm-none-eabi/include/c++/4.5.2/bits/stl_vector.h ****       /**
 503:/opt/toolchains/arm-none-eabi/bin/../lib/gcc/arm-none-eabi/4.5.2/../../../../arm-none-eabi/include/c++/4.5.2/bits/stl_vector.h ****        *  Returns a read-only (constant) iterator that points one past
 504:/opt/toolchains/arm-none-eabi/bin/../lib/gcc/arm-none-eabi/4.5.2/../../../../arm-none-eabi/include/c++/4.5.2/bits/stl_vector.h ****        *  the last element in the %vector.  Iteration is done in
 505:/opt/toolchains/arm-none-eabi/bin/../lib/gcc/arm-none-eabi/4.5.2/../../../../arm-none-eabi/include/c++/4.5.2/bits/stl_vector.h ****        *  ordinary element order.
 506:/opt/toolchains/arm-none-eabi/bin/../lib/gcc/arm-none-eabi/4.5.2/../../../../arm-none-eabi/include/c++/4.5.2/bits/stl_vector.h ****        */
 507:/opt/toolchains/arm-none-eabi/bin/../lib/gcc/arm-none-eabi/4.5.2/../../../../arm-none-eabi/include/c++/4.5.2/bits/stl_vector.h ****       const_iterator
 508:/opt/toolchains/arm-none-eabi/bin/../lib/gcc/arm-none-eabi/4.5.2/../../../../arm-none-eabi/include/c++/4.5.2/bits/stl_vector.h ****       cend() const
 509:/opt/toolchains/arm-none-eabi/bin/../lib/gcc/arm-none-eabi/4.5.2/../../../../arm-none-eabi/include/c++/4.5.2/bits/stl_vector.h ****       { return const_iterator(this->_M_impl._M_finish); }
 510:/opt/toolchains/arm-none-eabi/bin/../lib/gcc/arm-none-eabi/4.5.2/../../../../arm-none-eabi/include/c++/4.5.2/bits/stl_vector.h **** 
 511:/opt/toolchains/arm-none-eabi/bin/../lib/gcc/arm-none-eabi/4.5.2/../../../../arm-none-eabi/include/c++/4.5.2/bits/stl_vector.h ****       /**
 512:/opt/toolchains/arm-none-eabi/bin/../lib/gcc/arm-none-eabi/4.5.2/../../../../arm-none-eabi/include/c++/4.5.2/bits/stl_vector.h ****        *  Returns a read-only (constant) reverse iterator that points
 513:/opt/toolchains/arm-none-eabi/bin/../lib/gcc/arm-none-eabi/4.5.2/../../../../arm-none-eabi/include/c++/4.5.2/bits/stl_vector.h ****        *  to the last element in the %vector.  Iteration is done in
 514:/opt/toolchains/arm-none-eabi/bin/../lib/gcc/arm-none-eabi/4.5.2/../../../../arm-none-eabi/include/c++/4.5.2/bits/stl_vector.h ****        *  reverse element order.
 515:/opt/toolchains/arm-none-eabi/bin/../lib/gcc/arm-none-eabi/4.5.2/../../../../arm-none-eabi/include/c++/4.5.2/bits/stl_vector.h ****        */
 516:/opt/toolchains/arm-none-eabi/bin/../lib/gcc/arm-none-eabi/4.5.2/../../../../arm-none-eabi/include/c++/4.5.2/bits/stl_vector.h ****       const_reverse_iterator
 517:/opt/toolchains/arm-none-eabi/bin/../lib/gcc/arm-none-eabi/4.5.2/../../../../arm-none-eabi/include/c++/4.5.2/bits/stl_vector.h ****       crbegin() const
 518:/opt/toolchains/arm-none-eabi/bin/../lib/gcc/arm-none-eabi/4.5.2/../../../../arm-none-eabi/include/c++/4.5.2/bits/stl_vector.h ****       { return const_reverse_iterator(end()); }
 519:/opt/toolchains/arm-none-eabi/bin/../lib/gcc/arm-none-eabi/4.5.2/../../../../arm-none-eabi/include/c++/4.5.2/bits/stl_vector.h **** 
 520:/opt/toolchains/arm-none-eabi/bin/../lib/gcc/arm-none-eabi/4.5.2/../../../../arm-none-eabi/include/c++/4.5.2/bits/stl_vector.h ****       /**
 521:/opt/toolchains/arm-none-eabi/bin/../lib/gcc/arm-none-eabi/4.5.2/../../../../arm-none-eabi/include/c++/4.5.2/bits/stl_vector.h ****        *  Returns a read-only (constant) reverse iterator that points
 522:/opt/toolchains/arm-none-eabi/bin/../lib/gcc/arm-none-eabi/4.5.2/../../../../arm-none-eabi/include/c++/4.5.2/bits/stl_vector.h ****        *  to one before the first element in the %vector.  Iteration
 523:/opt/toolchains/arm-none-eabi/bin/../lib/gcc/arm-none-eabi/4.5.2/../../../../arm-none-eabi/include/c++/4.5.2/bits/stl_vector.h ****        *  is done in reverse element order.
 524:/opt/toolchains/arm-none-eabi/bin/../lib/gcc/arm-none-eabi/4.5.2/../../../../arm-none-eabi/include/c++/4.5.2/bits/stl_vector.h ****        */
 525:/opt/toolchains/arm-none-eabi/bin/../lib/gcc/arm-none-eabi/4.5.2/../../../../arm-none-eabi/include/c++/4.5.2/bits/stl_vector.h ****       const_reverse_iterator
 526:/opt/toolchains/arm-none-eabi/bin/../lib/gcc/arm-none-eabi/4.5.2/../../../../arm-none-eabi/include/c++/4.5.2/bits/stl_vector.h ****       crend() const
 527:/opt/toolchains/arm-none-eabi/bin/../lib/gcc/arm-none-eabi/4.5.2/../../../../arm-none-eabi/include/c++/4.5.2/bits/stl_vector.h ****       { return const_reverse_iterator(begin()); }
 528:/opt/toolchains/arm-none-eabi/bin/../lib/gcc/arm-none-eabi/4.5.2/../../../../arm-none-eabi/include/c++/4.5.2/bits/stl_vector.h **** #endif
 529:/opt/toolchains/arm-none-eabi/bin/../lib/gcc/arm-none-eabi/4.5.2/../../../../arm-none-eabi/include/c++/4.5.2/bits/stl_vector.h **** 
 530:/opt/toolchains/arm-none-eabi/bin/../lib/gcc/arm-none-eabi/4.5.2/../../../../arm-none-eabi/include/c++/4.5.2/bits/stl_vector.h ****       // [23.2.4.2] capacity
 531:/opt/toolchains/arm-none-eabi/bin/../lib/gcc/arm-none-eabi/4.5.2/../../../../arm-none-eabi/include/c++/4.5.2/bits/stl_vector.h ****       /**  Returns the number of elements in the %vector.  */
 532:/opt/toolchains/arm-none-eabi/bin/../lib/gcc/arm-none-eabi/4.5.2/../../../../arm-none-eabi/include/c++/4.5.2/bits/stl_vector.h ****       size_type
 533:/opt/toolchains/arm-none-eabi/bin/../lib/gcc/arm-none-eabi/4.5.2/../../../../arm-none-eabi/include/c++/4.5.2/bits/stl_vector.h ****       size() const
 534:/opt/toolchains/arm-none-eabi/bin/../lib/gcc/arm-none-eabi/4.5.2/../../../../arm-none-eabi/include/c++/4.5.2/bits/stl_vector.h ****       { return size_type(this->_M_impl._M_finish - this->_M_impl._M_start); }
 535:/opt/toolchains/arm-none-eabi/bin/../lib/gcc/arm-none-eabi/4.5.2/../../../../arm-none-eabi/include/c++/4.5.2/bits/stl_vector.h **** 
 536:/opt/toolchains/arm-none-eabi/bin/../lib/gcc/arm-none-eabi/4.5.2/../../../../arm-none-eabi/include/c++/4.5.2/bits/stl_vector.h ****       /**  Returns the size() of the largest possible %vector.  */
 537:/opt/toolchains/arm-none-eabi/bin/../lib/gcc/arm-none-eabi/4.5.2/../../../../arm-none-eabi/include/c++/4.5.2/bits/stl_vector.h ****       size_type
 538:/opt/toolchains/arm-none-eabi/bin/../lib/gcc/arm-none-eabi/4.5.2/../../../../arm-none-eabi/include/c++/4.5.2/bits/stl_vector.h ****       max_size() const
 539:/opt/toolchains/arm-none-eabi/bin/../lib/gcc/arm-none-eabi/4.5.2/../../../../arm-none-eabi/include/c++/4.5.2/bits/stl_vector.h ****       { return _M_get_Tp_allocator().max_size(); }
 540:/opt/toolchains/arm-none-eabi/bin/../lib/gcc/arm-none-eabi/4.5.2/../../../../arm-none-eabi/include/c++/4.5.2/bits/stl_vector.h **** 
 541:/opt/toolchains/arm-none-eabi/bin/../lib/gcc/arm-none-eabi/4.5.2/../../../../arm-none-eabi/include/c++/4.5.2/bits/stl_vector.h ****       /**
 542:/opt/toolchains/arm-none-eabi/bin/../lib/gcc/arm-none-eabi/4.5.2/../../../../arm-none-eabi/include/c++/4.5.2/bits/stl_vector.h ****        *  @brief  Resizes the %vector to the specified number of elements.
 543:/opt/toolchains/arm-none-eabi/bin/../lib/gcc/arm-none-eabi/4.5.2/../../../../arm-none-eabi/include/c++/4.5.2/bits/stl_vector.h ****        *  @param  new_size  Number of elements the %vector should contain.
 544:/opt/toolchains/arm-none-eabi/bin/../lib/gcc/arm-none-eabi/4.5.2/../../../../arm-none-eabi/include/c++/4.5.2/bits/stl_vector.h ****        *  @param  x  Data with which new elements should be populated.
 545:/opt/toolchains/arm-none-eabi/bin/../lib/gcc/arm-none-eabi/4.5.2/../../../../arm-none-eabi/include/c++/4.5.2/bits/stl_vector.h ****        *
 546:/opt/toolchains/arm-none-eabi/bin/../lib/gcc/arm-none-eabi/4.5.2/../../../../arm-none-eabi/include/c++/4.5.2/bits/stl_vector.h ****        *  This function will %resize the %vector to the specified
 547:/opt/toolchains/arm-none-eabi/bin/../lib/gcc/arm-none-eabi/4.5.2/../../../../arm-none-eabi/include/c++/4.5.2/bits/stl_vector.h ****        *  number of elements.  If the number is smaller than the
 548:/opt/toolchains/arm-none-eabi/bin/../lib/gcc/arm-none-eabi/4.5.2/../../../../arm-none-eabi/include/c++/4.5.2/bits/stl_vector.h ****        *  %vector's current size the %vector is truncated, otherwise
 549:/opt/toolchains/arm-none-eabi/bin/../lib/gcc/arm-none-eabi/4.5.2/../../../../arm-none-eabi/include/c++/4.5.2/bits/stl_vector.h ****        *  the %vector is extended and new elements are populated with
 550:/opt/toolchains/arm-none-eabi/bin/../lib/gcc/arm-none-eabi/4.5.2/../../../../arm-none-eabi/include/c++/4.5.2/bits/stl_vector.h ****        *  given data.
 551:/opt/toolchains/arm-none-eabi/bin/../lib/gcc/arm-none-eabi/4.5.2/../../../../arm-none-eabi/include/c++/4.5.2/bits/stl_vector.h ****        */
 552:/opt/toolchains/arm-none-eabi/bin/../lib/gcc/arm-none-eabi/4.5.2/../../../../arm-none-eabi/include/c++/4.5.2/bits/stl_vector.h ****       void
 553:/opt/toolchains/arm-none-eabi/bin/../lib/gcc/arm-none-eabi/4.5.2/../../../../arm-none-eabi/include/c++/4.5.2/bits/stl_vector.h ****       resize(size_type __new_size, value_type __x = value_type())
 554:/opt/toolchains/arm-none-eabi/bin/../lib/gcc/arm-none-eabi/4.5.2/../../../../arm-none-eabi/include/c++/4.5.2/bits/stl_vector.h ****       {
 555:/opt/toolchains/arm-none-eabi/bin/../lib/gcc/arm-none-eabi/4.5.2/../../../../arm-none-eabi/include/c++/4.5.2/bits/stl_vector.h **** 	if (__new_size < size())
 556:/opt/toolchains/arm-none-eabi/bin/../lib/gcc/arm-none-eabi/4.5.2/../../../../arm-none-eabi/include/c++/4.5.2/bits/stl_vector.h **** 	  _M_erase_at_end(this->_M_impl._M_start + __new_size);
 557:/opt/toolchains/arm-none-eabi/bin/../lib/gcc/arm-none-eabi/4.5.2/../../../../arm-none-eabi/include/c++/4.5.2/bits/stl_vector.h **** 	else
 558:/opt/toolchains/arm-none-eabi/bin/../lib/gcc/arm-none-eabi/4.5.2/../../../../arm-none-eabi/include/c++/4.5.2/bits/stl_vector.h **** 	  insert(end(), __new_size - size(), __x);
 559:/opt/toolchains/arm-none-eabi/bin/../lib/gcc/arm-none-eabi/4.5.2/../../../../arm-none-eabi/include/c++/4.5.2/bits/stl_vector.h ****       }
 560:/opt/toolchains/arm-none-eabi/bin/../lib/gcc/arm-none-eabi/4.5.2/../../../../arm-none-eabi/include/c++/4.5.2/bits/stl_vector.h **** 
 561:/opt/toolchains/arm-none-eabi/bin/../lib/gcc/arm-none-eabi/4.5.2/../../../../arm-none-eabi/include/c++/4.5.2/bits/stl_vector.h **** #ifdef __GXX_EXPERIMENTAL_CXX0X__
 562:/opt/toolchains/arm-none-eabi/bin/../lib/gcc/arm-none-eabi/4.5.2/../../../../arm-none-eabi/include/c++/4.5.2/bits/stl_vector.h ****       /**  A non-binding request to reduce capacity() to size().  */
 563:/opt/toolchains/arm-none-eabi/bin/../lib/gcc/arm-none-eabi/4.5.2/../../../../arm-none-eabi/include/c++/4.5.2/bits/stl_vector.h ****       void
 564:/opt/toolchains/arm-none-eabi/bin/../lib/gcc/arm-none-eabi/4.5.2/../../../../arm-none-eabi/include/c++/4.5.2/bits/stl_vector.h ****       shrink_to_fit()
 565:/opt/toolchains/arm-none-eabi/bin/../lib/gcc/arm-none-eabi/4.5.2/../../../../arm-none-eabi/include/c++/4.5.2/bits/stl_vector.h ****       { std::__shrink_to_fit<vector>::_S_do_it(*this); }
 566:/opt/toolchains/arm-none-eabi/bin/../lib/gcc/arm-none-eabi/4.5.2/../../../../arm-none-eabi/include/c++/4.5.2/bits/stl_vector.h **** #endif
 567:/opt/toolchains/arm-none-eabi/bin/../lib/gcc/arm-none-eabi/4.5.2/../../../../arm-none-eabi/include/c++/4.5.2/bits/stl_vector.h **** 
 568:/opt/toolchains/arm-none-eabi/bin/../lib/gcc/arm-none-eabi/4.5.2/../../../../arm-none-eabi/include/c++/4.5.2/bits/stl_vector.h ****       /**
 569:/opt/toolchains/arm-none-eabi/bin/../lib/gcc/arm-none-eabi/4.5.2/../../../../arm-none-eabi/include/c++/4.5.2/bits/stl_vector.h ****        *  Returns the total number of elements that the %vector can
 570:/opt/toolchains/arm-none-eabi/bin/../lib/gcc/arm-none-eabi/4.5.2/../../../../arm-none-eabi/include/c++/4.5.2/bits/stl_vector.h ****        *  hold before needing to allocate more memory.
 571:/opt/toolchains/arm-none-eabi/bin/../lib/gcc/arm-none-eabi/4.5.2/../../../../arm-none-eabi/include/c++/4.5.2/bits/stl_vector.h ****        */
 572:/opt/toolchains/arm-none-eabi/bin/../lib/gcc/arm-none-eabi/4.5.2/../../../../arm-none-eabi/include/c++/4.5.2/bits/stl_vector.h ****       size_type
 573:/opt/toolchains/arm-none-eabi/bin/../lib/gcc/arm-none-eabi/4.5.2/../../../../arm-none-eabi/include/c++/4.5.2/bits/stl_vector.h ****       capacity() const
 574:/opt/toolchains/arm-none-eabi/bin/../lib/gcc/arm-none-eabi/4.5.2/../../../../arm-none-eabi/include/c++/4.5.2/bits/stl_vector.h ****       { return size_type(this->_M_impl._M_end_of_storage
 575:/opt/toolchains/arm-none-eabi/bin/../lib/gcc/arm-none-eabi/4.5.2/../../../../arm-none-eabi/include/c++/4.5.2/bits/stl_vector.h **** 			 - this->_M_impl._M_start); }
 576:/opt/toolchains/arm-none-eabi/bin/../lib/gcc/arm-none-eabi/4.5.2/../../../../arm-none-eabi/include/c++/4.5.2/bits/stl_vector.h **** 
 577:/opt/toolchains/arm-none-eabi/bin/../lib/gcc/arm-none-eabi/4.5.2/../../../../arm-none-eabi/include/c++/4.5.2/bits/stl_vector.h ****       /**
 578:/opt/toolchains/arm-none-eabi/bin/../lib/gcc/arm-none-eabi/4.5.2/../../../../arm-none-eabi/include/c++/4.5.2/bits/stl_vector.h ****        *  Returns true if the %vector is empty.  (Thus begin() would
 579:/opt/toolchains/arm-none-eabi/bin/../lib/gcc/arm-none-eabi/4.5.2/../../../../arm-none-eabi/include/c++/4.5.2/bits/stl_vector.h ****        *  equal end().)
 580:/opt/toolchains/arm-none-eabi/bin/../lib/gcc/arm-none-eabi/4.5.2/../../../../arm-none-eabi/include/c++/4.5.2/bits/stl_vector.h ****        */
 581:/opt/toolchains/arm-none-eabi/bin/../lib/gcc/arm-none-eabi/4.5.2/../../../../arm-none-eabi/include/c++/4.5.2/bits/stl_vector.h ****       bool
 582:/opt/toolchains/arm-none-eabi/bin/../lib/gcc/arm-none-eabi/4.5.2/../../../../arm-none-eabi/include/c++/4.5.2/bits/stl_vector.h ****       empty() const
 583:/opt/toolchains/arm-none-eabi/bin/../lib/gcc/arm-none-eabi/4.5.2/../../../../arm-none-eabi/include/c++/4.5.2/bits/stl_vector.h ****       { return begin() == end(); }
 584:/opt/toolchains/arm-none-eabi/bin/../lib/gcc/arm-none-eabi/4.5.2/../../../../arm-none-eabi/include/c++/4.5.2/bits/stl_vector.h **** 
 585:/opt/toolchains/arm-none-eabi/bin/../lib/gcc/arm-none-eabi/4.5.2/../../../../arm-none-eabi/include/c++/4.5.2/bits/stl_vector.h ****       /**
 586:/opt/toolchains/arm-none-eabi/bin/../lib/gcc/arm-none-eabi/4.5.2/../../../../arm-none-eabi/include/c++/4.5.2/bits/stl_vector.h ****        *  @brief  Attempt to preallocate enough memory for specified number of
 587:/opt/toolchains/arm-none-eabi/bin/../lib/gcc/arm-none-eabi/4.5.2/../../../../arm-none-eabi/include/c++/4.5.2/bits/stl_vector.h ****        *          elements.
 588:/opt/toolchains/arm-none-eabi/bin/../lib/gcc/arm-none-eabi/4.5.2/../../../../arm-none-eabi/include/c++/4.5.2/bits/stl_vector.h ****        *  @param  n  Number of elements required.
 589:/opt/toolchains/arm-none-eabi/bin/../lib/gcc/arm-none-eabi/4.5.2/../../../../arm-none-eabi/include/c++/4.5.2/bits/stl_vector.h ****        *  @throw  std::length_error  If @a n exceeds @c max_size().
 590:/opt/toolchains/arm-none-eabi/bin/../lib/gcc/arm-none-eabi/4.5.2/../../../../arm-none-eabi/include/c++/4.5.2/bits/stl_vector.h ****        *
 591:/opt/toolchains/arm-none-eabi/bin/../lib/gcc/arm-none-eabi/4.5.2/../../../../arm-none-eabi/include/c++/4.5.2/bits/stl_vector.h ****        *  This function attempts to reserve enough memory for the
 592:/opt/toolchains/arm-none-eabi/bin/../lib/gcc/arm-none-eabi/4.5.2/../../../../arm-none-eabi/include/c++/4.5.2/bits/stl_vector.h ****        *  %vector to hold the specified number of elements.  If the
 593:/opt/toolchains/arm-none-eabi/bin/../lib/gcc/arm-none-eabi/4.5.2/../../../../arm-none-eabi/include/c++/4.5.2/bits/stl_vector.h ****        *  number requested is more than max_size(), length_error is
 594:/opt/toolchains/arm-none-eabi/bin/../lib/gcc/arm-none-eabi/4.5.2/../../../../arm-none-eabi/include/c++/4.5.2/bits/stl_vector.h ****        *  thrown.
 595:/opt/toolchains/arm-none-eabi/bin/../lib/gcc/arm-none-eabi/4.5.2/../../../../arm-none-eabi/include/c++/4.5.2/bits/stl_vector.h ****        *
 596:/opt/toolchains/arm-none-eabi/bin/../lib/gcc/arm-none-eabi/4.5.2/../../../../arm-none-eabi/include/c++/4.5.2/bits/stl_vector.h ****        *  The advantage of this function is that if optimal code is a
 597:/opt/toolchains/arm-none-eabi/bin/../lib/gcc/arm-none-eabi/4.5.2/../../../../arm-none-eabi/include/c++/4.5.2/bits/stl_vector.h ****        *  necessity and the user can determine the number of elements
 598:/opt/toolchains/arm-none-eabi/bin/../lib/gcc/arm-none-eabi/4.5.2/../../../../arm-none-eabi/include/c++/4.5.2/bits/stl_vector.h ****        *  that will be required, the user can reserve the memory in
 599:/opt/toolchains/arm-none-eabi/bin/../lib/gcc/arm-none-eabi/4.5.2/../../../../arm-none-eabi/include/c++/4.5.2/bits/stl_vector.h ****        *  %advance, and thus prevent a possible reallocation of memory
 600:/opt/toolchains/arm-none-eabi/bin/../lib/gcc/arm-none-eabi/4.5.2/../../../../arm-none-eabi/include/c++/4.5.2/bits/stl_vector.h ****        *  and copying of %vector data.
 601:/opt/toolchains/arm-none-eabi/bin/../lib/gcc/arm-none-eabi/4.5.2/../../../../arm-none-eabi/include/c++/4.5.2/bits/stl_vector.h ****        */
 602:/opt/toolchains/arm-none-eabi/bin/../lib/gcc/arm-none-eabi/4.5.2/../../../../arm-none-eabi/include/c++/4.5.2/bits/stl_vector.h ****       void
 603:/opt/toolchains/arm-none-eabi/bin/../lib/gcc/arm-none-eabi/4.5.2/../../../../arm-none-eabi/include/c++/4.5.2/bits/stl_vector.h ****       reserve(size_type __n);
 604:/opt/toolchains/arm-none-eabi/bin/../lib/gcc/arm-none-eabi/4.5.2/../../../../arm-none-eabi/include/c++/4.5.2/bits/stl_vector.h **** 
 605:/opt/toolchains/arm-none-eabi/bin/../lib/gcc/arm-none-eabi/4.5.2/../../../../arm-none-eabi/include/c++/4.5.2/bits/stl_vector.h ****       // element access
 606:/opt/toolchains/arm-none-eabi/bin/../lib/gcc/arm-none-eabi/4.5.2/../../../../arm-none-eabi/include/c++/4.5.2/bits/stl_vector.h ****       /**
 607:/opt/toolchains/arm-none-eabi/bin/../lib/gcc/arm-none-eabi/4.5.2/../../../../arm-none-eabi/include/c++/4.5.2/bits/stl_vector.h ****        *  @brief  Subscript access to the data contained in the %vector.
 608:/opt/toolchains/arm-none-eabi/bin/../lib/gcc/arm-none-eabi/4.5.2/../../../../arm-none-eabi/include/c++/4.5.2/bits/stl_vector.h ****        *  @param n The index of the element for which data should be
 609:/opt/toolchains/arm-none-eabi/bin/../lib/gcc/arm-none-eabi/4.5.2/../../../../arm-none-eabi/include/c++/4.5.2/bits/stl_vector.h ****        *  accessed.
 610:/opt/toolchains/arm-none-eabi/bin/../lib/gcc/arm-none-eabi/4.5.2/../../../../arm-none-eabi/include/c++/4.5.2/bits/stl_vector.h ****        *  @return  Read/write reference to data.
 611:/opt/toolchains/arm-none-eabi/bin/../lib/gcc/arm-none-eabi/4.5.2/../../../../arm-none-eabi/include/c++/4.5.2/bits/stl_vector.h ****        *
 612:/opt/toolchains/arm-none-eabi/bin/../lib/gcc/arm-none-eabi/4.5.2/../../../../arm-none-eabi/include/c++/4.5.2/bits/stl_vector.h ****        *  This operator allows for easy, array-style, data access.
 613:/opt/toolchains/arm-none-eabi/bin/../lib/gcc/arm-none-eabi/4.5.2/../../../../arm-none-eabi/include/c++/4.5.2/bits/stl_vector.h ****        *  Note that data access with this operator is unchecked and
 614:/opt/toolchains/arm-none-eabi/bin/../lib/gcc/arm-none-eabi/4.5.2/../../../../arm-none-eabi/include/c++/4.5.2/bits/stl_vector.h ****        *  out_of_range lookups are not defined. (For checked lookups
 615:/opt/toolchains/arm-none-eabi/bin/../lib/gcc/arm-none-eabi/4.5.2/../../../../arm-none-eabi/include/c++/4.5.2/bits/stl_vector.h ****        *  see at().)
 616:/opt/toolchains/arm-none-eabi/bin/../lib/gcc/arm-none-eabi/4.5.2/../../../../arm-none-eabi/include/c++/4.5.2/bits/stl_vector.h ****        */
 617:/opt/toolchains/arm-none-eabi/bin/../lib/gcc/arm-none-eabi/4.5.2/../../../../arm-none-eabi/include/c++/4.5.2/bits/stl_vector.h ****       reference
 618:/opt/toolchains/arm-none-eabi/bin/../lib/gcc/arm-none-eabi/4.5.2/../../../../arm-none-eabi/include/c++/4.5.2/bits/stl_vector.h ****       operator[](size_type __n)
 619:/opt/toolchains/arm-none-eabi/bin/../lib/gcc/arm-none-eabi/4.5.2/../../../../arm-none-eabi/include/c++/4.5.2/bits/stl_vector.h ****       { return *(this->_M_impl._M_start + __n); }
 620:/opt/toolchains/arm-none-eabi/bin/../lib/gcc/arm-none-eabi/4.5.2/../../../../arm-none-eabi/include/c++/4.5.2/bits/stl_vector.h **** 
 621:/opt/toolchains/arm-none-eabi/bin/../lib/gcc/arm-none-eabi/4.5.2/../../../../arm-none-eabi/include/c++/4.5.2/bits/stl_vector.h ****       /**
 622:/opt/toolchains/arm-none-eabi/bin/../lib/gcc/arm-none-eabi/4.5.2/../../../../arm-none-eabi/include/c++/4.5.2/bits/stl_vector.h ****        *  @brief  Subscript access to the data contained in the %vector.
 623:/opt/toolchains/arm-none-eabi/bin/../lib/gcc/arm-none-eabi/4.5.2/../../../../arm-none-eabi/include/c++/4.5.2/bits/stl_vector.h ****        *  @param n The index of the element for which data should be
 624:/opt/toolchains/arm-none-eabi/bin/../lib/gcc/arm-none-eabi/4.5.2/../../../../arm-none-eabi/include/c++/4.5.2/bits/stl_vector.h ****        *  accessed.
 625:/opt/toolchains/arm-none-eabi/bin/../lib/gcc/arm-none-eabi/4.5.2/../../../../arm-none-eabi/include/c++/4.5.2/bits/stl_vector.h ****        *  @return  Read-only (constant) reference to data.
 626:/opt/toolchains/arm-none-eabi/bin/../lib/gcc/arm-none-eabi/4.5.2/../../../../arm-none-eabi/include/c++/4.5.2/bits/stl_vector.h ****        *
 627:/opt/toolchains/arm-none-eabi/bin/../lib/gcc/arm-none-eabi/4.5.2/../../../../arm-none-eabi/include/c++/4.5.2/bits/stl_vector.h ****        *  This operator allows for easy, array-style, data access.
 628:/opt/toolchains/arm-none-eabi/bin/../lib/gcc/arm-none-eabi/4.5.2/../../../../arm-none-eabi/include/c++/4.5.2/bits/stl_vector.h ****        *  Note that data access with this operator is unchecked and
 629:/opt/toolchains/arm-none-eabi/bin/../lib/gcc/arm-none-eabi/4.5.2/../../../../arm-none-eabi/include/c++/4.5.2/bits/stl_vector.h ****        *  out_of_range lookups are not defined. (For checked lookups
 630:/opt/toolchains/arm-none-eabi/bin/../lib/gcc/arm-none-eabi/4.5.2/../../../../arm-none-eabi/include/c++/4.5.2/bits/stl_vector.h ****        *  see at().)
 631:/opt/toolchains/arm-none-eabi/bin/../lib/gcc/arm-none-eabi/4.5.2/../../../../arm-none-eabi/include/c++/4.5.2/bits/stl_vector.h ****        */
 632:/opt/toolchains/arm-none-eabi/bin/../lib/gcc/arm-none-eabi/4.5.2/../../../../arm-none-eabi/include/c++/4.5.2/bits/stl_vector.h ****       const_reference
 633:/opt/toolchains/arm-none-eabi/bin/../lib/gcc/arm-none-eabi/4.5.2/../../../../arm-none-eabi/include/c++/4.5.2/bits/stl_vector.h ****       operator[](size_type __n) const
 634:/opt/toolchains/arm-none-eabi/bin/../lib/gcc/arm-none-eabi/4.5.2/../../../../arm-none-eabi/include/c++/4.5.2/bits/stl_vector.h ****       { return *(this->_M_impl._M_start + __n); }
 635:/opt/toolchains/arm-none-eabi/bin/../lib/gcc/arm-none-eabi/4.5.2/../../../../arm-none-eabi/include/c++/4.5.2/bits/stl_vector.h **** 
 636:/opt/toolchains/arm-none-eabi/bin/../lib/gcc/arm-none-eabi/4.5.2/../../../../arm-none-eabi/include/c++/4.5.2/bits/stl_vector.h ****     protected:
 637:/opt/toolchains/arm-none-eabi/bin/../lib/gcc/arm-none-eabi/4.5.2/../../../../arm-none-eabi/include/c++/4.5.2/bits/stl_vector.h ****       /// Safety check used only from at().
 638:/opt/toolchains/arm-none-eabi/bin/../lib/gcc/arm-none-eabi/4.5.2/../../../../arm-none-eabi/include/c++/4.5.2/bits/stl_vector.h ****       void
 639:/opt/toolchains/arm-none-eabi/bin/../lib/gcc/arm-none-eabi/4.5.2/../../../../arm-none-eabi/include/c++/4.5.2/bits/stl_vector.h ****       _M_range_check(size_type __n) const
 640:/opt/toolchains/arm-none-eabi/bin/../lib/gcc/arm-none-eabi/4.5.2/../../../../arm-none-eabi/include/c++/4.5.2/bits/stl_vector.h ****       {
 641:/opt/toolchains/arm-none-eabi/bin/../lib/gcc/arm-none-eabi/4.5.2/../../../../arm-none-eabi/include/c++/4.5.2/bits/stl_vector.h **** 	if (__n >= this->size())
 642:/opt/toolchains/arm-none-eabi/bin/../lib/gcc/arm-none-eabi/4.5.2/../../../../arm-none-eabi/include/c++/4.5.2/bits/stl_vector.h **** 	  __throw_out_of_range(__N("vector::_M_range_check"));
 643:/opt/toolchains/arm-none-eabi/bin/../lib/gcc/arm-none-eabi/4.5.2/../../../../arm-none-eabi/include/c++/4.5.2/bits/stl_vector.h ****       }
 644:/opt/toolchains/arm-none-eabi/bin/../lib/gcc/arm-none-eabi/4.5.2/../../../../arm-none-eabi/include/c++/4.5.2/bits/stl_vector.h **** 
 645:/opt/toolchains/arm-none-eabi/bin/../lib/gcc/arm-none-eabi/4.5.2/../../../../arm-none-eabi/include/c++/4.5.2/bits/stl_vector.h ****     public:
 646:/opt/toolchains/arm-none-eabi/bin/../lib/gcc/arm-none-eabi/4.5.2/../../../../arm-none-eabi/include/c++/4.5.2/bits/stl_vector.h ****       /**
 647:/opt/toolchains/arm-none-eabi/bin/../lib/gcc/arm-none-eabi/4.5.2/../../../../arm-none-eabi/include/c++/4.5.2/bits/stl_vector.h ****        *  @brief  Provides access to the data contained in the %vector.
 648:/opt/toolchains/arm-none-eabi/bin/../lib/gcc/arm-none-eabi/4.5.2/../../../../arm-none-eabi/include/c++/4.5.2/bits/stl_vector.h ****        *  @param n The index of the element for which data should be
 649:/opt/toolchains/arm-none-eabi/bin/../lib/gcc/arm-none-eabi/4.5.2/../../../../arm-none-eabi/include/c++/4.5.2/bits/stl_vector.h ****        *  accessed.
 650:/opt/toolchains/arm-none-eabi/bin/../lib/gcc/arm-none-eabi/4.5.2/../../../../arm-none-eabi/include/c++/4.5.2/bits/stl_vector.h ****        *  @return  Read/write reference to data.
 651:/opt/toolchains/arm-none-eabi/bin/../lib/gcc/arm-none-eabi/4.5.2/../../../../arm-none-eabi/include/c++/4.5.2/bits/stl_vector.h ****        *  @throw  std::out_of_range  If @a n is an invalid index.
 652:/opt/toolchains/arm-none-eabi/bin/../lib/gcc/arm-none-eabi/4.5.2/../../../../arm-none-eabi/include/c++/4.5.2/bits/stl_vector.h ****        *
 653:/opt/toolchains/arm-none-eabi/bin/../lib/gcc/arm-none-eabi/4.5.2/../../../../arm-none-eabi/include/c++/4.5.2/bits/stl_vector.h ****        *  This function provides for safer data access.  The parameter
 654:/opt/toolchains/arm-none-eabi/bin/../lib/gcc/arm-none-eabi/4.5.2/../../../../arm-none-eabi/include/c++/4.5.2/bits/stl_vector.h ****        *  is first checked that it is in the range of the vector.  The
 655:/opt/toolchains/arm-none-eabi/bin/../lib/gcc/arm-none-eabi/4.5.2/../../../../arm-none-eabi/include/c++/4.5.2/bits/stl_vector.h ****        *  function throws out_of_range if the check fails.
 656:/opt/toolchains/arm-none-eabi/bin/../lib/gcc/arm-none-eabi/4.5.2/../../../../arm-none-eabi/include/c++/4.5.2/bits/stl_vector.h ****        */
 657:/opt/toolchains/arm-none-eabi/bin/../lib/gcc/arm-none-eabi/4.5.2/../../../../arm-none-eabi/include/c++/4.5.2/bits/stl_vector.h ****       reference
 658:/opt/toolchains/arm-none-eabi/bin/../lib/gcc/arm-none-eabi/4.5.2/../../../../arm-none-eabi/include/c++/4.5.2/bits/stl_vector.h ****       at(size_type __n)
 659:/opt/toolchains/arm-none-eabi/bin/../lib/gcc/arm-none-eabi/4.5.2/../../../../arm-none-eabi/include/c++/4.5.2/bits/stl_vector.h ****       {
 660:/opt/toolchains/arm-none-eabi/bin/../lib/gcc/arm-none-eabi/4.5.2/../../../../arm-none-eabi/include/c++/4.5.2/bits/stl_vector.h **** 	_M_range_check(__n);
 661:/opt/toolchains/arm-none-eabi/bin/../lib/gcc/arm-none-eabi/4.5.2/../../../../arm-none-eabi/include/c++/4.5.2/bits/stl_vector.h **** 	return (*this)[__n]; 
 662:/opt/toolchains/arm-none-eabi/bin/../lib/gcc/arm-none-eabi/4.5.2/../../../../arm-none-eabi/include/c++/4.5.2/bits/stl_vector.h ****       }
 663:/opt/toolchains/arm-none-eabi/bin/../lib/gcc/arm-none-eabi/4.5.2/../../../../arm-none-eabi/include/c++/4.5.2/bits/stl_vector.h **** 
 664:/opt/toolchains/arm-none-eabi/bin/../lib/gcc/arm-none-eabi/4.5.2/../../../../arm-none-eabi/include/c++/4.5.2/bits/stl_vector.h ****       /**
 665:/opt/toolchains/arm-none-eabi/bin/../lib/gcc/arm-none-eabi/4.5.2/../../../../arm-none-eabi/include/c++/4.5.2/bits/stl_vector.h ****        *  @brief  Provides access to the data contained in the %vector.
 666:/opt/toolchains/arm-none-eabi/bin/../lib/gcc/arm-none-eabi/4.5.2/../../../../arm-none-eabi/include/c++/4.5.2/bits/stl_vector.h ****        *  @param n The index of the element for which data should be
 667:/opt/toolchains/arm-none-eabi/bin/../lib/gcc/arm-none-eabi/4.5.2/../../../../arm-none-eabi/include/c++/4.5.2/bits/stl_vector.h ****        *  accessed.
 668:/opt/toolchains/arm-none-eabi/bin/../lib/gcc/arm-none-eabi/4.5.2/../../../../arm-none-eabi/include/c++/4.5.2/bits/stl_vector.h ****        *  @return  Read-only (constant) reference to data.
 669:/opt/toolchains/arm-none-eabi/bin/../lib/gcc/arm-none-eabi/4.5.2/../../../../arm-none-eabi/include/c++/4.5.2/bits/stl_vector.h ****        *  @throw  std::out_of_range  If @a n is an invalid index.
 670:/opt/toolchains/arm-none-eabi/bin/../lib/gcc/arm-none-eabi/4.5.2/../../../../arm-none-eabi/include/c++/4.5.2/bits/stl_vector.h ****        *
 671:/opt/toolchains/arm-none-eabi/bin/../lib/gcc/arm-none-eabi/4.5.2/../../../../arm-none-eabi/include/c++/4.5.2/bits/stl_vector.h ****        *  This function provides for safer data access.  The parameter
 672:/opt/toolchains/arm-none-eabi/bin/../lib/gcc/arm-none-eabi/4.5.2/../../../../arm-none-eabi/include/c++/4.5.2/bits/stl_vector.h ****        *  is first checked that it is in the range of the vector.  The
 673:/opt/toolchains/arm-none-eabi/bin/../lib/gcc/arm-none-eabi/4.5.2/../../../../arm-none-eabi/include/c++/4.5.2/bits/stl_vector.h ****        *  function throws out_of_range if the check fails.
 674:/opt/toolchains/arm-none-eabi/bin/../lib/gcc/arm-none-eabi/4.5.2/../../../../arm-none-eabi/include/c++/4.5.2/bits/stl_vector.h ****        */
 675:/opt/toolchains/arm-none-eabi/bin/../lib/gcc/arm-none-eabi/4.5.2/../../../../arm-none-eabi/include/c++/4.5.2/bits/stl_vector.h ****       const_reference
 676:/opt/toolchains/arm-none-eabi/bin/../lib/gcc/arm-none-eabi/4.5.2/../../../../arm-none-eabi/include/c++/4.5.2/bits/stl_vector.h ****       at(size_type __n) const
 677:/opt/toolchains/arm-none-eabi/bin/../lib/gcc/arm-none-eabi/4.5.2/../../../../arm-none-eabi/include/c++/4.5.2/bits/stl_vector.h ****       {
 678:/opt/toolchains/arm-none-eabi/bin/../lib/gcc/arm-none-eabi/4.5.2/../../../../arm-none-eabi/include/c++/4.5.2/bits/stl_vector.h **** 	_M_range_check(__n);
 679:/opt/toolchains/arm-none-eabi/bin/../lib/gcc/arm-none-eabi/4.5.2/../../../../arm-none-eabi/include/c++/4.5.2/bits/stl_vector.h **** 	return (*this)[__n];
 680:/opt/toolchains/arm-none-eabi/bin/../lib/gcc/arm-none-eabi/4.5.2/../../../../arm-none-eabi/include/c++/4.5.2/bits/stl_vector.h ****       }
 681:/opt/toolchains/arm-none-eabi/bin/../lib/gcc/arm-none-eabi/4.5.2/../../../../arm-none-eabi/include/c++/4.5.2/bits/stl_vector.h **** 
 682:/opt/toolchains/arm-none-eabi/bin/../lib/gcc/arm-none-eabi/4.5.2/../../../../arm-none-eabi/include/c++/4.5.2/bits/stl_vector.h ****       /**
 683:/opt/toolchains/arm-none-eabi/bin/../lib/gcc/arm-none-eabi/4.5.2/../../../../arm-none-eabi/include/c++/4.5.2/bits/stl_vector.h ****        *  Returns a read/write reference to the data at the first
 684:/opt/toolchains/arm-none-eabi/bin/../lib/gcc/arm-none-eabi/4.5.2/../../../../arm-none-eabi/include/c++/4.5.2/bits/stl_vector.h ****        *  element of the %vector.
 685:/opt/toolchains/arm-none-eabi/bin/../lib/gcc/arm-none-eabi/4.5.2/../../../../arm-none-eabi/include/c++/4.5.2/bits/stl_vector.h ****        */
 686:/opt/toolchains/arm-none-eabi/bin/../lib/gcc/arm-none-eabi/4.5.2/../../../../arm-none-eabi/include/c++/4.5.2/bits/stl_vector.h ****       reference
 687:/opt/toolchains/arm-none-eabi/bin/../lib/gcc/arm-none-eabi/4.5.2/../../../../arm-none-eabi/include/c++/4.5.2/bits/stl_vector.h ****       front()
 688:/opt/toolchains/arm-none-eabi/bin/../lib/gcc/arm-none-eabi/4.5.2/../../../../arm-none-eabi/include/c++/4.5.2/bits/stl_vector.h ****       { return *begin(); }
 689:/opt/toolchains/arm-none-eabi/bin/../lib/gcc/arm-none-eabi/4.5.2/../../../../arm-none-eabi/include/c++/4.5.2/bits/stl_vector.h **** 
 690:/opt/toolchains/arm-none-eabi/bin/../lib/gcc/arm-none-eabi/4.5.2/../../../../arm-none-eabi/include/c++/4.5.2/bits/stl_vector.h ****       /**
 691:/opt/toolchains/arm-none-eabi/bin/../lib/gcc/arm-none-eabi/4.5.2/../../../../arm-none-eabi/include/c++/4.5.2/bits/stl_vector.h ****        *  Returns a read-only (constant) reference to the data at the first
 692:/opt/toolchains/arm-none-eabi/bin/../lib/gcc/arm-none-eabi/4.5.2/../../../../arm-none-eabi/include/c++/4.5.2/bits/stl_vector.h ****        *  element of the %vector.
 693:/opt/toolchains/arm-none-eabi/bin/../lib/gcc/arm-none-eabi/4.5.2/../../../../arm-none-eabi/include/c++/4.5.2/bits/stl_vector.h ****        */
 694:/opt/toolchains/arm-none-eabi/bin/../lib/gcc/arm-none-eabi/4.5.2/../../../../arm-none-eabi/include/c++/4.5.2/bits/stl_vector.h ****       const_reference
 695:/opt/toolchains/arm-none-eabi/bin/../lib/gcc/arm-none-eabi/4.5.2/../../../../arm-none-eabi/include/c++/4.5.2/bits/stl_vector.h ****       front() const
 696:/opt/toolchains/arm-none-eabi/bin/../lib/gcc/arm-none-eabi/4.5.2/../../../../arm-none-eabi/include/c++/4.5.2/bits/stl_vector.h ****       { return *begin(); }
 697:/opt/toolchains/arm-none-eabi/bin/../lib/gcc/arm-none-eabi/4.5.2/../../../../arm-none-eabi/include/c++/4.5.2/bits/stl_vector.h **** 
 698:/opt/toolchains/arm-none-eabi/bin/../lib/gcc/arm-none-eabi/4.5.2/../../../../arm-none-eabi/include/c++/4.5.2/bits/stl_vector.h ****       /**
 699:/opt/toolchains/arm-none-eabi/bin/../lib/gcc/arm-none-eabi/4.5.2/../../../../arm-none-eabi/include/c++/4.5.2/bits/stl_vector.h ****        *  Returns a read/write reference to the data at the last
 700:/opt/toolchains/arm-none-eabi/bin/../lib/gcc/arm-none-eabi/4.5.2/../../../../arm-none-eabi/include/c++/4.5.2/bits/stl_vector.h ****        *  element of the %vector.
 701:/opt/toolchains/arm-none-eabi/bin/../lib/gcc/arm-none-eabi/4.5.2/../../../../arm-none-eabi/include/c++/4.5.2/bits/stl_vector.h ****        */
 702:/opt/toolchains/arm-none-eabi/bin/../lib/gcc/arm-none-eabi/4.5.2/../../../../arm-none-eabi/include/c++/4.5.2/bits/stl_vector.h ****       reference
 703:/opt/toolchains/arm-none-eabi/bin/../lib/gcc/arm-none-eabi/4.5.2/../../../../arm-none-eabi/include/c++/4.5.2/bits/stl_vector.h ****       back()
 704:/opt/toolchains/arm-none-eabi/bin/../lib/gcc/arm-none-eabi/4.5.2/../../../../arm-none-eabi/include/c++/4.5.2/bits/stl_vector.h ****       { return *(end() - 1); }
 705:/opt/toolchains/arm-none-eabi/bin/../lib/gcc/arm-none-eabi/4.5.2/../../../../arm-none-eabi/include/c++/4.5.2/bits/stl_vector.h ****       
 706:/opt/toolchains/arm-none-eabi/bin/../lib/gcc/arm-none-eabi/4.5.2/../../../../arm-none-eabi/include/c++/4.5.2/bits/stl_vector.h ****       /**
 707:/opt/toolchains/arm-none-eabi/bin/../lib/gcc/arm-none-eabi/4.5.2/../../../../arm-none-eabi/include/c++/4.5.2/bits/stl_vector.h ****        *  Returns a read-only (constant) reference to the data at the
 708:/opt/toolchains/arm-none-eabi/bin/../lib/gcc/arm-none-eabi/4.5.2/../../../../arm-none-eabi/include/c++/4.5.2/bits/stl_vector.h ****        *  last element of the %vector.
 709:/opt/toolchains/arm-none-eabi/bin/../lib/gcc/arm-none-eabi/4.5.2/../../../../arm-none-eabi/include/c++/4.5.2/bits/stl_vector.h ****        */
 710:/opt/toolchains/arm-none-eabi/bin/../lib/gcc/arm-none-eabi/4.5.2/../../../../arm-none-eabi/include/c++/4.5.2/bits/stl_vector.h ****       const_reference
 711:/opt/toolchains/arm-none-eabi/bin/../lib/gcc/arm-none-eabi/4.5.2/../../../../arm-none-eabi/include/c++/4.5.2/bits/stl_vector.h ****       back() const
 712:/opt/toolchains/arm-none-eabi/bin/../lib/gcc/arm-none-eabi/4.5.2/../../../../arm-none-eabi/include/c++/4.5.2/bits/stl_vector.h ****       { return *(end() - 1); }
 713:/opt/toolchains/arm-none-eabi/bin/../lib/gcc/arm-none-eabi/4.5.2/../../../../arm-none-eabi/include/c++/4.5.2/bits/stl_vector.h **** 
 714:/opt/toolchains/arm-none-eabi/bin/../lib/gcc/arm-none-eabi/4.5.2/../../../../arm-none-eabi/include/c++/4.5.2/bits/stl_vector.h ****       // _GLIBCXX_RESOLVE_LIB_DEFECTS
 715:/opt/toolchains/arm-none-eabi/bin/../lib/gcc/arm-none-eabi/4.5.2/../../../../arm-none-eabi/include/c++/4.5.2/bits/stl_vector.h ****       // DR 464. Suggestion for new member functions in standard containers.
 716:/opt/toolchains/arm-none-eabi/bin/../lib/gcc/arm-none-eabi/4.5.2/../../../../arm-none-eabi/include/c++/4.5.2/bits/stl_vector.h ****       // data access
 717:/opt/toolchains/arm-none-eabi/bin/../lib/gcc/arm-none-eabi/4.5.2/../../../../arm-none-eabi/include/c++/4.5.2/bits/stl_vector.h ****       /**
 718:/opt/toolchains/arm-none-eabi/bin/../lib/gcc/arm-none-eabi/4.5.2/../../../../arm-none-eabi/include/c++/4.5.2/bits/stl_vector.h ****        *   Returns a pointer such that [data(), data() + size()) is a valid
 719:/opt/toolchains/arm-none-eabi/bin/../lib/gcc/arm-none-eabi/4.5.2/../../../../arm-none-eabi/include/c++/4.5.2/bits/stl_vector.h ****        *   range.  For a non-empty %vector, data() == &front().
 720:/opt/toolchains/arm-none-eabi/bin/../lib/gcc/arm-none-eabi/4.5.2/../../../../arm-none-eabi/include/c++/4.5.2/bits/stl_vector.h ****        */
 721:/opt/toolchains/arm-none-eabi/bin/../lib/gcc/arm-none-eabi/4.5.2/../../../../arm-none-eabi/include/c++/4.5.2/bits/stl_vector.h ****       pointer
 722:/opt/toolchains/arm-none-eabi/bin/../lib/gcc/arm-none-eabi/4.5.2/../../../../arm-none-eabi/include/c++/4.5.2/bits/stl_vector.h ****       data()
 723:/opt/toolchains/arm-none-eabi/bin/../lib/gcc/arm-none-eabi/4.5.2/../../../../arm-none-eabi/include/c++/4.5.2/bits/stl_vector.h ****       { return pointer(this->_M_impl._M_start); }
 724:/opt/toolchains/arm-none-eabi/bin/../lib/gcc/arm-none-eabi/4.5.2/../../../../arm-none-eabi/include/c++/4.5.2/bits/stl_vector.h **** 
 725:/opt/toolchains/arm-none-eabi/bin/../lib/gcc/arm-none-eabi/4.5.2/../../../../arm-none-eabi/include/c++/4.5.2/bits/stl_vector.h ****       const_pointer
 726:/opt/toolchains/arm-none-eabi/bin/../lib/gcc/arm-none-eabi/4.5.2/../../../../arm-none-eabi/include/c++/4.5.2/bits/stl_vector.h ****       data() const
 727:/opt/toolchains/arm-none-eabi/bin/../lib/gcc/arm-none-eabi/4.5.2/../../../../arm-none-eabi/include/c++/4.5.2/bits/stl_vector.h ****       { return const_pointer(this->_M_impl._M_start); }
 728:/opt/toolchains/arm-none-eabi/bin/../lib/gcc/arm-none-eabi/4.5.2/../../../../arm-none-eabi/include/c++/4.5.2/bits/stl_vector.h **** 
 729:/opt/toolchains/arm-none-eabi/bin/../lib/gcc/arm-none-eabi/4.5.2/../../../../arm-none-eabi/include/c++/4.5.2/bits/stl_vector.h ****       // [23.2.4.3] modifiers
 730:/opt/toolchains/arm-none-eabi/bin/../lib/gcc/arm-none-eabi/4.5.2/../../../../arm-none-eabi/include/c++/4.5.2/bits/stl_vector.h ****       /**
 731:/opt/toolchains/arm-none-eabi/bin/../lib/gcc/arm-none-eabi/4.5.2/../../../../arm-none-eabi/include/c++/4.5.2/bits/stl_vector.h ****        *  @brief  Add data to the end of the %vector.
 732:/opt/toolchains/arm-none-eabi/bin/../lib/gcc/arm-none-eabi/4.5.2/../../../../arm-none-eabi/include/c++/4.5.2/bits/stl_vector.h ****        *  @param  x  Data to be added.
 733:/opt/toolchains/arm-none-eabi/bin/../lib/gcc/arm-none-eabi/4.5.2/../../../../arm-none-eabi/include/c++/4.5.2/bits/stl_vector.h ****        *
 734:/opt/toolchains/arm-none-eabi/bin/../lib/gcc/arm-none-eabi/4.5.2/../../../../arm-none-eabi/include/c++/4.5.2/bits/stl_vector.h ****        *  This is a typical stack operation.  The function creates an
 735:/opt/toolchains/arm-none-eabi/bin/../lib/gcc/arm-none-eabi/4.5.2/../../../../arm-none-eabi/include/c++/4.5.2/bits/stl_vector.h ****        *  element at the end of the %vector and assigns the given data
 736:/opt/toolchains/arm-none-eabi/bin/../lib/gcc/arm-none-eabi/4.5.2/../../../../arm-none-eabi/include/c++/4.5.2/bits/stl_vector.h ****        *  to it.  Due to the nature of a %vector this operation can be
 737:/opt/toolchains/arm-none-eabi/bin/../lib/gcc/arm-none-eabi/4.5.2/../../../../arm-none-eabi/include/c++/4.5.2/bits/stl_vector.h ****        *  done in constant time if the %vector has preallocated space
 738:/opt/toolchains/arm-none-eabi/bin/../lib/gcc/arm-none-eabi/4.5.2/../../../../arm-none-eabi/include/c++/4.5.2/bits/stl_vector.h ****        *  available.
 739:/opt/toolchains/arm-none-eabi/bin/../lib/gcc/arm-none-eabi/4.5.2/../../../../arm-none-eabi/include/c++/4.5.2/bits/stl_vector.h ****        */
 740:/opt/toolchains/arm-none-eabi/bin/../lib/gcc/arm-none-eabi/4.5.2/../../../../arm-none-eabi/include/c++/4.5.2/bits/stl_vector.h ****       void
 741:/opt/toolchains/arm-none-eabi/bin/../lib/gcc/arm-none-eabi/4.5.2/../../../../arm-none-eabi/include/c++/4.5.2/bits/stl_vector.h ****       push_back(const value_type& __x)
 742:/opt/toolchains/arm-none-eabi/bin/../lib/gcc/arm-none-eabi/4.5.2/../../../../arm-none-eabi/include/c++/4.5.2/bits/stl_vector.h ****       {
 743:/opt/toolchains/arm-none-eabi/bin/../lib/gcc/arm-none-eabi/4.5.2/../../../../arm-none-eabi/include/c++/4.5.2/bits/stl_vector.h **** 	if (this->_M_impl._M_finish != this->_M_impl._M_end_of_storage)
 744:/opt/toolchains/arm-none-eabi/bin/../lib/gcc/arm-none-eabi/4.5.2/../../../../arm-none-eabi/include/c++/4.5.2/bits/stl_vector.h **** 	  {
 745:/opt/toolchains/arm-none-eabi/bin/../lib/gcc/arm-none-eabi/4.5.2/../../../../arm-none-eabi/include/c++/4.5.2/bits/stl_vector.h **** 	    this->_M_impl.construct(this->_M_impl._M_finish, __x);
 746:/opt/toolchains/arm-none-eabi/bin/../lib/gcc/arm-none-eabi/4.5.2/../../../../arm-none-eabi/include/c++/4.5.2/bits/stl_vector.h **** 	    ++this->_M_impl._M_finish;
 747:/opt/toolchains/arm-none-eabi/bin/../lib/gcc/arm-none-eabi/4.5.2/../../../../arm-none-eabi/include/c++/4.5.2/bits/stl_vector.h **** 	  }
 748:/opt/toolchains/arm-none-eabi/bin/../lib/gcc/arm-none-eabi/4.5.2/../../../../arm-none-eabi/include/c++/4.5.2/bits/stl_vector.h **** 	else
 749:/opt/toolchains/arm-none-eabi/bin/../lib/gcc/arm-none-eabi/4.5.2/../../../../arm-none-eabi/include/c++/4.5.2/bits/stl_vector.h **** 	  _M_insert_aux(end(), __x);
 750:/opt/toolchains/arm-none-eabi/bin/../lib/gcc/arm-none-eabi/4.5.2/../../../../arm-none-eabi/include/c++/4.5.2/bits/stl_vector.h ****       }
 751:/opt/toolchains/arm-none-eabi/bin/../lib/gcc/arm-none-eabi/4.5.2/../../../../arm-none-eabi/include/c++/4.5.2/bits/stl_vector.h **** 
 752:/opt/toolchains/arm-none-eabi/bin/../lib/gcc/arm-none-eabi/4.5.2/../../../../arm-none-eabi/include/c++/4.5.2/bits/stl_vector.h **** #ifdef __GXX_EXPERIMENTAL_CXX0X__
 753:/opt/toolchains/arm-none-eabi/bin/../lib/gcc/arm-none-eabi/4.5.2/../../../../arm-none-eabi/include/c++/4.5.2/bits/stl_vector.h ****       void
 754:/opt/toolchains/arm-none-eabi/bin/../lib/gcc/arm-none-eabi/4.5.2/../../../../arm-none-eabi/include/c++/4.5.2/bits/stl_vector.h ****       push_back(value_type&& __x)
 755:/opt/toolchains/arm-none-eabi/bin/../lib/gcc/arm-none-eabi/4.5.2/../../../../arm-none-eabi/include/c++/4.5.2/bits/stl_vector.h ****       { emplace_back(std::move(__x)); }
 756:/opt/toolchains/arm-none-eabi/bin/../lib/gcc/arm-none-eabi/4.5.2/../../../../arm-none-eabi/include/c++/4.5.2/bits/stl_vector.h **** 
 757:/opt/toolchains/arm-none-eabi/bin/../lib/gcc/arm-none-eabi/4.5.2/../../../../arm-none-eabi/include/c++/4.5.2/bits/stl_vector.h ****       template<typename... _Args>
 758:/opt/toolchains/arm-none-eabi/bin/../lib/gcc/arm-none-eabi/4.5.2/../../../../arm-none-eabi/include/c++/4.5.2/bits/stl_vector.h ****         void
 759:/opt/toolchains/arm-none-eabi/bin/../lib/gcc/arm-none-eabi/4.5.2/../../../../arm-none-eabi/include/c++/4.5.2/bits/stl_vector.h ****         emplace_back(_Args&&... __args);
 760:/opt/toolchains/arm-none-eabi/bin/../lib/gcc/arm-none-eabi/4.5.2/../../../../arm-none-eabi/include/c++/4.5.2/bits/stl_vector.h **** #endif
 761:/opt/toolchains/arm-none-eabi/bin/../lib/gcc/arm-none-eabi/4.5.2/../../../../arm-none-eabi/include/c++/4.5.2/bits/stl_vector.h **** 
 762:/opt/toolchains/arm-none-eabi/bin/../lib/gcc/arm-none-eabi/4.5.2/../../../../arm-none-eabi/include/c++/4.5.2/bits/stl_vector.h ****       /**
 763:/opt/toolchains/arm-none-eabi/bin/../lib/gcc/arm-none-eabi/4.5.2/../../../../arm-none-eabi/include/c++/4.5.2/bits/stl_vector.h ****        *  @brief  Removes last element.
 764:/opt/toolchains/arm-none-eabi/bin/../lib/gcc/arm-none-eabi/4.5.2/../../../../arm-none-eabi/include/c++/4.5.2/bits/stl_vector.h ****        *
 765:/opt/toolchains/arm-none-eabi/bin/../lib/gcc/arm-none-eabi/4.5.2/../../../../arm-none-eabi/include/c++/4.5.2/bits/stl_vector.h ****        *  This is a typical stack operation. It shrinks the %vector by one.
 766:/opt/toolchains/arm-none-eabi/bin/../lib/gcc/arm-none-eabi/4.5.2/../../../../arm-none-eabi/include/c++/4.5.2/bits/stl_vector.h ****        *
 767:/opt/toolchains/arm-none-eabi/bin/../lib/gcc/arm-none-eabi/4.5.2/../../../../arm-none-eabi/include/c++/4.5.2/bits/stl_vector.h ****        *  Note that no data is returned, and if the last element's
 768:/opt/toolchains/arm-none-eabi/bin/../lib/gcc/arm-none-eabi/4.5.2/../../../../arm-none-eabi/include/c++/4.5.2/bits/stl_vector.h ****        *  data is needed, it should be retrieved before pop_back() is
 769:/opt/toolchains/arm-none-eabi/bin/../lib/gcc/arm-none-eabi/4.5.2/../../../../arm-none-eabi/include/c++/4.5.2/bits/stl_vector.h ****        *  called.
 770:/opt/toolchains/arm-none-eabi/bin/../lib/gcc/arm-none-eabi/4.5.2/../../../../arm-none-eabi/include/c++/4.5.2/bits/stl_vector.h ****        */
 771:/opt/toolchains/arm-none-eabi/bin/../lib/gcc/arm-none-eabi/4.5.2/../../../../arm-none-eabi/include/c++/4.5.2/bits/stl_vector.h ****       void
 772:/opt/toolchains/arm-none-eabi/bin/../lib/gcc/arm-none-eabi/4.5.2/../../../../arm-none-eabi/include/c++/4.5.2/bits/stl_vector.h ****       pop_back()
 773:/opt/toolchains/arm-none-eabi/bin/../lib/gcc/arm-none-eabi/4.5.2/../../../../arm-none-eabi/include/c++/4.5.2/bits/stl_vector.h ****       {
 774:/opt/toolchains/arm-none-eabi/bin/../lib/gcc/arm-none-eabi/4.5.2/../../../../arm-none-eabi/include/c++/4.5.2/bits/stl_vector.h **** 	--this->_M_impl._M_finish;
 775:/opt/toolchains/arm-none-eabi/bin/../lib/gcc/arm-none-eabi/4.5.2/../../../../arm-none-eabi/include/c++/4.5.2/bits/stl_vector.h **** 	this->_M_impl.destroy(this->_M_impl._M_finish);
 776:/opt/toolchains/arm-none-eabi/bin/../lib/gcc/arm-none-eabi/4.5.2/../../../../arm-none-eabi/include/c++/4.5.2/bits/stl_vector.h ****       }
 777:/opt/toolchains/arm-none-eabi/bin/../lib/gcc/arm-none-eabi/4.5.2/../../../../arm-none-eabi/include/c++/4.5.2/bits/stl_vector.h **** 
 778:/opt/toolchains/arm-none-eabi/bin/../lib/gcc/arm-none-eabi/4.5.2/../../../../arm-none-eabi/include/c++/4.5.2/bits/stl_vector.h **** #ifdef __GXX_EXPERIMENTAL_CXX0X__
 779:/opt/toolchains/arm-none-eabi/bin/../lib/gcc/arm-none-eabi/4.5.2/../../../../arm-none-eabi/include/c++/4.5.2/bits/stl_vector.h ****       /**
 780:/opt/toolchains/arm-none-eabi/bin/../lib/gcc/arm-none-eabi/4.5.2/../../../../arm-none-eabi/include/c++/4.5.2/bits/stl_vector.h ****        *  @brief  Inserts an object in %vector before specified iterator.
 781:/opt/toolchains/arm-none-eabi/bin/../lib/gcc/arm-none-eabi/4.5.2/../../../../arm-none-eabi/include/c++/4.5.2/bits/stl_vector.h ****        *  @param  position  An iterator into the %vector.
 782:/opt/toolchains/arm-none-eabi/bin/../lib/gcc/arm-none-eabi/4.5.2/../../../../arm-none-eabi/include/c++/4.5.2/bits/stl_vector.h ****        *  @param  args  Arguments.
 783:/opt/toolchains/arm-none-eabi/bin/../lib/gcc/arm-none-eabi/4.5.2/../../../../arm-none-eabi/include/c++/4.5.2/bits/stl_vector.h ****        *  @return  An iterator that points to the inserted data.
 784:/opt/toolchains/arm-none-eabi/bin/../lib/gcc/arm-none-eabi/4.5.2/../../../../arm-none-eabi/include/c++/4.5.2/bits/stl_vector.h ****        *
 785:/opt/toolchains/arm-none-eabi/bin/../lib/gcc/arm-none-eabi/4.5.2/../../../../arm-none-eabi/include/c++/4.5.2/bits/stl_vector.h ****        *  This function will insert an object of type T constructed
 786:/opt/toolchains/arm-none-eabi/bin/../lib/gcc/arm-none-eabi/4.5.2/../../../../arm-none-eabi/include/c++/4.5.2/bits/stl_vector.h ****        *  with T(std::forward<Args>(args)...) before the specified location.
 787:/opt/toolchains/arm-none-eabi/bin/../lib/gcc/arm-none-eabi/4.5.2/../../../../arm-none-eabi/include/c++/4.5.2/bits/stl_vector.h ****        *  Note that this kind of operation could be expensive for a %vector
 788:/opt/toolchains/arm-none-eabi/bin/../lib/gcc/arm-none-eabi/4.5.2/../../../../arm-none-eabi/include/c++/4.5.2/bits/stl_vector.h ****        *  and if it is frequently used the user should consider using
 789:/opt/toolchains/arm-none-eabi/bin/../lib/gcc/arm-none-eabi/4.5.2/../../../../arm-none-eabi/include/c++/4.5.2/bits/stl_vector.h ****        *  std::list.
 790:/opt/toolchains/arm-none-eabi/bin/../lib/gcc/arm-none-eabi/4.5.2/../../../../arm-none-eabi/include/c++/4.5.2/bits/stl_vector.h ****        */
 791:/opt/toolchains/arm-none-eabi/bin/../lib/gcc/arm-none-eabi/4.5.2/../../../../arm-none-eabi/include/c++/4.5.2/bits/stl_vector.h ****       template<typename... _Args>
 792:/opt/toolchains/arm-none-eabi/bin/../lib/gcc/arm-none-eabi/4.5.2/../../../../arm-none-eabi/include/c++/4.5.2/bits/stl_vector.h ****         iterator
 793:/opt/toolchains/arm-none-eabi/bin/../lib/gcc/arm-none-eabi/4.5.2/../../../../arm-none-eabi/include/c++/4.5.2/bits/stl_vector.h ****         emplace(iterator __position, _Args&&... __args);
 794:/opt/toolchains/arm-none-eabi/bin/../lib/gcc/arm-none-eabi/4.5.2/../../../../arm-none-eabi/include/c++/4.5.2/bits/stl_vector.h **** #endif
 795:/opt/toolchains/arm-none-eabi/bin/../lib/gcc/arm-none-eabi/4.5.2/../../../../arm-none-eabi/include/c++/4.5.2/bits/stl_vector.h **** 
 796:/opt/toolchains/arm-none-eabi/bin/../lib/gcc/arm-none-eabi/4.5.2/../../../../arm-none-eabi/include/c++/4.5.2/bits/stl_vector.h ****       /**
 797:/opt/toolchains/arm-none-eabi/bin/../lib/gcc/arm-none-eabi/4.5.2/../../../../arm-none-eabi/include/c++/4.5.2/bits/stl_vector.h ****        *  @brief  Inserts given value into %vector before specified iterator.
 798:/opt/toolchains/arm-none-eabi/bin/../lib/gcc/arm-none-eabi/4.5.2/../../../../arm-none-eabi/include/c++/4.5.2/bits/stl_vector.h ****        *  @param  position  An iterator into the %vector.
 799:/opt/toolchains/arm-none-eabi/bin/../lib/gcc/arm-none-eabi/4.5.2/../../../../arm-none-eabi/include/c++/4.5.2/bits/stl_vector.h ****        *  @param  x  Data to be inserted.
 800:/opt/toolchains/arm-none-eabi/bin/../lib/gcc/arm-none-eabi/4.5.2/../../../../arm-none-eabi/include/c++/4.5.2/bits/stl_vector.h ****        *  @return  An iterator that points to the inserted data.
 801:/opt/toolchains/arm-none-eabi/bin/../lib/gcc/arm-none-eabi/4.5.2/../../../../arm-none-eabi/include/c++/4.5.2/bits/stl_vector.h ****        *
 802:/opt/toolchains/arm-none-eabi/bin/../lib/gcc/arm-none-eabi/4.5.2/../../../../arm-none-eabi/include/c++/4.5.2/bits/stl_vector.h ****        *  This function will insert a copy of the given value before
 803:/opt/toolchains/arm-none-eabi/bin/../lib/gcc/arm-none-eabi/4.5.2/../../../../arm-none-eabi/include/c++/4.5.2/bits/stl_vector.h ****        *  the specified location.  Note that this kind of operation
 804:/opt/toolchains/arm-none-eabi/bin/../lib/gcc/arm-none-eabi/4.5.2/../../../../arm-none-eabi/include/c++/4.5.2/bits/stl_vector.h ****        *  could be expensive for a %vector and if it is frequently
 805:/opt/toolchains/arm-none-eabi/bin/../lib/gcc/arm-none-eabi/4.5.2/../../../../arm-none-eabi/include/c++/4.5.2/bits/stl_vector.h ****        *  used the user should consider using std::list.
 806:/opt/toolchains/arm-none-eabi/bin/../lib/gcc/arm-none-eabi/4.5.2/../../../../arm-none-eabi/include/c++/4.5.2/bits/stl_vector.h ****        */
 807:/opt/toolchains/arm-none-eabi/bin/../lib/gcc/arm-none-eabi/4.5.2/../../../../arm-none-eabi/include/c++/4.5.2/bits/stl_vector.h ****       iterator
 808:/opt/toolchains/arm-none-eabi/bin/../lib/gcc/arm-none-eabi/4.5.2/../../../../arm-none-eabi/include/c++/4.5.2/bits/stl_vector.h ****       insert(iterator __position, const value_type& __x);
 809:/opt/toolchains/arm-none-eabi/bin/../lib/gcc/arm-none-eabi/4.5.2/../../../../arm-none-eabi/include/c++/4.5.2/bits/stl_vector.h **** 
 810:/opt/toolchains/arm-none-eabi/bin/../lib/gcc/arm-none-eabi/4.5.2/../../../../arm-none-eabi/include/c++/4.5.2/bits/stl_vector.h **** #ifdef __GXX_EXPERIMENTAL_CXX0X__
 811:/opt/toolchains/arm-none-eabi/bin/../lib/gcc/arm-none-eabi/4.5.2/../../../../arm-none-eabi/include/c++/4.5.2/bits/stl_vector.h ****       /**
 812:/opt/toolchains/arm-none-eabi/bin/../lib/gcc/arm-none-eabi/4.5.2/../../../../arm-none-eabi/include/c++/4.5.2/bits/stl_vector.h ****        *  @brief  Inserts given rvalue into %vector before specified iterator.
 813:/opt/toolchains/arm-none-eabi/bin/../lib/gcc/arm-none-eabi/4.5.2/../../../../arm-none-eabi/include/c++/4.5.2/bits/stl_vector.h ****        *  @param  position  An iterator into the %vector.
 814:/opt/toolchains/arm-none-eabi/bin/../lib/gcc/arm-none-eabi/4.5.2/../../../../arm-none-eabi/include/c++/4.5.2/bits/stl_vector.h ****        *  @param  x  Data to be inserted.
 815:/opt/toolchains/arm-none-eabi/bin/../lib/gcc/arm-none-eabi/4.5.2/../../../../arm-none-eabi/include/c++/4.5.2/bits/stl_vector.h ****        *  @return  An iterator that points to the inserted data.
 816:/opt/toolchains/arm-none-eabi/bin/../lib/gcc/arm-none-eabi/4.5.2/../../../../arm-none-eabi/include/c++/4.5.2/bits/stl_vector.h ****        *
 817:/opt/toolchains/arm-none-eabi/bin/../lib/gcc/arm-none-eabi/4.5.2/../../../../arm-none-eabi/include/c++/4.5.2/bits/stl_vector.h ****        *  This function will insert a copy of the given rvalue before
 818:/opt/toolchains/arm-none-eabi/bin/../lib/gcc/arm-none-eabi/4.5.2/../../../../arm-none-eabi/include/c++/4.5.2/bits/stl_vector.h ****        *  the specified location.  Note that this kind of operation
 819:/opt/toolchains/arm-none-eabi/bin/../lib/gcc/arm-none-eabi/4.5.2/../../../../arm-none-eabi/include/c++/4.5.2/bits/stl_vector.h ****        *  could be expensive for a %vector and if it is frequently
 820:/opt/toolchains/arm-none-eabi/bin/../lib/gcc/arm-none-eabi/4.5.2/../../../../arm-none-eabi/include/c++/4.5.2/bits/stl_vector.h ****        *  used the user should consider using std::list.
 821:/opt/toolchains/arm-none-eabi/bin/../lib/gcc/arm-none-eabi/4.5.2/../../../../arm-none-eabi/include/c++/4.5.2/bits/stl_vector.h ****        */
 822:/opt/toolchains/arm-none-eabi/bin/../lib/gcc/arm-none-eabi/4.5.2/../../../../arm-none-eabi/include/c++/4.5.2/bits/stl_vector.h ****       iterator
 823:/opt/toolchains/arm-none-eabi/bin/../lib/gcc/arm-none-eabi/4.5.2/../../../../arm-none-eabi/include/c++/4.5.2/bits/stl_vector.h ****       insert(iterator __position, value_type&& __x)
 824:/opt/toolchains/arm-none-eabi/bin/../lib/gcc/arm-none-eabi/4.5.2/../../../../arm-none-eabi/include/c++/4.5.2/bits/stl_vector.h ****       { return emplace(__position, std::move(__x)); }
 825:/opt/toolchains/arm-none-eabi/bin/../lib/gcc/arm-none-eabi/4.5.2/../../../../arm-none-eabi/include/c++/4.5.2/bits/stl_vector.h **** 
 826:/opt/toolchains/arm-none-eabi/bin/../lib/gcc/arm-none-eabi/4.5.2/../../../../arm-none-eabi/include/c++/4.5.2/bits/stl_vector.h ****       /**
 827:/opt/toolchains/arm-none-eabi/bin/../lib/gcc/arm-none-eabi/4.5.2/../../../../arm-none-eabi/include/c++/4.5.2/bits/stl_vector.h ****        *  @brief  Inserts an initializer_list into the %vector.
 828:/opt/toolchains/arm-none-eabi/bin/../lib/gcc/arm-none-eabi/4.5.2/../../../../arm-none-eabi/include/c++/4.5.2/bits/stl_vector.h ****        *  @param  position  An iterator into the %vector.
 829:/opt/toolchains/arm-none-eabi/bin/../lib/gcc/arm-none-eabi/4.5.2/../../../../arm-none-eabi/include/c++/4.5.2/bits/stl_vector.h ****        *  @param  l  An initializer_list.
 830:/opt/toolchains/arm-none-eabi/bin/../lib/gcc/arm-none-eabi/4.5.2/../../../../arm-none-eabi/include/c++/4.5.2/bits/stl_vector.h ****        *
 831:/opt/toolchains/arm-none-eabi/bin/../lib/gcc/arm-none-eabi/4.5.2/../../../../arm-none-eabi/include/c++/4.5.2/bits/stl_vector.h ****        *  This function will insert copies of the data in the 
 832:/opt/toolchains/arm-none-eabi/bin/../lib/gcc/arm-none-eabi/4.5.2/../../../../arm-none-eabi/include/c++/4.5.2/bits/stl_vector.h ****        *  initializer_list @a l into the %vector before the location
 833:/opt/toolchains/arm-none-eabi/bin/../lib/gcc/arm-none-eabi/4.5.2/../../../../arm-none-eabi/include/c++/4.5.2/bits/stl_vector.h ****        *  specified by @a position.
 834:/opt/toolchains/arm-none-eabi/bin/../lib/gcc/arm-none-eabi/4.5.2/../../../../arm-none-eabi/include/c++/4.5.2/bits/stl_vector.h ****        *
 835:/opt/toolchains/arm-none-eabi/bin/../lib/gcc/arm-none-eabi/4.5.2/../../../../arm-none-eabi/include/c++/4.5.2/bits/stl_vector.h ****        *  Note that this kind of operation could be expensive for a
 836:/opt/toolchains/arm-none-eabi/bin/../lib/gcc/arm-none-eabi/4.5.2/../../../../arm-none-eabi/include/c++/4.5.2/bits/stl_vector.h ****        *  %vector and if it is frequently used the user should
 837:/opt/toolchains/arm-none-eabi/bin/../lib/gcc/arm-none-eabi/4.5.2/../../../../arm-none-eabi/include/c++/4.5.2/bits/stl_vector.h ****        *  consider using std::list.
 838:/opt/toolchains/arm-none-eabi/bin/../lib/gcc/arm-none-eabi/4.5.2/../../../../arm-none-eabi/include/c++/4.5.2/bits/stl_vector.h ****        */
 839:/opt/toolchains/arm-none-eabi/bin/../lib/gcc/arm-none-eabi/4.5.2/../../../../arm-none-eabi/include/c++/4.5.2/bits/stl_vector.h ****       void
 840:/opt/toolchains/arm-none-eabi/bin/../lib/gcc/arm-none-eabi/4.5.2/../../../../arm-none-eabi/include/c++/4.5.2/bits/stl_vector.h ****       insert(iterator __position, initializer_list<value_type> __l)
 841:/opt/toolchains/arm-none-eabi/bin/../lib/gcc/arm-none-eabi/4.5.2/../../../../arm-none-eabi/include/c++/4.5.2/bits/stl_vector.h ****       { this->insert(__position, __l.begin(), __l.end()); }
 842:/opt/toolchains/arm-none-eabi/bin/../lib/gcc/arm-none-eabi/4.5.2/../../../../arm-none-eabi/include/c++/4.5.2/bits/stl_vector.h **** #endif
 843:/opt/toolchains/arm-none-eabi/bin/../lib/gcc/arm-none-eabi/4.5.2/../../../../arm-none-eabi/include/c++/4.5.2/bits/stl_vector.h **** 
 844:/opt/toolchains/arm-none-eabi/bin/../lib/gcc/arm-none-eabi/4.5.2/../../../../arm-none-eabi/include/c++/4.5.2/bits/stl_vector.h ****       /**
 845:/opt/toolchains/arm-none-eabi/bin/../lib/gcc/arm-none-eabi/4.5.2/../../../../arm-none-eabi/include/c++/4.5.2/bits/stl_vector.h ****        *  @brief  Inserts a number of copies of given data into the %vector.
 846:/opt/toolchains/arm-none-eabi/bin/../lib/gcc/arm-none-eabi/4.5.2/../../../../arm-none-eabi/include/c++/4.5.2/bits/stl_vector.h ****        *  @param  position  An iterator into the %vector.
 847:/opt/toolchains/arm-none-eabi/bin/../lib/gcc/arm-none-eabi/4.5.2/../../../../arm-none-eabi/include/c++/4.5.2/bits/stl_vector.h ****        *  @param  n  Number of elements to be inserted.
 848:/opt/toolchains/arm-none-eabi/bin/../lib/gcc/arm-none-eabi/4.5.2/../../../../arm-none-eabi/include/c++/4.5.2/bits/stl_vector.h ****        *  @param  x  Data to be inserted.
 849:/opt/toolchains/arm-none-eabi/bin/../lib/gcc/arm-none-eabi/4.5.2/../../../../arm-none-eabi/include/c++/4.5.2/bits/stl_vector.h ****        *
 850:/opt/toolchains/arm-none-eabi/bin/../lib/gcc/arm-none-eabi/4.5.2/../../../../arm-none-eabi/include/c++/4.5.2/bits/stl_vector.h ****        *  This function will insert a specified number of copies of
 851:/opt/toolchains/arm-none-eabi/bin/../lib/gcc/arm-none-eabi/4.5.2/../../../../arm-none-eabi/include/c++/4.5.2/bits/stl_vector.h ****        *  the given data before the location specified by @a position.
 852:/opt/toolchains/arm-none-eabi/bin/../lib/gcc/arm-none-eabi/4.5.2/../../../../arm-none-eabi/include/c++/4.5.2/bits/stl_vector.h ****        *
 853:/opt/toolchains/arm-none-eabi/bin/../lib/gcc/arm-none-eabi/4.5.2/../../../../arm-none-eabi/include/c++/4.5.2/bits/stl_vector.h ****        *  Note that this kind of operation could be expensive for a
 854:/opt/toolchains/arm-none-eabi/bin/../lib/gcc/arm-none-eabi/4.5.2/../../../../arm-none-eabi/include/c++/4.5.2/bits/stl_vector.h ****        *  %vector and if it is frequently used the user should
 855:/opt/toolchains/arm-none-eabi/bin/../lib/gcc/arm-none-eabi/4.5.2/../../../../arm-none-eabi/include/c++/4.5.2/bits/stl_vector.h ****        *  consider using std::list.
 856:/opt/toolchains/arm-none-eabi/bin/../lib/gcc/arm-none-eabi/4.5.2/../../../../arm-none-eabi/include/c++/4.5.2/bits/stl_vector.h ****        */
 857:/opt/toolchains/arm-none-eabi/bin/../lib/gcc/arm-none-eabi/4.5.2/../../../../arm-none-eabi/include/c++/4.5.2/bits/stl_vector.h ****       void
 858:/opt/toolchains/arm-none-eabi/bin/../lib/gcc/arm-none-eabi/4.5.2/../../../../arm-none-eabi/include/c++/4.5.2/bits/stl_vector.h ****       insert(iterator __position, size_type __n, const value_type& __x)
 859:/opt/toolchains/arm-none-eabi/bin/../lib/gcc/arm-none-eabi/4.5.2/../../../../arm-none-eabi/include/c++/4.5.2/bits/stl_vector.h ****       { _M_fill_insert(__position, __n, __x); }
 860:/opt/toolchains/arm-none-eabi/bin/../lib/gcc/arm-none-eabi/4.5.2/../../../../arm-none-eabi/include/c++/4.5.2/bits/stl_vector.h **** 
 861:/opt/toolchains/arm-none-eabi/bin/../lib/gcc/arm-none-eabi/4.5.2/../../../../arm-none-eabi/include/c++/4.5.2/bits/stl_vector.h ****       /**
 862:/opt/toolchains/arm-none-eabi/bin/../lib/gcc/arm-none-eabi/4.5.2/../../../../arm-none-eabi/include/c++/4.5.2/bits/stl_vector.h ****        *  @brief  Inserts a range into the %vector.
 863:/opt/toolchains/arm-none-eabi/bin/../lib/gcc/arm-none-eabi/4.5.2/../../../../arm-none-eabi/include/c++/4.5.2/bits/stl_vector.h ****        *  @param  position  An iterator into the %vector.
 864:/opt/toolchains/arm-none-eabi/bin/../lib/gcc/arm-none-eabi/4.5.2/../../../../arm-none-eabi/include/c++/4.5.2/bits/stl_vector.h ****        *  @param  first  An input iterator.
 865:/opt/toolchains/arm-none-eabi/bin/../lib/gcc/arm-none-eabi/4.5.2/../../../../arm-none-eabi/include/c++/4.5.2/bits/stl_vector.h ****        *  @param  last   An input iterator.
 866:/opt/toolchains/arm-none-eabi/bin/../lib/gcc/arm-none-eabi/4.5.2/../../../../arm-none-eabi/include/c++/4.5.2/bits/stl_vector.h ****        *
 867:/opt/toolchains/arm-none-eabi/bin/../lib/gcc/arm-none-eabi/4.5.2/../../../../arm-none-eabi/include/c++/4.5.2/bits/stl_vector.h ****        *  This function will insert copies of the data in the range
 868:/opt/toolchains/arm-none-eabi/bin/../lib/gcc/arm-none-eabi/4.5.2/../../../../arm-none-eabi/include/c++/4.5.2/bits/stl_vector.h ****        *  [first,last) into the %vector before the location specified
 869:/opt/toolchains/arm-none-eabi/bin/../lib/gcc/arm-none-eabi/4.5.2/../../../../arm-none-eabi/include/c++/4.5.2/bits/stl_vector.h ****        *  by @a pos.
 870:/opt/toolchains/arm-none-eabi/bin/../lib/gcc/arm-none-eabi/4.5.2/../../../../arm-none-eabi/include/c++/4.5.2/bits/stl_vector.h ****        *
 871:/opt/toolchains/arm-none-eabi/bin/../lib/gcc/arm-none-eabi/4.5.2/../../../../arm-none-eabi/include/c++/4.5.2/bits/stl_vector.h ****        *  Note that this kind of operation could be expensive for a
 872:/opt/toolchains/arm-none-eabi/bin/../lib/gcc/arm-none-eabi/4.5.2/../../../../arm-none-eabi/include/c++/4.5.2/bits/stl_vector.h ****        *  %vector and if it is frequently used the user should
 873:/opt/toolchains/arm-none-eabi/bin/../lib/gcc/arm-none-eabi/4.5.2/../../../../arm-none-eabi/include/c++/4.5.2/bits/stl_vector.h ****        *  consider using std::list.
 874:/opt/toolchains/arm-none-eabi/bin/../lib/gcc/arm-none-eabi/4.5.2/../../../../arm-none-eabi/include/c++/4.5.2/bits/stl_vector.h ****        */
 875:/opt/toolchains/arm-none-eabi/bin/../lib/gcc/arm-none-eabi/4.5.2/../../../../arm-none-eabi/include/c++/4.5.2/bits/stl_vector.h ****       template<typename _InputIterator>
 876:/opt/toolchains/arm-none-eabi/bin/../lib/gcc/arm-none-eabi/4.5.2/../../../../arm-none-eabi/include/c++/4.5.2/bits/stl_vector.h ****         void
 877:/opt/toolchains/arm-none-eabi/bin/../lib/gcc/arm-none-eabi/4.5.2/../../../../arm-none-eabi/include/c++/4.5.2/bits/stl_vector.h ****         insert(iterator __position, _InputIterator __first,
 878:/opt/toolchains/arm-none-eabi/bin/../lib/gcc/arm-none-eabi/4.5.2/../../../../arm-none-eabi/include/c++/4.5.2/bits/stl_vector.h **** 	       _InputIterator __last)
 879:/opt/toolchains/arm-none-eabi/bin/../lib/gcc/arm-none-eabi/4.5.2/../../../../arm-none-eabi/include/c++/4.5.2/bits/stl_vector.h ****         {
 880:/opt/toolchains/arm-none-eabi/bin/../lib/gcc/arm-none-eabi/4.5.2/../../../../arm-none-eabi/include/c++/4.5.2/bits/stl_vector.h **** 	  // Check whether it's an integral type.  If so, it's not an iterator.
 881:/opt/toolchains/arm-none-eabi/bin/../lib/gcc/arm-none-eabi/4.5.2/../../../../arm-none-eabi/include/c++/4.5.2/bits/stl_vector.h **** 	  typedef typename std::__is_integer<_InputIterator>::__type _Integral;
 882:/opt/toolchains/arm-none-eabi/bin/../lib/gcc/arm-none-eabi/4.5.2/../../../../arm-none-eabi/include/c++/4.5.2/bits/stl_vector.h **** 	  _M_insert_dispatch(__position, __first, __last, _Integral());
 883:/opt/toolchains/arm-none-eabi/bin/../lib/gcc/arm-none-eabi/4.5.2/../../../../arm-none-eabi/include/c++/4.5.2/bits/stl_vector.h **** 	}
 884:/opt/toolchains/arm-none-eabi/bin/../lib/gcc/arm-none-eabi/4.5.2/../../../../arm-none-eabi/include/c++/4.5.2/bits/stl_vector.h **** 
 885:/opt/toolchains/arm-none-eabi/bin/../lib/gcc/arm-none-eabi/4.5.2/../../../../arm-none-eabi/include/c++/4.5.2/bits/stl_vector.h ****       /**
 886:/opt/toolchains/arm-none-eabi/bin/../lib/gcc/arm-none-eabi/4.5.2/../../../../arm-none-eabi/include/c++/4.5.2/bits/stl_vector.h ****        *  @brief  Remove element at given position.
 887:/opt/toolchains/arm-none-eabi/bin/../lib/gcc/arm-none-eabi/4.5.2/../../../../arm-none-eabi/include/c++/4.5.2/bits/stl_vector.h ****        *  @param  position  Iterator pointing to element to be erased.
 888:/opt/toolchains/arm-none-eabi/bin/../lib/gcc/arm-none-eabi/4.5.2/../../../../arm-none-eabi/include/c++/4.5.2/bits/stl_vector.h ****        *  @return  An iterator pointing to the next element (or end()).
 889:/opt/toolchains/arm-none-eabi/bin/../lib/gcc/arm-none-eabi/4.5.2/../../../../arm-none-eabi/include/c++/4.5.2/bits/stl_vector.h ****        *
 890:/opt/toolchains/arm-none-eabi/bin/../lib/gcc/arm-none-eabi/4.5.2/../../../../arm-none-eabi/include/c++/4.5.2/bits/stl_vector.h ****        *  This function will erase the element at the given position and thus
 891:/opt/toolchains/arm-none-eabi/bin/../lib/gcc/arm-none-eabi/4.5.2/../../../../arm-none-eabi/include/c++/4.5.2/bits/stl_vector.h ****        *  shorten the %vector by one.
 892:/opt/toolchains/arm-none-eabi/bin/../lib/gcc/arm-none-eabi/4.5.2/../../../../arm-none-eabi/include/c++/4.5.2/bits/stl_vector.h ****        *
 893:/opt/toolchains/arm-none-eabi/bin/../lib/gcc/arm-none-eabi/4.5.2/../../../../arm-none-eabi/include/c++/4.5.2/bits/stl_vector.h ****        *  Note This operation could be expensive and if it is
 894:/opt/toolchains/arm-none-eabi/bin/../lib/gcc/arm-none-eabi/4.5.2/../../../../arm-none-eabi/include/c++/4.5.2/bits/stl_vector.h ****        *  frequently used the user should consider using std::list.
 895:/opt/toolchains/arm-none-eabi/bin/../lib/gcc/arm-none-eabi/4.5.2/../../../../arm-none-eabi/include/c++/4.5.2/bits/stl_vector.h ****        *  The user is also cautioned that this function only erases
 896:/opt/toolchains/arm-none-eabi/bin/../lib/gcc/arm-none-eabi/4.5.2/../../../../arm-none-eabi/include/c++/4.5.2/bits/stl_vector.h ****        *  the element, and that if the element is itself a pointer,
 897:/opt/toolchains/arm-none-eabi/bin/../lib/gcc/arm-none-eabi/4.5.2/../../../../arm-none-eabi/include/c++/4.5.2/bits/stl_vector.h ****        *  the pointed-to memory is not touched in any way.  Managing
 898:/opt/toolchains/arm-none-eabi/bin/../lib/gcc/arm-none-eabi/4.5.2/../../../../arm-none-eabi/include/c++/4.5.2/bits/stl_vector.h ****        *  the pointer is the user's responsibility.
 899:/opt/toolchains/arm-none-eabi/bin/../lib/gcc/arm-none-eabi/4.5.2/../../../../arm-none-eabi/include/c++/4.5.2/bits/stl_vector.h ****        */
 900:/opt/toolchains/arm-none-eabi/bin/../lib/gcc/arm-none-eabi/4.5.2/../../../../arm-none-eabi/include/c++/4.5.2/bits/stl_vector.h ****       iterator
 901:/opt/toolchains/arm-none-eabi/bin/../lib/gcc/arm-none-eabi/4.5.2/../../../../arm-none-eabi/include/c++/4.5.2/bits/stl_vector.h ****       erase(iterator __position);
 902:/opt/toolchains/arm-none-eabi/bin/../lib/gcc/arm-none-eabi/4.5.2/../../../../arm-none-eabi/include/c++/4.5.2/bits/stl_vector.h **** 
 903:/opt/toolchains/arm-none-eabi/bin/../lib/gcc/arm-none-eabi/4.5.2/../../../../arm-none-eabi/include/c++/4.5.2/bits/stl_vector.h ****       /**
 904:/opt/toolchains/arm-none-eabi/bin/../lib/gcc/arm-none-eabi/4.5.2/../../../../arm-none-eabi/include/c++/4.5.2/bits/stl_vector.h ****        *  @brief  Remove a range of elements.
 905:/opt/toolchains/arm-none-eabi/bin/../lib/gcc/arm-none-eabi/4.5.2/../../../../arm-none-eabi/include/c++/4.5.2/bits/stl_vector.h ****        *  @param  first  Iterator pointing to the first element to be erased.
 906:/opt/toolchains/arm-none-eabi/bin/../lib/gcc/arm-none-eabi/4.5.2/../../../../arm-none-eabi/include/c++/4.5.2/bits/stl_vector.h ****        *  @param  last  Iterator pointing to one past the last element to be
 907:/opt/toolchains/arm-none-eabi/bin/../lib/gcc/arm-none-eabi/4.5.2/../../../../arm-none-eabi/include/c++/4.5.2/bits/stl_vector.h ****        *                erased.
 908:/opt/toolchains/arm-none-eabi/bin/../lib/gcc/arm-none-eabi/4.5.2/../../../../arm-none-eabi/include/c++/4.5.2/bits/stl_vector.h ****        *  @return  An iterator pointing to the element pointed to by @a last
 909:/opt/toolchains/arm-none-eabi/bin/../lib/gcc/arm-none-eabi/4.5.2/../../../../arm-none-eabi/include/c++/4.5.2/bits/stl_vector.h ****        *           prior to erasing (or end()).
 910:/opt/toolchains/arm-none-eabi/bin/../lib/gcc/arm-none-eabi/4.5.2/../../../../arm-none-eabi/include/c++/4.5.2/bits/stl_vector.h ****        *
 911:/opt/toolchains/arm-none-eabi/bin/../lib/gcc/arm-none-eabi/4.5.2/../../../../arm-none-eabi/include/c++/4.5.2/bits/stl_vector.h ****        *  This function will erase the elements in the range [first,last) and
 912:/opt/toolchains/arm-none-eabi/bin/../lib/gcc/arm-none-eabi/4.5.2/../../../../arm-none-eabi/include/c++/4.5.2/bits/stl_vector.h ****        *  shorten the %vector accordingly.
 913:/opt/toolchains/arm-none-eabi/bin/../lib/gcc/arm-none-eabi/4.5.2/../../../../arm-none-eabi/include/c++/4.5.2/bits/stl_vector.h ****        *
 914:/opt/toolchains/arm-none-eabi/bin/../lib/gcc/arm-none-eabi/4.5.2/../../../../arm-none-eabi/include/c++/4.5.2/bits/stl_vector.h ****        *  Note This operation could be expensive and if it is
 915:/opt/toolchains/arm-none-eabi/bin/../lib/gcc/arm-none-eabi/4.5.2/../../../../arm-none-eabi/include/c++/4.5.2/bits/stl_vector.h ****        *  frequently used the user should consider using std::list.
 916:/opt/toolchains/arm-none-eabi/bin/../lib/gcc/arm-none-eabi/4.5.2/../../../../arm-none-eabi/include/c++/4.5.2/bits/stl_vector.h ****        *  The user is also cautioned that this function only erases
 917:/opt/toolchains/arm-none-eabi/bin/../lib/gcc/arm-none-eabi/4.5.2/../../../../arm-none-eabi/include/c++/4.5.2/bits/stl_vector.h ****        *  the elements, and that if the elements themselves are
 918:/opt/toolchains/arm-none-eabi/bin/../lib/gcc/arm-none-eabi/4.5.2/../../../../arm-none-eabi/include/c++/4.5.2/bits/stl_vector.h ****        *  pointers, the pointed-to memory is not touched in any way.
 919:/opt/toolchains/arm-none-eabi/bin/../lib/gcc/arm-none-eabi/4.5.2/../../../../arm-none-eabi/include/c++/4.5.2/bits/stl_vector.h ****        *  Managing the pointer is the user's responsibility.
 920:/opt/toolchains/arm-none-eabi/bin/../lib/gcc/arm-none-eabi/4.5.2/../../../../arm-none-eabi/include/c++/4.5.2/bits/stl_vector.h ****        */
 921:/opt/toolchains/arm-none-eabi/bin/../lib/gcc/arm-none-eabi/4.5.2/../../../../arm-none-eabi/include/c++/4.5.2/bits/stl_vector.h ****       iterator
 922:/opt/toolchains/arm-none-eabi/bin/../lib/gcc/arm-none-eabi/4.5.2/../../../../arm-none-eabi/include/c++/4.5.2/bits/stl_vector.h ****       erase(iterator __first, iterator __last);
 923:/opt/toolchains/arm-none-eabi/bin/../lib/gcc/arm-none-eabi/4.5.2/../../../../arm-none-eabi/include/c++/4.5.2/bits/stl_vector.h **** 
 924:/opt/toolchains/arm-none-eabi/bin/../lib/gcc/arm-none-eabi/4.5.2/../../../../arm-none-eabi/include/c++/4.5.2/bits/stl_vector.h ****       /**
 925:/opt/toolchains/arm-none-eabi/bin/../lib/gcc/arm-none-eabi/4.5.2/../../../../arm-none-eabi/include/c++/4.5.2/bits/stl_vector.h ****        *  @brief  Swaps data with another %vector.
 926:/opt/toolchains/arm-none-eabi/bin/../lib/gcc/arm-none-eabi/4.5.2/../../../../arm-none-eabi/include/c++/4.5.2/bits/stl_vector.h ****        *  @param  x  A %vector of the same element and allocator types.
 927:/opt/toolchains/arm-none-eabi/bin/../lib/gcc/arm-none-eabi/4.5.2/../../../../arm-none-eabi/include/c++/4.5.2/bits/stl_vector.h ****        *
 928:/opt/toolchains/arm-none-eabi/bin/../lib/gcc/arm-none-eabi/4.5.2/../../../../arm-none-eabi/include/c++/4.5.2/bits/stl_vector.h ****        *  This exchanges the elements between two vectors in constant time.
 929:/opt/toolchains/arm-none-eabi/bin/../lib/gcc/arm-none-eabi/4.5.2/../../../../arm-none-eabi/include/c++/4.5.2/bits/stl_vector.h ****        *  (Three pointers, so it should be quite fast.)
 930:/opt/toolchains/arm-none-eabi/bin/../lib/gcc/arm-none-eabi/4.5.2/../../../../arm-none-eabi/include/c++/4.5.2/bits/stl_vector.h ****        *  Note that the global std::swap() function is specialized such that
 931:/opt/toolchains/arm-none-eabi/bin/../lib/gcc/arm-none-eabi/4.5.2/../../../../arm-none-eabi/include/c++/4.5.2/bits/stl_vector.h ****        *  std::swap(v1,v2) will feed to this function.
 932:/opt/toolchains/arm-none-eabi/bin/../lib/gcc/arm-none-eabi/4.5.2/../../../../arm-none-eabi/include/c++/4.5.2/bits/stl_vector.h ****        */
 933:/opt/toolchains/arm-none-eabi/bin/../lib/gcc/arm-none-eabi/4.5.2/../../../../arm-none-eabi/include/c++/4.5.2/bits/stl_vector.h ****       void
 934:/opt/toolchains/arm-none-eabi/bin/../lib/gcc/arm-none-eabi/4.5.2/../../../../arm-none-eabi/include/c++/4.5.2/bits/stl_vector.h ****       swap(vector& __x)
 935:/opt/toolchains/arm-none-eabi/bin/../lib/gcc/arm-none-eabi/4.5.2/../../../../arm-none-eabi/include/c++/4.5.2/bits/stl_vector.h ****       {
 936:/opt/toolchains/arm-none-eabi/bin/../lib/gcc/arm-none-eabi/4.5.2/../../../../arm-none-eabi/include/c++/4.5.2/bits/stl_vector.h **** 	std::swap(this->_M_impl._M_start, __x._M_impl._M_start);
 937:/opt/toolchains/arm-none-eabi/bin/../lib/gcc/arm-none-eabi/4.5.2/../../../../arm-none-eabi/include/c++/4.5.2/bits/stl_vector.h **** 	std::swap(this->_M_impl._M_finish, __x._M_impl._M_finish);
 938:/opt/toolchains/arm-none-eabi/bin/../lib/gcc/arm-none-eabi/4.5.2/../../../../arm-none-eabi/include/c++/4.5.2/bits/stl_vector.h **** 	std::swap(this->_M_impl._M_end_of_storage,
 939:/opt/toolchains/arm-none-eabi/bin/../lib/gcc/arm-none-eabi/4.5.2/../../../../arm-none-eabi/include/c++/4.5.2/bits/stl_vector.h **** 		  __x._M_impl._M_end_of_storage);
 940:/opt/toolchains/arm-none-eabi/bin/../lib/gcc/arm-none-eabi/4.5.2/../../../../arm-none-eabi/include/c++/4.5.2/bits/stl_vector.h **** 
 941:/opt/toolchains/arm-none-eabi/bin/../lib/gcc/arm-none-eabi/4.5.2/../../../../arm-none-eabi/include/c++/4.5.2/bits/stl_vector.h **** 	// _GLIBCXX_RESOLVE_LIB_DEFECTS
 942:/opt/toolchains/arm-none-eabi/bin/../lib/gcc/arm-none-eabi/4.5.2/../../../../arm-none-eabi/include/c++/4.5.2/bits/stl_vector.h **** 	// 431. Swapping containers with unequal allocators.
 943:/opt/toolchains/arm-none-eabi/bin/../lib/gcc/arm-none-eabi/4.5.2/../../../../arm-none-eabi/include/c++/4.5.2/bits/stl_vector.h **** 	std::__alloc_swap<_Tp_alloc_type>::_S_do_it(_M_get_Tp_allocator(),
 944:/opt/toolchains/arm-none-eabi/bin/../lib/gcc/arm-none-eabi/4.5.2/../../../../arm-none-eabi/include/c++/4.5.2/bits/stl_vector.h **** 						    __x._M_get_Tp_allocator());
 945:/opt/toolchains/arm-none-eabi/bin/../lib/gcc/arm-none-eabi/4.5.2/../../../../arm-none-eabi/include/c++/4.5.2/bits/stl_vector.h ****       }
 946:/opt/toolchains/arm-none-eabi/bin/../lib/gcc/arm-none-eabi/4.5.2/../../../../arm-none-eabi/include/c++/4.5.2/bits/stl_vector.h **** 
 947:/opt/toolchains/arm-none-eabi/bin/../lib/gcc/arm-none-eabi/4.5.2/../../../../arm-none-eabi/include/c++/4.5.2/bits/stl_vector.h ****       /**
 948:/opt/toolchains/arm-none-eabi/bin/../lib/gcc/arm-none-eabi/4.5.2/../../../../arm-none-eabi/include/c++/4.5.2/bits/stl_vector.h ****        *  Erases all the elements.  Note that this function only erases the
 949:/opt/toolchains/arm-none-eabi/bin/../lib/gcc/arm-none-eabi/4.5.2/../../../../arm-none-eabi/include/c++/4.5.2/bits/stl_vector.h ****        *  elements, and that if the elements themselves are pointers, the
 950:/opt/toolchains/arm-none-eabi/bin/../lib/gcc/arm-none-eabi/4.5.2/../../../../arm-none-eabi/include/c++/4.5.2/bits/stl_vector.h ****        *  pointed-to memory is not touched in any way.  Managing the pointer is
 951:/opt/toolchains/arm-none-eabi/bin/../lib/gcc/arm-none-eabi/4.5.2/../../../../arm-none-eabi/include/c++/4.5.2/bits/stl_vector.h ****        *  the user's responsibility.
 952:/opt/toolchains/arm-none-eabi/bin/../lib/gcc/arm-none-eabi/4.5.2/../../../../arm-none-eabi/include/c++/4.5.2/bits/stl_vector.h ****        */
 953:/opt/toolchains/arm-none-eabi/bin/../lib/gcc/arm-none-eabi/4.5.2/../../../../arm-none-eabi/include/c++/4.5.2/bits/stl_vector.h ****       void
 954:/opt/toolchains/arm-none-eabi/bin/../lib/gcc/arm-none-eabi/4.5.2/../../../../arm-none-eabi/include/c++/4.5.2/bits/stl_vector.h ****       clear()
 4423              		.loc 53 954 0
 4424              		.cfi_startproc
 4425              		@ args = 0, pretend = 0, frame = 8
 4426              		@ frame_needed = 1, uses_anonymous_args = 0
 4427 0000 80B5     		push	{r7, lr}
 4428              	.LCFI21:
 4429              		.cfi_def_cfa_offset 8
 4430 0002 82B0     		sub	sp, sp, #8
 4431              	.LCFI22:
 4432              		.cfi_def_cfa_offset 16
 4433 0004 00AF     		add	r7, sp, #0
 4434              		.cfi_offset 14, -4
 4435              		.cfi_offset 7, -8
 4436              	.LCFI23:
 4437              		.cfi_def_cfa_register 7
 4438 0006 7860     		str	r0, [r7, #4]
 955:/opt/toolchains/arm-none-eabi/bin/../lib/gcc/arm-none-eabi/4.5.2/../../../../arm-none-eabi/include/c++/4.5.2/bits/stl_vector.h ****       { _M_erase_at_end(this->_M_impl._M_start); }
 4439              		.loc 53 955 0
 4440 0008 7B68     		ldr	r3, [r7, #4]
 4441 000a 1B68     		ldr	r3, [r3, #0]
 4442 000c 7868     		ldr	r0, [r7, #4]
 4443 000e 1946     		mov	r1, r3
 4444 0010 FFF7FEFF 		bl	_ZNSt6vectorISsSaISsEE15_M_erase_at_endEPSs
 4445 0014 07F10807 		add	r7, r7, #8
 4446 0018 BD46     		mov	sp, r7
 4447 001a 80BD     		pop	{r7, pc}
 4448              		.cfi_endproc
 4449              	.LFE1130:
 4451              		.section	.text._ZNKSt4listIN5Air3T6PlayerESaIS1_EE5beginEv,"axG",%progbits,_ZNKSt4listIN5Air3T6Pla
 4452              		.align	2
 4453              		.weak	_ZNKSt4listIN5Air3T6PlayerESaIS1_EE5beginEv
 4454              		.thumb
 4455              		.thumb_func
 4457              	_ZNKSt4listIN5Air3T6PlayerESaIS1_EE5beginEv:
 4458              	.LFB1131:
   1:/opt/toolchains/arm-none-eabi/bin/../lib/gcc/arm-none-eabi/4.5.2/../../../../arm-none-eabi/include/c++/4.5.2/bits/stl_list.h **** // List implementation -*- C++ -*-
   2:/opt/toolchains/arm-none-eabi/bin/../lib/gcc/arm-none-eabi/4.5.2/../../../../arm-none-eabi/include/c++/4.5.2/bits/stl_list.h **** 
   3:/opt/toolchains/arm-none-eabi/bin/../lib/gcc/arm-none-eabi/4.5.2/../../../../arm-none-eabi/include/c++/4.5.2/bits/stl_list.h **** // Copyright (C) 2001, 2002, 2003, 2004, 2005, 2006, 2007, 2008, 2009, 2010
   4:/opt/toolchains/arm-none-eabi/bin/../lib/gcc/arm-none-eabi/4.5.2/../../../../arm-none-eabi/include/c++/4.5.2/bits/stl_list.h **** // Free Software Foundation, Inc.
   5:/opt/toolchains/arm-none-eabi/bin/../lib/gcc/arm-none-eabi/4.5.2/../../../../arm-none-eabi/include/c++/4.5.2/bits/stl_list.h **** //
   6:/opt/toolchains/arm-none-eabi/bin/../lib/gcc/arm-none-eabi/4.5.2/../../../../arm-none-eabi/include/c++/4.5.2/bits/stl_list.h **** // This file is part of the GNU ISO C++ Library.  This library is free
   7:/opt/toolchains/arm-none-eabi/bin/../lib/gcc/arm-none-eabi/4.5.2/../../../../arm-none-eabi/include/c++/4.5.2/bits/stl_list.h **** // software; you can redistribute it and/or modify it under the
   8:/opt/toolchains/arm-none-eabi/bin/../lib/gcc/arm-none-eabi/4.5.2/../../../../arm-none-eabi/include/c++/4.5.2/bits/stl_list.h **** // terms of the GNU General Public License as published by the
   9:/opt/toolchains/arm-none-eabi/bin/../lib/gcc/arm-none-eabi/4.5.2/../../../../arm-none-eabi/include/c++/4.5.2/bits/stl_list.h **** // Free Software Foundation; either version 3, or (at your option)
  10:/opt/toolchains/arm-none-eabi/bin/../lib/gcc/arm-none-eabi/4.5.2/../../../../arm-none-eabi/include/c++/4.5.2/bits/stl_list.h **** // any later version.
  11:/opt/toolchains/arm-none-eabi/bin/../lib/gcc/arm-none-eabi/4.5.2/../../../../arm-none-eabi/include/c++/4.5.2/bits/stl_list.h **** 
  12:/opt/toolchains/arm-none-eabi/bin/../lib/gcc/arm-none-eabi/4.5.2/../../../../arm-none-eabi/include/c++/4.5.2/bits/stl_list.h **** // This library is distributed in the hope that it will be useful,
  13:/opt/toolchains/arm-none-eabi/bin/../lib/gcc/arm-none-eabi/4.5.2/../../../../arm-none-eabi/include/c++/4.5.2/bits/stl_list.h **** // but WITHOUT ANY WARRANTY; without even the implied warranty of
  14:/opt/toolchains/arm-none-eabi/bin/../lib/gcc/arm-none-eabi/4.5.2/../../../../arm-none-eabi/include/c++/4.5.2/bits/stl_list.h **** // MERCHANTABILITY or FITNESS FOR A PARTICULAR PURPOSE.  See the
  15:/opt/toolchains/arm-none-eabi/bin/../lib/gcc/arm-none-eabi/4.5.2/../../../../arm-none-eabi/include/c++/4.5.2/bits/stl_list.h **** // GNU General Public License for more details.
  16:/opt/toolchains/arm-none-eabi/bin/../lib/gcc/arm-none-eabi/4.5.2/../../../../arm-none-eabi/include/c++/4.5.2/bits/stl_list.h **** 
  17:/opt/toolchains/arm-none-eabi/bin/../lib/gcc/arm-none-eabi/4.5.2/../../../../arm-none-eabi/include/c++/4.5.2/bits/stl_list.h **** // Under Section 7 of GPL version 3, you are granted additional
  18:/opt/toolchains/arm-none-eabi/bin/../lib/gcc/arm-none-eabi/4.5.2/../../../../arm-none-eabi/include/c++/4.5.2/bits/stl_list.h **** // permissions described in the GCC Runtime Library Exception, version
  19:/opt/toolchains/arm-none-eabi/bin/../lib/gcc/arm-none-eabi/4.5.2/../../../../arm-none-eabi/include/c++/4.5.2/bits/stl_list.h **** // 3.1, as published by the Free Software Foundation.
  20:/opt/toolchains/arm-none-eabi/bin/../lib/gcc/arm-none-eabi/4.5.2/../../../../arm-none-eabi/include/c++/4.5.2/bits/stl_list.h **** 
  21:/opt/toolchains/arm-none-eabi/bin/../lib/gcc/arm-none-eabi/4.5.2/../../../../arm-none-eabi/include/c++/4.5.2/bits/stl_list.h **** // You should have received a copy of the GNU General Public License and
  22:/opt/toolchains/arm-none-eabi/bin/../lib/gcc/arm-none-eabi/4.5.2/../../../../arm-none-eabi/include/c++/4.5.2/bits/stl_list.h **** // a copy of the GCC Runtime Library Exception along with this program;
  23:/opt/toolchains/arm-none-eabi/bin/../lib/gcc/arm-none-eabi/4.5.2/../../../../arm-none-eabi/include/c++/4.5.2/bits/stl_list.h **** // see the files COPYING3 and COPYING.RUNTIME respectively.  If not, see
  24:/opt/toolchains/arm-none-eabi/bin/../lib/gcc/arm-none-eabi/4.5.2/../../../../arm-none-eabi/include/c++/4.5.2/bits/stl_list.h **** // <http://www.gnu.org/licenses/>.
  25:/opt/toolchains/arm-none-eabi/bin/../lib/gcc/arm-none-eabi/4.5.2/../../../../arm-none-eabi/include/c++/4.5.2/bits/stl_list.h **** 
  26:/opt/toolchains/arm-none-eabi/bin/../lib/gcc/arm-none-eabi/4.5.2/../../../../arm-none-eabi/include/c++/4.5.2/bits/stl_list.h **** /*
  27:/opt/toolchains/arm-none-eabi/bin/../lib/gcc/arm-none-eabi/4.5.2/../../../../arm-none-eabi/include/c++/4.5.2/bits/stl_list.h ****  *
  28:/opt/toolchains/arm-none-eabi/bin/../lib/gcc/arm-none-eabi/4.5.2/../../../../arm-none-eabi/include/c++/4.5.2/bits/stl_list.h ****  * Copyright (c) 1994
