   1              		.syntax unified
   2              		.cpu cortex-m3
   3              		.fpu softvfp
   4              		.eabi_attribute 20, 1
   5              		.eabi_attribute 21, 1
   6              		.eabi_attribute 23, 3
   7              		.eabi_attribute 24, 1
   8              		.eabi_attribute 25, 1
   9              		.eabi_attribute 26, 1
  10              		.eabi_attribute 30, 6
  11              		.eabi_attribute 18, 4
  12              		.thumb
  13              		.file	"vcom.cpp"
  23              	.Ltext0:
  24              		.file 1 "../board/olimex-stm32f103-stk/board/usb-vcom/vcom.cpp"
 18250              		.align	2
 18251              		.weak	_ZNK8IXFEvent12getEventTypeEv
 18252              		.thumb
 18253              		.thumb_func
 18255              	_ZNK8IXFEvent12getEventTypeEv:
 18256              	.LFB38:
   1:/home/desem/workspace/desenet/xf/ixfevent.h **** #ifndef IXFEVENT_H
   2:/home/desem/workspace/desenet/xf/ixfevent.h **** #define IXFEVENT_H
   3:/home/desem/workspace/desenet/xf/ixfevent.h **** 
   4:/home/desem/workspace/desenet/xf/ixfevent.h **** 
   5:/home/desem/workspace/desenet/xf/ixfevent.h **** class IXFReactive;
   6:/home/desem/workspace/desenet/xf/ixfevent.h **** 
   7:/home/desem/workspace/desenet/xf/ixfevent.h **** 
   8:/home/desem/workspace/desenet/xf/ixfevent.h **** /**
   9:/home/desem/workspace/desenet/xf/ixfevent.h ****  * @ingroup xf
  10:/home/desem/workspace/desenet/xf/ixfevent.h ****  * Interface for an event. The abstract methods defined in this interface
  11:/home/desem/workspace/desenet/xf/ixfevent.h ****  * need to be reimplemented in its derived classes. These methods are
  12:/home/desem/workspace/desenet/xf/ixfevent.h ****  * used by other classes in the framework (ex. XFThread, XFReactive).
  13:/home/desem/workspace/desenet/xf/ixfevent.h ****  *
  14:/home/desem/workspace/desenet/xf/ixfevent.h ****  * Requirements:
  15:/home/desem/workspace/desenet/xf/ixfevent.h ****  * - Needs to hold a property which allows to distinguish between different
  16:/home/desem/workspace/desenet/xf/ixfevent.h ****  *   types of events.
  17:/home/desem/workspace/desenet/xf/ixfevent.h ****  * - Use an enumeration to define the type for the type property.
  18:/home/desem/workspace/desenet/xf/ixfevent.h ****  * - The type property needs to be set at initialization time and cannot be
  19:/home/desem/workspace/desenet/xf/ixfevent.h ****  *   changed afterwards.
  20:/home/desem/workspace/desenet/xf/ixfevent.h ****  */
  21:/home/desem/workspace/desenet/xf/ixfevent.h **** class IXFEvent
  22:/home/desem/workspace/desenet/xf/ixfevent.h **** {
  23:/home/desem/workspace/desenet/xf/ixfevent.h **** public:
  24:/home/desem/workspace/desenet/xf/ixfevent.h **** 	/**
  25:/home/desem/workspace/desenet/xf/ixfevent.h **** 	 * Defines the types of events
  26:/home/desem/workspace/desenet/xf/ixfevent.h **** 	 */
  27:/home/desem/workspace/desenet/xf/ixfevent.h **** 	typedef enum
  28:/home/desem/workspace/desenet/xf/ixfevent.h **** 	{
  29:/home/desem/workspace/desenet/xf/ixfevent.h **** 		Unknown			= 0,		///< Unknown state (not initialized)
  30:/home/desem/workspace/desenet/xf/ixfevent.h **** 		Initial			= 1,		///< Initial pseudo-state
  31:/home/desem/workspace/desenet/xf/ixfevent.h **** 		NullTransition	= 2,		///< Event generated by the state machine to define a null transition
  32:/home/desem/workspace/desenet/xf/ixfevent.h **** 		Event			= 3,		///< Normal event
  33:/home/desem/workspace/desenet/xf/ixfevent.h **** 		Timeout			= 4,		///< Defines a timeout event.
  34:/home/desem/workspace/desenet/xf/ixfevent.h **** 		Terminate		= -1		///< Defines a terminate state. Will end the state machine.
  35:/home/desem/workspace/desenet/xf/ixfevent.h **** 	} eEventType;
  36:/home/desem/workspace/desenet/xf/ixfevent.h **** 
  37:/home/desem/workspace/desenet/xf/ixfevent.h **** public :
  38:/home/desem/workspace/desenet/xf/ixfevent.h **** 	/**
  39:/home/desem/workspace/desenet/xf/ixfevent.h **** 	 * Default class constructor
  40:/home/desem/workspace/desenet/xf/ixfevent.h **** 	 */
  41:/home/desem/workspace/desenet/xf/ixfevent.h **** 	IXFEvent(eEventType eventType, int id, IXFReactive * pBehavior) : _eventType(eventType), _id(id), 
  42:/home/desem/workspace/desenet/xf/ixfevent.h **** 	virtual ~IXFEvent() {}		///< Class destructor
  43:/home/desem/workspace/desenet/xf/ixfevent.h **** 
  44:/home/desem/workspace/desenet/xf/ixfevent.h **** 	/** \brief Returns the type of the event.
  45:/home/desem/workspace/desenet/xf/ixfevent.h **** 	 *
  46:/home/desem/workspace/desenet/xf/ixfevent.h **** 	 * Can be used to distinguish between an event or a timeout.
  47:/home/desem/workspace/desenet/xf/ixfevent.h **** 	 */
  48:/home/desem/workspace/desenet/xf/ixfevent.h **** 	inline eEventType getEventType() const { return _eventType; }
 18257              		.loc 42 48 0
 18258              		.cfi_startproc
 18259              		@ args = 0, pretend = 0, frame = 8
 18260              		@ frame_needed = 1, uses_anonymous_args = 0
 18261              		@ link register save eliminated.
 18262 0000 80B4     		push	{r7}
 18263              	.LCFI0:
 18264              		.cfi_def_cfa_offset 4
 18265 0002 83B0     		sub	sp, sp, #12
 18266              	.LCFI1:
 18267              		.cfi_def_cfa_offset 16
 18268 0004 00AF     		add	r7, sp, #0
 18269              		.cfi_offset 7, -4
 18270              	.LCFI2:
 18271              		.cfi_def_cfa_register 7
 18272 0006 7860     		str	r0, [r7, #4]
 18273              		.loc 42 48 0
 18274 0008 7B68     		ldr	r3, [r7, #4]
 18275 000a 1B79     		ldrb	r3, [r3, #4]	@ zero_extendqisi2
 18276 000c 5BB2     		sxtb	r3, r3
 18277 000e 1846     		mov	r0, r3
 18278 0010 07F10C07 		add	r7, r7, #12
 18279 0014 BD46     		mov	sp, r7
 18280 0016 80BC     		pop	{r7}
 18281 0018 7047     		bx	lr
 18282              		.cfi_endproc
 18283              	.LFE38:
 18285 001a 00BF     		.section	.text._ZNK8IXFEvent5getIdEv,"axG",%progbits,_ZNK8IXFEvent5getIdEv,comdat
 18286              		.align	2
 18287              		.weak	_ZNK8IXFEvent5getIdEv
 18288              		.thumb
 18289              		.thumb_func
 18291              	_ZNK8IXFEvent5getIdEv:
 18292              	.LFB41:
  49:/home/desem/workspace/desenet/xf/ixfevent.h **** 
  50:/home/desem/workspace/desenet/xf/ixfevent.h **** 	/** \brief Returns pointer to behavioral class.
  51:/home/desem/workspace/desenet/xf/ixfevent.h **** 	 *
  52:/home/desem/workspace/desenet/xf/ixfevent.h **** 	 * Returns a pointer to the behavioral class processing the event (see #_pBehavior).
  53:/home/desem/workspace/desenet/xf/ixfevent.h **** 	 */
  54:/home/desem/workspace/desenet/xf/ixfevent.h **** 	inline IXFReactive * getBehavior() const { return _pBehavior; }
  55:/home/desem/workspace/desenet/xf/ixfevent.h **** 
  56:/home/desem/workspace/desenet/xf/ixfevent.h **** 	/** \brief Sets pointer to behavioral class (see #_pBehavior).
  57:/home/desem/workspace/desenet/xf/ixfevent.h **** 	 * Sets the behavior in which the event should be executed.
  58:/home/desem/workspace/desenet/xf/ixfevent.h **** 	 */
  59:/home/desem/workspace/desenet/xf/ixfevent.h **** 	inline void setBehavior(IXFReactive * pBehavior) { _pBehavior = pBehavior; }
  60:/home/desem/workspace/desenet/xf/ixfevent.h **** 
  61:/home/desem/workspace/desenet/xf/ixfevent.h **** 	inline int getId() const { return _id; }		///< Returns #_id identifying the event in the behaviors
 18293              		.loc 42 61 0
 18294              		.cfi_startproc
 18295              		@ args = 0, pretend = 0, frame = 8
 18296              		@ frame_needed = 1, uses_anonymous_args = 0
 18297              		@ link register save eliminated.
 18298 0000 80B4     		push	{r7}
 18299              	.LCFI3:
 18300              		.cfi_def_cfa_offset 4
 18301 0002 83B0     		sub	sp, sp, #12
 18302              	.LCFI4:
 18303              		.cfi_def_cfa_offset 16
 18304 0004 00AF     		add	r7, sp, #0
 18305              		.cfi_offset 7, -4
 18306              	.LCFI5:
 18307              		.cfi_def_cfa_register 7
 18308 0006 7860     		str	r0, [r7, #4]
 18309              		.loc 42 61 0
 18310 0008 7B68     		ldr	r3, [r7, #4]
 18311 000a 9B68     		ldr	r3, [r3, #8]
 18312 000c 1846     		mov	r0, r3
 18313 000e 07F10C07 		add	r7, r7, #12
 18314 0012 BD46     		mov	sp, r7
 18315 0014 80BC     		pop	{r7}
 18316 0016 7047     		bx	lr
 18317              		.cfi_endproc
 18318              	.LFE41:
 18320              		.section	.text._ZN11EventStatusC2ENS_12eEventStatusE,"axG",%progbits,_ZN11EventStatusC5ENS_12eEven
 18321              		.align	2
 18322              		.weak	_ZN11EventStatusC2ENS_12eEventStatusE
 18323              		.thumb
 18324              		.thumb_func
 18326              	_ZN11EventStatusC2ENS_12eEventStatusE:
 18327              	.LFB752:
   1:/home/desem/workspace/desenet/xf/xfeventstatus.h **** #ifndef XFEVENTSTATUS_H
   2:/home/desem/workspace/desenet/xf/xfeventstatus.h **** #define XFEVENTSTATUS_H
   3:/home/desem/workspace/desenet/xf/xfeventstatus.h **** 
   4:/home/desem/workspace/desenet/xf/xfeventstatus.h **** 
   5:/home/desem/workspace/desenet/xf/xfeventstatus.h **** /**
   6:/home/desem/workspace/desenet/xf/xfeventstatus.h ****  * @ingroup xf
   7:/home/desem/workspace/desenet/xf/xfeventstatus.h ****  * The EventStatus is used after consumption of an event. It gives an
   8:/home/desem/workspace/desenet/xf/xfeventstatus.h ****  * information on how the event was consument and how the framework should
   9:/home/desem/workspace/desenet/xf/xfeventstatus.h ****  * react.
  10:/home/desem/workspace/desenet/xf/xfeventstatus.h ****  */
  11:/home/desem/workspace/desenet/xf/xfeventstatus.h **** class EventStatus
  12:/home/desem/workspace/desenet/xf/xfeventstatus.h **** {
  13:/home/desem/workspace/desenet/xf/xfeventstatus.h **** public:
  14:/home/desem/workspace/desenet/xf/xfeventstatus.h **** 	/**
  15:/home/desem/workspace/desenet/xf/xfeventstatus.h **** 	 * Status values about the event processed.
  16:/home/desem/workspace/desenet/xf/xfeventstatus.h **** 	 *
  17:/home/desem/workspace/desenet/xf/xfeventstatus.h **** 	 * \see XFReactive::process
  18:/home/desem/workspace/desenet/xf/xfeventstatus.h **** 	 */
  19:/home/desem/workspace/desenet/xf/xfeventstatus.h **** 	typedef enum
  20:/home/desem/workspace/desenet/xf/xfeventstatus.h **** 	{
  21:/home/desem/workspace/desenet/xf/xfeventstatus.h **** 		Unknown			= 0,
  22:/home/desem/workspace/desenet/xf/xfeventstatus.h **** 		Consumed		= 0x0001,
  23:/home/desem/workspace/desenet/xf/xfeventstatus.h **** 		NotConsumed		= 0x0002,
  24:/home/desem/workspace/desenet/xf/xfeventstatus.h **** 		Terminate		= 0x0004
  25:/home/desem/workspace/desenet/xf/xfeventstatus.h **** 	} eEventStatus;
  26:/home/desem/workspace/desenet/xf/xfeventstatus.h **** 
  27:/home/desem/workspace/desenet/xf/xfeventstatus.h **** 	/**
  28:/home/desem/workspace/desenet/xf/xfeventstatus.h **** 	 * Constructor
  29:/home/desem/workspace/desenet/xf/xfeventstatus.h **** 	 *
  30:/home/desem/workspace/desenet/xf/xfeventstatus.h **** 	 * \param eventStatus Initial value of the event status.
  31:/home/desem/workspace/desenet/xf/xfeventstatus.h **** 	 */
  32:/home/desem/workspace/desenet/xf/xfeventstatus.h **** 	EventStatus(eEventStatus eventStatus = Unknown) : _status(eventStatus) {}
 18328              		.loc 81 32 0
 18329              		.cfi_startproc
 18330              		@ args = 0, pretend = 0, frame = 8
 18331              		@ frame_needed = 1, uses_anonymous_args = 0
 18332              		@ link register save eliminated.
 18333 0000 80B4     		push	{r7}
 18334              	.LCFI6:
 18335              		.cfi_def_cfa_offset 4
 18336 0002 83B0     		sub	sp, sp, #12
 18337              	.LCFI7:
 18338              		.cfi_def_cfa_offset 16
 18339 0004 00AF     		add	r7, sp, #0
 18340              		.cfi_offset 7, -4
 18341              	.LCFI8:
 18342              		.cfi_def_cfa_register 7
 18343 0006 7860     		str	r0, [r7, #4]
 18344 0008 0B46     		mov	r3, r1
 18345 000a FB70     		strb	r3, [r7, #3]
 18346              	.LBB2:
 18347              		.loc 81 32 0
 18348 000c 7B68     		ldr	r3, [r7, #4]
 18349 000e FA78     		ldrb	r2, [r7, #3]
 18350 0010 1A70     		strb	r2, [r3, #0]
 18351              	.LBE2:
 18352 0012 7B68     		ldr	r3, [r7, #4]
 18353 0014 1846     		mov	r0, r3
 18354 0016 07F10C07 		add	r7, r7, #12
 18355 001a BD46     		mov	sp, r7
 18356 001c 80BC     		pop	{r7}
 18357 001e 7047     		bx	lr
 18358              		.cfi_endproc
 18359              	.LFE752:
 18361              		.weak	_ZN11EventStatusC1ENS_12eEventStatusE
 18362              		.thumb_set _ZN11EventStatusC1ENS_12eEventStatusE,_ZN11EventStatusC2ENS_12eEventStatusE
 18363              		.global	_ZN4Vcom9_InstanceE
 18364              		.section	.bss._ZN4Vcom9_InstanceE,"aw",%nobits
 18365              		.align	2
 18368              	_ZN4Vcom9_InstanceE:
 18369 0000 00000000 		.space	32
 18369      00000000 
 18369      00000000 
 18369      00000000 
 18369      00000000 
 18370              		.global	_ZN4Vcom13_bInitializedE
 18371              		.section	.bss._ZN4Vcom13_bInitializedE,"aw",%nobits
 18374              	_ZN4Vcom13_bInitializedE:
 18375 0000 00       		.space	1
 18376              		.section	.text.vcomWrite,"ax",%progbits
 18377              		.align	2
 18378              		.global	vcomWrite
 18379              		.thumb
 18380              		.thumb_func
 18382              	vcomWrite:
 18383              	.LFB796:
   1:../board/olimex-stm32f103-stk/board/usb-vcom/vcom.cpp **** #include <string.h>
   2:../board/olimex-stm32f103-stk/board/usb-vcom/vcom.cpp **** #include <assert.h>
   3:../board/olimex-stm32f103-stk/board/usb-vcom/vcom.cpp **** #include <vcom/usb_vcom.h>
   4:../board/olimex-stm32f103-stk/board/usb-vcom/vcom.cpp **** #include "vcom.h"
   5:../board/olimex-stm32f103-stk/board/usb-vcom/vcom.cpp **** 
   6:../board/olimex-stm32f103-stk/board/usb-vcom/vcom.cpp **** 
   7:../board/olimex-stm32f103-stk/board/usb-vcom/vcom.cpp **** Vcom Vcom::_Instance;
   8:../board/olimex-stm32f103-stk/board/usb-vcom/vcom.cpp **** bool Vcom::_bInitialized(false);
   9:../board/olimex-stm32f103-stk/board/usb-vcom/vcom.cpp **** 
  10:../board/olimex-stm32f103-stk/board/usb-vcom/vcom.cpp **** 
  11:../board/olimex-stm32f103-stk/board/usb-vcom/vcom.cpp **** int vcomWrite(const char * const ptr, unsigned int len)
  12:../board/olimex-stm32f103-stk/board/usb-vcom/vcom.cpp **** {
 18384              		.loc 1 12 0
 18385              		.cfi_startproc
 18386              		@ args = 0, pretend = 0, frame = 16
 18387              		@ frame_needed = 1, uses_anonymous_args = 0
 18388 0000 80B5     		push	{r7, lr}
 18389              	.LCFI9:
 18390              		.cfi_def_cfa_offset 8
 18391 0002 84B0     		sub	sp, sp, #16
 18392              	.LCFI10:
 18393              		.cfi_def_cfa_offset 24
 18394 0004 00AF     		add	r7, sp, #0
 18395              		.cfi_offset 14, -4
 18396              		.cfi_offset 7, -8
 18397              	.LCFI11:
 18398              		.cfi_def_cfa_register 7
 18399 0006 7860     		str	r0, [r7, #4]
 18400 0008 3960     		str	r1, [r7, #0]
 18401              	.LBB3:
  13:../board/olimex-stm32f103-stk/board/usb-vcom/vcom.cpp **** 	Vcom & instance = Vcom::instance();
 18402              		.loc 1 13 0
 18403 000a FFF7FEFF 		bl	_ZN4Vcom8instanceEv
 18404 000e F860     		str	r0, [r7, #12]
  14:../board/olimex-stm32f103-stk/board/usb-vcom/vcom.cpp **** 
  15:../board/olimex-stm32f103-stk/board/usb-vcom/vcom.cpp **** 	if (!Vcom::isInitialized())
 18405              		.loc 1 15 0
 18406 0010 FFF7FEFF 		bl	_ZN4Vcom13isInitializedEv
 18407 0014 0346     		mov	r3, r0
 18408 0016 83F00103 		eor	r3, r3, #1
 18409 001a DBB2     		uxtb	r3, r3
 18410 001c 002B     		cmp	r3, #0
 18411 001e 02D0     		beq	.L6
  16:../board/olimex-stm32f103-stk/board/usb-vcom/vcom.cpp **** 	{
  17:../board/olimex-stm32f103-stk/board/usb-vcom/vcom.cpp **** 		instance.initialize();
 18412              		.loc 1 17 0
 18413 0020 F868     		ldr	r0, [r7, #12]
 18414 0022 FFF7FEFF 		bl	_ZN4Vcom10initializeEv
 18415              	.L6:
  18:../board/olimex-stm32f103-stk/board/usb-vcom/vcom.cpp **** 	}
  19:../board/olimex-stm32f103-stk/board/usb-vcom/vcom.cpp **** 
  20:../board/olimex-stm32f103-stk/board/usb-vcom/vcom.cpp **** 	instance.write(ptr, len);
 18416              		.loc 1 20 0
 18417 0026 F868     		ldr	r0, [r7, #12]
 18418 0028 7968     		ldr	r1, [r7, #4]
 18419 002a 3A68     		ldr	r2, [r7, #0]
 18420 002c FFF7FEFF 		bl	_ZN4Vcom5writeEPKcj
  21:../board/olimex-stm32f103-stk/board/usb-vcom/vcom.cpp **** 
  22:../board/olimex-stm32f103-stk/board/usb-vcom/vcom.cpp **** 	return len;
 18421              		.loc 1 22 0
 18422 0030 3B68     		ldr	r3, [r7, #0]
 18423              	.LBE3:
  23:../board/olimex-stm32f103-stk/board/usb-vcom/vcom.cpp **** }
 18424              		.loc 1 23 0
 18425 0032 1846     		mov	r0, r3
 18426 0034 07F11007 		add	r7, r7, #16
 18427 0038 BD46     		mov	sp, r7
 18428 003a 80BD     		pop	{r7, pc}
 18429              		.cfi_endproc
 18430              	.LFE796:
 18432              		.section	.text._ZN4VcomC2Ev,"ax",%progbits
 18433              		.align	2
 18434              		.global	_ZN4VcomC2Ev
 18435              		.thumb
 18436              		.thumb_func
 18438              	_ZN4VcomC2Ev:
 18439              	.LFB798:
  24:../board/olimex-stm32f103-stk/board/usb-vcom/vcom.cpp **** 
  25:../board/olimex-stm32f103-stk/board/usb-vcom/vcom.cpp **** Vcom::Vcom()
 18440              		.loc 1 25 0
 18441              		.cfi_startproc
 18442              		@ args = 0, pretend = 0, frame = 8
 18443              		@ frame_needed = 1, uses_anonymous_args = 0
 18444 0000 80B5     		push	{r7, lr}
 18445              	.LCFI12:
 18446              		.cfi_def_cfa_offset 8
 18447 0002 82B0     		sub	sp, sp, #8
 18448              	.LCFI13:
 18449              		.cfi_def_cfa_offset 16
 18450 0004 00AF     		add	r7, sp, #0
 18451              		.cfi_offset 14, -4
 18452              		.cfi_offset 7, -8
 18453              	.LCFI14:
 18454              		.cfi_def_cfa_register 7
 18455 0006 7860     		str	r0, [r7, #4]
 18456              	.LBB4:
 18457              		.loc 1 25 0
 18458 0008 7B68     		ldr	r3, [r7, #4]
 18459 000a 1846     		mov	r0, r3
 18460 000c 4FF00001 		mov	r1, #0
 18461 0010 FFF7FEFF 		bl	_ZN10XFReactiveC2EP8XFThread
 18462 0014 7B68     		ldr	r3, [r7, #4]
 18463 0016 094A     		ldr	r2, .L9
 18464 0018 1A60     		str	r2, [r3, #0]
 18465 001a 7B68     		ldr	r3, [r7, #4]
 18466 001c 03F10C03 		add	r3, r3, #12
 18467 0020 1846     		mov	r0, r3
 18468 0022 FFF7FEFF 		bl	_ZN7IsQueueIKPKcEC1Ev
  26:../board/olimex-stm32f103-stk/board/usb-vcom/vcom.cpp **** {
  27:../board/olimex-stm32f103-stk/board/usb-vcom/vcom.cpp **** 
  28:../board/olimex-stm32f103-stk/board/usb-vcom/vcom.cpp **** #if (USE_WRITE_BUFFER != 0)
  29:../board/olimex-stm32f103-stk/board/usb-vcom/vcom.cpp **** 	_currentState = STATE_INITIAL;
 18469              		.loc 1 29 0
 18470 0026 7B68     		ldr	r3, [r7, #4]
 18471 0028 4FF00102 		mov	r2, #1
 18472 002c 1A77     		strb	r2, [r3, #28]
 18473              	.LBE4:
  30:../board/olimex-stm32f103-stk/board/usb-vcom/vcom.cpp **** #endif // (USE_WRITE_BUFFER != 0)
  31:../board/olimex-stm32f103-stk/board/usb-vcom/vcom.cpp **** 
  32:../board/olimex-stm32f103-stk/board/usb-vcom/vcom.cpp **** }
 18474              		.loc 1 32 0
 18475 002e 7B68     		ldr	r3, [r7, #4]
 18476 0030 1846     		mov	r0, r3
 18477 0032 07F10807 		add	r7, r7, #8
 18478 0036 BD46     		mov	sp, r7
 18479 0038 80BD     		pop	{r7, pc}
 18480              	.L10:
 18481 003a 00BF     		.align	2
 18482              	.L9:
 18483 003c 08000000 		.word	_ZTV4Vcom+8
 18484              		.cfi_endproc
 18485              	.LFE798:
 18487              		.global	_ZN4VcomC1Ev
 18488              		.thumb_set _ZN4VcomC1Ev,_ZN4VcomC2Ev
 18489              		.section	.text._ZN4VcomD2Ev,"ax",%progbits
 18490              		.align	2
 18491              		.global	_ZN4VcomD2Ev
 18492              		.thumb
 18493              		.thumb_func
 18495              	_ZN4VcomD2Ev:
 18496              	.LFB801:
  33:../board/olimex-stm32f103-stk/board/usb-vcom/vcom.cpp **** 
  34:../board/olimex-stm32f103-stk/board/usb-vcom/vcom.cpp **** Vcom::~Vcom()
 18497              		.loc 1 34 0
 18498              		.cfi_startproc
 18499              		@ args = 0, pretend = 0, frame = 8
 18500              		@ frame_needed = 1, uses_anonymous_args = 0
 18501 0000 80B5     		push	{r7, lr}
 18502              	.LCFI15:
 18503              		.cfi_def_cfa_offset 8
 18504 0002 82B0     		sub	sp, sp, #8
 18505              	.LCFI16:
 18506              		.cfi_def_cfa_offset 16
 18507 0004 00AF     		add	r7, sp, #0
 18508              		.cfi_offset 14, -4
 18509              		.cfi_offset 7, -8
 18510              	.LCFI17:
 18511              		.cfi_def_cfa_register 7
 18512 0006 7860     		str	r0, [r7, #4]
 18513              	.LBB5:
 18514              		.loc 1 34 0
 18515 0008 7B68     		ldr	r3, [r7, #4]
 18516 000a 0E4A     		ldr	r2, .L14
 18517 000c 1A60     		str	r2, [r3, #0]
 18518 000e 7B68     		ldr	r3, [r7, #4]
 18519 0010 03F10C03 		add	r3, r3, #12
  35:../board/olimex-stm32f103-stk/board/usb-vcom/vcom.cpp **** {
  36:../board/olimex-stm32f103-stk/board/usb-vcom/vcom.cpp **** 
  37:../board/olimex-stm32f103-stk/board/usb-vcom/vcom.cpp **** }
 18520              		.loc 1 37 0
 18521 0014 1846     		mov	r0, r3
 18522 0016 FFF7FEFF 		bl	_ZN7IsQueueIKPKcED1Ev
  34:../board/olimex-stm32f103-stk/board/usb-vcom/vcom.cpp **** Vcom::~Vcom()
 18523              		.loc 1 34 0
 18524 001a 7B68     		ldr	r3, [r7, #4]
 18525              		.loc 1 37 0
 18526 001c 1846     		mov	r0, r3
 18527 001e FFF7FEFF 		bl	_ZN10XFReactiveD2Ev
 18528              	.LBE5:
 18529 0022 4FF00003 		mov	r3, #0
 18530 0026 03F00103 		and	r3, r3, #1
 18531 002a DBB2     		uxtb	r3, r3
 18532 002c 002B     		cmp	r3, #0
 18533 002e 02D0     		beq	.L13
 18534              		.loc 1 37 0 is_stmt 0 discriminator 2
 18535 0030 7868     		ldr	r0, [r7, #4]
 18536 0032 FFF7FEFF 		bl	_ZdlPv
 18537              	.L13:
 18538              		.loc 1 37 0 discriminator 3
 18539 0036 7B68     		ldr	r3, [r7, #4]
 18540 0038 1846     		mov	r0, r3
 18541 003a 07F10807 		add	r7, r7, #8
 18542 003e BD46     		mov	sp, r7
 18543 0040 80BD     		pop	{r7, pc}
 18544              	.L15:
 18545 0042 00BF     		.align	2
 18546              	.L14:
 18547 0044 08000000 		.word	_ZTV4Vcom+8
 18548              		.cfi_endproc
 18549              	.LFE801:
 18551              		.global	_ZN4VcomD1Ev
 18552              		.thumb_set _ZN4VcomD1Ev,_ZN4VcomD2Ev
 18553              		.section	.text._ZN4VcomD0Ev,"ax",%progbits
 18554              		.align	2
 18555              		.global	_ZN4VcomD0Ev
 18556              		.thumb
 18557              		.thumb_func
 18559              	_ZN4VcomD0Ev:
 18560              	.LFB803:
  34:../board/olimex-stm32f103-stk/board/usb-vcom/vcom.cpp **** Vcom::~Vcom()
 18561              		.loc 1 34 0 is_stmt 1
 18562              		.cfi_startproc
 18563              		@ args = 0, pretend = 0, frame = 8
 18564              		@ frame_needed = 1, uses_anonymous_args = 0
 18565 0000 80B5     		push	{r7, lr}
 18566              	.LCFI18:
 18567              		.cfi_def_cfa_offset 8
 18568 0002 82B0     		sub	sp, sp, #8
 18569              	.LCFI19:
 18570              		.cfi_def_cfa_offset 16
 18571 0004 00AF     		add	r7, sp, #0
 18572              		.cfi_offset 14, -4
 18573              		.cfi_offset 7, -8
 18574              	.LCFI20:
 18575              		.cfi_def_cfa_register 7
 18576 0006 7860     		str	r0, [r7, #4]
 18577              		.loc 1 37 0
 18578 0008 7868     		ldr	r0, [r7, #4]
 18579 000a FFF7FEFF 		bl	_ZN4VcomD1Ev
 18580 000e 7868     		ldr	r0, [r7, #4]
 18581 0010 FFF7FEFF 		bl	_ZdlPv
 18582 0014 7B68     		ldr	r3, [r7, #4]
 18583 0016 1846     		mov	r0, r3
 18584 0018 07F10807 		add	r7, r7, #8
 18585 001c BD46     		mov	sp, r7
 18586 001e 80BD     		pop	{r7, pc}
 18587              		.cfi_endproc
 18588              	.LFE803:
 18590              		.section	.text._ZN4Vcom8instanceEv,"ax",%progbits
 18591              		.align	2
 18592              		.global	_ZN4Vcom8instanceEv
 18593              		.thumb
 18594              		.thumb_func
 18596              	_ZN4Vcom8instanceEv:
 18597              	.LFB804:
  38:../board/olimex-stm32f103-stk/board/usb-vcom/vcom.cpp **** 
  39:../board/olimex-stm32f103-stk/board/usb-vcom/vcom.cpp **** Vcom & Vcom::instance()
  40:../board/olimex-stm32f103-stk/board/usb-vcom/vcom.cpp **** {
 18598              		.loc 1 40 0
 18599              		.cfi_startproc
 18600              		@ args = 0, pretend = 0, frame = 0
 18601              		@ frame_needed = 1, uses_anonymous_args = 0
 18602              		@ link register save eliminated.
 18603 0000 80B4     		push	{r7}
 18604              	.LCFI21:
 18605              		.cfi_def_cfa_offset 4
 18606 0002 00AF     		add	r7, sp, #0
 18607              		.cfi_offset 7, -4
 18608              	.LCFI22:
 18609              		.cfi_def_cfa_register 7
  41:../board/olimex-stm32f103-stk/board/usb-vcom/vcom.cpp **** 	return _Instance;
 18610              		.loc 1 41 0
 18611 0004 40F20003 		movw	r3, #:lower16:_ZN4Vcom9_InstanceE
 18612 0008 C0F20003 		movt	r3, #:upper16:_ZN4Vcom9_InstanceE
  42:../board/olimex-stm32f103-stk/board/usb-vcom/vcom.cpp **** }
 18613              		.loc 1 42 0
 18614 000c 1846     		mov	r0, r3
 18615 000e BD46     		mov	sp, r7
 18616 0010 80BC     		pop	{r7}
 18617 0012 7047     		bx	lr
 18618              		.cfi_endproc
 18619              	.LFE804:
 18621              		.section	.text._ZN4Vcom13isInitializedEv,"ax",%progbits
 18622              		.align	2
 18623              		.global	_ZN4Vcom13isInitializedEv
 18624              		.thumb
 18625              		.thumb_func
 18627              	_ZN4Vcom13isInitializedEv:
 18628              	.LFB805:
  43:../board/olimex-stm32f103-stk/board/usb-vcom/vcom.cpp **** 
  44:../board/olimex-stm32f103-stk/board/usb-vcom/vcom.cpp **** bool Vcom::isInitialized()
  45:../board/olimex-stm32f103-stk/board/usb-vcom/vcom.cpp **** {
 18629              		.loc 1 45 0
 18630              		.cfi_startproc
 18631              		@ args = 0, pretend = 0, frame = 0
 18632              		@ frame_needed = 1, uses_anonymous_args = 0
 18633              		@ link register save eliminated.
 18634 0000 80B4     		push	{r7}
 18635              	.LCFI23:
 18636              		.cfi_def_cfa_offset 4
 18637 0002 00AF     		add	r7, sp, #0
 18638              		.cfi_offset 7, -4
 18639              	.LCFI24:
 18640              		.cfi_def_cfa_register 7
  46:../board/olimex-stm32f103-stk/board/usb-vcom/vcom.cpp **** 	return _bInitialized;
 18641              		.loc 1 46 0
 18642 0004 40F20003 		movw	r3, #:lower16:_ZN4Vcom13_bInitializedE
 18643 0008 C0F20003 		movt	r3, #:upper16:_ZN4Vcom13_bInitializedE
 18644 000c 1B78     		ldrb	r3, [r3, #0]	@ zero_extendqisi2
  47:../board/olimex-stm32f103-stk/board/usb-vcom/vcom.cpp **** }
 18645              		.loc 1 47 0
 18646 000e 1846     		mov	r0, r3
 18647 0010 BD46     		mov	sp, r7
 18648 0012 80BC     		pop	{r7}
 18649 0014 7047     		bx	lr
 18650              		.cfi_endproc
 18651              	.LFE805:
 18653 0016 00BF     		.section	.text._ZN4Vcom10initializeEv,"ax",%progbits
 18654              		.align	2
 18655              		.global	_ZN4Vcom10initializeEv
 18656              		.thumb
 18657              		.thumb_func
 18659              	_ZN4Vcom10initializeEv:
 18660              	.LFB806:
  48:../board/olimex-stm32f103-stk/board/usb-vcom/vcom.cpp **** 
  49:../board/olimex-stm32f103-stk/board/usb-vcom/vcom.cpp **** void Vcom::initialize()
  50:../board/olimex-stm32f103-stk/board/usb-vcom/vcom.cpp **** {
 18661              		.loc 1 50 0
 18662              		.cfi_startproc
 18663              		@ args = 0, pretend = 0, frame = 8
 18664              		@ frame_needed = 1, uses_anonymous_args = 0
 18665 0000 80B5     		push	{r7, lr}
 18666              	.LCFI25:
 18667              		.cfi_def_cfa_offset 8
 18668 0002 82B0     		sub	sp, sp, #8
 18669              	.LCFI26:
 18670              		.cfi_def_cfa_offset 16
 18671 0004 00AF     		add	r7, sp, #0
 18672              		.cfi_offset 14, -4
 18673              		.cfi_offset 7, -8
 18674              	.LCFI27:
 18675              		.cfi_def_cfa_register 7
 18676 0006 7860     		str	r0, [r7, #4]
  51:../board/olimex-stm32f103-stk/board/usb-vcom/vcom.cpp **** 	if (!isInitialized())
 18677              		.loc 1 51 0
 18678 0008 FFF7FEFF 		bl	_ZN4Vcom13isInitializedEv
 18679 000c 0346     		mov	r3, r0
 18680 000e 83F00103 		eor	r3, r3, #1
 18681 0012 DBB2     		uxtb	r3, r3
 18682 0014 002B     		cmp	r3, #0
 18683 0016 0ED0     		beq	.L20
  52:../board/olimex-stm32f103-stk/board/usb-vcom/vcom.cpp **** 	{
  53:../board/olimex-stm32f103-stk/board/usb-vcom/vcom.cpp **** 		_bInitialized = true;
 18684              		.loc 1 53 0
 18685 0018 40F20003 		movw	r3, #:lower16:_ZN4Vcom13_bInitializedE
 18686 001c C0F20003 		movt	r3, #:upper16:_ZN4Vcom13_bInitializedE
 18687 0020 4FF00102 		mov	r2, #1
 18688 0024 1A70     		strb	r2, [r3, #0]
  54:../board/olimex-stm32f103-stk/board/usb-vcom/vcom.cpp **** 
  55:../board/olimex-stm32f103-stk/board/usb-vcom/vcom.cpp **** #if (USE_WRITE_BUFFER != 0)
  56:../board/olimex-stm32f103-stk/board/usb-vcom/vcom.cpp **** 		startBehavior();
 18689              		.loc 1 56 0
 18690 0026 7B68     		ldr	r3, [r7, #4]
 18691 0028 1B68     		ldr	r3, [r3, #0]
 18692 002a 03F10803 		add	r3, r3, #8
 18693 002e 1B68     		ldr	r3, [r3, #0]
 18694 0030 7A68     		ldr	r2, [r7, #4]
 18695 0032 1046     		mov	r0, r2
 18696 0034 9847     		blx	r3
 18697              	.L20:
  57:../board/olimex-stm32f103-stk/board/usb-vcom/vcom.cpp **** #endif // (USE_WRITE_BUFFER != 0)
  58:../board/olimex-stm32f103-stk/board/usb-vcom/vcom.cpp **** 	}
  59:../board/olimex-stm32f103-stk/board/usb-vcom/vcom.cpp **** }
 18698              		.loc 1 59 0
 18699 0036 07F10807 		add	r7, r7, #8
 18700 003a BD46     		mov	sp, r7
 18701 003c 80BD     		pop	{r7, pc}
 18702              		.cfi_endproc
 18703              	.LFE806:
 18705 003e 00BF     		.section	.rodata
 18706              		.align	2
 18707              	.LC0:
 18708 0000 2E2E2F62 		.ascii	"../board/olimex-stm32f103-stk/board/usb-vcom/vcom.c"
 18708      6F617264 
 18708      2F6F6C69 
 18708      6D65782D 
 18708      73746D33 
 18709 0033 707000   		.ascii	"pp\000"
 18710 0036 0000     		.align	2
 18711              	.LC1:
 18712 0038 6973496E 		.ascii	"isInitialized()\000"
 18712      69746961 
 18712      6C697A65 
 18712      64282900 
 18713              		.section	.text._ZN4Vcom5writeEPKcj,"ax",%progbits
 18714              		.align	2
 18715              		.global	_ZN4Vcom5writeEPKcj
 18716              		.thumb
 18717              		.thumb_func
 18719              	_ZN4Vcom5writeEPKcj:
 18720              	.LFB807:
  60:../board/olimex-stm32f103-stk/board/usb-vcom/vcom.cpp **** 
  61:../board/olimex-stm32f103-stk/board/usb-vcom/vcom.cpp **** void Vcom::write(const char * const pData, unsigned int len)
  62:../board/olimex-stm32f103-stk/board/usb-vcom/vcom.cpp **** {
 18721              		.loc 1 62 0
 18722              		.cfi_startproc
 18723              		@ args = 0, pretend = 0, frame = 24
 18724              		@ frame_needed = 1, uses_anonymous_args = 0
 18725 0000 80B5     		push	{r7, lr}
 18726              	.LCFI28:
 18727              		.cfi_def_cfa_offset 8
 18728 0002 86B0     		sub	sp, sp, #24
 18729              	.LCFI29:
 18730              		.cfi_def_cfa_offset 32
 18731 0004 00AF     		add	r7, sp, #0
 18732              		.cfi_offset 14, -4
 18733              		.cfi_offset 7, -8
 18734              	.LCFI30:
 18735              		.cfi_def_cfa_register 7
 18736 0006 F860     		str	r0, [r7, #12]
 18737 0008 B960     		str	r1, [r7, #8]
 18738 000a 7A60     		str	r2, [r7, #4]
 18739              	.LBB6:
  63:../board/olimex-stm32f103-stk/board/usb-vcom/vcom.cpp **** 	assert(isInitialized());		// Error: Call initialize() first
 18740              		.loc 1 63 0
 18741 000c FFF7FEFF 		bl	_ZN4Vcom13isInitializedEv
 18742 0010 0346     		mov	r3, r0
 18743 0012 002B     		cmp	r3, #0
 18744 0014 0FD1     		bne	.L23
 18745              		.loc 1 63 0 is_stmt 0 discriminator 1
 18746 0016 40F20000 		movw	r0, #:lower16:.LC0
 18747 001a C0F20000 		movt	r0, #:upper16:.LC0
 18748 001e 4FF03F01 		mov	r1, #63
 18749 0022 40F20002 		movw	r2, #:lower16:_ZZN4Vcom5writeEPKcjE19__PRETTY_FUNCTION__
 18750 0026 C0F20002 		movt	r2, #:upper16:_ZZN4Vcom5writeEPKcjE19__PRETTY_FUNCTION__
 18751 002a 40F20003 		movw	r3, #:lower16:.LC1
 18752 002e C0F20003 		movt	r3, #:upper16:.LC1
 18753 0032 FFF7FEFF 		bl	__assert_func
 18754              	.L23:
 18755              	.LBB7:
  64:../board/olimex-stm32f103-stk/board/usb-vcom/vcom.cpp **** 
  65:../board/olimex-stm32f103-stk/board/usb-vcom/vcom.cpp **** 	if (len)
 18756              		.loc 1 65 0 is_stmt 1
 18757 0036 7B68     		ldr	r3, [r7, #4]
 18758 0038 002B     		cmp	r3, #0
 18759 003a 1DD0     		beq	.L22
 18760              	.LBB8:
  66:../board/olimex-stm32f103-stk/board/usb-vcom/vcom.cpp **** 	{
  67:../board/olimex-stm32f103-stk/board/usb-vcom/vcom.cpp **** #if (USE_WRITE_BUFFER != 0)
  68:../board/olimex-stm32f103-stk/board/usb-vcom/vcom.cpp **** 		// Get memory
  69:../board/olimex-stm32f103-stk/board/usb-vcom/vcom.cpp **** 		char * pCopiedData = new char[len + 1];
 18761              		.loc 1 69 0
 18762 003c 7B68     		ldr	r3, [r7, #4]
 18763 003e 03F10103 		add	r3, r3, #1
 18764 0042 1846     		mov	r0, r3
 18765 0044 FFF7FEFF 		bl	_Znaj
 18766 0048 0346     		mov	r3, r0
 18767 004a 7B61     		str	r3, [r7, #20]
  70:../board/olimex-stm32f103-stk/board/usb-vcom/vcom.cpp **** 
  71:../board/olimex-stm32f103-stk/board/usb-vcom/vcom.cpp **** 		// Make a copy
  72:../board/olimex-stm32f103-stk/board/usb-vcom/vcom.cpp **** 		memcpy(pCopiedData, pData, len);
 18768              		.loc 1 72 0
 18769 004c 7869     		ldr	r0, [r7, #20]
 18770 004e B968     		ldr	r1, [r7, #8]
 18771 0050 7A68     		ldr	r2, [r7, #4]
 18772 0052 FFF7FEFF 		bl	memcpy
  73:../board/olimex-stm32f103-stk/board/usb-vcom/vcom.cpp **** 		pCopiedData[len] = '\0';
 18773              		.loc 1 73 0
 18774 0056 7A69     		ldr	r2, [r7, #20]
 18775 0058 7B68     		ldr	r3, [r7, #4]
 18776 005a D318     		adds	r3, r2, r3
 18777 005c 4FF00002 		mov	r2, #0
 18778 0060 1A70     		strb	r2, [r3, #0]
  74:../board/olimex-stm32f103-stk/board/usb-vcom/vcom.cpp **** 
  75:../board/olimex-stm32f103-stk/board/usb-vcom/vcom.cpp **** 		// Enqueue the copy
  76:../board/olimex-stm32f103-stk/board/usb-vcom/vcom.cpp **** 		_queue.enqueue(pCopiedData);
 18779              		.loc 1 76 0
 18780 0062 FB68     		ldr	r3, [r7, #12]
 18781 0064 03F10C02 		add	r2, r3, #12
 18782 0068 7B69     		ldr	r3, [r7, #20]
 18783 006a 3B61     		str	r3, [r7, #16]
 18784 006c 07F11003 		add	r3, r7, #16
 18785 0070 1046     		mov	r0, r2
 18786 0072 1946     		mov	r1, r3
 18787 0074 FFF7FEFF 		bl	_ZN7IsQueueIKPKcE7enqueueERS2_
 18788              	.L22:
 18789              	.LBE8:
 18790              	.LBE7:
 18791              	.LBE6:
  77:../board/olimex-stm32f103-stk/board/usb-vcom/vcom.cpp **** #else
  78:../board/olimex-stm32f103-stk/board/usb-vcom/vcom.cpp **** 		Virtual_Com_Port_Transmit((u8*)pData, len);
  79:../board/olimex-stm32f103-stk/board/usb-vcom/vcom.cpp **** #endif // (USE_WRITE_BUFFER != 0)
  80:../board/olimex-stm32f103-stk/board/usb-vcom/vcom.cpp **** 	}
  81:../board/olimex-stm32f103-stk/board/usb-vcom/vcom.cpp **** }
 18792              		.loc 1 81 0
 18793 0078 07F11807 		add	r7, r7, #24
 18794 007c BD46     		mov	sp, r7
 18795 007e 80BD     		pop	{r7, pc}
 18796              		.cfi_endproc
 18797              	.LFE807:
 18799              		.section	.text._ZN4Vcom5writeEPKc,"ax",%progbits
 18800              		.align	2
 18801              		.global	_ZN4Vcom5writeEPKc
 18802              		.thumb
 18803              		.thumb_func
 18805              	_ZN4Vcom5writeEPKc:
 18806              	.LFB808:
  82:../board/olimex-stm32f103-stk/board/usb-vcom/vcom.cpp **** 
  83:../board/olimex-stm32f103-stk/board/usb-vcom/vcom.cpp **** void Vcom::write(const char * const pData)
  84:../board/olimex-stm32f103-stk/board/usb-vcom/vcom.cpp **** {
 18807              		.loc 1 84 0
 18808              		.cfi_startproc
 18809              		@ args = 0, pretend = 0, frame = 16
 18810              		@ frame_needed = 1, uses_anonymous_args = 0
 18811 0000 80B5     		push	{r7, lr}
 18812              	.LCFI31:
 18813              		.cfi_def_cfa_offset 8
 18814 0002 84B0     		sub	sp, sp, #16
 18815              	.LCFI32:
 18816              		.cfi_def_cfa_offset 24
 18817 0004 00AF     		add	r7, sp, #0
 18818              		.cfi_offset 14, -4
 18819              		.cfi_offset 7, -8
 18820              	.LCFI33:
 18821              		.cfi_def_cfa_register 7
 18822 0006 7860     		str	r0, [r7, #4]
 18823 0008 3960     		str	r1, [r7, #0]
 18824              	.LBB9:
  85:../board/olimex-stm32f103-stk/board/usb-vcom/vcom.cpp **** 	const size_t len = strlen(pData);
 18825              		.loc 1 85 0
 18826 000a 3868     		ldr	r0, [r7, #0]
 18827 000c FFF7FEFF 		bl	strlen
 18828 0010 F860     		str	r0, [r7, #12]
  86:../board/olimex-stm32f103-stk/board/usb-vcom/vcom.cpp **** 
  87:../board/olimex-stm32f103-stk/board/usb-vcom/vcom.cpp **** 	write(pData, len);
 18829              		.loc 1 87 0
 18830 0012 7868     		ldr	r0, [r7, #4]
 18831 0014 3968     		ldr	r1, [r7, #0]
 18832 0016 FA68     		ldr	r2, [r7, #12]
 18833 0018 FFF7FEFF 		bl	_ZN4Vcom5writeEPKcj
 18834              	.LBE9:
  88:../board/olimex-stm32f103-stk/board/usb-vcom/vcom.cpp **** }
 18835              		.loc 1 88 0
 18836 001c 07F11007 		add	r7, r7, #16
 18837 0020 BD46     		mov	sp, r7
 18838 0022 80BD     		pop	{r7, pc}
 18839              		.cfi_endproc
 18840              	.LFE808:
 18842              		.section	.text._ZN4Vcom12processEventEv,"ax",%progbits
 18843              		.align	2
 18844              		.global	_ZN4Vcom12processEventEv
 18845              		.thumb
 18846              		.thumb_func
 18848              	_ZN4Vcom12processEventEv:
 18849              	.LFB809:
  89:../board/olimex-stm32f103-stk/board/usb-vcom/vcom.cpp **** 
  90:../board/olimex-stm32f103-stk/board/usb-vcom/vcom.cpp **** #if (USE_WRITE_BUFFER != 0)
  91:../board/olimex-stm32f103-stk/board/usb-vcom/vcom.cpp **** EventStatus Vcom::processEvent()
  92:../board/olimex-stm32f103-stk/board/usb-vcom/vcom.cpp **** {
 18850              		.loc 1 92 0
 18851              		.cfi_startproc
 18852              		@ args = 0, pretend = 0, frame = 24
 18853              		@ frame_needed = 1, uses_anonymous_args = 0
 18854 0000 F0B5     		push	{r4, r5, r6, r7, lr}
 18855              	.LCFI34:
 18856              		.cfi_def_cfa_offset 20
 18857 0002 87B0     		sub	sp, sp, #28
 18858              	.LCFI35:
 18859              		.cfi_def_cfa_offset 48
 18860 0004 00AF     		add	r7, sp, #0
 18861              		.cfi_offset 14, -4
 18862              		.cfi_offset 7, -8
 18863              		.cfi_offset 6, -12
 18864              		.cfi_offset 5, -16
 18865              		.cfi_offset 4, -20
 18866              	.LCFI36:
 18867              		.cfi_def_cfa_register 7
 18868 0006 7860     		str	r0, [r7, #4]
 18869              	.LBB10:
  93:../board/olimex-stm32f103-stk/board/usb-vcom/vcom.cpp **** 	eEventStatus eventStatus = EventStatus::Unknown;
 18870              		.loc 1 93 0
 18871 0008 4FF00003 		mov	r3, #0
 18872 000c FB75     		strb	r3, [r7, #23]
 18873              	.LBB11:
  94:../board/olimex-stm32f103-stk/board/usb-vcom/vcom.cpp **** 
  95:../board/olimex-stm32f103-stk/board/usb-vcom/vcom.cpp **** 	switch (_currentState)
 18874              		.loc 1 95 0
 18875 000e 7B68     		ldr	r3, [r7, #4]
 18876 0010 1B7F     		ldrb	r3, [r3, #28]	@ zero_extendqisi2
 18877 0012 012B     		cmp	r3, #1
 18878 0014 02D0     		beq	.L28
 18879 0016 022B     		cmp	r3, #2
 18880 0018 30D0     		beq	.L29
 18881              	.LBB12:
  96:../board/olimex-stm32f103-stk/board/usb-vcom/vcom.cpp **** 	{
  97:../board/olimex-stm32f103-stk/board/usb-vcom/vcom.cpp **** 	case STATE_INITIAL:
  98:../board/olimex-stm32f103-stk/board/usb-vcom/vcom.cpp **** 		{
  99:../board/olimex-stm32f103-stk/board/usb-vcom/vcom.cpp **** 			if ( getCurrentEvent()->getEventType() == IXFEvent::Initial )
 100:../board/olimex-stm32f103-stk/board/usb-vcom/vcom.cpp **** 			{
 101:../board/olimex-stm32f103-stk/board/usb-vcom/vcom.cpp **** 				GEN(XFNullTransition());
 102:../board/olimex-stm32f103-stk/board/usb-vcom/vcom.cpp **** 
 103:../board/olimex-stm32f103-stk/board/usb-vcom/vcom.cpp **** 				_currentState = STATE_POLL;
 104:../board/olimex-stm32f103-stk/board/usb-vcom/vcom.cpp **** 
 105:../board/olimex-stm32f103-stk/board/usb-vcom/vcom.cpp **** 				eventStatus = EventStatus::Consumed;
 106:../board/olimex-stm32f103-stk/board/usb-vcom/vcom.cpp **** 			}
 107:../board/olimex-stm32f103-stk/board/usb-vcom/vcom.cpp **** 		}
 108:../board/olimex-stm32f103-stk/board/usb-vcom/vcom.cpp **** 		break;
 109:../board/olimex-stm32f103-stk/board/usb-vcom/vcom.cpp **** 	case STATE_POLL:
 110:../board/olimex-stm32f103-stk/board/usb-vcom/vcom.cpp **** 		{
 111:../board/olimex-stm32f103-stk/board/usb-vcom/vcom.cpp **** 			if (getCurrentEvent()->getEventType() == IXFEvent::NullTransition ||
 112:../board/olimex-stm32f103-stk/board/usb-vcom/vcom.cpp **** 				(getCurrentEvent()->getEventType() == IXFEvent::Timeout &&
 113:../board/olimex-stm32f103-stk/board/usb-vcom/vcom.cpp **** 				 getCurrentTimeout()->getId() == Timeout_POLL_id))
 114:../board/olimex-stm32f103-stk/board/usb-vcom/vcom.cpp **** 			{
 115:../board/olimex-stm32f103-stk/board/usb-vcom/vcom.cpp **** 				{
 116:../board/olimex-stm32f103-stk/board/usb-vcom/vcom.cpp **** 					while (!_queue.isEmpty())
 117:../board/olimex-stm32f103-stk/board/usb-vcom/vcom.cpp **** 					{
 118:../board/olimex-stm32f103-stk/board/usb-vcom/vcom.cpp **** 						const char * pData = _queue.dequeue();
 119:../board/olimex-stm32f103-stk/board/usb-vcom/vcom.cpp **** 
 120:../board/olimex-stm32f103-stk/board/usb-vcom/vcom.cpp **** 						Virtual_Com_Port_Transmit((u8*)pData, strlen(pData));
 121:../board/olimex-stm32f103-stk/board/usb-vcom/vcom.cpp **** 
 122:../board/olimex-stm32f103-stk/board/usb-vcom/vcom.cpp **** 						delete [] pData;
 123:../board/olimex-stm32f103-stk/board/usb-vcom/vcom.cpp **** 					}
 124:../board/olimex-stm32f103-stk/board/usb-vcom/vcom.cpp **** 				}
 125:../board/olimex-stm32f103-stk/board/usb-vcom/vcom.cpp **** 
 126:../board/olimex-stm32f103-stk/board/usb-vcom/vcom.cpp **** 				getThread()->scheduleTimeout(Timeout_POLL_id, 100, this);
 127:../board/olimex-stm32f103-stk/board/usb-vcom/vcom.cpp **** 
 128:../board/olimex-stm32f103-stk/board/usb-vcom/vcom.cpp **** 				_currentState = STATE_POLL;
 129:../board/olimex-stm32f103-stk/board/usb-vcom/vcom.cpp **** 
 130:../board/olimex-stm32f103-stk/board/usb-vcom/vcom.cpp **** 				eventStatus = EventStatus::Consumed;
 131:../board/olimex-stm32f103-stk/board/usb-vcom/vcom.cpp **** 			}
 132:../board/olimex-stm32f103-stk/board/usb-vcom/vcom.cpp **** 		}
 133:../board/olimex-stm32f103-stk/board/usb-vcom/vcom.cpp **** 		break;
 134:../board/olimex-stm32f103-stk/board/usb-vcom/vcom.cpp **** 	default:
 135:../board/olimex-stm32f103-stk/board/usb-vcom/vcom.cpp **** 		break;
 18882              		.loc 1 135 0
 18883 001a 95E0     		b	.L31
 18884              	.L28:
  99:../board/olimex-stm32f103-stk/board/usb-vcom/vcom.cpp **** 			if ( getCurrentEvent()->getEventType() == IXFEvent::Initial )
 18885              		.loc 1 99 0
 18886 001c 7B68     		ldr	r3, [r7, #4]
 18887 001e 1846     		mov	r0, r3
 18888 0020 FFF7FEFF 		bl	_ZNK10XFReactive15getCurrentEventEv
 18889 0024 0346     		mov	r3, r0
 18890 0026 1846     		mov	r0, r3
 18891 0028 FFF7FEFF 		bl	_ZNK8IXFEvent12getEventTypeEv
 18892 002c 0346     		mov	r3, r0
 18893 002e 012B     		cmp	r3, #1
 18894 0030 14BF     		ite	ne
 18895 0032 0023     		movne	r3, #0
 18896 0034 0123     		moveq	r3, #1
 18897 0036 DBB2     		uxtb	r3, r3
 18898 0038 002B     		cmp	r3, #0
 18899 003a 00F08280 		beq	.L38
 101:../board/olimex-stm32f103-stk/board/usb-vcom/vcom.cpp **** 				GEN(XFNullTransition());
 18900              		.loc 1 101 0
 18901 003e 7B68     		ldr	r3, [r7, #4]
 18902 0040 1B68     		ldr	r3, [r3, #0]
 18903 0042 03F10C03 		add	r3, r3, #12
 18904 0046 1D68     		ldr	r5, [r3, #0]
 18905 0048 7E68     		ldr	r6, [r7, #4]
 18906 004a 4FF01400 		mov	r0, #20
 18907 004e FFF7FEFF 		bl	_Znwj
 18908 0052 0446     		mov	r4, r0
 18909 0054 2346     		mov	r3, r4
 18910 0056 1846     		mov	r0, r3
 18911 0058 4FF00001 		mov	r1, #0
 18912 005c 4FF00002 		mov	r2, #0
 18913 0060 FFF7FEFF 		bl	_ZN16XFNullTransitionC1EiP11IXFReactive
 18914 0064 2346     		mov	r3, r4
 18915 0066 3046     		mov	r0, r6
 18916 0068 1946     		mov	r1, r3
 18917 006a A847     		blx	r5
 103:../board/olimex-stm32f103-stk/board/usb-vcom/vcom.cpp **** 				_currentState = STATE_POLL;
 18918              		.loc 1 103 0
 18919 006c 7B68     		ldr	r3, [r7, #4]
 18920 006e 4FF00202 		mov	r2, #2
 18921 0072 1A77     		strb	r2, [r3, #28]
 105:../board/olimex-stm32f103-stk/board/usb-vcom/vcom.cpp **** 				eventStatus = EventStatus::Consumed;
 18922              		.loc 1 105 0
 18923 0074 4FF00103 		mov	r3, #1
 18924 0078 FB75     		strb	r3, [r7, #23]
 108:../board/olimex-stm32f103-stk/board/usb-vcom/vcom.cpp **** 		break;
 18925              		.loc 1 108 0
 18926 007a 65E0     		b	.L31
 18927              	.L29:
 18928              	.LBB13:
 18929              	.LBB14:
 111:../board/olimex-stm32f103-stk/board/usb-vcom/vcom.cpp **** 			if (getCurrentEvent()->getEventType() == IXFEvent::NullTransition ||
 18930              		.loc 1 111 0
 18931 007c 7B68     		ldr	r3, [r7, #4]
 18932 007e 1846     		mov	r0, r3
 18933 0080 FFF7FEFF 		bl	_ZNK10XFReactive15getCurrentEventEv
 18934 0084 0346     		mov	r3, r0
 18935 0086 1846     		mov	r0, r3
 18936 0088 FFF7FEFF 		bl	_ZNK8IXFEvent12getEventTypeEv
 18937 008c 0346     		mov	r3, r0
 18938 008e 022B     		cmp	r3, #2
 18939 0090 15D0     		beq	.L32
 112:../board/olimex-stm32f103-stk/board/usb-vcom/vcom.cpp **** 				(getCurrentEvent()->getEventType() == IXFEvent::Timeout &&
 18940              		.loc 1 112 0 discriminator 2
 18941 0092 7B68     		ldr	r3, [r7, #4]
 18942 0094 1846     		mov	r0, r3
 18943 0096 FFF7FEFF 		bl	_ZNK10XFReactive15getCurrentEventEv
 18944 009a 0346     		mov	r3, r0
 18945 009c 1846     		mov	r0, r3
 18946 009e FFF7FEFF 		bl	_ZNK8IXFEvent12getEventTypeEv
 18947 00a2 0346     		mov	r3, r0
 111:../board/olimex-stm32f103-stk/board/usb-vcom/vcom.cpp **** 			if (getCurrentEvent()->getEventType() == IXFEvent::NullTransition ||
 18948              		.loc 1 111 0 discriminator 2
 18949 00a4 042B     		cmp	r3, #4
 18950 00a6 0DD1     		bne	.L33
 113:../board/olimex-stm32f103-stk/board/usb-vcom/vcom.cpp **** 				 getCurrentTimeout()->getId() == Timeout_POLL_id))
 18951              		.loc 1 113 0 discriminator 3
 18952 00a8 7B68     		ldr	r3, [r7, #4]
 18953 00aa 1846     		mov	r0, r3
 18954 00ac FFF7FEFF 		bl	_ZN10XFReactive17getCurrentTimeoutEv
 18955 00b0 0346     		mov	r3, r0
 18956 00b2 1846     		mov	r0, r3
 18957 00b4 FFF7FEFF 		bl	_ZNK8IXFEvent5getIdEv
 18958 00b8 0346     		mov	r3, r0
 111:../board/olimex-stm32f103-stk/board/usb-vcom/vcom.cpp **** 			if (getCurrentEvent()->getEventType() == IXFEvent::NullTransition ||
 18959              		.loc 1 111 0 discriminator 3
 18960 00ba 012B     		cmp	r3, #1
 18961 00bc 02D1     		bne	.L33
 18962              	.L32:
 111:../board/olimex-stm32f103-stk/board/usb-vcom/vcom.cpp **** 			if (getCurrentEvent()->getEventType() == IXFEvent::NullTransition ||
 18963              		.loc 1 111 0 is_stmt 0 discriminator 1
 18964 00be 4FF00103 		mov	r3, #1
 18965 00c2 01E0     		b	.L34
 18966              	.L33:
 111:../board/olimex-stm32f103-stk/board/usb-vcom/vcom.cpp **** 			if (getCurrentEvent()->getEventType() == IXFEvent::NullTransition ||
 18967              		.loc 1 111 0 discriminator 4
 18968 00c4 4FF00003 		mov	r3, #0
 18969              	.L34:
 111:../board/olimex-stm32f103-stk/board/usb-vcom/vcom.cpp **** 			if (getCurrentEvent()->getEventType() == IXFEvent::NullTransition ||
 18970              		.loc 1 111 0 discriminator 5
 18971 00c8 002B     		cmp	r3, #0
 18972 00ca 3CD0     		beq	.L39
 18973              	.LBB15:
 18974              	.LBB16:
 116:../board/olimex-stm32f103-stk/board/usb-vcom/vcom.cpp **** 					while (!_queue.isEmpty())
 18975              		.loc 1 116 0 is_stmt 1
 18976 00cc 14E0     		b	.L36
 18977              	.L37:
 18978              	.LBB17:
 118:../board/olimex-stm32f103-stk/board/usb-vcom/vcom.cpp **** 						const char * pData = _queue.dequeue();
 18979              		.loc 1 118 0
 18980 00ce 7B68     		ldr	r3, [r7, #4]
 18981 00d0 03F10C03 		add	r3, r3, #12
 18982 00d4 1846     		mov	r0, r3
 18983 00d6 FFF7FEFF 		bl	_ZN7IsQueueIKPKcE7dequeueEv
 18984 00da 3861     		str	r0, [r7, #16]
 120:../board/olimex-stm32f103-stk/board/usb-vcom/vcom.cpp **** 						Virtual_Com_Port_Transmit((u8*)pData, strlen(pData));
 18985              		.loc 1 120 0
 18986 00dc 3869     		ldr	r0, [r7, #16]
 18987 00de FFF7FEFF 		bl	strlen
 18988 00e2 0346     		mov	r3, r0
 18989 00e4 3869     		ldr	r0, [r7, #16]
 18990 00e6 1946     		mov	r1, r3
 18991 00e8 FFF7FEFF 		bl	Virtual_Com_Port_Transmit
 122:../board/olimex-stm32f103-stk/board/usb-vcom/vcom.cpp **** 						delete [] pData;
 18992              		.loc 1 122 0
 18993 00ec 3B69     		ldr	r3, [r7, #16]
 18994 00ee 002B     		cmp	r3, #0
 18995 00f0 02D0     		beq	.L36
 122:../board/olimex-stm32f103-stk/board/usb-vcom/vcom.cpp **** 						delete [] pData;
 18996              		.loc 1 122 0 is_stmt 0 discriminator 1
 18997 00f2 3869     		ldr	r0, [r7, #16]
 18998 00f4 FFF7FEFF 		bl	_ZdaPv
 18999              	.L36:
 19000              	.LBE17:
 116:../board/olimex-stm32f103-stk/board/usb-vcom/vcom.cpp **** 					while (!_queue.isEmpty())
 19001              		.loc 1 116 0 is_stmt 1 discriminator 1
 19002 00f8 7B68     		ldr	r3, [r7, #4]
 19003 00fa 03F10C03 		add	r3, r3, #12
 19004 00fe 1846     		mov	r0, r3
 19005 0100 FFF7FEFF 		bl	_ZNK6IsListIKPKcE7isEmptyEv
 19006 0104 0346     		mov	r3, r0
 19007 0106 83F00103 		eor	r3, r3, #1
 19008 010a DBB2     		uxtb	r3, r3
 19009 010c 002B     		cmp	r3, #0
 19010 010e DED1     		bne	.L37
 19011              	.LBE16:
 126:../board/olimex-stm32f103-stk/board/usb-vcom/vcom.cpp **** 				getThread()->scheduleTimeout(Timeout_POLL_id, 100, this);
 19012              		.loc 1 126 0
 19013 0110 7B68     		ldr	r3, [r7, #4]
 19014 0112 1B68     		ldr	r3, [r3, #0]
 19015 0114 03F11803 		add	r3, r3, #24
 19016 0118 1B68     		ldr	r3, [r3, #0]
 19017 011a 7A68     		ldr	r2, [r7, #4]
 19018 011c 1046     		mov	r0, r2
 19019 011e 9847     		blx	r3
 19020 0120 0246     		mov	r2, r0
 19021 0122 7B68     		ldr	r3, [r7, #4]
 19022 0124 1046     		mov	r0, r2
 19023 0126 4FF00101 		mov	r1, #1
 19024 012a 4FF06402 		mov	r2, #100
 19025 012e FFF7FEFF 		bl	_ZN8XFThread15scheduleTimeoutEiiP11IXFReactive
 128:../board/olimex-stm32f103-stk/board/usb-vcom/vcom.cpp **** 				_currentState = STATE_POLL;
 19026              		.loc 1 128 0
 19027 0132 7B68     		ldr	r3, [r7, #4]
 19028 0134 4FF00202 		mov	r2, #2
 19029 0138 1A77     		strb	r2, [r3, #28]
 130:../board/olimex-stm32f103-stk/board/usb-vcom/vcom.cpp **** 				eventStatus = EventStatus::Consumed;
 19030              		.loc 1 130 0
 19031 013a 4FF00103 		mov	r3, #1
 19032 013e FB75     		strb	r3, [r7, #23]
 19033              	.LBE15:
 19034              	.LBE14:
 19035              	.LBE13:
 133:../board/olimex-stm32f103-stk/board/usb-vcom/vcom.cpp **** 		break;
 19036              		.loc 1 133 0
 19037 0140 02E0     		b	.L31
 19038              	.L38:
 108:../board/olimex-stm32f103-stk/board/usb-vcom/vcom.cpp **** 		break;
 19039              		.loc 1 108 0
 19040 0142 00BF     		nop
 19041 0144 00E0     		b	.L31
 19042              	.L39:
 133:../board/olimex-stm32f103-stk/board/usb-vcom/vcom.cpp **** 		break;
 19043              		.loc 1 133 0
 19044 0146 00BF     		nop
 19045              	.L31:
 19046              	.LBE12:
 19047              	.LBE11:
 136:../board/olimex-stm32f103-stk/board/usb-vcom/vcom.cpp **** 	}
 137:../board/olimex-stm32f103-stk/board/usb-vcom/vcom.cpp **** 
 138:../board/olimex-stm32f103-stk/board/usb-vcom/vcom.cpp **** 	return eventStatus;
 19048              		.loc 1 138 0
 19049 0148 07F10C02 		add	r2, r7, #12
 19050 014c FB7D     		ldrb	r3, [r7, #23]	@ zero_extendqisi2
 19051 014e 1046     		mov	r0, r2
 19052 0150 1946     		mov	r1, r3
 19053 0152 FFF7FEFF 		bl	_ZN11EventStatusC1ENS_12eEventStatusE
 19054 0156 3B7B     		ldrb	r3, [r7, #12]
 19055              	.LBE10:
 139:../board/olimex-stm32f103-stk/board/usb-vcom/vcom.cpp **** }
 19056              		.loc 1 139 0
 19057 0158 1846     		mov	r0, r3
 19058 015a 07F11C07 		add	r7, r7, #28
 19059 015e BD46     		mov	sp, r7
 19060 0160 F0BD     		pop	{r4, r5, r6, r7, pc}
 19061              		.cfi_endproc
 19062              	.LFE809:
 19064 0162 00BF     		.section	.text._ZN7IsQueueIKPKcEC2Ev,"axG",%progbits,_ZN7IsQueueIKPKcEC5Ev,comdat
 19065              		.align	2
 19066              		.weak	_ZN7IsQueueIKPKcEC2Ev
 19067              		.thumb
 19068              		.thumb_func
 19070              	_ZN7IsQueueIKPKcEC2Ev:
 19071              	.LFB822:
   1:/home/desem/workspace/desenet/target/stm32/containers/isqueue.hpp **** #pragma once
   2:/home/desem/workspace/desenet/target/stm32/containers/isqueue.hpp **** 
   3:/home/desem/workspace/desenet/target/stm32/containers/isqueue.hpp **** 
   4:/home/desem/workspace/desenet/target/stm32/containers/isqueue.hpp **** #include "IsList"
   5:/home/desem/workspace/desenet/target/stm32/containers/isqueue.hpp **** 
   6:/home/desem/workspace/desenet/target/stm32/containers/isqueue.hpp **** 
   7:/home/desem/workspace/desenet/target/stm32/containers/isqueue.hpp **** /*
   8:/home/desem/workspace/desenet/target/stm32/containers/isqueue.hpp ****  * IsQueue is a Interrupt Save Queue. It can  be called insight an
   9:/home/desem/workspace/desenet/target/stm32/containers/isqueue.hpp ****  * ISR (Interrupt Service Routing).
  10:/home/desem/workspace/desenet/target/stm32/containers/isqueue.hpp ****  */
  11:/home/desem/workspace/desenet/target/stm32/containers/isqueue.hpp **** template<class T> class IsQueue : public IsList<T>
  12:/home/desem/workspace/desenet/target/stm32/containers/isqueue.hpp **** {
  13:/home/desem/workspace/desenet/target/stm32/containers/isqueue.hpp **** public:
  14:/home/desem/workspace/desenet/target/stm32/containers/isqueue.hpp **** 	IsQueue()
 19072              		.loc 85 14 0
 19073              		.cfi_startproc
 19074              		@ args = 0, pretend = 0, frame = 8
 19075              		@ frame_needed = 1, uses_anonymous_args = 0
 19076 0000 80B5     		push	{r7, lr}
 19077              	.LCFI37:
 19078              		.cfi_def_cfa_offset 8
 19079 0002 82B0     		sub	sp, sp, #8
 19080              	.LCFI38:
 19081              		.cfi_def_cfa_offset 16
 19082 0004 00AF     		add	r7, sp, #0
 19083              		.cfi_offset 14, -4
 19084              		.cfi_offset 7, -8
 19085              	.LCFI39:
 19086              		.cfi_def_cfa_register 7
 19087 0006 7860     		str	r0, [r7, #4]
 19088              	.LBB18:
  15:/home/desem/workspace/desenet/target/stm32/containers/isqueue.hpp ****     {}
 19089              		.loc 85 15 0
 19090 0008 7B68     		ldr	r3, [r7, #4]
 19091 000a 1846     		mov	r0, r3
 19092 000c FFF7FEFF 		bl	_ZN6IsListIKPKcEC2Ev
 19093 0010 7B68     		ldr	r3, [r7, #4]
 19094 0012 044A     		ldr	r2, .L42
 19095 0014 1A60     		str	r2, [r3, #0]
 19096              	.LBE18:
 19097 0016 7B68     		ldr	r3, [r7, #4]
 19098 0018 1846     		mov	r0, r3
 19099 001a 07F10807 		add	r7, r7, #8
 19100 001e BD46     		mov	sp, r7
 19101 0020 80BD     		pop	{r7, pc}
 19102              	.L43:
 19103 0022 00BF     		.align	2
 19104              	.L42:
 19105 0024 08000000 		.word	_ZTV7IsQueueIKPKcE+8
 19106              		.cfi_endproc
 19107              	.LFE822:
 19109              		.weak	_ZN7IsQueueIKPKcEC1Ev
 19110              		.thumb_set _ZN7IsQueueIKPKcEC1Ev,_ZN7IsQueueIKPKcEC2Ev
 19111              		.section	.text._ZN7IsQueueIKPKcED2Ev,"axG",%progbits,_ZN7IsQueueIKPKcED5Ev,comdat
 19112              		.align	2
 19113              		.weak	_ZN7IsQueueIKPKcED2Ev
 19114              		.thumb
 19115              		.thumb_func
 19117              	_ZN7IsQueueIKPKcED2Ev:
 19118              	.LFB825:
  16:/home/desem/workspace/desenet/target/stm32/containers/isqueue.hpp **** 
  17:/home/desem/workspace/desenet/target/stm32/containers/isqueue.hpp ****     virtual ~IsQueue()
 19119              		.loc 85 17 0
 19120              		.cfi_startproc
 19121              		@ args = 0, pretend = 0, frame = 8
 19122              		@ frame_needed = 1, uses_anonymous_args = 0
 19123 0000 80B5     		push	{r7, lr}
 19124              	.LCFI40:
 19125              		.cfi_def_cfa_offset 8
 19126 0002 82B0     		sub	sp, sp, #8
 19127              	.LCFI41:
 19128              		.cfi_def_cfa_offset 16
 19129 0004 00AF     		add	r7, sp, #0
 19130              		.cfi_offset 14, -4
 19131              		.cfi_offset 7, -8
 19132              	.LCFI42:
 19133              		.cfi_def_cfa_register 7
 19134 0006 7860     		str	r0, [r7, #4]
 19135              	.LBB19:
  18:/home/desem/workspace/desenet/target/stm32/containers/isqueue.hpp ****     {}
 19136              		.loc 85 18 0
 19137 0008 7B68     		ldr	r3, [r7, #4]
 19138 000a 0B4A     		ldr	r2, .L47
 19139 000c 1A60     		str	r2, [r3, #0]
 19140 000e 7B68     		ldr	r3, [r7, #4]
 19141 0010 1846     		mov	r0, r3
 19142 0012 FFF7FEFF 		bl	_ZN6IsListIKPKcED2Ev
 19143              	.LBE19:
 19144 0016 4FF00003 		mov	r3, #0
 19145 001a 03F00103 		and	r3, r3, #1
 19146 001e DBB2     		uxtb	r3, r3
 19147 0020 002B     		cmp	r3, #0
 19148 0022 02D0     		beq	.L46
 19149              		.loc 85 18 0 is_stmt 0 discriminator 2
 19150 0024 7868     		ldr	r0, [r7, #4]
 19151 0026 FFF7FEFF 		bl	_ZdlPv
 19152              	.L46:
 19153              		.loc 85 18 0 discriminator 3
 19154 002a 7B68     		ldr	r3, [r7, #4]
 19155 002c 1846     		mov	r0, r3
 19156 002e 07F10807 		add	r7, r7, #8
 19157 0032 BD46     		mov	sp, r7
 19158 0034 80BD     		pop	{r7, pc}
 19159              	.L48:
 19160 0036 00BF     		.align	2
 19161              	.L47:
 19162 0038 08000000 		.word	_ZTV7IsQueueIKPKcE+8
 19163              		.cfi_endproc
 19164              	.LFE825:
 19166              		.weak	_ZN7IsQueueIKPKcED1Ev
 19167              		.thumb_set _ZN7IsQueueIKPKcED1Ev,_ZN7IsQueueIKPKcED2Ev
 19168              		.section	.text._ZN7IsQueueIKPKcED0Ev,"axG",%progbits,_ZN7IsQueueIKPKcED5Ev,comdat
 19169              		.align	2
 19170              		.weak	_ZN7IsQueueIKPKcED0Ev
 19171              		.thumb
 19172              		.thumb_func
 19174              	_ZN7IsQueueIKPKcED0Ev:
 19175              	.LFB827:
  17:/home/desem/workspace/desenet/target/stm32/containers/isqueue.hpp ****     virtual ~IsQueue()
 19176              		.loc 85 17 0 is_stmt 1
 19177              		.cfi_startproc
 19178              		@ args = 0, pretend = 0, frame = 8
 19179              		@ frame_needed = 1, uses_anonymous_args = 0
 19180 0000 80B5     		push	{r7, lr}
 19181              	.LCFI43:
 19182              		.cfi_def_cfa_offset 8
 19183 0002 82B0     		sub	sp, sp, #8
 19184              	.LCFI44:
 19185              		.cfi_def_cfa_offset 16
 19186 0004 00AF     		add	r7, sp, #0
 19187              		.cfi_offset 14, -4
 19188              		.cfi_offset 7, -8
 19189              	.LCFI45:
 19190              		.cfi_def_cfa_register 7
 19191 0006 7860     		str	r0, [r7, #4]
 19192              		.loc 85 18 0
 19193 0008 7868     		ldr	r0, [r7, #4]
 19194 000a FFF7FEFF 		bl	_ZN7IsQueueIKPKcED1Ev
 19195 000e 7868     		ldr	r0, [r7, #4]
 19196 0010 FFF7FEFF 		bl	_ZdlPv
 19197 0014 7B68     		ldr	r3, [r7, #4]
 19198 0016 1846     		mov	r0, r3
 19199 0018 07F10807 		add	r7, r7, #8
 19200 001c BD46     		mov	sp, r7
 19201 001e 80BD     		pop	{r7, pc}
 19202              		.cfi_endproc
 19203              	.LFE827:
 19205              		.section	.text._ZN7IsQueueIKPKcE7enqueueERS2_,"axG",%progbits,_ZN7IsQueueIKPKcE7enqueueERS2_,comda
 19206              		.align	2
 19207              		.weak	_ZN7IsQueueIKPKcE7enqueueERS2_
 19208              		.thumb
 19209              		.thumb_func
 19211              	_ZN7IsQueueIKPKcE7enqueueERS2_:
 19212              	.LFB828:
  19:/home/desem/workspace/desenet/target/stm32/containers/isqueue.hpp **** 
  20:/home/desem/workspace/desenet/target/stm32/containers/isqueue.hpp ****     T dequeue()
  21:/home/desem/workspace/desenet/target/stm32/containers/isqueue.hpp ****     {
  22:/home/desem/workspace/desenet/target/stm32/containers/isqueue.hpp ****     	return IsList<T>::pop();
  23:/home/desem/workspace/desenet/target/stm32/containers/isqueue.hpp ****     }
  24:/home/desem/workspace/desenet/target/stm32/containers/isqueue.hpp **** 
  25:/home/desem/workspace/desenet/target/stm32/containers/isqueue.hpp ****     void enqueue(const T & t)
 19213              		.loc 85 25 0
 19214              		.cfi_startproc
 19215              		@ args = 0, pretend = 0, frame = 8
 19216              		@ frame_needed = 1, uses_anonymous_args = 0
 19217 0000 80B5     		push	{r7, lr}
 19218              	.LCFI46:
 19219              		.cfi_def_cfa_offset 8
 19220 0002 82B0     		sub	sp, sp, #8
 19221              	.LCFI47:
 19222              		.cfi_def_cfa_offset 16
 19223 0004 00AF     		add	r7, sp, #0
 19224              		.cfi_offset 14, -4
 19225              		.cfi_offset 7, -8
 19226              	.LCFI48:
 19227              		.cfi_def_cfa_register 7
 19228 0006 7860     		str	r0, [r7, #4]
 19229 0008 3960     		str	r1, [r7, #0]
  26:/home/desem/workspace/desenet/target/stm32/containers/isqueue.hpp ****     {
  27:/home/desem/workspace/desenet/target/stm32/containers/isqueue.hpp ****     	IsList<T>::addFirst(t);
 19230              		.loc 85 27 0
 19231 000a 7B68     		ldr	r3, [r7, #4]
 19232 000c 1846     		mov	r0, r3
 19233 000e 3968     		ldr	r1, [r7, #0]
 19234 0010 FFF7FEFF 		bl	_ZN6IsListIKPKcE8addFirstERS2_
  28:/home/desem/workspace/desenet/target/stm32/containers/isqueue.hpp ****     }
 19235              		.loc 85 28 0
 19236 0014 07F10807 		add	r7, r7, #8
 19237 0018 BD46     		mov	sp, r7
 19238 001a 80BD     		pop	{r7, pc}
 19239              		.cfi_endproc
 19240              	.LFE828:
 19242              		.section	.text._ZNK6IsListIKPKcE7isEmptyEv,"axG",%progbits,_ZNK6IsListIKPKcE7isEmptyEv,comdat
 19243              		.align	2
 19244              		.weak	_ZNK6IsListIKPKcE7isEmptyEv
 19245              		.thumb
 19246              		.thumb_func
 19248              	_ZNK6IsListIKPKcE7isEmptyEv:
 19249              	.LFB829:
   1:/home/desem/workspace/desenet/target/stm32/containers/islist.hpp **** #pragma once
   2:/home/desem/workspace/desenet/target/stm32/containers/islist.hpp **** 
   3:/home/desem/workspace/desenet/target/stm32/containers/islist.hpp **** 
   4:/home/desem/workspace/desenet/target/stm32/containers/islist.hpp **** #include <critical/critical.h>
   5:/home/desem/workspace/desenet/target/stm32/containers/islist.hpp **** 
   6:/home/desem/workspace/desenet/target/stm32/containers/islist.hpp **** 
   7:/home/desem/workspace/desenet/target/stm32/containers/islist.hpp **** /*
   8:/home/desem/workspace/desenet/target/stm32/containers/islist.hpp ****  * IsList is a Interrupt Save List. It can  be called insight an
   9:/home/desem/workspace/desenet/target/stm32/containers/islist.hpp ****  * ISR (Interrupt Service Routing).
  10:/home/desem/workspace/desenet/target/stm32/containers/islist.hpp ****  */
  11:/home/desem/workspace/desenet/target/stm32/containers/islist.hpp **** template<class T> class IsList
  12:/home/desem/workspace/desenet/target/stm32/containers/islist.hpp **** {
  13:/home/desem/workspace/desenet/target/stm32/containers/islist.hpp **** public:
  14:/home/desem/workspace/desenet/target/stm32/containers/islist.hpp **** 	IsList() : count_(0) ,first(NULL) ,last(NULL)
  15:/home/desem/workspace/desenet/target/stm32/containers/islist.hpp **** 	{}
  16:/home/desem/workspace/desenet/target/stm32/containers/islist.hpp **** 
  17:/home/desem/workspace/desenet/target/stm32/containers/islist.hpp **** 	virtual ~IsList()
  18:/home/desem/workspace/desenet/target/stm32/containers/islist.hpp **** 	{
  19:/home/desem/workspace/desenet/target/stm32/containers/islist.hpp **** 	    removeAll();
  20:/home/desem/workspace/desenet/target/stm32/containers/islist.hpp **** 	}
  21:/home/desem/workspace/desenet/target/stm32/containers/islist.hpp **** 
  22:/home/desem/workspace/desenet/target/stm32/containers/islist.hpp **** 	class Item
  23:/home/desem/workspace/desenet/target/stm32/containers/islist.hpp **** 	{
  24:/home/desem/workspace/desenet/target/stm32/containers/islist.hpp **** 	public:
  25:/home/desem/workspace/desenet/target/stm32/containers/islist.hpp **** 		friend class IsList<T>;
  26:/home/desem/workspace/desenet/target/stm32/containers/islist.hpp **** 
  27:/home/desem/workspace/desenet/target/stm32/containers/islist.hpp **** 		Item(const T & theConcept) : concept(theConcept), next(NULL)
  28:/home/desem/workspace/desenet/target/stm32/containers/islist.hpp **** 		{}
  29:/home/desem/workspace/desenet/target/stm32/containers/islist.hpp **** 
  30:/home/desem/workspace/desenet/target/stm32/containers/islist.hpp **** 		Item(const Item& other) : concept(other.concept), next(other.next)
  31:/home/desem/workspace/desenet/target/stm32/containers/islist.hpp **** 		{}
  32:/home/desem/workspace/desenet/target/stm32/containers/islist.hpp **** 
  33:/home/desem/workspace/desenet/target/stm32/containers/islist.hpp **** 		Item()
  34:/home/desem/workspace/desenet/target/stm32/containers/islist.hpp **** 		{}
  35:/home/desem/workspace/desenet/target/stm32/containers/islist.hpp **** 
  36:/home/desem/workspace/desenet/target/stm32/containers/islist.hpp **** 		~Item()
  37:/home/desem/workspace/desenet/target/stm32/containers/islist.hpp **** 		{
  38:/home/desem/workspace/desenet/target/stm32/containers/islist.hpp **** 		    next = NULL;
  39:/home/desem/workspace/desenet/target/stm32/containers/islist.hpp **** 		}
  40:/home/desem/workspace/desenet/target/stm32/containers/islist.hpp **** 
  41:/home/desem/workspace/desenet/target/stm32/containers/islist.hpp **** 	public:
  42:/home/desem/workspace/desenet/target/stm32/containers/islist.hpp **** 
  43:/home/desem/workspace/desenet/target/stm32/containers/islist.hpp **** 		// Connect to the specified item
  44:/home/desem/workspace/desenet/target/stm32/containers/islist.hpp **** 		// Argument Item* item :
  45:/home/desem/workspace/desenet/target/stm32/containers/islist.hpp **** 		// The item to connect to
  46:/home/desem/workspace/desenet/target/stm32/containers/islist.hpp **** 		inline void connectTo(Item* item)
  47:/home/desem/workspace/desenet/target/stm32/containers/islist.hpp **** 		{
  48:/home/desem/workspace/desenet/target/stm32/containers/islist.hpp **** 		    next = item;
  49:/home/desem/workspace/desenet/target/stm32/containers/islist.hpp **** 		}
  50:/home/desem/workspace/desenet/target/stm32/containers/islist.hpp **** 
  51:/home/desem/workspace/desenet/target/stm32/containers/islist.hpp **** 		// Get the next item in the linked list
  52:/home/desem/workspace/desenet/target/stm32/containers/islist.hpp **** 		inline Item * getNext() const
  53:/home/desem/workspace/desenet/target/stm32/containers/islist.hpp **** 		{
  54:/home/desem/workspace/desenet/target/stm32/containers/islist.hpp **** 			return next;
  55:/home/desem/workspace/desenet/target/stm32/containers/islist.hpp **** 		}
  56:/home/desem/workspace/desenet/target/stm32/containers/islist.hpp **** 
  57:/home/desem/workspace/desenet/target/stm32/containers/islist.hpp **** 		// Assignment operator
  58:/home/desem/workspace/desenet/target/stm32/containers/islist.hpp **** 		// Argument const Item& other :
  59:/home/desem/workspace/desenet/target/stm32/containers/islist.hpp **** 		// The item to copy
  60:/home/desem/workspace/desenet/target/stm32/containers/islist.hpp **** 		inline Item &  operator=(const Item& other)
  61:/home/desem/workspace/desenet/target/stm32/containers/islist.hpp **** 		{
  62:/home/desem/workspace/desenet/target/stm32/containers/islist.hpp **** 
  63:/home/desem/workspace/desenet/target/stm32/containers/islist.hpp **** 			next = other.next;
  64:/home/desem/workspace/desenet/target/stm32/containers/islist.hpp **** 
  65:/home/desem/workspace/desenet/target/stm32/containers/islist.hpp **** 			// Todo: Because concept is a pointer need to duplicate data here
  66:/home/desem/workspace/desenet/target/stm32/containers/islist.hpp **** 			concept = other.concept;	// assuming operator = for Concept
  67:/home/desem/workspace/desenet/target/stm32/containers/islist.hpp **** 
  68:/home/desem/workspace/desenet/target/stm32/containers/islist.hpp **** 			return *this;
  69:/home/desem/workspace/desenet/target/stm32/containers/islist.hpp **** 		}
  70:/home/desem/workspace/desenet/target/stm32/containers/islist.hpp **** 
  71:/home/desem/workspace/desenet/target/stm32/containers/islist.hpp **** 	public:
  72:/home/desem/workspace/desenet/target/stm32/containers/islist.hpp **** 		// the data of the node
  73:/home/desem/workspace/desenet/target/stm32/containers/islist.hpp **** 		T concept;
  74:/home/desem/workspace/desenet/target/stm32/containers/islist.hpp **** 		// the next item in the list
  75:/home/desem/workspace/desenet/target/stm32/containers/islist.hpp **** 		Item * next;
  76:/home/desem/workspace/desenet/target/stm32/containers/islist.hpp **** 	};
  77:/home/desem/workspace/desenet/target/stm32/containers/islist.hpp **** 
  78:/home/desem/workspace/desenet/target/stm32/containers/islist.hpp **** public:
  79:/home/desem/workspace/desenet/target/stm32/containers/islist.hpp **** 	// Add an object to the list (at its end)
  80:/home/desem/workspace/desenet/target/stm32/containers/islist.hpp **** 	// Argument const T & c :
  81:/home/desem/workspace/desenet/target/stm32/containers/islist.hpp **** 	// The element to add
  82:/home/desem/workspace/desenet/target/stm32/containers/islist.hpp **** 	void add(const T & c);
  83:/home/desem/workspace/desenet/target/stm32/containers/islist.hpp **** 
  84:/home/desem/workspace/desenet/target/stm32/containers/islist.hpp **** 	// if getCount>=i - Add c after i'th element else Add c at end
  85:/home/desem/workspace/desenet/target/stm32/containers/islist.hpp **** 	// Argument int i :
  86:/home/desem/workspace/desenet/target/stm32/containers/islist.hpp **** 	// The index
  87:/home/desem/workspace/desenet/target/stm32/containers/islist.hpp **** 	// Argument const T & c :
  88:/home/desem/workspace/desenet/target/stm32/containers/islist.hpp **** 	// The element to add
  89:/home/desem/workspace/desenet/target/stm32/containers/islist.hpp **** 	void addAt(int i, const T & c);
  90:/home/desem/workspace/desenet/target/stm32/containers/islist.hpp **** 
  91:/home/desem/workspace/desenet/target/stm32/containers/islist.hpp **** 	// Add an object to the list (at its beginning)
  92:/home/desem/workspace/desenet/target/stm32/containers/islist.hpp **** 	// Argument const T & c :
  93:/home/desem/workspace/desenet/target/stm32/containers/islist.hpp **** 	// The element to add
  94:/home/desem/workspace/desenet/target/stm32/containers/islist.hpp **** 	bool addFirst(const T & c);
  95:/home/desem/workspace/desenet/target/stm32/containers/islist.hpp **** 
  96:/home/desem/workspace/desenet/target/stm32/containers/islist.hpp **** 	// Find an object in the list
  97:/home/desem/workspace/desenet/target/stm32/containers/islist.hpp **** 	// Argument const T & c :
  98:/home/desem/workspace/desenet/target/stm32/containers/islist.hpp **** 	// The element to find
  99:/home/desem/workspace/desenet/target/stm32/containers/islist.hpp **** 	bool find(const T & c) const;
 100:/home/desem/workspace/desenet/target/stm32/containers/islist.hpp **** 
 101:/home/desem/workspace/desenet/target/stm32/containers/islist.hpp **** 	// Get the element in the given index
 102:/home/desem/workspace/desenet/target/stm32/containers/islist.hpp **** 	// Argument int i :
 103:/home/desem/workspace/desenet/target/stm32/containers/islist.hpp **** 	// The index
 104:/home/desem/workspace/desenet/target/stm32/containers/islist.hpp **** 	T & getAt(int i) const;
 105:/home/desem/workspace/desenet/target/stm32/containers/islist.hpp **** 
 106:/home/desem/workspace/desenet/target/stm32/containers/islist.hpp **** 	// Get the element in the head of the list
 107:/home/desem/workspace/desenet/target/stm32/containers/islist.hpp **** 	T getFirstConcept() const;
 108:/home/desem/workspace/desenet/target/stm32/containers/islist.hpp **** 
 109:/home/desem/workspace/desenet/target/stm32/containers/islist.hpp **** 	// Get the element in the tail of the list
 110:/home/desem/workspace/desenet/target/stm32/containers/islist.hpp **** 	T getLastConcept() const;
 111:/home/desem/workspace/desenet/target/stm32/containers/islist.hpp **** 
 112:/home/desem/workspace/desenet/target/stm32/containers/islist.hpp **** 	virtual T getNULLContent() const;
 113:/home/desem/workspace/desenet/target/stm32/containers/islist.hpp **** 
 114:/home/desem/workspace/desenet/target/stm32/containers/islist.hpp **** 	// Check if the list is empty
 115:/home/desem/workspace/desenet/target/stm32/containers/islist.hpp **** 	bool isEmpty() const;
 116:/home/desem/workspace/desenet/target/stm32/containers/islist.hpp **** 
 117:/home/desem/workspace/desenet/target/stm32/containers/islist.hpp **** 	// Get the element at the provided index
 118:/home/desem/workspace/desenet/target/stm32/containers/islist.hpp **** 	// Argument int i :
 119:/home/desem/workspace/desenet/target/stm32/containers/islist.hpp **** 	// The index
 120:/home/desem/workspace/desenet/target/stm32/containers/islist.hpp **** 	T & operator[](int i) const;
 121:/home/desem/workspace/desenet/target/stm32/containers/islist.hpp **** 
 122:/home/desem/workspace/desenet/target/stm32/containers/islist.hpp **** 	T pop();
 123:/home/desem/workspace/desenet/target/stm32/containers/islist.hpp **** 
 124:/home/desem/workspace/desenet/target/stm32/containers/islist.hpp **** 	// Remove the first occurrence of a specific Object (Concept)
 125:/home/desem/workspace/desenet/target/stm32/containers/islist.hpp **** 	// from list
 126:/home/desem/workspace/desenet/target/stm32/containers/islist.hpp **** 	// Argument T c :
 127:/home/desem/workspace/desenet/target/stm32/containers/islist.hpp **** 	// The element to remove
 128:/home/desem/workspace/desenet/target/stm32/containers/islist.hpp **** 	void remove(T c);
 129:/home/desem/workspace/desenet/target/stm32/containers/islist.hpp **** 
 130:/home/desem/workspace/desenet/target/stm32/containers/islist.hpp **** 	// Remove all items from list
 131:/home/desem/workspace/desenet/target/stm32/containers/islist.hpp **** 	//## operation removeAll()
 132:/home/desem/workspace/desenet/target/stm32/containers/islist.hpp **** 	void removeAll();
 133:/home/desem/workspace/desenet/target/stm32/containers/islist.hpp **** 
 134:/home/desem/workspace/desenet/target/stm32/containers/islist.hpp **** 	// Remove first item from list
 135:/home/desem/workspace/desenet/target/stm32/containers/islist.hpp **** 	void removeFirst();
 136:/home/desem/workspace/desenet/target/stm32/containers/islist.hpp **** 
 137:/home/desem/workspace/desenet/target/stm32/containers/islist.hpp **** 	// Remove a specific Item from list
 138:/home/desem/workspace/desenet/target/stm32/containers/islist.hpp **** 	// Argument IsList<T>::Item * item :
 139:/home/desem/workspace/desenet/target/stm32/containers/islist.hpp **** 	// The list node to remove
 140:/home/desem/workspace/desenet/target/stm32/containers/islist.hpp **** 	void removeItem(IsList<T>::Item * item);
 141:/home/desem/workspace/desenet/target/stm32/containers/islist.hpp **** 
 142:/home/desem/workspace/desenet/target/stm32/containers/islist.hpp **** 	// Remove last item from list - inefficient as we keep no
 143:/home/desem/workspace/desenet/target/stm32/containers/islist.hpp **** 	// backward pointers
 144:/home/desem/workspace/desenet/target/stm32/containers/islist.hpp **** 	void removeLast();
 145:/home/desem/workspace/desenet/target/stm32/containers/islist.hpp **** 
 146:/home/desem/workspace/desenet/target/stm32/containers/islist.hpp **** protected :
 147:/home/desem/workspace/desenet/target/stm32/containers/islist.hpp **** 
 148:/home/desem/workspace/desenet/target/stm32/containers/islist.hpp **** 	// unsafe Remove first item from list
 149:/home/desem/workspace/desenet/target/stm32/containers/islist.hpp **** 	void _removeFirst();
 150:/home/desem/workspace/desenet/target/stm32/containers/islist.hpp **** 
 151:/home/desem/workspace/desenet/target/stm32/containers/islist.hpp **** 	// Get the element at the given position (called by the iterator)
 152:/home/desem/workspace/desenet/target/stm32/containers/islist.hpp **** 	// Argument void * pos :
 153:/home/desem/workspace/desenet/target/stm32/containers/islist.hpp **** 	// The iterator position
 154:/home/desem/workspace/desenet/target/stm32/containers/islist.hpp **** 	virtual T getCurrent(void * pos) const;
 155:/home/desem/workspace/desenet/target/stm32/containers/islist.hpp **** 
 156:/home/desem/workspace/desenet/target/stm32/containers/islist.hpp **** 	// Set the initial position for the iterator
 157:/home/desem/workspace/desenet/target/stm32/containers/islist.hpp **** 	// Argument void*& pos :
 158:/home/desem/workspace/desenet/target/stm32/containers/islist.hpp **** 	// The list head (out)
 159:/home/desem/workspace/desenet/target/stm32/containers/islist.hpp **** 	virtual void getFirst(void*& pos) const;
 160:/home/desem/workspace/desenet/target/stm32/containers/islist.hpp **** 
 161:/home/desem/workspace/desenet/target/stm32/containers/islist.hpp **** 	// Bet the position of the list tail
 162:/home/desem/workspace/desenet/target/stm32/containers/islist.hpp **** 	// Argument void*& pos :
 163:/home/desem/workspace/desenet/target/stm32/containers/islist.hpp **** 	// The list tail (out)
 164:/home/desem/workspace/desenet/target/stm32/containers/islist.hpp **** 	virtual void getLast(void*& pos) const;
 165:/home/desem/workspace/desenet/target/stm32/containers/islist.hpp **** 
 166:/home/desem/workspace/desenet/target/stm32/containers/islist.hpp **** 	// Update the provided position to the next position in the container
 167:/home/desem/workspace/desenet/target/stm32/containers/islist.hpp **** 	// Argument void*& pos :
 168:/home/desem/workspace/desenet/target/stm32/containers/islist.hpp **** 	// The iterator position to advance
 169:/home/desem/workspace/desenet/target/stm32/containers/islist.hpp **** 	virtual void getNext(void*& pos) const;
 170:/home/desem/workspace/desenet/target/stm32/containers/islist.hpp **** 
 171:/home/desem/workspace/desenet/target/stm32/containers/islist.hpp **** 
 172:/home/desem/workspace/desenet/target/stm32/containers/islist.hpp **** protected:
 173:/home/desem/workspace/desenet/target/stm32/containers/islist.hpp **** 	// the number of elements in the list
 174:/home/desem/workspace/desenet/target/stm32/containers/islist.hpp **** 	unsigned long count_;
 175:/home/desem/workspace/desenet/target/stm32/containers/islist.hpp **** 
 176:/home/desem/workspace/desenet/target/stm32/containers/islist.hpp **** 	// the list head
 177:/home/desem/workspace/desenet/target/stm32/containers/islist.hpp **** 	Item * first;
 178:/home/desem/workspace/desenet/target/stm32/containers/islist.hpp **** 
 179:/home/desem/workspace/desenet/target/stm32/containers/islist.hpp **** 	// the tail head
 180:/home/desem/workspace/desenet/target/stm32/containers/islist.hpp **** 	Item * last;
 181:/home/desem/workspace/desenet/target/stm32/containers/islist.hpp **** };
 182:/home/desem/workspace/desenet/target/stm32/containers/islist.hpp **** 
 183:/home/desem/workspace/desenet/target/stm32/containers/islist.hpp **** template<class T> void IsList<T>::_removeFirst()
 184:/home/desem/workspace/desenet/target/stm32/containers/islist.hpp **** {
 185:/home/desem/workspace/desenet/target/stm32/containers/islist.hpp ****     Item * tmp = first;
 186:/home/desem/workspace/desenet/target/stm32/containers/islist.hpp **** 
 187:/home/desem/workspace/desenet/target/stm32/containers/islist.hpp ****     // * Protection should be made outside,
 188:/home/desem/workspace/desenet/target/stm32/containers/islist.hpp ****     // * when calling this function
 189:/home/desem/workspace/desenet/target/stm32/containers/islist.hpp ****     //
 190:/home/desem/workspace/desenet/target/stm32/containers/islist.hpp ****     // enterCritical();
 191:/home/desem/workspace/desenet/target/stm32/containers/islist.hpp **** 
 192:/home/desem/workspace/desenet/target/stm32/containers/islist.hpp ****     first = first->next;
 193:/home/desem/workspace/desenet/target/stm32/containers/islist.hpp ****     if (first == NULL)
 194:/home/desem/workspace/desenet/target/stm32/containers/islist.hpp ****     {
 195:/home/desem/workspace/desenet/target/stm32/containers/islist.hpp ****     	last = NULL;
 196:/home/desem/workspace/desenet/target/stm32/containers/islist.hpp ****     }
 197:/home/desem/workspace/desenet/target/stm32/containers/islist.hpp ****     if (tmp != NULL)
 198:/home/desem/workspace/desenet/target/stm32/containers/islist.hpp ****     {
 199:/home/desem/workspace/desenet/target/stm32/containers/islist.hpp ****     	delete tmp;
 200:/home/desem/workspace/desenet/target/stm32/containers/islist.hpp ****     	--count_;
 201:/home/desem/workspace/desenet/target/stm32/containers/islist.hpp ****     }
 202:/home/desem/workspace/desenet/target/stm32/containers/islist.hpp **** 
 203:/home/desem/workspace/desenet/target/stm32/containers/islist.hpp ****     // exitCritical();
 204:/home/desem/workspace/desenet/target/stm32/containers/islist.hpp **** }
 205:/home/desem/workspace/desenet/target/stm32/containers/islist.hpp **** 
 206:/home/desem/workspace/desenet/target/stm32/containers/islist.hpp **** template<class T> void IsList<T>::add(const T & c)
 207:/home/desem/workspace/desenet/target/stm32/containers/islist.hpp **** {
 208:/home/desem/workspace/desenet/target/stm32/containers/islist.hpp ****     // Create a new list item
 209:/home/desem/workspace/desenet/target/stm32/containers/islist.hpp ****     Item * item = new Item(c);
 210:/home/desem/workspace/desenet/target/stm32/containers/islist.hpp **** 
 211:/home/desem/workspace/desenet/target/stm32/containers/islist.hpp ****     enterCritical();
 212:/home/desem/workspace/desenet/target/stm32/containers/islist.hpp **** 
 213:/home/desem/workspace/desenet/target/stm32/containers/islist.hpp ****     // Insert it into the list at the end
 214:/home/desem/workspace/desenet/target/stm32/containers/islist.hpp ****     if (first == NULL)
 215:/home/desem/workspace/desenet/target/stm32/containers/islist.hpp ****     {
 216:/home/desem/workspace/desenet/target/stm32/containers/islist.hpp ****     	first = item;
 217:/home/desem/workspace/desenet/target/stm32/containers/islist.hpp ****     }
 218:/home/desem/workspace/desenet/target/stm32/containers/islist.hpp ****     else
 219:/home/desem/workspace/desenet/target/stm32/containers/islist.hpp ****     {
 220:/home/desem/workspace/desenet/target/stm32/containers/islist.hpp ****     	last->connectTo(item);
 221:/home/desem/workspace/desenet/target/stm32/containers/islist.hpp ****     }
 222:/home/desem/workspace/desenet/target/stm32/containers/islist.hpp ****     last = item;
 223:/home/desem/workspace/desenet/target/stm32/containers/islist.hpp ****     ++count_;
 224:/home/desem/workspace/desenet/target/stm32/containers/islist.hpp **** 
 225:/home/desem/workspace/desenet/target/stm32/containers/islist.hpp ****     exitCritical();
 226:/home/desem/workspace/desenet/target/stm32/containers/islist.hpp **** }
 227:/home/desem/workspace/desenet/target/stm32/containers/islist.hpp **** 
 228:/home/desem/workspace/desenet/target/stm32/containers/islist.hpp **** template<class T> void IsList<T>::addAt(int i, const T & c)
 229:/home/desem/workspace/desenet/target/stm32/containers/islist.hpp **** {
 230:/home/desem/workspace/desenet/target/stm32/containers/islist.hpp ****     enterCritical();
 231:/home/desem/workspace/desenet/target/stm32/containers/islist.hpp **** 
 232:/home/desem/workspace/desenet/target/stm32/containers/islist.hpp ****     if (i == 0 || first == NULL)
 233:/home/desem/workspace/desenet/target/stm32/containers/islist.hpp ****     {
 234:/home/desem/workspace/desenet/target/stm32/containers/islist.hpp ****     	// Insert c in first position
 235:/home/desem/workspace/desenet/target/stm32/containers/islist.hpp ****     	addFirst(c);
 236:/home/desem/workspace/desenet/target/stm32/containers/islist.hpp **** 
 237:/home/desem/workspace/desenet/target/stm32/containers/islist.hpp ****     	exitCritical();
 238:/home/desem/workspace/desenet/target/stm32/containers/islist.hpp ****     	return;
 239:/home/desem/workspace/desenet/target/stm32/containers/islist.hpp ****     }
 240:/home/desem/workspace/desenet/target/stm32/containers/islist.hpp **** 
 241:/home/desem/workspace/desenet/target/stm32/containers/islist.hpp ****     // Find the position of insertion
 242:/home/desem/workspace/desenet/target/stm32/containers/islist.hpp ****     Item * item = first;
 243:/home/desem/workspace/desenet/target/stm32/containers/islist.hpp **** 
 244:/home/desem/workspace/desenet/target/stm32/containers/islist.hpp ****     for(int j = 1; (j < i) && (item != last); j++)
 245:/home/desem/workspace/desenet/target/stm32/containers/islist.hpp ****     {
 246:/home/desem/workspace/desenet/target/stm32/containers/islist.hpp ****     	item = item->next;
 247:/home/desem/workspace/desenet/target/stm32/containers/islist.hpp ****     }
 248:/home/desem/workspace/desenet/target/stm32/containers/islist.hpp **** 
 249:/home/desem/workspace/desenet/target/stm32/containers/islist.hpp ****     if (item == last)
 250:/home/desem/workspace/desenet/target/stm32/containers/islist.hpp ****     {
 251:/home/desem/workspace/desenet/target/stm32/containers/islist.hpp ****     	// Insert c in last position
 252:/home/desem/workspace/desenet/target/stm32/containers/islist.hpp ****     	add(c);
 253:/home/desem/workspace/desenet/target/stm32/containers/islist.hpp ****     }
 254:/home/desem/workspace/desenet/target/stm32/containers/islist.hpp ****     else
 255:/home/desem/workspace/desenet/target/stm32/containers/islist.hpp ****     {
 256:/home/desem/workspace/desenet/target/stm32/containers/islist.hpp ****     	Item* newGuy = new Item(c);
 257:/home/desem/workspace/desenet/target/stm32/containers/islist.hpp ****     	Item* nextGuy = item->next;
 258:/home/desem/workspace/desenet/target/stm32/containers/islist.hpp ****     	item->connectTo(newGuy);
 259:/home/desem/workspace/desenet/target/stm32/containers/islist.hpp ****     	newGuy->connectTo(nextGuy);
 260:/home/desem/workspace/desenet/target/stm32/containers/islist.hpp ****     	++count_;
 261:/home/desem/workspace/desenet/target/stm32/containers/islist.hpp ****     }
 262:/home/desem/workspace/desenet/target/stm32/containers/islist.hpp **** 
 263:/home/desem/workspace/desenet/target/stm32/containers/islist.hpp ****     exitCritical();
 264:/home/desem/workspace/desenet/target/stm32/containers/islist.hpp **** }
 265:/home/desem/workspace/desenet/target/stm32/containers/islist.hpp **** 
 266:/home/desem/workspace/desenet/target/stm32/containers/islist.hpp **** template <class T> bool IsList<T> ::addFirst(const T & c)
 267:/home/desem/workspace/desenet/target/stm32/containers/islist.hpp **** {
 268:/home/desem/workspace/desenet/target/stm32/containers/islist.hpp ****     // Create a new list item
 269:/home/desem/workspace/desenet/target/stm32/containers/islist.hpp ****     Item * item = new Item(c);
 270:/home/desem/workspace/desenet/target/stm32/containers/islist.hpp **** 
 271:/home/desem/workspace/desenet/target/stm32/containers/islist.hpp ****     if (item)
 272:/home/desem/workspace/desenet/target/stm32/containers/islist.hpp ****     {
 273:/home/desem/workspace/desenet/target/stm32/containers/islist.hpp ****     	enterCritical();
 274:/home/desem/workspace/desenet/target/stm32/containers/islist.hpp **** 
 275:/home/desem/workspace/desenet/target/stm32/containers/islist.hpp ****     	// Insert it into the list at the beginning
 276:/home/desem/workspace/desenet/target/stm32/containers/islist.hpp ****     	item->connectTo(first);
 277:/home/desem/workspace/desenet/target/stm32/containers/islist.hpp ****     	first = item;
 278:/home/desem/workspace/desenet/target/stm32/containers/islist.hpp ****     	if (last == NULL)
 279:/home/desem/workspace/desenet/target/stm32/containers/islist.hpp ****     	{
 280:/home/desem/workspace/desenet/target/stm32/containers/islist.hpp ****     		last = first;
 281:/home/desem/workspace/desenet/target/stm32/containers/islist.hpp ****     	}
 282:/home/desem/workspace/desenet/target/stm32/containers/islist.hpp ****     	++count_;
 283:/home/desem/workspace/desenet/target/stm32/containers/islist.hpp **** 
 284:/home/desem/workspace/desenet/target/stm32/containers/islist.hpp ****     	exitCritical();
 285:/home/desem/workspace/desenet/target/stm32/containers/islist.hpp **** 
 286:/home/desem/workspace/desenet/target/stm32/containers/islist.hpp ****     	return true;
 287:/home/desem/workspace/desenet/target/stm32/containers/islist.hpp ****     }
 288:/home/desem/workspace/desenet/target/stm32/containers/islist.hpp ****     return false;
 289:/home/desem/workspace/desenet/target/stm32/containers/islist.hpp **** }
 290:/home/desem/workspace/desenet/target/stm32/containers/islist.hpp **** 
 291:/home/desem/workspace/desenet/target/stm32/containers/islist.hpp **** template <class T> bool IsList<T> ::find(const T & c) const
 292:/home/desem/workspace/desenet/target/stm32/containers/islist.hpp **** {
 293:/home/desem/workspace/desenet/target/stm32/containers/islist.hpp ****     for (Item* i = first; i != NULL; i = i->next)
 294:/home/desem/workspace/desenet/target/stm32/containers/islist.hpp ****     {
 295:/home/desem/workspace/desenet/target/stm32/containers/islist.hpp ****     	if (i->concept == c)
 296:/home/desem/workspace/desenet/target/stm32/containers/islist.hpp ****     	{
 297:/home/desem/workspace/desenet/target/stm32/containers/islist.hpp ****     		return true;
 298:/home/desem/workspace/desenet/target/stm32/containers/islist.hpp ****     	}
 299:/home/desem/workspace/desenet/target/stm32/containers/islist.hpp ****     }
 300:/home/desem/workspace/desenet/target/stm32/containers/islist.hpp ****     return false;
 301:/home/desem/workspace/desenet/target/stm32/containers/islist.hpp **** }
 302:/home/desem/workspace/desenet/target/stm32/containers/islist.hpp **** 
 303:/home/desem/workspace/desenet/target/stm32/containers/islist.hpp **** template <class T> T & IsList<T> ::getAt(int i) const
 304:/home/desem/workspace/desenet/target/stm32/containers/islist.hpp **** {
 305:/home/desem/workspace/desenet/target/stm32/containers/islist.hpp ****     void* item;
 306:/home/desem/workspace/desenet/target/stm32/containers/islist.hpp **** 
 307:/home/desem/workspace/desenet/target/stm32/containers/islist.hpp ****     getFirst(item);
 308:/home/desem/workspace/desenet/target/stm32/containers/islist.hpp **** 
 309:/home/desem/workspace/desenet/target/stm32/containers/islist.hpp ****     for(int j = 0; j < i; j++)
 310:/home/desem/workspace/desenet/target/stm32/containers/islist.hpp ****     {
 311:/home/desem/workspace/desenet/target/stm32/containers/islist.hpp ****     	if (item)
 312:/home/desem/workspace/desenet/target/stm32/containers/islist.hpp ****     	{
 313:/home/desem/workspace/desenet/target/stm32/containers/islist.hpp ****     		getNext(item);
 314:/home/desem/workspace/desenet/target/stm32/containers/islist.hpp ****     	}
 315:/home/desem/workspace/desenet/target/stm32/containers/islist.hpp ****     	else
 316:/home/desem/workspace/desenet/target/stm32/containers/islist.hpp ****     	{
 317:/home/desem/workspace/desenet/target/stm32/containers/islist.hpp ****     		break;
 318:/home/desem/workspace/desenet/target/stm32/containers/islist.hpp ****     	}
 319:/home/desem/workspace/desenet/target/stm32/containers/islist.hpp ****     }
 320:/home/desem/workspace/desenet/target/stm32/containers/islist.hpp ****     return getCurrent(item);
 321:/home/desem/workspace/desenet/target/stm32/containers/islist.hpp **** }
 322:/home/desem/workspace/desenet/target/stm32/containers/islist.hpp **** 
 323:/home/desem/workspace/desenet/target/stm32/containers/islist.hpp **** template <class T> T IsList<T> ::getCurrent(void * pos) const
 324:/home/desem/workspace/desenet/target/stm32/containers/islist.hpp **** {
 325:/home/desem/workspace/desenet/target/stm32/containers/islist.hpp ****     if (pos != NULL)
 326:/home/desem/workspace/desenet/target/stm32/containers/islist.hpp ****     {
 327:/home/desem/workspace/desenet/target/stm32/containers/islist.hpp ****     //	return reinterpret_cast<Item*>(pos)->concept;
 328:/home/desem/workspace/desenet/target/stm32/containers/islist.hpp ****     	return ((Item*)(pos))->concept;
 329:/home/desem/workspace/desenet/target/stm32/containers/islist.hpp ****     }
 330:/home/desem/workspace/desenet/target/stm32/containers/islist.hpp ****     else
 331:/home/desem/workspace/desenet/target/stm32/containers/islist.hpp ****     {
 332:/home/desem/workspace/desenet/target/stm32/containers/islist.hpp ****     	return getNULLContent();
 333:/home/desem/workspace/desenet/target/stm32/containers/islist.hpp ****     }
 334:/home/desem/workspace/desenet/target/stm32/containers/islist.hpp **** }
 335:/home/desem/workspace/desenet/target/stm32/containers/islist.hpp **** 
 336:/home/desem/workspace/desenet/target/stm32/containers/islist.hpp **** template<class T> void IsList<T>::getFirst(void*& pos) const
 337:/home/desem/workspace/desenet/target/stm32/containers/islist.hpp **** {
 338:/home/desem/workspace/desenet/target/stm32/containers/islist.hpp ****     pos = first;
 339:/home/desem/workspace/desenet/target/stm32/containers/islist.hpp **** }
 340:/home/desem/workspace/desenet/target/stm32/containers/islist.hpp **** 
 341:/home/desem/workspace/desenet/target/stm32/containers/islist.hpp **** template <class T> T IsList<T> ::getFirstConcept() const
 342:/home/desem/workspace/desenet/target/stm32/containers/islist.hpp **** {
 343:/home/desem/workspace/desenet/target/stm32/containers/islist.hpp ****     return getCurrent(first);
 344:/home/desem/workspace/desenet/target/stm32/containers/islist.hpp **** }
 345:/home/desem/workspace/desenet/target/stm32/containers/islist.hpp **** 
 346:/home/desem/workspace/desenet/target/stm32/containers/islist.hpp **** template<class T> void IsList<T>::getLast(void*& pos) const
 347:/home/desem/workspace/desenet/target/stm32/containers/islist.hpp **** {
 348:/home/desem/workspace/desenet/target/stm32/containers/islist.hpp ****     pos = last;
 349:/home/desem/workspace/desenet/target/stm32/containers/islist.hpp **** }
 350:/home/desem/workspace/desenet/target/stm32/containers/islist.hpp **** 
 351:/home/desem/workspace/desenet/target/stm32/containers/islist.hpp **** template <class T> T IsList<T> ::getLastConcept() const
 352:/home/desem/workspace/desenet/target/stm32/containers/islist.hpp **** {
 353:/home/desem/workspace/desenet/target/stm32/containers/islist.hpp ****     return getCurrent(last);
 354:/home/desem/workspace/desenet/target/stm32/containers/islist.hpp **** }
 355:/home/desem/workspace/desenet/target/stm32/containers/islist.hpp **** 
 356:/home/desem/workspace/desenet/target/stm32/containers/islist.hpp **** template <class T> T IsList<T> ::getNULLContent() const
 357:/home/desem/workspace/desenet/target/stm32/containers/islist.hpp **** {
 358:/home/desem/workspace/desenet/target/stm32/containers/islist.hpp ****     static bool bInitialized = false;
 359:/home/desem/workspace/desenet/target/stm32/containers/islist.hpp ****     static T sContent = T();
 360:/home/desem/workspace/desenet/target/stm32/containers/islist.hpp **** 
 361:/home/desem/workspace/desenet/target/stm32/containers/islist.hpp ****     if (bInitialized)
 362:/home/desem/workspace/desenet/target/stm32/containers/islist.hpp ****     {
 363:/home/desem/workspace/desenet/target/stm32/containers/islist.hpp ****     	bInitialized = true;
 364:/home/desem/workspace/desenet/target/stm32/containers/islist.hpp **** 
 365:/home/desem/workspace/desenet/target/stm32/containers/islist.hpp ****     	memset((void*)&sContent, 0, sizeof(T));
 366:/home/desem/workspace/desenet/target/stm32/containers/islist.hpp ****     }
 367:/home/desem/workspace/desenet/target/stm32/containers/islist.hpp ****     return sContent;
 368:/home/desem/workspace/desenet/target/stm32/containers/islist.hpp **** }
 369:/home/desem/workspace/desenet/target/stm32/containers/islist.hpp **** 
 370:/home/desem/workspace/desenet/target/stm32/containers/islist.hpp **** template<class T> void IsList<T>::getNext(void*& pos) const
 371:/home/desem/workspace/desenet/target/stm32/containers/islist.hpp **** {
 372:/home/desem/workspace/desenet/target/stm32/containers/islist.hpp ****     // pos = reinterpret_cast<Item*>(pos)->next;
 373:/home/desem/workspace/desenet/target/stm32/containers/islist.hpp ****     pos = ((Item*)(pos))->next;
 374:/home/desem/workspace/desenet/target/stm32/containers/islist.hpp **** }
 375:/home/desem/workspace/desenet/target/stm32/containers/islist.hpp **** 
 376:/home/desem/workspace/desenet/target/stm32/containers/islist.hpp **** template <class T> bool IsList<T> ::isEmpty() const
 19250              		.loc 87 376 0
 19251              		.cfi_startproc
 19252              		@ args = 0, pretend = 0, frame = 8
 19253              		@ frame_needed = 1, uses_anonymous_args = 0
 19254              		@ link register save eliminated.
 19255 0000 80B4     		push	{r7}
 19256              	.LCFI49:
 19257              		.cfi_def_cfa_offset 4
 19258 0002 83B0     		sub	sp, sp, #12
 19259              	.LCFI50:
 19260              		.cfi_def_cfa_offset 16
 19261 0004 00AF     		add	r7, sp, #0
 19262              		.cfi_offset 7, -4
 19263              	.LCFI51:
 19264              		.cfi_def_cfa_register 7
 19265 0006 7860     		str	r0, [r7, #4]
 377:/home/desem/workspace/desenet/target/stm32/containers/islist.hpp **** {
 378:/home/desem/workspace/desenet/target/stm32/containers/islist.hpp ****     return (first == NULL);
 19266              		.loc 87 378 0
 19267 0008 7B68     		ldr	r3, [r7, #4]
 19268 000a 9B68     		ldr	r3, [r3, #8]
 19269 000c 002B     		cmp	r3, #0
 19270 000e 14BF     		ite	ne
 19271 0010 0023     		movne	r3, #0
 19272 0012 0123     		moveq	r3, #1
 19273 0014 DBB2     		uxtb	r3, r3
 379:/home/desem/workspace/desenet/target/stm32/containers/islist.hpp **** }
 19274              		.loc 87 379 0
 19275 0016 1846     		mov	r0, r3
 19276 0018 07F10C07 		add	r7, r7, #12
 19277 001c BD46     		mov	sp, r7
 19278 001e 80BC     		pop	{r7}
 19279 0020 7047     		bx	lr
 19280              		.cfi_endproc
 19281              	.LFE829:
 19283 0022 00BF     		.section	.text._ZN7IsQueueIKPKcE7dequeueEv,"axG",%progbits,_ZN7IsQueueIKPKcE7dequeueEv,comdat
 19284              		.align	2
 19285              		.weak	_ZN7IsQueueIKPKcE7dequeueEv
 19286              		.thumb
 19287              		.thumb_func
 19289              	_ZN7IsQueueIKPKcE7dequeueEv:
 19290              	.LFB830:
  20:/home/desem/workspace/desenet/target/stm32/containers/isqueue.hpp ****     T dequeue()
 19291              		.loc 85 20 0
 19292              		.cfi_startproc
 19293              		@ args = 0, pretend = 0, frame = 8
 19294              		@ frame_needed = 1, uses_anonymous_args = 0
 19295 0000 80B5     		push	{r7, lr}
 19296              	.LCFI52:
 19297              		.cfi_def_cfa_offset 8
 19298 0002 82B0     		sub	sp, sp, #8
 19299              	.LCFI53:
 19300              		.cfi_def_cfa_offset 16
 19301 0004 00AF     		add	r7, sp, #0
 19302              		.cfi_offset 14, -4
 19303              		.cfi_offset 7, -8
 19304              	.LCFI54:
 19305              		.cfi_def_cfa_register 7
 19306 0006 7860     		str	r0, [r7, #4]
  22:/home/desem/workspace/desenet/target/stm32/containers/isqueue.hpp ****     	return IsList<T>::pop();
 19307              		.loc 85 22 0
 19308 0008 7B68     		ldr	r3, [r7, #4]
 19309 000a 1846     		mov	r0, r3
 19310 000c FFF7FEFF 		bl	_ZN6IsListIKPKcE3popEv
 19311 0010 0346     		mov	r3, r0
  23:/home/desem/workspace/desenet/target/stm32/containers/isqueue.hpp ****     }
 19312              		.loc 85 23 0
 19313 0012 1846     		mov	r0, r3
 19314 0014 07F10807 		add	r7, r7, #8
 19315 0018 BD46     		mov	sp, r7
 19316 001a 80BD     		pop	{r7, pc}
 19317              		.cfi_endproc
 19318              	.LFE830:
 19320              		.section	.text._ZN6IsListIKPKcEC2Ev,"axG",%progbits,_ZN6IsListIKPKcEC5Ev,comdat
 19321              		.align	2
 19322              		.weak	_ZN6IsListIKPKcEC2Ev
 19323              		.thumb
 19324              		.thumb_func
 19326              	_ZN6IsListIKPKcEC2Ev:
 19327              	.LFB854:
  14:/home/desem/workspace/desenet/target/stm32/containers/islist.hpp **** 	IsList() : count_(0) ,first(NULL) ,last(NULL)
 19328              		.loc 87 14 0
 19329              		.cfi_startproc
 19330              		@ args = 0, pretend = 0, frame = 8
 19331              		@ frame_needed = 1, uses_anonymous_args = 0
 19332              		@ link register save eliminated.
 19333 0000 80B4     		push	{r7}
 19334              	.LCFI55:
 19335              		.cfi_def_cfa_offset 4
 19336 0002 83B0     		sub	sp, sp, #12
 19337              	.LCFI56:
 19338              		.cfi_def_cfa_offset 16
 19339 0004 00AF     		add	r7, sp, #0
 19340              		.cfi_offset 7, -4
 19341              	.LCFI57:
 19342              		.cfi_def_cfa_register 7
 19343 0006 7860     		str	r0, [r7, #4]
 19344              	.LBB20:
  14:/home/desem/workspace/desenet/target/stm32/containers/islist.hpp **** 	IsList() : count_(0) ,first(NULL) ,last(NULL)
 19345              		.loc 87 14 0
 19346 0008 7B68     		ldr	r3, [r7, #4]
 19347 000a 0A4A     		ldr	r2, .L56
 19348 000c 1A60     		str	r2, [r3, #0]
 19349 000e 7B68     		ldr	r3, [r7, #4]
 19350 0010 4FF00002 		mov	r2, #0
 19351 0014 5A60     		str	r2, [r3, #4]
 19352 0016 7B68     		ldr	r3, [r7, #4]
 19353 0018 4FF00002 		mov	r2, #0
 19354 001c 9A60     		str	r2, [r3, #8]
 19355 001e 7B68     		ldr	r3, [r7, #4]
 19356 0020 4FF00002 		mov	r2, #0
 19357 0024 DA60     		str	r2, [r3, #12]
 19358              	.LBE20:
  15:/home/desem/workspace/desenet/target/stm32/containers/islist.hpp **** 	{}
 19359              		.loc 87 15 0
 19360 0026 7B68     		ldr	r3, [r7, #4]
 19361 0028 1846     		mov	r0, r3
 19362 002a 07F10C07 		add	r7, r7, #12
 19363 002e BD46     		mov	sp, r7
 19364 0030 80BC     		pop	{r7}
 19365 0032 7047     		bx	lr
 19366              	.L57:
 19367              		.align	2
 19368              	.L56:
 19369 0034 08000000 		.word	_ZTV6IsListIKPKcE+8
 19370              		.cfi_endproc
 19371              	.LFE854:
 19373              		.weak	_ZN6IsListIKPKcEC1Ev
 19374              		.thumb_set _ZN6IsListIKPKcEC1Ev,_ZN6IsListIKPKcEC2Ev
 19375              		.section	.text._ZN6IsListIKPKcED2Ev,"axG",%progbits,_ZN6IsListIKPKcED5Ev,comdat
 19376              		.align	2
 19377              		.weak	_ZN6IsListIKPKcED2Ev
 19378              		.thumb
 19379              		.thumb_func
 19381              	_ZN6IsListIKPKcED2Ev:
 19382              	.LFB857:
  17:/home/desem/workspace/desenet/target/stm32/containers/islist.hpp **** 	virtual ~IsList()
 19383              		.loc 87 17 0
 19384              		.cfi_startproc
 19385              		@ args = 0, pretend = 0, frame = 8
 19386              		@ frame_needed = 1, uses_anonymous_args = 0
 19387 0000 80B5     		push	{r7, lr}
 19388              	.LCFI58:
 19389              		.cfi_def_cfa_offset 8
 19390 0002 82B0     		sub	sp, sp, #8
 19391              	.LCFI59:
 19392              		.cfi_def_cfa_offset 16
 19393 0004 00AF     		add	r7, sp, #0
 19394              		.cfi_offset 14, -4
 19395              		.cfi_offset 7, -8
 19396              	.LCFI60:
 19397              		.cfi_def_cfa_register 7
 19398 0006 7860     		str	r0, [r7, #4]
 19399              	.LBB21:
  20:/home/desem/workspace/desenet/target/stm32/containers/islist.hpp **** 	}
 19400              		.loc 87 20 0
 19401 0008 7B68     		ldr	r3, [r7, #4]
 19402 000a 0A4A     		ldr	r2, .L61
 19403 000c 1A60     		str	r2, [r3, #0]
  19:/home/desem/workspace/desenet/target/stm32/containers/islist.hpp **** 	    removeAll();
 19404              		.loc 87 19 0
 19405 000e 7868     		ldr	r0, [r7, #4]
 19406 0010 FFF7FEFF 		bl	_ZN6IsListIKPKcE9removeAllEv
 19407              	.LBE21:
 19408 0014 4FF00003 		mov	r3, #0
 19409 0018 03F00103 		and	r3, r3, #1
 19410 001c DBB2     		uxtb	r3, r3
 19411 001e 002B     		cmp	r3, #0
 19412 0020 02D0     		beq	.L60
  19:/home/desem/workspace/desenet/target/stm32/containers/islist.hpp **** 	    removeAll();
 19413              		.loc 87 19 0 is_stmt 0 discriminator 2
 19414 0022 7868     		ldr	r0, [r7, #4]
 19415 0024 FFF7FEFF 		bl	_ZdlPv
 19416              	.L60:
  19:/home/desem/workspace/desenet/target/stm32/containers/islist.hpp **** 	    removeAll();
 19417              		.loc 87 19 0 discriminator 3
 19418 0028 7B68     		ldr	r3, [r7, #4]
  20:/home/desem/workspace/desenet/target/stm32/containers/islist.hpp **** 	}
 19419              		.loc 87 20 0 is_stmt 1 discriminator 3
 19420 002a 1846     		mov	r0, r3
 19421 002c 07F10807 		add	r7, r7, #8
 19422 0030 BD46     		mov	sp, r7
 19423 0032 80BD     		pop	{r7, pc}
 19424              	.L62:
 19425              		.align	2
 19426              	.L61:
 19427 0034 08000000 		.word	_ZTV6IsListIKPKcE+8
 19428              		.cfi_endproc
 19429              	.LFE857:
 19431              		.weak	_ZN6IsListIKPKcED1Ev
 19432              		.thumb_set _ZN6IsListIKPKcED1Ev,_ZN6IsListIKPKcED2Ev
 19433              		.section	.text._ZN6IsListIKPKcED0Ev,"axG",%progbits,_ZN6IsListIKPKcED5Ev,comdat
 19434              		.align	2
 19435              		.weak	_ZN6IsListIKPKcED0Ev
 19436              		.thumb
 19437              		.thumb_func
 19439              	_ZN6IsListIKPKcED0Ev:
 19440              	.LFB859:
  17:/home/desem/workspace/desenet/target/stm32/containers/islist.hpp **** 	virtual ~IsList()
 19441              		.loc 87 17 0
 19442              		.cfi_startproc
 19443              		@ args = 0, pretend = 0, frame = 8
 19444              		@ frame_needed = 1, uses_anonymous_args = 0
 19445 0000 80B5     		push	{r7, lr}
 19446              	.LCFI61:
 19447              		.cfi_def_cfa_offset 8
 19448 0002 82B0     		sub	sp, sp, #8
 19449              	.LCFI62:
 19450              		.cfi_def_cfa_offset 16
 19451 0004 00AF     		add	r7, sp, #0
 19452              		.cfi_offset 14, -4
 19453              		.cfi_offset 7, -8
 19454              	.LCFI63:
 19455              		.cfi_def_cfa_register 7
 19456 0006 7860     		str	r0, [r7, #4]
  20:/home/desem/workspace/desenet/target/stm32/containers/islist.hpp **** 	}
 19457              		.loc 87 20 0
 19458 0008 7868     		ldr	r0, [r7, #4]
 19459 000a FFF7FEFF 		bl	_ZN6IsListIKPKcED1Ev
 19460 000e 7868     		ldr	r0, [r7, #4]
 19461 0010 FFF7FEFF 		bl	_ZdlPv
 19462 0014 7B68     		ldr	r3, [r7, #4]
 19463 0016 1846     		mov	r0, r3
 19464 0018 07F10807 		add	r7, r7, #8
 19465 001c BD46     		mov	sp, r7
 19466 001e 80BD     		pop	{r7, pc}
 19467              		.cfi_endproc
 19468              	.LFE859:
 19470              		.section	.text._ZN6IsListIKPKcE8addFirstERS2_,"axG",%progbits,_ZN6IsListIKPKcE8addFirstERS2_,comda
 19471              		.align	2
 19472              		.weak	_ZN6IsListIKPKcE8addFirstERS2_
 19473              		.thumb
 19474              		.thumb_func
 19476              	_ZN6IsListIKPKcE8addFirstERS2_:
 19477              	.LFB860:
 266:/home/desem/workspace/desenet/target/stm32/containers/islist.hpp **** template <class T> bool IsList<T> ::addFirst(const T & c)
 19478              		.loc 87 266 0
 19479              		.cfi_startproc
 19480              		@ args = 0, pretend = 0, frame = 16
 19481              		@ frame_needed = 1, uses_anonymous_args = 0
 19482 0000 90B5     		push	{r4, r7, lr}
 19483              	.LCFI64:
 19484              		.cfi_def_cfa_offset 12
 19485 0002 85B0     		sub	sp, sp, #20
 19486              	.LCFI65:
 19487              		.cfi_def_cfa_offset 32
 19488 0004 00AF     		add	r7, sp, #0
 19489              		.cfi_offset 14, -4
 19490              		.cfi_offset 7, -8
 19491              		.cfi_offset 4, -12
 19492              	.LCFI66:
 19493              		.cfi_def_cfa_register 7
 19494 0006 7860     		str	r0, [r7, #4]
 19495 0008 3960     		str	r1, [r7, #0]
 19496              	.LBB22:
 269:/home/desem/workspace/desenet/target/stm32/containers/islist.hpp ****     Item * item = new Item(c);
 19497              		.loc 87 269 0
 19498 000a 4FF00800 		mov	r0, #8
 19499 000e FFF7FEFF 		bl	_Znwj
 19500 0012 0446     		mov	r4, r0
 19501 0014 2346     		mov	r3, r4
 19502 0016 1846     		mov	r0, r3
 19503 0018 3968     		ldr	r1, [r7, #0]
 19504 001a FFF7FEFF 		bl	_ZN6IsListIKPKcE4ItemC1ERS2_
 19505 001e FC60     		str	r4, [r7, #12]
 271:/home/desem/workspace/desenet/target/stm32/containers/islist.hpp ****     if (item)
 19506              		.loc 87 271 0
 19507 0020 FB68     		ldr	r3, [r7, #12]
 19508 0022 002B     		cmp	r3, #0
 19509 0024 1DD0     		beq	.L66
 273:/home/desem/workspace/desenet/target/stm32/containers/islist.hpp ****     	enterCritical();
 19510              		.loc 87 273 0
 19511 0026 FFF7FEFF 		bl	enterCritical
 276:/home/desem/workspace/desenet/target/stm32/containers/islist.hpp ****     	item->connectTo(first);
 19512              		.loc 87 276 0
 19513 002a 7B68     		ldr	r3, [r7, #4]
 19514 002c 9B68     		ldr	r3, [r3, #8]
 19515 002e F868     		ldr	r0, [r7, #12]
 19516 0030 1946     		mov	r1, r3
 19517 0032 FFF7FEFF 		bl	_ZN6IsListIKPKcE4Item9connectToEPS4_
 277:/home/desem/workspace/desenet/target/stm32/containers/islist.hpp ****     	first = item;
 19518              		.loc 87 277 0
 19519 0036 7B68     		ldr	r3, [r7, #4]
 19520 0038 FA68     		ldr	r2, [r7, #12]
 19521 003a 9A60     		str	r2, [r3, #8]
 278:/home/desem/workspace/desenet/target/stm32/containers/islist.hpp ****     	if (last == NULL)
 19522              		.loc 87 278 0
 19523 003c 7B68     		ldr	r3, [r7, #4]
 19524 003e DB68     		ldr	r3, [r3, #12]
 19525 0040 002B     		cmp	r3, #0
 19526 0042 03D1     		bne	.L67
 280:/home/desem/workspace/desenet/target/stm32/containers/islist.hpp ****     		last = first;
 19527              		.loc 87 280 0
 19528 0044 7B68     		ldr	r3, [r7, #4]
 19529 0046 9A68     		ldr	r2, [r3, #8]
 19530 0048 7B68     		ldr	r3, [r7, #4]
 19531 004a DA60     		str	r2, [r3, #12]
 19532              	.L67:
 282:/home/desem/workspace/desenet/target/stm32/containers/islist.hpp ****     	++count_;
 19533              		.loc 87 282 0
 19534 004c 7B68     		ldr	r3, [r7, #4]
 19535 004e 5B68     		ldr	r3, [r3, #4]
 19536 0050 03F10102 		add	r2, r3, #1
 19537 0054 7B68     		ldr	r3, [r7, #4]
 19538 0056 5A60     		str	r2, [r3, #4]
 284:/home/desem/workspace/desenet/target/stm32/containers/islist.hpp ****     	exitCritical();
 19539              		.loc 87 284 0
 19540 0058 FFF7FEFF 		bl	exitCritical
 286:/home/desem/workspace/desenet/target/stm32/containers/islist.hpp ****     	return true;
 19541              		.loc 87 286 0
 19542 005c 4FF00103 		mov	r3, #1
 19543 0060 01E0     		b	.L68
 19544              	.L66:
 288:/home/desem/workspace/desenet/target/stm32/containers/islist.hpp ****     return false;
 19545              		.loc 87 288 0
 19546 0062 4FF00003 		mov	r3, #0
 19547              	.L68:
 19548              	.LBE22:
 289:/home/desem/workspace/desenet/target/stm32/containers/islist.hpp **** }
 19549              		.loc 87 289 0
 19550 0066 1846     		mov	r0, r3
 19551 0068 07F11407 		add	r7, r7, #20
 19552 006c BD46     		mov	sp, r7
 19553 006e 90BD     		pop	{r4, r7, pc}
 19554              		.cfi_endproc
 19555              	.LFE860:
 19557              		.section	.text._ZN6IsListIKPKcE3popEv,"axG",%progbits,_ZN6IsListIKPKcE3popEv,comdat
 19558              		.align	2
 19559              		.weak	_ZN6IsListIKPKcE3popEv
 19560              		.thumb
 19561              		.thumb_func
 19563              	_ZN6IsListIKPKcE3popEv:
 19564              	.LFB861:
 380:/home/desem/workspace/desenet/target/stm32/containers/islist.hpp **** 
 381:/home/desem/workspace/desenet/target/stm32/containers/islist.hpp **** template <class T> T & IsList<T> ::operator[](int i) const
 382:/home/desem/workspace/desenet/target/stm32/containers/islist.hpp **** {
 383:/home/desem/workspace/desenet/target/stm32/containers/islist.hpp ****     return getAt(i);
 384:/home/desem/workspace/desenet/target/stm32/containers/islist.hpp **** }
 385:/home/desem/workspace/desenet/target/stm32/containers/islist.hpp **** 
 386:/home/desem/workspace/desenet/target/stm32/containers/islist.hpp **** template <class T> T IsList<T> ::pop()
 19565              		.loc 87 386 0
 19566              		.cfi_startproc
 19567              		@ args = 0, pretend = 0, frame = 16
 19568              		@ frame_needed = 1, uses_anonymous_args = 0
 19569 0000 80B5     		push	{r7, lr}
 19570              	.LCFI67:
 19571              		.cfi_def_cfa_offset 8
 19572 0002 84B0     		sub	sp, sp, #16
 19573              	.LCFI68:
 19574              		.cfi_def_cfa_offset 24
 19575 0004 00AF     		add	r7, sp, #0
 19576              		.cfi_offset 14, -4
 19577              		.cfi_offset 7, -8
 19578              	.LCFI69:
 19579              		.cfi_def_cfa_register 7
 19580 0006 7860     		str	r0, [r7, #4]
 19581              	.LBB23:
 387:/home/desem/workspace/desenet/target/stm32/containers/islist.hpp **** {
 388:/home/desem/workspace/desenet/target/stm32/containers/islist.hpp ****     enterCritical();
 19582              		.loc 87 388 0
 19583 0008 FFF7FEFF 		bl	enterCritical
 389:/home/desem/workspace/desenet/target/stm32/containers/islist.hpp **** 
 390:/home/desem/workspace/desenet/target/stm32/containers/islist.hpp ****     T c = getLastConcept();
 19584              		.loc 87 390 0
 19585 000c 7868     		ldr	r0, [r7, #4]
 19586 000e FFF7FEFF 		bl	_ZNK6IsListIKPKcE14getLastConceptEv
 19587 0012 F860     		str	r0, [r7, #12]
 391:/home/desem/workspace/desenet/target/stm32/containers/islist.hpp ****     removeLast();
 19588              		.loc 87 391 0
 19589 0014 7868     		ldr	r0, [r7, #4]
 19590 0016 FFF7FEFF 		bl	_ZN6IsListIKPKcE10removeLastEv
 392:/home/desem/workspace/desenet/target/stm32/containers/islist.hpp **** 
 393:/home/desem/workspace/desenet/target/stm32/containers/islist.hpp ****     exitCritical();
 19591              		.loc 87 393 0
 19592 001a FFF7FEFF 		bl	exitCritical
 394:/home/desem/workspace/desenet/target/stm32/containers/islist.hpp **** 
 395:/home/desem/workspace/desenet/target/stm32/containers/islist.hpp ****     return c;
 19593              		.loc 87 395 0
 19594 001e FB68     		ldr	r3, [r7, #12]
 19595              	.LBE23:
 396:/home/desem/workspace/desenet/target/stm32/containers/islist.hpp **** }
 19596              		.loc 87 396 0
 19597 0020 1846     		mov	r0, r3
 19598 0022 07F11007 		add	r7, r7, #16
 19599 0026 BD46     		mov	sp, r7
 19600 0028 80BD     		pop	{r7, pc}
 19601              		.cfi_endproc
 19602              	.LFE861:
 19604 002a 00BF     		.section	.text._ZN6IsListIKPKcE9removeAllEv,"axG",%progbits,_ZN6IsListIKPKcE9removeAllEv,comdat
 19605              		.align	2
 19606              		.weak	_ZN6IsListIKPKcE9removeAllEv
 19607              		.thumb
 19608              		.thumb_func
 19610              	_ZN6IsListIKPKcE9removeAllEv:
 19611              	.LFB882:
 397:/home/desem/workspace/desenet/target/stm32/containers/islist.hpp **** 
 398:/home/desem/workspace/desenet/target/stm32/containers/islist.hpp **** template<class T> void IsList<T>::remove(T c)
 399:/home/desem/workspace/desenet/target/stm32/containers/islist.hpp **** {
 400:/home/desem/workspace/desenet/target/stm32/containers/islist.hpp **** 
 401:/home/desem/workspace/desenet/target/stm32/containers/islist.hpp ****     if (first == NULL)
 402:/home/desem/workspace/desenet/target/stm32/containers/islist.hpp ****     {
 403:/home/desem/workspace/desenet/target/stm32/containers/islist.hpp ****     	// Nothing to remove
 404:/home/desem/workspace/desenet/target/stm32/containers/islist.hpp ****     	return;
 405:/home/desem/workspace/desenet/target/stm32/containers/islist.hpp ****     }
 406:/home/desem/workspace/desenet/target/stm32/containers/islist.hpp **** 
 407:/home/desem/workspace/desenet/target/stm32/containers/islist.hpp ****     enterCritical();
 408:/home/desem/workspace/desenet/target/stm32/containers/islist.hpp **** 
 409:/home/desem/workspace/desenet/target/stm32/containers/islist.hpp ****     if (first->concept == c)
 410:/home/desem/workspace/desenet/target/stm32/containers/islist.hpp ****     {
 411:/home/desem/workspace/desenet/target/stm32/containers/islist.hpp ****     	// Special case the object is first
 412:/home/desem/workspace/desenet/target/stm32/containers/islist.hpp ****     	_removeFirst();
 413:/home/desem/workspace/desenet/target/stm32/containers/islist.hpp **** 
 414:/home/desem/workspace/desenet/target/stm32/containers/islist.hpp ****     	exitCritical();
 415:/home/desem/workspace/desenet/target/stm32/containers/islist.hpp ****     	return;
 416:/home/desem/workspace/desenet/target/stm32/containers/islist.hpp ****     }
 417:/home/desem/workspace/desenet/target/stm32/containers/islist.hpp **** 
 418:/home/desem/workspace/desenet/target/stm32/containers/islist.hpp ****     // Search for the object
 419:/home/desem/workspace/desenet/target/stm32/containers/islist.hpp ****     Item * prev = first;
 420:/home/desem/workspace/desenet/target/stm32/containers/islist.hpp ****     Item * cur = first->next;
 421:/home/desem/workspace/desenet/target/stm32/containers/islist.hpp **** 
 422:/home/desem/workspace/desenet/target/stm32/containers/islist.hpp ****     while (cur!=NULL)
 423:/home/desem/workspace/desenet/target/stm32/containers/islist.hpp ****     {
 424:/home/desem/workspace/desenet/target/stm32/containers/islist.hpp ****     	if (cur->concept == c)
 425:/home/desem/workspace/desenet/target/stm32/containers/islist.hpp ****     	{
 426:/home/desem/workspace/desenet/target/stm32/containers/islist.hpp ****     		prev->connectTo(cur->next);
 427:/home/desem/workspace/desenet/target/stm32/containers/islist.hpp ****     		if (cur->next == NULL)
 428:/home/desem/workspace/desenet/target/stm32/containers/islist.hpp ****     		{
 429:/home/desem/workspace/desenet/target/stm32/containers/islist.hpp ****     			last = prev;
 430:/home/desem/workspace/desenet/target/stm32/containers/islist.hpp ****     		}
 431:/home/desem/workspace/desenet/target/stm32/containers/islist.hpp ****     		delete cur;
 432:/home/desem/workspace/desenet/target/stm32/containers/islist.hpp ****     		--count_;
 433:/home/desem/workspace/desenet/target/stm32/containers/islist.hpp **** 
 434:/home/desem/workspace/desenet/target/stm32/containers/islist.hpp ****     		exitCritical();
 435:/home/desem/workspace/desenet/target/stm32/containers/islist.hpp ****     		return;
 436:/home/desem/workspace/desenet/target/stm32/containers/islist.hpp ****     	}
 437:/home/desem/workspace/desenet/target/stm32/containers/islist.hpp **** 
 438:/home/desem/workspace/desenet/target/stm32/containers/islist.hpp ****     	prev = cur;
 439:/home/desem/workspace/desenet/target/stm32/containers/islist.hpp ****     	cur = cur->next;
 440:/home/desem/workspace/desenet/target/stm32/containers/islist.hpp ****     }
 441:/home/desem/workspace/desenet/target/stm32/containers/islist.hpp ****     exitCritical();
 442:/home/desem/workspace/desenet/target/stm32/containers/islist.hpp **** }
 443:/home/desem/workspace/desenet/target/stm32/containers/islist.hpp **** 
 444:/home/desem/workspace/desenet/target/stm32/containers/islist.hpp **** template<class T> void IsList<T>::removeAll()
 19612              		.loc 87 444 0
 19613              		.cfi_startproc
 19614              		@ args = 0, pretend = 0, frame = 8
 19615              		@ frame_needed = 1, uses_anonymous_args = 0
 19616 0000 80B5     		push	{r7, lr}
 19617              	.LCFI70:
 19618              		.cfi_def_cfa_offset 8
 19619 0002 82B0     		sub	sp, sp, #8
 19620              	.LCFI71:
 19621              		.cfi_def_cfa_offset 16
 19622 0004 00AF     		add	r7, sp, #0
 19623              		.cfi_offset 14, -4
 19624              		.cfi_offset 7, -8
 19625              	.LCFI72:
 19626              		.cfi_def_cfa_register 7
 19627 0006 7860     		str	r0, [r7, #4]
 445:/home/desem/workspace/desenet/target/stm32/containers/islist.hpp **** {
 446:/home/desem/workspace/desenet/target/stm32/containers/islist.hpp ****     enterCritical();
 19628              		.loc 87 446 0
 19629 0008 FFF7FEFF 		bl	enterCritical
 447:/home/desem/workspace/desenet/target/stm32/containers/islist.hpp **** 
 448:/home/desem/workspace/desenet/target/stm32/containers/islist.hpp ****     while(first != NULL)
 19630              		.loc 87 448 0
 19631 000c 02E0     		b	.L71
 19632              	.L72:
 449:/home/desem/workspace/desenet/target/stm32/containers/islist.hpp ****     {
 450:/home/desem/workspace/desenet/target/stm32/containers/islist.hpp ****     	_removeFirst();
 19633              		.loc 87 450 0
 19634 000e 7868     		ldr	r0, [r7, #4]
 19635 0010 FFF7FEFF 		bl	_ZN6IsListIKPKcE12_removeFirstEv
 19636              	.L71:
 448:/home/desem/workspace/desenet/target/stm32/containers/islist.hpp ****     while(first != NULL)
 19637              		.loc 87 448 0 discriminator 1
 19638 0014 7B68     		ldr	r3, [r7, #4]
 19639 0016 9B68     		ldr	r3, [r3, #8]
 19640 0018 002B     		cmp	r3, #0
 19641 001a 0CBF     		ite	eq
 19642 001c 0023     		moveq	r3, #0
 19643 001e 0123     		movne	r3, #1
 19644 0020 DBB2     		uxtb	r3, r3
 19645 0022 002B     		cmp	r3, #0
 19646 0024 F3D1     		bne	.L72
 451:/home/desem/workspace/desenet/target/stm32/containers/islist.hpp ****     }
 452:/home/desem/workspace/desenet/target/stm32/containers/islist.hpp **** 
 453:/home/desem/workspace/desenet/target/stm32/containers/islist.hpp ****     exitCritical();
 19647              		.loc 87 453 0
 19648 0026 FFF7FEFF 		bl	exitCritical
 454:/home/desem/workspace/desenet/target/stm32/containers/islist.hpp **** }
 19649              		.loc 87 454 0
 19650 002a 07F10807 		add	r7, r7, #8
 19651 002e BD46     		mov	sp, r7
 19652 0030 80BD     		pop	{r7, pc}
 19653              		.cfi_endproc
 19654              	.LFE882:
 19656 0032 00BF     		.section	.text._ZN6IsListIKPKcE4ItemC2ERS2_,"axG",%progbits,_ZN6IsListIKPKcE4ItemC5ERS2_,comdat
 19657              		.align	2
 19658              		.weak	_ZN6IsListIKPKcE4ItemC2ERS2_
 19659              		.thumb
 19660              		.thumb_func
 19662              	_ZN6IsListIKPKcE4ItemC2ERS2_:
 19663              	.LFB884:
  27:/home/desem/workspace/desenet/target/stm32/containers/islist.hpp **** 		Item(const T & theConcept) : concept(theConcept), next(NULL)
 19664              		.loc 87 27 0
 19665              		.cfi_startproc
 19666              		@ args = 0, pretend = 0, frame = 8
 19667              		@ frame_needed = 1, uses_anonymous_args = 0
 19668              		@ link register save eliminated.
 19669 0000 80B4     		push	{r7}
 19670              	.LCFI73:
 19671              		.cfi_def_cfa_offset 4
 19672 0002 83B0     		sub	sp, sp, #12
 19673              	.LCFI74:
 19674              		.cfi_def_cfa_offset 16
 19675 0004 00AF     		add	r7, sp, #0
 19676              		.cfi_offset 7, -4
 19677              	.LCFI75:
 19678              		.cfi_def_cfa_register 7
 19679 0006 7860     		str	r0, [r7, #4]
 19680 0008 3960     		str	r1, [r7, #0]
 19681              	.LBB24:
  27:/home/desem/workspace/desenet/target/stm32/containers/islist.hpp **** 		Item(const T & theConcept) : concept(theConcept), next(NULL)
 19682              		.loc 87 27 0
 19683 000a 3B68     		ldr	r3, [r7, #0]
 19684 000c 1A68     		ldr	r2, [r3, #0]
 19685 000e 7B68     		ldr	r3, [r7, #4]
 19686 0010 1A60     		str	r2, [r3, #0]
 19687 0012 7B68     		ldr	r3, [r7, #4]
 19688 0014 4FF00002 		mov	r2, #0
 19689 0018 5A60     		str	r2, [r3, #4]
 19690              	.LBE24:
  28:/home/desem/workspace/desenet/target/stm32/containers/islist.hpp **** 		{}
 19691              		.loc 87 28 0
 19692 001a 7B68     		ldr	r3, [r7, #4]
 19693 001c 1846     		mov	r0, r3
 19694 001e 07F10C07 		add	r7, r7, #12
 19695 0022 BD46     		mov	sp, r7
 19696 0024 80BC     		pop	{r7}
 19697 0026 7047     		bx	lr
 19698              		.cfi_endproc
 19699              	.LFE884:
 19701              		.weak	_ZN6IsListIKPKcE4ItemC1ERS2_
 19702              		.thumb_set _ZN6IsListIKPKcE4ItemC1ERS2_,_ZN6IsListIKPKcE4ItemC2ERS2_
 19703              		.section	.text._ZN6IsListIKPKcE4Item9connectToEPS4_,"axG",%progbits,_ZN6IsListIKPKcE4Item9connectT
 19704              		.align	2
 19705              		.weak	_ZN6IsListIKPKcE4Item9connectToEPS4_
 19706              		.thumb
 19707              		.thumb_func
 19709              	_ZN6IsListIKPKcE4Item9connectToEPS4_:
 19710              	.LFB886:
  46:/home/desem/workspace/desenet/target/stm32/containers/islist.hpp **** 		inline void connectTo(Item* item)
 19711              		.loc 87 46 0
 19712              		.cfi_startproc
 19713              		@ args = 0, pretend = 0, frame = 8
 19714              		@ frame_needed = 1, uses_anonymous_args = 0
 19715              		@ link register save eliminated.
 19716 0000 80B4     		push	{r7}
 19717              	.LCFI76:
 19718              		.cfi_def_cfa_offset 4
 19719 0002 83B0     		sub	sp, sp, #12
 19720              	.LCFI77:
 19721              		.cfi_def_cfa_offset 16
 19722 0004 00AF     		add	r7, sp, #0
 19723              		.cfi_offset 7, -4
 19724              	.LCFI78:
 19725              		.cfi_def_cfa_register 7
 19726 0006 7860     		str	r0, [r7, #4]
 19727 0008 3960     		str	r1, [r7, #0]
  48:/home/desem/workspace/desenet/target/stm32/containers/islist.hpp **** 		    next = item;
 19728              		.loc 87 48 0
 19729 000a 7B68     		ldr	r3, [r7, #4]
 19730 000c 3A68     		ldr	r2, [r7, #0]
 19731 000e 5A60     		str	r2, [r3, #4]
  49:/home/desem/workspace/desenet/target/stm32/containers/islist.hpp **** 		}
 19732              		.loc 87 49 0
 19733 0010 07F10C07 		add	r7, r7, #12
 19734 0014 BD46     		mov	sp, r7
 19735 0016 80BC     		pop	{r7}
 19736 0018 7047     		bx	lr
 19737              		.cfi_endproc
 19738              	.LFE886:
 19740 001a 00BF     		.section	.text._ZNK6IsListIKPKcE14getLastConceptEv,"axG",%progbits,_ZNK6IsListIKPKcE14getLastConce
 19741              		.align	2
 19742              		.weak	_ZNK6IsListIKPKcE14getLastConceptEv
 19743              		.thumb
 19744              		.thumb_func
 19746              	_ZNK6IsListIKPKcE14getLastConceptEv:
 19747              	.LFB887:
 351:/home/desem/workspace/desenet/target/stm32/containers/islist.hpp **** template <class T> T IsList<T> ::getLastConcept() const
 19748              		.loc 87 351 0
 19749              		.cfi_startproc
 19750              		@ args = 0, pretend = 0, frame = 8
 19751              		@ frame_needed = 1, uses_anonymous_args = 0
 19752 0000 80B5     		push	{r7, lr}
 19753              	.LCFI79:
 19754              		.cfi_def_cfa_offset 8
 19755 0002 82B0     		sub	sp, sp, #8
 19756              	.LCFI80:
 19757              		.cfi_def_cfa_offset 16
 19758 0004 00AF     		add	r7, sp, #0
 19759              		.cfi_offset 14, -4
 19760              		.cfi_offset 7, -8
 19761              	.LCFI81:
 19762              		.cfi_def_cfa_register 7
 19763 0006 7860     		str	r0, [r7, #4]
 353:/home/desem/workspace/desenet/target/stm32/containers/islist.hpp ****     return getCurrent(last);
 19764              		.loc 87 353 0
 19765 0008 7B68     		ldr	r3, [r7, #4]
 19766 000a 1B68     		ldr	r3, [r3, #0]
 19767 000c 03F10C03 		add	r3, r3, #12
 19768 0010 1B68     		ldr	r3, [r3, #0]
 19769 0012 7A68     		ldr	r2, [r7, #4]
 19770 0014 D268     		ldr	r2, [r2, #12]
 19771 0016 7868     		ldr	r0, [r7, #4]
 19772 0018 1146     		mov	r1, r2
 19773 001a 9847     		blx	r3
 19774 001c 0346     		mov	r3, r0
 354:/home/desem/workspace/desenet/target/stm32/containers/islist.hpp **** }
 19775              		.loc 87 354 0
 19776 001e 1846     		mov	r0, r3
 19777 0020 07F10807 		add	r7, r7, #8
 19778 0024 BD46     		mov	sp, r7
 19779 0026 80BD     		pop	{r7, pc}
 19780              		.cfi_endproc
 19781              	.LFE887:
 19783              		.section	.text._ZN6IsListIKPKcE10removeLastEv,"axG",%progbits,_ZN6IsListIKPKcE10removeLastEv,comda
 19784              		.align	2
 19785              		.weak	_ZN6IsListIKPKcE10removeLastEv
 19786              		.thumb
 19787              		.thumb_func
 19789              	_ZN6IsListIKPKcE10removeLastEv:
 19790              	.LFB888:
 455:/home/desem/workspace/desenet/target/stm32/containers/islist.hpp **** 
 456:/home/desem/workspace/desenet/target/stm32/containers/islist.hpp **** template<class T> void IsList<T>::removeFirst()
 457:/home/desem/workspace/desenet/target/stm32/containers/islist.hpp **** {
 458:/home/desem/workspace/desenet/target/stm32/containers/islist.hpp **** 
 459:/home/desem/workspace/desenet/target/stm32/containers/islist.hpp ****     enterCritical();
 460:/home/desem/workspace/desenet/target/stm32/containers/islist.hpp **** 
 461:/home/desem/workspace/desenet/target/stm32/containers/islist.hpp ****     if (first != NULL)
 462:/home/desem/workspace/desenet/target/stm32/containers/islist.hpp ****     {
 463:/home/desem/workspace/desenet/target/stm32/containers/islist.hpp ****     	_removeFirst();
 464:/home/desem/workspace/desenet/target/stm32/containers/islist.hpp ****     }
 465:/home/desem/workspace/desenet/target/stm32/containers/islist.hpp **** 
 466:/home/desem/workspace/desenet/target/stm32/containers/islist.hpp ****     exitCritical();
 467:/home/desem/workspace/desenet/target/stm32/containers/islist.hpp **** }
 468:/home/desem/workspace/desenet/target/stm32/containers/islist.hpp **** 
 469:/home/desem/workspace/desenet/target/stm32/containers/islist.hpp **** template<class T> void IsList<T>::removeItem(IsList<T>::Item * item)
 470:/home/desem/workspace/desenet/target/stm32/containers/islist.hpp **** {
 471:/home/desem/workspace/desenet/target/stm32/containers/islist.hpp ****     if (first == NULL)
 472:/home/desem/workspace/desenet/target/stm32/containers/islist.hpp ****     {
 473:/home/desem/workspace/desenet/target/stm32/containers/islist.hpp ****     	// Nothing to remove
 474:/home/desem/workspace/desenet/target/stm32/containers/islist.hpp ****     	return;
 475:/home/desem/workspace/desenet/target/stm32/containers/islist.hpp ****     }
 476:/home/desem/workspace/desenet/target/stm32/containers/islist.hpp **** 
 477:/home/desem/workspace/desenet/target/stm32/containers/islist.hpp ****     enterCritical();
 478:/home/desem/workspace/desenet/target/stm32/containers/islist.hpp **** 
 479:/home/desem/workspace/desenet/target/stm32/containers/islist.hpp ****     if (first == item)
 480:/home/desem/workspace/desenet/target/stm32/containers/islist.hpp ****     {
 481:/home/desem/workspace/desenet/target/stm32/containers/islist.hpp ****     	// Special case the required item is first
 482:/home/desem/workspace/desenet/target/stm32/containers/islist.hpp ****     	_removeFirst();
 483:/home/desem/workspace/desenet/target/stm32/containers/islist.hpp **** 
 484:/home/desem/workspace/desenet/target/stm32/containers/islist.hpp ****     	exitCritical();
 485:/home/desem/workspace/desenet/target/stm32/containers/islist.hpp ****     	return;
 486:/home/desem/workspace/desenet/target/stm32/containers/islist.hpp ****     }
 487:/home/desem/workspace/desenet/target/stm32/containers/islist.hpp **** 
 488:/home/desem/workspace/desenet/target/stm32/containers/islist.hpp ****     // Search for the item
 489:/home/desem/workspace/desenet/target/stm32/containers/islist.hpp ****     Item * prev = first;
 490:/home/desem/workspace/desenet/target/stm32/containers/islist.hpp ****     Item * cur = first->next;
 491:/home/desem/workspace/desenet/target/stm32/containers/islist.hpp **** 
 492:/home/desem/workspace/desenet/target/stm32/containers/islist.hpp ****     while (cur != NULL)
 493:/home/desem/workspace/desenet/target/stm32/containers/islist.hpp ****     {
 494:/home/desem/workspace/desenet/target/stm32/containers/islist.hpp ****     	if (cur == item)
 495:/home/desem/workspace/desenet/target/stm32/containers/islist.hpp ****     	{ // item found
 496:/home/desem/workspace/desenet/target/stm32/containers/islist.hpp ****     		prev->connectTo(cur->next);
 497:/home/desem/workspace/desenet/target/stm32/containers/islist.hpp ****     		if (cur->next == NULL)
 498:/home/desem/workspace/desenet/target/stm32/containers/islist.hpp ****     		{
 499:/home/desem/workspace/desenet/target/stm32/containers/islist.hpp ****     			last = prev;
 500:/home/desem/workspace/desenet/target/stm32/containers/islist.hpp ****     		}
 501:/home/desem/workspace/desenet/target/stm32/containers/islist.hpp ****     		delete cur;
 502:/home/desem/workspace/desenet/target/stm32/containers/islist.hpp ****     		--count_;
 503:/home/desem/workspace/desenet/target/stm32/containers/islist.hpp **** 
 504:/home/desem/workspace/desenet/target/stm32/containers/islist.hpp ****     		exitCritical();
 505:/home/desem/workspace/desenet/target/stm32/containers/islist.hpp ****     		return;
 506:/home/desem/workspace/desenet/target/stm32/containers/islist.hpp ****     	}
 507:/home/desem/workspace/desenet/target/stm32/containers/islist.hpp ****     	// Advance to next item
 508:/home/desem/workspace/desenet/target/stm32/containers/islist.hpp ****     	prev = cur;
 509:/home/desem/workspace/desenet/target/stm32/containers/islist.hpp ****     	cur = cur->next;
 510:/home/desem/workspace/desenet/target/stm32/containers/islist.hpp ****     }
 511:/home/desem/workspace/desenet/target/stm32/containers/islist.hpp **** 
 512:/home/desem/workspace/desenet/target/stm32/containers/islist.hpp ****     exitCritical();
 513:/home/desem/workspace/desenet/target/stm32/containers/islist.hpp **** }
 514:/home/desem/workspace/desenet/target/stm32/containers/islist.hpp **** 
 515:/home/desem/workspace/desenet/target/stm32/containers/islist.hpp **** template<class T> void IsList<T>::removeLast()
 19791              		.loc 87 515 0
 19792              		.cfi_startproc
 19793              		@ args = 0, pretend = 0, frame = 8
 19794              		@ frame_needed = 1, uses_anonymous_args = 0
 19795 0000 80B5     		push	{r7, lr}
 19796              	.LCFI82:
 19797              		.cfi_def_cfa_offset 8
 19798 0002 82B0     		sub	sp, sp, #8
 19799              	.LCFI83:
 19800              		.cfi_def_cfa_offset 16
 19801 0004 00AF     		add	r7, sp, #0
 19802              		.cfi_offset 14, -4
 19803              		.cfi_offset 7, -8
 19804              	.LCFI84:
 19805              		.cfi_def_cfa_register 7
 19806 0006 7860     		str	r0, [r7, #4]
 516:/home/desem/workspace/desenet/target/stm32/containers/islist.hpp **** {
 517:/home/desem/workspace/desenet/target/stm32/containers/islist.hpp ****     enterCritical();
 19807              		.loc 87 517 0
 19808 0008 FFF7FEFF 		bl	enterCritical
 518:/home/desem/workspace/desenet/target/stm32/containers/islist.hpp **** 
 519:/home/desem/workspace/desenet/target/stm32/containers/islist.hpp ****     removeItem(last);
 19809              		.loc 87 519 0
 19810 000c 7B68     		ldr	r3, [r7, #4]
 19811 000e DB68     		ldr	r3, [r3, #12]
 19812 0010 7868     		ldr	r0, [r7, #4]
 19813 0012 1946     		mov	r1, r3
 19814 0014 FFF7FEFF 		bl	_ZN6IsListIKPKcE10removeItemEPNS3_4ItemE
 520:/home/desem/workspace/desenet/target/stm32/containers/islist.hpp **** 
 521:/home/desem/workspace/desenet/target/stm32/containers/islist.hpp ****     exitCritical();
 19815              		.loc 87 521 0
 19816 0018 FFF7FEFF 		bl	exitCritical
 522:/home/desem/workspace/desenet/target/stm32/containers/islist.hpp **** }
 19817              		.loc 87 522 0
 19818 001c 07F10807 		add	r7, r7, #8
 19819 0020 BD46     		mov	sp, r7
 19820 0022 80BD     		pop	{r7, pc}
 19821              		.cfi_endproc
 19822              	.LFE888:
 19824              		.section	.text._ZN6IsListIKPKcE12_removeFirstEv,"axG",%progbits,_ZN6IsListIKPKcE12_removeFirstEv,c
 19825              		.align	2
 19826              		.weak	_ZN6IsListIKPKcE12_removeFirstEv
 19827              		.thumb
 19828              		.thumb_func
 19830              	_ZN6IsListIKPKcE12_removeFirstEv:
 19831              	.LFB918:
 183:/home/desem/workspace/desenet/target/stm32/containers/islist.hpp **** template<class T> void IsList<T>::_removeFirst()
 19832              		.loc 87 183 0
 19833              		.cfi_startproc
 19834              		@ args = 0, pretend = 0, frame = 16
 19835              		@ frame_needed = 1, uses_anonymous_args = 0
 19836 0000 90B5     		push	{r4, r7, lr}
 19837              	.LCFI85:
 19838              		.cfi_def_cfa_offset 12
 19839 0002 85B0     		sub	sp, sp, #20
 19840              	.LCFI86:
 19841              		.cfi_def_cfa_offset 32
 19842 0004 00AF     		add	r7, sp, #0
 19843              		.cfi_offset 14, -4
 19844              		.cfi_offset 7, -8
 19845              		.cfi_offset 4, -12
 19846              	.LCFI87:
 19847              		.cfi_def_cfa_register 7
 19848 0006 7860     		str	r0, [r7, #4]
 19849              	.LBB25:
 185:/home/desem/workspace/desenet/target/stm32/containers/islist.hpp ****     Item * tmp = first;
 19850              		.loc 87 185 0
 19851 0008 7B68     		ldr	r3, [r7, #4]
 19852 000a 9B68     		ldr	r3, [r3, #8]
 19853 000c FB60     		str	r3, [r7, #12]
 192:/home/desem/workspace/desenet/target/stm32/containers/islist.hpp ****     first = first->next;
 19854              		.loc 87 192 0
 19855 000e 7B68     		ldr	r3, [r7, #4]
 19856 0010 9B68     		ldr	r3, [r3, #8]
 19857 0012 5A68     		ldr	r2, [r3, #4]
 19858 0014 7B68     		ldr	r3, [r7, #4]
 19859 0016 9A60     		str	r2, [r3, #8]
 193:/home/desem/workspace/desenet/target/stm32/containers/islist.hpp ****     if (first == NULL)
 19860              		.loc 87 193 0
 19861 0018 7B68     		ldr	r3, [r7, #4]
 19862 001a 9B68     		ldr	r3, [r3, #8]
 19863 001c 002B     		cmp	r3, #0
 19864 001e 03D1     		bne	.L79
 195:/home/desem/workspace/desenet/target/stm32/containers/islist.hpp ****     	last = NULL;
 19865              		.loc 87 195 0
 19866 0020 7B68     		ldr	r3, [r7, #4]
 19867 0022 4FF00002 		mov	r2, #0
 19868 0026 DA60     		str	r2, [r3, #12]
 19869              	.L79:
 197:/home/desem/workspace/desenet/target/stm32/containers/islist.hpp ****     if (tmp != NULL)
 19870              		.loc 87 197 0
 19871 0028 FB68     		ldr	r3, [r7, #12]
 19872 002a 002B     		cmp	r3, #0
 19873 002c 0ED0     		beq	.L78
 199:/home/desem/workspace/desenet/target/stm32/containers/islist.hpp ****     	delete tmp;
 19874              		.loc 87 199 0
 19875 002e FC68     		ldr	r4, [r7, #12]
 19876 0030 002C     		cmp	r4, #0
 19877 0032 05D0     		beq	.L81
 199:/home/desem/workspace/desenet/target/stm32/containers/islist.hpp ****     	delete tmp;
 19878              		.loc 87 199 0 is_stmt 0 discriminator 1
 19879 0034 2046     		mov	r0, r4
 19880 0036 FFF7FEFF 		bl	_ZN6IsListIKPKcE4ItemD1Ev
 19881 003a 2046     		mov	r0, r4
 19882 003c FFF7FEFF 		bl	_ZdlPv
 19883              	.L81:
 200:/home/desem/workspace/desenet/target/stm32/containers/islist.hpp ****     	--count_;
 19884              		.loc 87 200 0 is_stmt 1
 19885 0040 7B68     		ldr	r3, [r7, #4]
 19886 0042 5B68     		ldr	r3, [r3, #4]
 19887 0044 03F1FF32 		add	r2, r3, #-1
 19888 0048 7B68     		ldr	r3, [r7, #4]
 19889 004a 5A60     		str	r2, [r3, #4]
 19890              	.L78:
 19891              	.LBE25:
 204:/home/desem/workspace/desenet/target/stm32/containers/islist.hpp **** }
 19892              		.loc 87 204 0
 19893 004c 07F11407 		add	r7, r7, #20
 19894 0050 BD46     		mov	sp, r7
 19895 0052 90BD     		pop	{r4, r7, pc}
 19896              		.cfi_endproc
 19897              	.LFE918:
 19899              		.section	.text._ZNK6IsListIKPKcE10getCurrentEPv,"axG",%progbits,_ZNK6IsListIKPKcE10getCurrentEPv,c
 19900              		.align	2
 19901              		.weak	_ZNK6IsListIKPKcE10getCurrentEPv
 19902              		.thumb
 19903              		.thumb_func
 19905              	_ZNK6IsListIKPKcE10getCurrentEPv:
 19906              	.LFB919:
 323:/home/desem/workspace/desenet/target/stm32/containers/islist.hpp **** template <class T> T IsList<T> ::getCurrent(void * pos) const
 19907              		.loc 87 323 0
 19908              		.cfi_startproc
 19909              		@ args = 0, pretend = 0, frame = 8
 19910              		@ frame_needed = 1, uses_anonymous_args = 0
 19911 0000 80B5     		push	{r7, lr}
 19912              	.LCFI88:
 19913              		.cfi_def_cfa_offset 8
 19914 0002 82B0     		sub	sp, sp, #8
 19915              	.LCFI89:
 19916              		.cfi_def_cfa_offset 16
 19917 0004 00AF     		add	r7, sp, #0
 19918              		.cfi_offset 14, -4
 19919              		.cfi_offset 7, -8
 19920              	.LCFI90:
 19921              		.cfi_def_cfa_register 7
 19922 0006 7860     		str	r0, [r7, #4]
 19923 0008 3960     		str	r1, [r7, #0]
 325:/home/desem/workspace/desenet/target/stm32/containers/islist.hpp ****     if (pos != NULL)
 19924              		.loc 87 325 0
 19925 000a 3B68     		ldr	r3, [r7, #0]
 19926 000c 002B     		cmp	r3, #0
 19927 000e 02D0     		beq	.L83
 328:/home/desem/workspace/desenet/target/stm32/containers/islist.hpp ****     	return ((Item*)(pos))->concept;
 19928              		.loc 87 328 0
 19929 0010 3B68     		ldr	r3, [r7, #0]
 19930 0012 1B68     		ldr	r3, [r3, #0]
 19931 0014 07E0     		b	.L84
 19932              	.L83:
 332:/home/desem/workspace/desenet/target/stm32/containers/islist.hpp ****     	return getNULLContent();
 19933              		.loc 87 332 0
 19934 0016 7B68     		ldr	r3, [r7, #4]
 19935 0018 1B68     		ldr	r3, [r3, #0]
 19936 001a 03F10803 		add	r3, r3, #8
 19937 001e 1B68     		ldr	r3, [r3, #0]
 19938 0020 7868     		ldr	r0, [r7, #4]
 19939 0022 9847     		blx	r3
 19940 0024 0346     		mov	r3, r0
 19941              	.L84:
 334:/home/desem/workspace/desenet/target/stm32/containers/islist.hpp **** }
 19942              		.loc 87 334 0
 19943 0026 1846     		mov	r0, r3
 19944 0028 07F10807 		add	r7, r7, #8
 19945 002c BD46     		mov	sp, r7
 19946 002e 80BD     		pop	{r7, pc}
 19947              		.cfi_endproc
 19948              	.LFE919:
 19950              		.section	.text._ZN6IsListIKPKcE10removeItemEPNS3_4ItemE,"axG",%progbits,_ZN6IsListIKPKcE10removeIt
 19951              		.align	2
 19952              		.weak	_ZN6IsListIKPKcE10removeItemEPNS3_4ItemE
 19953              		.thumb
 19954              		.thumb_func
 19956              	_ZN6IsListIKPKcE10removeItemEPNS3_4ItemE:
 19957              	.LFB920:
 469:/home/desem/workspace/desenet/target/stm32/containers/islist.hpp **** template<class T> void IsList<T>::removeItem(IsList<T>::Item * item)
 19958              		.loc 87 469 0
 19959              		.cfi_startproc
 19960              		@ args = 0, pretend = 0, frame = 16
 19961              		@ frame_needed = 1, uses_anonymous_args = 0
 19962 0000 90B5     		push	{r4, r7, lr}
 19963              	.LCFI91:
 19964              		.cfi_def_cfa_offset 12
 19965 0002 85B0     		sub	sp, sp, #20
 19966              	.LCFI92:
 19967              		.cfi_def_cfa_offset 32
 19968 0004 00AF     		add	r7, sp, #0
 19969              		.cfi_offset 14, -4
 19970              		.cfi_offset 7, -8
 19971              		.cfi_offset 4, -12
 19972              	.LCFI93:
 19973              		.cfi_def_cfa_register 7
 19974 0006 7860     		str	r0, [r7, #4]
 19975 0008 3960     		str	r1, [r7, #0]
 19976              	.LBB26:
 471:/home/desem/workspace/desenet/target/stm32/containers/islist.hpp ****     if (first == NULL)
 19977              		.loc 87 471 0
 19978 000a 7B68     		ldr	r3, [r7, #4]
 19979 000c 9B68     		ldr	r3, [r3, #8]
 19980 000e 002B     		cmp	r3, #0
 19981 0010 47D0     		beq	.L94
 19982              	.L86:
 477:/home/desem/workspace/desenet/target/stm32/containers/islist.hpp ****     enterCritical();
 19983              		.loc 87 477 0
 19984 0012 FFF7FEFF 		bl	enterCritical
 479:/home/desem/workspace/desenet/target/stm32/containers/islist.hpp ****     if (first == item)
 19985              		.loc 87 479 0
 19986 0016 7B68     		ldr	r3, [r7, #4]
 19987 0018 9A68     		ldr	r2, [r3, #8]
 19988 001a 3B68     		ldr	r3, [r7, #0]
 19989 001c 9A42     		cmp	r2, r3
 19990 001e 05D1     		bne	.L88
 482:/home/desem/workspace/desenet/target/stm32/containers/islist.hpp ****     	_removeFirst();
 19991              		.loc 87 482 0
 19992 0020 7868     		ldr	r0, [r7, #4]
 19993 0022 FFF7FEFF 		bl	_ZN6IsListIKPKcE12_removeFirstEv
 484:/home/desem/workspace/desenet/target/stm32/containers/islist.hpp ****     	exitCritical();
 19994              		.loc 87 484 0
 19995 0026 FFF7FEFF 		bl	exitCritical
 485:/home/desem/workspace/desenet/target/stm32/containers/islist.hpp ****     	return;
 19996              		.loc 87 485 0
 19997 002a 3BE0     		b	.L85
 19998              	.L88:
 489:/home/desem/workspace/desenet/target/stm32/containers/islist.hpp ****     Item * prev = first;
 19999              		.loc 87 489 0
 20000 002c 7B68     		ldr	r3, [r7, #4]
 20001 002e 9B68     		ldr	r3, [r3, #8]
 20002 0030 FB60     		str	r3, [r7, #12]
 490:/home/desem/workspace/desenet/target/stm32/containers/islist.hpp ****     Item * cur = first->next;
 20003              		.loc 87 490 0
 20004 0032 7B68     		ldr	r3, [r7, #4]
 20005 0034 9B68     		ldr	r3, [r3, #8]
 20006 0036 5B68     		ldr	r3, [r3, #4]
 20007 0038 BB60     		str	r3, [r7, #8]
 492:/home/desem/workspace/desenet/target/stm32/containers/islist.hpp ****     while (cur != NULL)
 20008              		.loc 87 492 0
 20009 003a 27E0     		b	.L89
 20010              	.L93:
 494:/home/desem/workspace/desenet/target/stm32/containers/islist.hpp ****     	if (cur == item)
 20011              		.loc 87 494 0
 20012 003c BA68     		ldr	r2, [r7, #8]
 20013 003e 3B68     		ldr	r3, [r7, #0]
 20014 0040 9A42     		cmp	r2, r3
 20015 0042 1ED1     		bne	.L90
 496:/home/desem/workspace/desenet/target/stm32/containers/islist.hpp ****     		prev->connectTo(cur->next);
 20016              		.loc 87 496 0
 20017 0044 BB68     		ldr	r3, [r7, #8]
 20018 0046 5B68     		ldr	r3, [r3, #4]
 20019 0048 F868     		ldr	r0, [r7, #12]
 20020 004a 1946     		mov	r1, r3
 20021 004c FFF7FEFF 		bl	_ZN6IsListIKPKcE4Item9connectToEPS4_
 497:/home/desem/workspace/desenet/target/stm32/containers/islist.hpp ****     		if (cur->next == NULL)
 20022              		.loc 87 497 0
 20023 0050 BB68     		ldr	r3, [r7, #8]
 20024 0052 5B68     		ldr	r3, [r3, #4]
 20025 0054 002B     		cmp	r3, #0
 20026 0056 02D1     		bne	.L91
 499:/home/desem/workspace/desenet/target/stm32/containers/islist.hpp ****     			last = prev;
 20027              		.loc 87 499 0
 20028 0058 7B68     		ldr	r3, [r7, #4]
 20029 005a FA68     		ldr	r2, [r7, #12]
 20030 005c DA60     		str	r2, [r3, #12]
 20031              	.L91:
 501:/home/desem/workspace/desenet/target/stm32/containers/islist.hpp ****     		delete cur;
 20032              		.loc 87 501 0
 20033 005e BC68     		ldr	r4, [r7, #8]
 20034 0060 002C     		cmp	r4, #0
 20035 0062 05D0     		beq	.L92
 501:/home/desem/workspace/desenet/target/stm32/containers/islist.hpp ****     		delete cur;
 20036              		.loc 87 501 0 is_stmt 0 discriminator 1
 20037 0064 2046     		mov	r0, r4
 20038 0066 FFF7FEFF 		bl	_ZN6IsListIKPKcE4ItemD1Ev
 20039 006a 2046     		mov	r0, r4
 20040 006c FFF7FEFF 		bl	_ZdlPv
 20041              	.L92:
 502:/home/desem/workspace/desenet/target/stm32/containers/islist.hpp ****     		--count_;
 20042              		.loc 87 502 0 is_stmt 1
 20043 0070 7B68     		ldr	r3, [r7, #4]
 20044 0072 5B68     		ldr	r3, [r3, #4]
 20045 0074 03F1FF32 		add	r2, r3, #-1
 20046 0078 7B68     		ldr	r3, [r7, #4]
 20047 007a 5A60     		str	r2, [r3, #4]
 504:/home/desem/workspace/desenet/target/stm32/containers/islist.hpp ****     		exitCritical();
 20048              		.loc 87 504 0
 20049 007c FFF7FEFF 		bl	exitCritical
 505:/home/desem/workspace/desenet/target/stm32/containers/islist.hpp ****     		return;
 20050              		.loc 87 505 0
 20051 0080 10E0     		b	.L85
 20052              	.L90:
 508:/home/desem/workspace/desenet/target/stm32/containers/islist.hpp ****     	prev = cur;
 20053              		.loc 87 508 0
 20054 0082 BB68     		ldr	r3, [r7, #8]
 20055 0084 FB60     		str	r3, [r7, #12]
 509:/home/desem/workspace/desenet/target/stm32/containers/islist.hpp ****     	cur = cur->next;
 20056              		.loc 87 509 0
 20057 0086 BB68     		ldr	r3, [r7, #8]
 20058 0088 5B68     		ldr	r3, [r3, #4]
 20059 008a BB60     		str	r3, [r7, #8]
 20060              	.L89:
 492:/home/desem/workspace/desenet/target/stm32/containers/islist.hpp ****     while (cur != NULL)
 20061              		.loc 87 492 0 discriminator 1
 20062 008c BB68     		ldr	r3, [r7, #8]
 20063 008e 002B     		cmp	r3, #0
 20064 0090 0CBF     		ite	eq
 20065 0092 0023     		moveq	r3, #0
 20066 0094 0123     		movne	r3, #1
 20067 0096 DBB2     		uxtb	r3, r3
 20068 0098 002B     		cmp	r3, #0
 20069 009a CFD1     		bne	.L93
 512:/home/desem/workspace/desenet/target/stm32/containers/islist.hpp ****     exitCritical();
 20070              		.loc 87 512 0
 20071 009c FFF7FEFF 		bl	exitCritical
 20072 00a0 00E0     		b	.L85
 20073              	.L94:
 474:/home/desem/workspace/desenet/target/stm32/containers/islist.hpp ****     	return;
 20074              		.loc 87 474 0
 20075 00a2 00BF     		nop
 20076              	.L85:
 20077              	.LBE26:
 513:/home/desem/workspace/desenet/target/stm32/containers/islist.hpp **** }
 20078              		.loc 87 513 0
 20079 00a4 07F11407 		add	r7, r7, #20
 20080 00a8 BD46     		mov	sp, r7
 20081 00aa 90BD     		pop	{r4, r7, pc}
 20082              		.cfi_endproc
 20083              	.LFE920:
 20085              		.section	.text._ZN6IsListIKPKcE4ItemD2Ev,"axG",%progbits,_ZN6IsListIKPKcE4ItemD5Ev,comdat
 20086              		.align	2
 20087              		.weak	_ZN6IsListIKPKcE4ItemD2Ev
 20088              		.thumb
 20089              		.thumb_func
 20091              	_ZN6IsListIKPKcE4ItemD2Ev:
 20092              	.LFB943:
  36:/home/desem/workspace/desenet/target/stm32/containers/islist.hpp **** 		~Item()
 20093              		.loc 87 36 0
 20094              		.cfi_startproc
 20095              		@ args = 0, pretend = 0, frame = 8
 20096              		@ frame_needed = 1, uses_anonymous_args = 0
 20097              		@ link register save eliminated.
 20098 0000 80B4     		push	{r7}
 20099              	.LCFI94:
 20100              		.cfi_def_cfa_offset 4
 20101 0002 83B0     		sub	sp, sp, #12
 20102              	.LCFI95:
 20103              		.cfi_def_cfa_offset 16
 20104 0004 00AF     		add	r7, sp, #0
 20105              		.cfi_offset 7, -4
 20106              	.LCFI96:
 20107              		.cfi_def_cfa_register 7
 20108 0006 7860     		str	r0, [r7, #4]
 20109              	.LBB27:
  38:/home/desem/workspace/desenet/target/stm32/containers/islist.hpp **** 		    next = NULL;
 20110              		.loc 87 38 0
 20111 0008 7B68     		ldr	r3, [r7, #4]
 20112 000a 4FF00002 		mov	r2, #0
 20113 000e 5A60     		str	r2, [r3, #4]
 20114              	.LBE27:
 20115 0010 7B68     		ldr	r3, [r7, #4]
  39:/home/desem/workspace/desenet/target/stm32/containers/islist.hpp **** 		}
 20116              		.loc 87 39 0
 20117 0012 1846     		mov	r0, r3
 20118 0014 07F10C07 		add	r7, r7, #12
 20119 0018 BD46     		mov	sp, r7
 20120 001a 80BC     		pop	{r7}
 20121 001c 7047     		bx	lr
 20122              		.cfi_endproc
 20123              	.LFE943:
 20125              		.weak	_ZN6IsListIKPKcE4ItemD1Ev
 20126              		.thumb_set _ZN6IsListIKPKcE4ItemD1Ev,_ZN6IsListIKPKcE4ItemD2Ev
 20127 001e 00BF     		.section	.text._ZNK6IsListIKPKcE14getNULLContentEv,"axG",%progbits,_ZNK6IsListIKPKcE14getNULLConte
 20128              		.align	2
 20129              		.weak	_ZNK6IsListIKPKcE14getNULLContentEv
 20130              		.thumb
 20131              		.thumb_func
 20133              	_ZNK6IsListIKPKcE14getNULLContentEv:
 20134              	.LFB945:
 356:/home/desem/workspace/desenet/target/stm32/containers/islist.hpp **** template <class T> T IsList<T> ::getNULLContent() const
 20135              		.loc 87 356 0
 20136              		.cfi_startproc
 20137              		@ args = 0, pretend = 0, frame = 8
 20138              		@ frame_needed = 1, uses_anonymous_args = 0
 20139 0000 80B5     		push	{r7, lr}
 20140              	.LCFI97:
 20141              		.cfi_def_cfa_offset 8
 20142 0002 82B0     		sub	sp, sp, #8
 20143              	.LCFI98:
 20144              		.cfi_def_cfa_offset 16
 20145 0004 00AF     		add	r7, sp, #0
 20146              		.cfi_offset 14, -4
 20147              		.cfi_offset 7, -8
 20148              	.LCFI99:
 20149              		.cfi_def_cfa_register 7
 20150 0006 7860     		str	r0, [r7, #4]
 20151              	.LBB28:
 361:/home/desem/workspace/desenet/target/stm32/containers/islist.hpp ****     if (bInitialized)
 20152              		.loc 87 361 0
 20153 0008 40F20003 		movw	r3, #:lower16:_ZZNK6IsListIKPKcE14getNULLContentEvE12bInitialized
 20154 000c C0F20003 		movt	r3, #:upper16:_ZZNK6IsListIKPKcE14getNULLContentEvE12bInitialized
 20155 0010 1B78     		ldrb	r3, [r3, #0]	@ zero_extendqisi2
 20156 0012 002B     		cmp	r3, #0
 20157 0014 10D0     		beq	.L98
 363:/home/desem/workspace/desenet/target/stm32/containers/islist.hpp ****     	bInitialized = true;
 20158              		.loc 87 363 0
 20159 0016 40F20003 		movw	r3, #:lower16:_ZZNK6IsListIKPKcE14getNULLContentEvE12bInitialized
 20160 001a C0F20003 		movt	r3, #:upper16:_ZZNK6IsListIKPKcE14getNULLContentEvE12bInitialized
 20161 001e 4FF00102 		mov	r2, #1
 20162 0022 1A70     		strb	r2, [r3, #0]
 365:/home/desem/workspace/desenet/target/stm32/containers/islist.hpp ****     	memset((void*)&sContent, 0, sizeof(T));
 20163              		.loc 87 365 0
 20164 0024 40F20000 		movw	r0, #:lower16:_ZZNK6IsListIKPKcE14getNULLContentEvE8sContent
 20165 0028 C0F20000 		movt	r0, #:upper16:_ZZNK6IsListIKPKcE14getNULLContentEvE8sContent
 20166 002c 4FF00001 		mov	r1, #0
 20167 0030 4FF00402 		mov	r2, #4
 20168 0034 FFF7FEFF 		bl	memset
 20169              	.L98:
 367:/home/desem/workspace/desenet/target/stm32/containers/islist.hpp ****     return sContent;
 20170              		.loc 87 367 0
 20171 0038 4FF00003 		mov	r3, #0
 20172              	.LBE28:
 368:/home/desem/workspace/desenet/target/stm32/containers/islist.hpp **** }
 20173              		.loc 87 368 0
 20174 003c 1846     		mov	r0, r3
 20175 003e 07F10807 		add	r7, r7, #8
 20176 0042 BD46     		mov	sp, r7
 20177 0044 80BD     		pop	{r7, pc}
 20178              		.cfi_endproc
 20179              	.LFE945:
 20181              		.global	_ZTV4Vcom
 20182 0046 00BF     		.section	.rodata._ZTV4Vcom,"a",%progbits
 20183              		.align	3
 20186              	_ZTV4Vcom:
 20187 0000 00000000 		.word	0
 20188 0004 00000000 		.word	0
 20189 0008 00000000 		.word	_ZN4VcomD1Ev
 20190 000c 00000000 		.word	_ZN4VcomD0Ev
 20191 0010 00000000 		.word	_ZN10XFReactive13startBehaviorEv
 20192 0014 00000000 		.word	_ZN10XFReactive9pushEventEP8IXFEvent
 20193 0018 00000000 		.word	_ZN10XFReactive7processEP8IXFEvent
 20194 001c 00000000 		.word	_ZN4Vcom12processEventEv
 20195 0020 00000000 		.word	_ZN10XFReactive9getThreadEv
 20196              		.weak	_ZTV7IsQueueIKPKcE
 20197 0024 00000000 		.section	.rodata._ZTV7IsQueueIKPKcE,"aG",%progbits,_ZTV7IsQueueIKPKcE,comdat
 20198              		.align	3
 20201              	_ZTV7IsQueueIKPKcE:
 20202 0000 00000000 		.word	0
 20203 0004 00000000 		.word	0
 20204 0008 00000000 		.word	_ZN7IsQueueIKPKcED1Ev
 20205 000c 00000000 		.word	_ZN7IsQueueIKPKcED0Ev
 20206 0010 00000000 		.word	_ZNK6IsListIKPKcE14getNULLContentEv
 20207 0014 00000000 		.word	_ZNK6IsListIKPKcE10getCurrentEPv
 20208 0018 00000000 		.word	_ZNK6IsListIKPKcE8getFirstERPv
 20209 001c 00000000 		.word	_ZNK6IsListIKPKcE7getLastERPv
 20210 0020 00000000 		.word	_ZNK6IsListIKPKcE7getNextERPv
 20211              		.weak	_ZTV6IsListIKPKcE
 20212 0024 00000000 		.section	.rodata._ZTV6IsListIKPKcE,"aG",%progbits,_ZTV6IsListIKPKcE,comdat
 20213              		.align	3
 20216              	_ZTV6IsListIKPKcE:
 20217 0000 00000000 		.word	0
 20218 0004 00000000 		.word	0
 20219 0008 00000000 		.word	_ZN6IsListIKPKcED1Ev
 20220 000c 00000000 		.word	_ZN6IsListIKPKcED0Ev
 20221 0010 00000000 		.word	_ZNK6IsListIKPKcE14getNULLContentEv
 20222 0014 00000000 		.word	_ZNK6IsListIKPKcE10getCurrentEPv
 20223 0018 00000000 		.word	_ZNK6IsListIKPKcE8getFirstERPv
 20224 001c 00000000 		.word	_ZNK6IsListIKPKcE7getLastERPv
 20225 0020 00000000 		.word	_ZNK6IsListIKPKcE7getNextERPv
 20226 0024 00000000 		.section	.text._Z41__static_initialization_and_destruction_0ii,"ax",%progbits
 20227              		.align	2
 20228              		.thumb
 20229              		.thumb_func
 20231              	_Z41__static_initialization_and_destruction_0ii:
 20232              	.LFB975:
 20233              		.loc 1 139 0
 20234              		.cfi_startproc
 20235              		@ args = 0, pretend = 0, frame = 8
 20236              		@ frame_needed = 1, uses_anonymous_args = 0
 20237 0000 80B5     		push	{r7, lr}
 20238              	.LCFI100:
 20239              		.cfi_def_cfa_offset 8
 20240 0002 82B0     		sub	sp, sp, #8
 20241              	.LCFI101:
 20242              		.cfi_def_cfa_offset 16
 20243 0004 00AF     		add	r7, sp, #0
 20244              		.cfi_offset 14, -4
 20245              		.cfi_offset 7, -8
 20246              	.LCFI102:
 20247              		.cfi_def_cfa_register 7
 20248 0006 7860     		str	r0, [r7, #4]
 20249 0008 3960     		str	r1, [r7, #0]
 20250              		.loc 1 139 0
 20251 000a 7B68     		ldr	r3, [r7, #4]
 20252 000c 012B     		cmp	r3, #1
 20253 000e 19D1     		bne	.L99
 20254              		.loc 1 139 0 is_stmt 0 discriminator 1
 20255 0010 3A68     		ldr	r2, [r7, #0]
 20256 0012 4FF6FF73 		movw	r3, #65535
 20257 0016 9A42     		cmp	r2, r3
 20258 0018 14D1     		bne	.L99
   7:../board/olimex-stm32f103-stk/board/usb-vcom/vcom.cpp **** Vcom Vcom::_Instance;
 20259              		.loc 1 7 0 is_stmt 1
 20260 001a 40F20000 		movw	r0, #:lower16:_ZN4Vcom9_InstanceE
 20261 001e C0F20000 		movt	r0, #:upper16:_ZN4Vcom9_InstanceE
 20262 0022 FFF7FEFF 		bl	_ZN4VcomC1Ev
 20263 0026 40F20003 		movw	r3, #:lower16:_ZN4VcomD1Ev
 20264 002a C0F20003 		movt	r3, #:upper16:_ZN4VcomD1Ev
 20265 002e 40F20000 		movw	r0, #:lower16:_ZN4Vcom9_InstanceE
 20266 0032 C0F20000 		movt	r0, #:upper16:_ZN4Vcom9_InstanceE
 20267 0036 1946     		mov	r1, r3
 20268 0038 40F20002 		movw	r2, #:lower16:__dso_handle
 20269 003c C0F20002 		movt	r2, #:upper16:__dso_handle
 20270 0040 FFF7FEFF 		bl	__aeabi_atexit
 20271              	.L99:
 20272              		.loc 1 139 0
 20273 0044 07F10807 		add	r7, r7, #8
 20274 0048 BD46     		mov	sp, r7
 20275 004a 80BD     		pop	{r7, pc}
 20276              		.cfi_endproc
 20277              	.LFE975:
 20279              		.section	.text._ZNK6IsListIKPKcE8getFirstERPv,"axG",%progbits,_ZNK6IsListIKPKcE8getFirstERPv,comda
 20280              		.align	2
 20281              		.weak	_ZNK6IsListIKPKcE8getFirstERPv
 20282              		.thumb
 20283              		.thumb_func
 20285              	_ZNK6IsListIKPKcE8getFirstERPv:
 20286              	.LFB976:
 336:/home/desem/workspace/desenet/target/stm32/containers/islist.hpp **** template<class T> void IsList<T>::getFirst(void*& pos) const
 20287              		.loc 87 336 0
 20288              		.cfi_startproc
 20289              		@ args = 0, pretend = 0, frame = 8
 20290              		@ frame_needed = 1, uses_anonymous_args = 0
 20291              		@ link register save eliminated.
 20292 0000 80B4     		push	{r7}
 20293              	.LCFI103:
 20294              		.cfi_def_cfa_offset 4
 20295 0002 83B0     		sub	sp, sp, #12
 20296              	.LCFI104:
 20297              		.cfi_def_cfa_offset 16
 20298 0004 00AF     		add	r7, sp, #0
 20299              		.cfi_offset 7, -4
 20300              	.LCFI105:
 20301              		.cfi_def_cfa_register 7
 20302 0006 7860     		str	r0, [r7, #4]
 20303 0008 3960     		str	r1, [r7, #0]
 338:/home/desem/workspace/desenet/target/stm32/containers/islist.hpp ****     pos = first;
 20304              		.loc 87 338 0
 20305 000a 7B68     		ldr	r3, [r7, #4]
 20306 000c 9A68     		ldr	r2, [r3, #8]
 20307 000e 3B68     		ldr	r3, [r7, #0]
 20308 0010 1A60     		str	r2, [r3, #0]
 339:/home/desem/workspace/desenet/target/stm32/containers/islist.hpp **** }
 20309              		.loc 87 339 0
 20310 0012 07F10C07 		add	r7, r7, #12
 20311 0016 BD46     		mov	sp, r7
 20312 0018 80BC     		pop	{r7}
 20313 001a 7047     		bx	lr
 20314              		.cfi_endproc
 20315              	.LFE976:
 20317              		.section	.text._ZNK6IsListIKPKcE7getLastERPv,"axG",%progbits,_ZNK6IsListIKPKcE7getLastERPv,comdat
 20318              		.align	2
 20319              		.weak	_ZNK6IsListIKPKcE7getLastERPv
 20320              		.thumb
 20321              		.thumb_func
 20323              	_ZNK6IsListIKPKcE7getLastERPv:
 20324              	.LFB977:
 346:/home/desem/workspace/desenet/target/stm32/containers/islist.hpp **** template<class T> void IsList<T>::getLast(void*& pos) const
 20325              		.loc 87 346 0
 20326              		.cfi_startproc
 20327              		@ args = 0, pretend = 0, frame = 8
 20328              		@ frame_needed = 1, uses_anonymous_args = 0
 20329              		@ link register save eliminated.
 20330 0000 80B4     		push	{r7}
 20331              	.LCFI106:
 20332              		.cfi_def_cfa_offset 4
 20333 0002 83B0     		sub	sp, sp, #12
 20334              	.LCFI107:
 20335              		.cfi_def_cfa_offset 16
 20336 0004 00AF     		add	r7, sp, #0
 20337              		.cfi_offset 7, -4
 20338              	.LCFI108:
 20339              		.cfi_def_cfa_register 7
 20340 0006 7860     		str	r0, [r7, #4]
 20341 0008 3960     		str	r1, [r7, #0]
 348:/home/desem/workspace/desenet/target/stm32/containers/islist.hpp ****     pos = last;
 20342              		.loc 87 348 0
 20343 000a 7B68     		ldr	r3, [r7, #4]
 20344 000c DA68     		ldr	r2, [r3, #12]
 20345 000e 3B68     		ldr	r3, [r7, #0]
 20346 0010 1A60     		str	r2, [r3, #0]
 349:/home/desem/workspace/desenet/target/stm32/containers/islist.hpp **** }
 20347              		.loc 87 349 0
 20348 0012 07F10C07 		add	r7, r7, #12
 20349 0016 BD46     		mov	sp, r7
 20350 0018 80BC     		pop	{r7}
 20351 001a 7047     		bx	lr
 20352              		.cfi_endproc
 20353              	.LFE977:
 20355              		.section	.text._ZNK6IsListIKPKcE7getNextERPv,"axG",%progbits,_ZNK6IsListIKPKcE7getNextERPv,comdat
 20356              		.align	2
 20357              		.weak	_ZNK6IsListIKPKcE7getNextERPv
 20358              		.thumb
 20359              		.thumb_func
 20361              	_ZNK6IsListIKPKcE7getNextERPv:
 20362              	.LFB978:
 370:/home/desem/workspace/desenet/target/stm32/containers/islist.hpp **** template<class T> void IsList<T>::getNext(void*& pos) const
 20363              		.loc 87 370 0
 20364              		.cfi_startproc
 20365              		@ args = 0, pretend = 0, frame = 8
 20366              		@ frame_needed = 1, uses_anonymous_args = 0
 20367              		@ link register save eliminated.
 20368 0000 80B4     		push	{r7}
 20369              	.LCFI109:
 20370              		.cfi_def_cfa_offset 4
 20371 0002 83B0     		sub	sp, sp, #12
 20372              	.LCFI110:
 20373              		.cfi_def_cfa_offset 16
 20374 0004 00AF     		add	r7, sp, #0
 20375              		.cfi_offset 7, -4
 20376              	.LCFI111:
 20377              		.cfi_def_cfa_register 7
 20378 0006 7860     		str	r0, [r7, #4]
 20379 0008 3960     		str	r1, [r7, #0]
 373:/home/desem/workspace/desenet/target/stm32/containers/islist.hpp ****     pos = ((Item*)(pos))->next;
 20380              		.loc 87 373 0
 20381 000a 3B68     		ldr	r3, [r7, #0]
 20382 000c 1B68     		ldr	r3, [r3, #0]
 20383 000e 5A68     		ldr	r2, [r3, #4]
 20384 0010 3B68     		ldr	r3, [r7, #0]
 20385 0012 1A60     		str	r2, [r3, #0]
 374:/home/desem/workspace/desenet/target/stm32/containers/islist.hpp **** }
 20386              		.loc 87 374 0
 20387 0014 07F10C07 		add	r7, r7, #12
 20388 0018 BD46     		mov	sp, r7
 20389 001a 80BC     		pop	{r7}
 20390 001c 7047     		bx	lr
 20391              		.cfi_endproc
 20392              	.LFE978:
 20394 001e 00BF     		.section	.text._GLOBAL__I__ZN4Vcom9_InstanceE,"ax",%progbits
 20395              		.align	2
 20396              		.thumb
 20397              		.thumb_func
 20399              	_GLOBAL__I__ZN4Vcom9_InstanceE:
 20400              	.LFB979:
 20401              		.loc 1 139 0
 20402              		.cfi_startproc
 20403              		@ args = 0, pretend = 0, frame = 0
 20404              		@ frame_needed = 1, uses_anonymous_args = 0
 20405 0000 80B5     		push	{r7, lr}
 20406              	.LCFI112:
 20407              		.cfi_def_cfa_offset 8
 20408 0002 00AF     		add	r7, sp, #0
 20409              		.cfi_offset 14, -4
 20410              		.cfi_offset 7, -8
 20411              	.LCFI113:
 20412              		.cfi_def_cfa_register 7
 20413              		.loc 1 139 0
 20414 0004 4FF00100 		mov	r0, #1
 20415 0008 4FF6FF71 		movw	r1, #65535
 20416 000c FFF7FEFF 		bl	_Z41__static_initialization_and_destruction_0ii
 20417 0010 80BD     		pop	{r7, pc}
 20418              		.cfi_endproc
 20419              	.LFE979:
 20421 0012 00BF     		.section	.init_array,"aw",%init_array
 20422              		.align	2
 20423 0000 00000000 		.word	_GLOBAL__I__ZN4Vcom9_InstanceE(target1)
 20424              		.section	.rodata._ZZN4Vcom5writeEPKcjE19__PRETTY_FUNCTION__,"a",%progbits
 20425              		.align	2
 20428              	_ZZN4Vcom5writeEPKcjE19__PRETTY_FUNCTION__:
 20429 0000 766F6964 		.ascii	"void Vcom::write(const char*, unsigned int)\000"
 20429      2056636F 
 20429      6D3A3A77 
 20429      72697465 
 20429      28636F6E 
 20430              		.weak	_ZZNK6IsListIKPKcE14getNULLContentEvE12bInitialized
 20431              		.section	.bss._ZZNK6IsListIKPKcE14getNULLContentEvE12bInitialized,"awG",%nobits,_ZZNK6IsListIKPKcE
 20434              	_ZZNK6IsListIKPKcE14getNULLContentEvE12bInitialized:
 20435 0000 00       		.space	1
 20436              		.weak	_ZZNK6IsListIKPKcE14getNULLContentEvE8sContent
 20437              		.section	.rodata._ZZNK6IsListIKPKcE14getNULLContentEvE8sContent,"aG",%progbits,_ZZNK6IsListIKPKcE1
 20438              		.align	2
 20441              	_ZZNK6IsListIKPKcE14getNULLContentEvE8sContent:
 20442 0000 00000000 		.space	4
 20443              		.text
 20444              	.Letext0: