   1              		.syntax unified
   2              		.cpu cortex-m3
   3              		.fpu softvfp
   4              		.eabi_attribute 20, 1
   5              		.eabi_attribute 21, 1
   6              		.eabi_attribute 23, 3
   7              		.eabi_attribute 24, 1
   8              		.eabi_attribute 25, 1
   9              		.eabi_attribute 26, 1
  10              		.eabi_attribute 30, 6
  11              		.eabi_attribute 18, 4
  12              		.thumb
  13              		.file	"initialevent.cpp"
  23              	.Ltext0:
  24              		.file 1 "../xf/initialevent.cpp"
 1738              		.align	2
 1739              		.weak	_ZN8IXFEventC2ENS_10eEventTypeEiP11IXFReactive
 1740              		.thumb
 1741              		.thumb_func
 1743              	_ZN8IXFEventC2ENS_10eEventTypeEiP11IXFReactive:
 1744              	.LFB1:
   1:../xf/ixfevent.h **** #ifndef IXFEVENT_H
   2:../xf/ixfevent.h **** #define IXFEVENT_H
   3:../xf/ixfevent.h **** 
   4:../xf/ixfevent.h **** 
   5:../xf/ixfevent.h **** class IXFReactive;
   6:../xf/ixfevent.h **** 
   7:../xf/ixfevent.h **** 
   8:../xf/ixfevent.h **** /**
   9:../xf/ixfevent.h ****  * @ingroup xf
  10:../xf/ixfevent.h ****  * Interface for an event. The abstract methods defined in this interface
  11:../xf/ixfevent.h ****  * need to be reimplemented in its derived classes. These methods are
  12:../xf/ixfevent.h ****  * used by other classes in the framework (ex. XFThread, XFReactive).
  13:../xf/ixfevent.h ****  *
  14:../xf/ixfevent.h ****  * Requirements:
  15:../xf/ixfevent.h ****  * - Needs to hold a property which allows to distinguish between different
  16:../xf/ixfevent.h ****  *   types of events.
  17:../xf/ixfevent.h ****  * - Use an enumeration to define the type for the type property.
  18:../xf/ixfevent.h ****  * - The type property needs to be set at initialization time and cannot be
  19:../xf/ixfevent.h ****  *   changed afterwards.
  20:../xf/ixfevent.h ****  */
  21:../xf/ixfevent.h **** class IXFEvent
  22:../xf/ixfevent.h **** {
  23:../xf/ixfevent.h **** public:
  24:../xf/ixfevent.h **** 	/**
  25:../xf/ixfevent.h **** 	 * Defines the types of events
  26:../xf/ixfevent.h **** 	 */
  27:../xf/ixfevent.h **** 	typedef enum
  28:../xf/ixfevent.h **** 	{
  29:../xf/ixfevent.h **** 		Unknown			= 0,		///< Unknown state (not initialized)
  30:../xf/ixfevent.h **** 		Initial			= 1,		///< Initial pseudo-state
  31:../xf/ixfevent.h **** 		NullTransition	= 2,		///< Event generated by the state machine to define a null transition
  32:../xf/ixfevent.h **** 		Event			= 3,		///< Normal event
  33:../xf/ixfevent.h **** 		Timeout			= 4,		///< Defines a timeout event.
  34:../xf/ixfevent.h **** 		Terminate		= -1		///< Defines a terminate state. Will end the state machine.
  35:../xf/ixfevent.h **** 	} eEventType;
  36:../xf/ixfevent.h **** 
  37:../xf/ixfevent.h **** public :
  38:../xf/ixfevent.h **** 	/**
  39:../xf/ixfevent.h **** 	 * Default class constructor
  40:../xf/ixfevent.h **** 	 */
  41:../xf/ixfevent.h **** 	IXFEvent(eEventType eventType, int id, IXFReactive * pBehavior) : _eventType(eventType), _id(id), 
 1745              		.loc 4 41 0
 1746              		.cfi_startproc
 1747              		@ args = 0, pretend = 0, frame = 16
 1748              		@ frame_needed = 1, uses_anonymous_args = 0
 1749 0000 80B5     		push	{r7, lr}
 1750              	.LCFI0:
 1751              		.cfi_def_cfa_offset 8
 1752 0002 84B0     		sub	sp, sp, #16
 1753              	.LCFI1:
 1754              		.cfi_def_cfa_offset 24
 1755 0004 00AF     		add	r7, sp, #0
 1756              		.cfi_offset 14, -4
 1757              		.cfi_offset 7, -8
 1758              	.LCFI2:
 1759              		.cfi_def_cfa_register 7
 1760 0006 F860     		str	r0, [r7, #12]
 1761 0008 7A60     		str	r2, [r7, #4]
 1762 000a 3B60     		str	r3, [r7, #0]
 1763 000c 0B46     		mov	r3, r1
 1764 000e FB72     		strb	r3, [r7, #11]
 1765              	.LBB2:
 1766              		.loc 4 41 0
 1767 0010 FB68     		ldr	r3, [r7, #12]
 1768 0012 0E4A     		ldr	r2, .L3
 1769 0014 1A60     		str	r2, [r3, #0]
 1770 0016 FB68     		ldr	r3, [r7, #12]
 1771 0018 FA7A     		ldrb	r2, [r7, #11]
 1772 001a 1A71     		strb	r2, [r3, #4]
 1773 001c FB68     		ldr	r3, [r7, #12]
 1774 001e 7A68     		ldr	r2, [r7, #4]
 1775 0020 9A60     		str	r2, [r3, #8]
 1776 0022 FB68     		ldr	r3, [r7, #12]
 1777 0024 03F10C03 		add	r3, r3, #12
 1778 0028 1846     		mov	r0, r3
 1779 002a FFF7FEFF 		bl	_ZN8IXFEvent13_tEventStatusC1Ev
 1780 002e FB68     		ldr	r3, [r7, #12]
 1781 0030 3A68     		ldr	r2, [r7, #0]
 1782 0032 1A61     		str	r2, [r3, #16]
 1783 0034 FA68     		ldr	r2, [r7, #12]
 1784 0036 137B     		ldrb	r3, [r2, #12]
 1785 0038 43F00103 		orr	r3, r3, #1
 1786 003c 1373     		strb	r3, [r2, #12]
 1787              	.LBE2:
 1788 003e FB68     		ldr	r3, [r7, #12]
 1789 0040 1846     		mov	r0, r3
 1790 0042 07F11007 		add	r7, r7, #16
 1791 0046 BD46     		mov	sp, r7
 1792 0048 80BD     		pop	{r7, pc}
 1793              	.L4:
 1794 004a 00BF     		.align	2
 1795              	.L3:
 1796 004c 08000000 		.word	_ZTV8IXFEvent+8
 1797              		.cfi_endproc
 1798              	.LFE1:
 1800              		.weak	_ZN8IXFEventC1ENS_10eEventTypeEiP11IXFReactive
 1801              		.thumb_set _ZN8IXFEventC1ENS_10eEventTypeEiP11IXFReactive,_ZN8IXFEventC2ENS_10eEventTypeEiP11IXFRe
 1802              		.section	.text._ZN8IXFEventD2Ev,"axG",%progbits,_ZN8IXFEventD5Ev,comdat
 1803              		.align	2
 1804              		.weak	_ZN8IXFEventD2Ev
 1805              		.thumb
 1806              		.thumb_func
 1808              	_ZN8IXFEventD2Ev:
 1809              	.LFB4:
  42:../xf/ixfevent.h **** 	virtual ~IXFEvent() {}		///< Class destructor
 1810              		.loc 4 42 0
 1811              		.cfi_startproc
 1812              		@ args = 0, pretend = 0, frame = 8
 1813              		@ frame_needed = 1, uses_anonymous_args = 0
 1814 0000 80B5     		push	{r7, lr}
 1815              	.LCFI3:
 1816              		.cfi_def_cfa_offset 8
 1817 0002 82B0     		sub	sp, sp, #8
 1818              	.LCFI4:
 1819              		.cfi_def_cfa_offset 16
 1820 0004 00AF     		add	r7, sp, #0
 1821              		.cfi_offset 14, -4
 1822              		.cfi_offset 7, -8
 1823              	.LCFI5:
 1824              		.cfi_def_cfa_register 7
 1825 0006 7860     		str	r0, [r7, #4]
 1826              	.LBB3:
 1827              		.loc 4 42 0
 1828 0008 7B68     		ldr	r3, [r7, #4]
 1829 000a 094A     		ldr	r2, .L8
 1830 000c 1A60     		str	r2, [r3, #0]
 1831              	.LBE3:
 1832 000e 4FF00003 		mov	r3, #0
 1833 0012 03F00103 		and	r3, r3, #1
 1834 0016 DBB2     		uxtb	r3, r3
 1835 0018 002B     		cmp	r3, #0
 1836 001a 02D0     		beq	.L7
 1837              		.loc 4 42 0 is_stmt 0 discriminator 1
 1838 001c 7868     		ldr	r0, [r7, #4]
 1839 001e FFF7FEFF 		bl	_ZdlPv
 1840              	.L7:
 1841              		.loc 4 42 0 discriminator 2
 1842 0022 7B68     		ldr	r3, [r7, #4]
 1843 0024 1846     		mov	r0, r3
 1844 0026 07F10807 		add	r7, r7, #8
 1845 002a BD46     		mov	sp, r7
 1846 002c 80BD     		pop	{r7, pc}
 1847              	.L9:
 1848 002e 00BF     		.align	2
 1849              	.L8:
 1850 0030 08000000 		.word	_ZTV8IXFEvent+8
 1851              		.cfi_endproc
 1852              	.LFE4:
 1854              		.weak	_ZN8IXFEventD1Ev
 1855              		.thumb_set _ZN8IXFEventD1Ev,_ZN8IXFEventD2Ev
 1856              		.section	.text._ZN8IXFEventD0Ev,"axG",%progbits,_ZN8IXFEventD5Ev,comdat
 1857              		.align	2
 1858              		.weak	_ZN8IXFEventD0Ev
 1859              		.thumb
 1860              		.thumb_func
 1862              	_ZN8IXFEventD0Ev:
 1863              	.LFB6:
 1864              		.loc 4 42 0 is_stmt 1
 1865              		.cfi_startproc
 1866              		@ args = 0, pretend = 0, frame = 8
 1867              		@ frame_needed = 1, uses_anonymous_args = 0
 1868 0000 80B5     		push	{r7, lr}
 1869              	.LCFI6:
 1870              		.cfi_def_cfa_offset 8
 1871 0002 82B0     		sub	sp, sp, #8
 1872              	.LCFI7:
 1873              		.cfi_def_cfa_offset 16
 1874 0004 00AF     		add	r7, sp, #0
 1875              		.cfi_offset 14, -4
 1876              		.cfi_offset 7, -8
 1877              	.LCFI8:
 1878              		.cfi_def_cfa_register 7
 1879 0006 7860     		str	r0, [r7, #4]
 1880              		.loc 4 42 0
 1881 0008 7868     		ldr	r0, [r7, #4]
 1882 000a FFF7FEFF 		bl	_ZN8IXFEventD1Ev
 1883 000e 7868     		ldr	r0, [r7, #4]
 1884 0010 FFF7FEFF 		bl	_ZdlPv
 1885 0014 7B68     		ldr	r3, [r7, #4]
 1886 0016 1846     		mov	r0, r3
 1887 0018 07F10807 		add	r7, r7, #8
 1888 001c BD46     		mov	sp, r7
 1889 001e 80BD     		pop	{r7, pc}
 1890              		.cfi_endproc
 1891              	.LFE6:
 1893              		.section	.text._ZN8IXFEvent13_tEventStatusC2Ev,"axG",%progbits,_ZN8IXFEvent13_tEventStatusC5Ev,com
 1894              		.align	2
 1895              		.weak	_ZN8IXFEvent13_tEventStatusC2Ev
 1896              		.thumb
 1897              		.thumb_func
 1899              	_ZN8IXFEvent13_tEventStatusC2Ev:
 1900              	.LFB14:
  43:../xf/ixfevent.h **** 
  44:../xf/ixfevent.h **** 	/** \brief Returns the type of the event.
  45:../xf/ixfevent.h **** 	 *
  46:../xf/ixfevent.h **** 	 * Can be used to distinguish between an event or a timeout.
  47:../xf/ixfevent.h **** 	 */
  48:../xf/ixfevent.h **** 	inline eEventType getEventType() const { return _eventType; }
  49:../xf/ixfevent.h **** 
  50:../xf/ixfevent.h **** 	/** \brief Returns pointer to behavioral class.
  51:../xf/ixfevent.h **** 	 *
  52:../xf/ixfevent.h **** 	 * Returns a pointer to the behavioral class processing the event (see #_pBehavior).
  53:../xf/ixfevent.h **** 	 */
  54:../xf/ixfevent.h **** 	inline IXFReactive * getBehavior() const { return _pBehavior; }
  55:../xf/ixfevent.h **** 
  56:../xf/ixfevent.h **** 	/** \brief Sets pointer to behavioral class (see #_pBehavior).
  57:../xf/ixfevent.h **** 	 * Sets the behavior in which the event should be executed.
  58:../xf/ixfevent.h **** 	 */
  59:../xf/ixfevent.h **** 	inline void setBehavior(IXFReactive * pBehavior) { _pBehavior = pBehavior; }
  60:../xf/ixfevent.h **** 
  61:../xf/ixfevent.h **** 	inline int getId() const { return _id; }		///< Returns #_id identifying the event in the behaviors
  62:../xf/ixfevent.h **** 
  63:../xf/ixfevent.h **** 	/**
  64:../xf/ixfevent.h **** 	 * Marks the event as non-deletable. Used for static events.
  65:../xf/ixfevent.h **** 	 */
  66:../xf/ixfevent.h **** 	inline void setShouldDelete(bool bShouldDelete = true) { _eventStatus.shouldDelete = bShouldDelete
  67:../xf/ixfevent.h **** 
  68:../xf/ixfevent.h **** 	/** \brief Returns true in case the event should be deleted
  69:../xf/ixfevent.h **** 	 * Used by XFThread to check if the event should be delete after consume
  70:../xf/ixfevent.h **** 	 */
  71:../xf/ixfevent.h **** 	inline bool shouldDelete() const { return _eventStatus.shouldDelete; }
  72:../xf/ixfevent.h **** 
  73:../xf/ixfevent.h **** protected:
  74:../xf/ixfevent.h **** 	typedef struct _tEventStatus
  75:../xf/ixfevent.h **** 	{
  76:../xf/ixfevent.h **** 		unsigned char shouldDelete : 1;	///< True in case the event should be deleted after consume.
  77:../xf/ixfevent.h **** 
  78:../xf/ixfevent.h **** 		_tEventStatus()
 1901              		.loc 4 78 0
 1902              		.cfi_startproc
 1903              		@ args = 0, pretend = 0, frame = 8
 1904              		@ frame_needed = 1, uses_anonymous_args = 0
 1905              		@ link register save eliminated.
 1906 0000 80B4     		push	{r7}
 1907              	.LCFI9:
 1908              		.cfi_def_cfa_offset 4
 1909 0002 83B0     		sub	sp, sp, #12
 1910              	.LCFI10:
 1911              		.cfi_def_cfa_offset 16
 1912 0004 00AF     		add	r7, sp, #0
 1913              		.cfi_offset 7, -4
 1914              	.LCFI11:
 1915              		.cfi_def_cfa_register 7
 1916 0006 7860     		str	r0, [r7, #4]
 1917              	.LBB4:
  79:../xf/ixfevent.h **** 		{
  80:../xf/ixfevent.h **** 			shouldDelete = true;
 1918              		.loc 4 80 0
 1919 0008 7A68     		ldr	r2, [r7, #4]
 1920 000a 1378     		ldrb	r3, [r2, #0]
 1921 000c 43F00103 		orr	r3, r3, #1
 1922 0010 1370     		strb	r3, [r2, #0]
 1923              	.LBE4:
  81:../xf/ixfevent.h **** 		}
 1924              		.loc 4 81 0
 1925 0012 7B68     		ldr	r3, [r7, #4]
 1926 0014 1846     		mov	r0, r3
 1927 0016 07F10C07 		add	r7, r7, #12
 1928 001a BD46     		mov	sp, r7
 1929 001c 80BC     		pop	{r7}
 1930 001e 7047     		bx	lr
 1931              		.cfi_endproc
 1932              	.LFE14:
 1934              		.weak	_ZN8IXFEvent13_tEventStatusC1Ev
 1935              		.thumb_set _ZN8IXFEvent13_tEventStatusC1Ev,_ZN8IXFEvent13_tEventStatusC2Ev
 1936              		.section	.text._ZN12InitialEventC2Ev,"ax",%progbits
 1937              		.align	2
 1938              		.global	_ZN12InitialEventC2Ev
 1939              		.thumb
 1940              		.thumb_func
 1942              	_ZN12InitialEventC2Ev:
 1943              	.LFB721:
   1:../xf/initialevent.cpp **** #include "xf.h"
   2:../xf/initialevent.cpp **** #include "initialevent.h"
   3:../xf/initialevent.cpp **** 
   4:../xf/initialevent.cpp **** InitialEvent::InitialEvent()
 1944              		.loc 1 4 0
 1945              		.cfi_startproc
 1946              		@ args = 0, pretend = 0, frame = 8
 1947              		@ frame_needed = 1, uses_anonymous_args = 0
 1948 0000 80B5     		push	{r7, lr}
 1949              	.LCFI12:
 1950              		.cfi_def_cfa_offset 8
 1951 0002 82B0     		sub	sp, sp, #8
 1952              	.LCFI13:
 1953              		.cfi_def_cfa_offset 16
 1954 0004 00AF     		add	r7, sp, #0
 1955              		.cfi_offset 14, -4
 1956              		.cfi_offset 7, -8
 1957              	.LCFI14:
 1958              		.cfi_def_cfa_register 7
 1959 0006 7860     		str	r0, [r7, #4]
 1960              	.LBB5:
   5:../xf/initialevent.cpp **** 	: IXFEvent(IXFEvent::Initial, 0, NULL)
 1961              		.loc 1 5 0
 1962 0008 7B68     		ldr	r3, [r7, #4]
 1963 000a 1846     		mov	r0, r3
 1964 000c 4FF00101 		mov	r1, #1
 1965 0010 4FF00002 		mov	r2, #0
 1966 0014 4FF00003 		mov	r3, #0
 1967 0018 FFF7FEFF 		bl	_ZN8IXFEventC2ENS_10eEventTypeEiP11IXFReactive
 1968 001c 7B68     		ldr	r3, [r7, #4]
 1969 001e 044A     		ldr	r2, .L16
 1970 0020 1A60     		str	r2, [r3, #0]
 1971              	.LBE5:
   6:../xf/initialevent.cpp **** {
   7:../xf/initialevent.cpp **** }
 1972              		.loc 1 7 0
 1973 0022 7B68     		ldr	r3, [r7, #4]
 1974 0024 1846     		mov	r0, r3
 1975 0026 07F10807 		add	r7, r7, #8
 1976 002a BD46     		mov	sp, r7
 1977 002c 80BD     		pop	{r7, pc}
 1978              	.L17:
 1979 002e 00BF     		.align	2
 1980              	.L16:
 1981 0030 08000000 		.word	_ZTV12InitialEvent+8
 1982              		.cfi_endproc
 1983              	.LFE721:
 1985              		.global	_ZN12InitialEventC1Ev
 1986              		.thumb_set _ZN12InitialEventC1Ev,_ZN12InitialEventC2Ev
 1987              		.section	.text._ZN12InitialEventD2Ev,"ax",%progbits
 1988              		.align	2
 1989              		.global	_ZN12InitialEventD2Ev
 1990              		.thumb
 1991              		.thumb_func
 1993              	_ZN12InitialEventD2Ev:
 1994              	.LFB724:
   8:../xf/initialevent.cpp **** 
   9:../xf/initialevent.cpp **** InitialEvent::~InitialEvent()
 1995              		.loc 1 9 0
 1996              		.cfi_startproc
 1997              		@ args = 0, pretend = 0, frame = 8
 1998              		@ frame_needed = 1, uses_anonymous_args = 0
 1999 0000 80B5     		push	{r7, lr}
 2000              	.LCFI15:
 2001              		.cfi_def_cfa_offset 8
 2002 0002 82B0     		sub	sp, sp, #8
 2003              	.LCFI16:
 2004              		.cfi_def_cfa_offset 16
 2005 0004 00AF     		add	r7, sp, #0
 2006              		.cfi_offset 14, -4
 2007              		.cfi_offset 7, -8
 2008              	.LCFI17:
 2009              		.cfi_def_cfa_register 7
 2010 0006 7860     		str	r0, [r7, #4]
 2011              	.LBB6:
 2012              		.loc 1 9 0
 2013 0008 7B68     		ldr	r3, [r7, #4]
 2014 000a 0B4A     		ldr	r2, .L21
 2015 000c 1A60     		str	r2, [r3, #0]
 2016 000e 7B68     		ldr	r3, [r7, #4]
  10:../xf/initialevent.cpp **** {
  11:../xf/initialevent.cpp **** 
  12:../xf/initialevent.cpp **** }
 2017              		.loc 1 12 0
 2018 0010 1846     		mov	r0, r3
 2019 0012 FFF7FEFF 		bl	_ZN8IXFEventD2Ev
 2020              	.LBE6:
 2021 0016 4FF00003 		mov	r3, #0
 2022 001a 03F00103 		and	r3, r3, #1
 2023 001e DBB2     		uxtb	r3, r3
 2024 0020 002B     		cmp	r3, #0
 2025 0022 02D0     		beq	.L20
 2026              		.loc 1 12 0 is_stmt 0 discriminator 2
 2027 0024 7868     		ldr	r0, [r7, #4]
 2028 0026 FFF7FEFF 		bl	_ZdlPv
 2029              	.L20:
 2030              		.loc 1 12 0 discriminator 3
 2031 002a 7B68     		ldr	r3, [r7, #4]
 2032 002c 1846     		mov	r0, r3
 2033 002e 07F10807 		add	r7, r7, #8
 2034 0032 BD46     		mov	sp, r7
 2035 0034 80BD     		pop	{r7, pc}
 2036              	.L22:
 2037 0036 00BF     		.align	2
 2038              	.L21:
 2039 0038 08000000 		.word	_ZTV12InitialEvent+8
 2040              		.cfi_endproc
 2041              	.LFE724:
 2043              		.global	_ZN12InitialEventD1Ev
 2044              		.thumb_set _ZN12InitialEventD1Ev,_ZN12InitialEventD2Ev
 2045              		.section	.text._ZN12InitialEventD0Ev,"ax",%progbits
 2046              		.align	2
 2047              		.global	_ZN12InitialEventD0Ev
 2048              		.thumb
 2049              		.thumb_func
 2051              	_ZN12InitialEventD0Ev:
 2052              	.LFB726:
   9:../xf/initialevent.cpp **** InitialEvent::~InitialEvent()
 2053              		.loc 1 9 0 is_stmt 1
 2054              		.cfi_startproc
 2055              		@ args = 0, pretend = 0, frame = 8
 2056              		@ frame_needed = 1, uses_anonymous_args = 0
 2057 0000 80B5     		push	{r7, lr}
 2058              	.LCFI18:
 2059              		.cfi_def_cfa_offset 8
 2060 0002 82B0     		sub	sp, sp, #8
 2061              	.LCFI19:
 2062              		.cfi_def_cfa_offset 16
 2063 0004 00AF     		add	r7, sp, #0
 2064              		.cfi_offset 14, -4
 2065              		.cfi_offset 7, -8
 2066              	.LCFI20:
 2067              		.cfi_def_cfa_register 7
 2068 0006 7860     		str	r0, [r7, #4]
 2069              		.loc 1 12 0
 2070 0008 7868     		ldr	r0, [r7, #4]
 2071 000a FFF7FEFF 		bl	_ZN12InitialEventD1Ev
 2072 000e 7868     		ldr	r0, [r7, #4]
 2073 0010 FFF7FEFF 		bl	_ZdlPv
 2074 0014 7B68     		ldr	r3, [r7, #4]
 2075 0016 1846     		mov	r0, r3
 2076 0018 07F10807 		add	r7, r7, #8
 2077 001c BD46     		mov	sp, r7
 2078 001e 80BD     		pop	{r7, pc}
 2079              		.cfi_endproc
 2080              	.LFE726:
 2082              		.global	_ZTV12InitialEvent
 2083              		.section	.rodata._ZTV12InitialEvent,"a",%progbits
 2084              		.align	3
 2087              	_ZTV12InitialEvent:
 2088 0000 00000000 		.word	0
 2089 0004 00000000 		.word	0
 2090 0008 00000000 		.word	_ZN12InitialEventD1Ev
 2091 000c 00000000 		.word	_ZN12InitialEventD0Ev
 2092              		.weak	_ZTV8IXFEvent
 2093              		.section	.rodata._ZTV8IXFEvent,"aG",%progbits,_ZTV8IXFEvent,comdat
 2094              		.align	3
 2097              	_ZTV8IXFEvent:
 2098 0000 00000000 		.word	0
 2099 0004 00000000 		.word	0
 2100 0008 00000000 		.word	_ZN8IXFEventD1Ev
 2101 000c 00000000 		.word	_ZN8IXFEventD0Ev
 2102              		.text
 2103              	.Letext0: