   1              		.syntax unified
   2              		.cpu cortex-m3
   3              		.fpu softvfp
   4              		.eabi_attribute 20, 1
   5              		.eabi_attribute 21, 1
   6              		.eabi_attribute 23, 3
   7              		.eabi_attribute 24, 1
   8              		.eabi_attribute 25, 1
   9              		.eabi_attribute 26, 1
  10              		.eabi_attribute 30, 6
  11              		.eabi_attribute 18, 4
  12              		.thumb
  13              		.file	"xfreactive.cpp"
  23              	.Ltext0:
  24              		.file 1 "../xf/xfreactive.cpp"
 1945              		.align	2
 1946              		.weak	_ZNK8IXFEvent12getEventTypeEv
 1947              		.thumb
 1948              		.thumb_func
 1950              	_ZNK8IXFEvent12getEventTypeEv:
 1951              	.LFB7:
   1:../xf/ixfevent.h **** #ifndef IXFEVENT_H
   2:../xf/ixfevent.h **** #define IXFEVENT_H
   3:../xf/ixfevent.h **** 
   4:../xf/ixfevent.h **** 
   5:../xf/ixfevent.h **** class IXFReactive;
   6:../xf/ixfevent.h **** 
   7:../xf/ixfevent.h **** 
   8:../xf/ixfevent.h **** /**
   9:../xf/ixfevent.h ****  * @ingroup xf
  10:../xf/ixfevent.h ****  * Interface for an event. The abstract methods defined in this interface
  11:../xf/ixfevent.h ****  * need to be reimplemented in its derived classes. These methods are
  12:../xf/ixfevent.h ****  * used by other classes in the framework (ex. XFThread, XFReactive).
  13:../xf/ixfevent.h ****  *
  14:../xf/ixfevent.h ****  * Requirements:
  15:../xf/ixfevent.h ****  * - Needs to hold a property which allows to distinguish between different
  16:../xf/ixfevent.h ****  *   types of events.
  17:../xf/ixfevent.h ****  * - Use an enumeration to define the type for the type property.
  18:../xf/ixfevent.h ****  * - The type property needs to be set at initialization time and cannot be
  19:../xf/ixfevent.h ****  *   changed afterwards.
  20:../xf/ixfevent.h ****  */
  21:../xf/ixfevent.h **** class IXFEvent
  22:../xf/ixfevent.h **** {
  23:../xf/ixfevent.h **** public:
  24:../xf/ixfevent.h **** 	/**
  25:../xf/ixfevent.h **** 	 * Defines the types of events
  26:../xf/ixfevent.h **** 	 */
  27:../xf/ixfevent.h **** 	typedef enum
  28:../xf/ixfevent.h **** 	{
  29:../xf/ixfevent.h **** 		Unknown			= 0,		///< Unknown state (not initialized)
  30:../xf/ixfevent.h **** 		Initial			= 1,		///< Initial pseudo-state
  31:../xf/ixfevent.h **** 		NullTransition	= 2,		///< Event generated by the state machine to define a null transition
  32:../xf/ixfevent.h **** 		Event			= 3,		///< Normal event
  33:../xf/ixfevent.h **** 		Timeout			= 4,		///< Defines a timeout event.
  34:../xf/ixfevent.h **** 		Terminate		= -1		///< Defines a terminate state. Will end the state machine.
  35:../xf/ixfevent.h **** 	} eEventType;
  36:../xf/ixfevent.h **** 
  37:../xf/ixfevent.h **** public :
  38:../xf/ixfevent.h **** 	/**
  39:../xf/ixfevent.h **** 	 * Default class constructor
  40:../xf/ixfevent.h **** 	 */
  41:../xf/ixfevent.h **** 	IXFEvent(eEventType eventType, int id, IXFReactive * pBehavior) : _eventType(eventType), _id(id), 
  42:../xf/ixfevent.h **** 	virtual ~IXFEvent() {}		///< Class destructor
  43:../xf/ixfevent.h **** 
  44:../xf/ixfevent.h **** 	/** \brief Returns the type of the event.
  45:../xf/ixfevent.h **** 	 *
  46:../xf/ixfevent.h **** 	 * Can be used to distinguish between an event or a timeout.
  47:../xf/ixfevent.h **** 	 */
  48:../xf/ixfevent.h **** 	inline eEventType getEventType() const { return _eventType; }
 1952              		.loc 10 48 0
 1953              		.cfi_startproc
 1954              		@ args = 0, pretend = 0, frame = 8
 1955              		@ frame_needed = 1, uses_anonymous_args = 0
 1956              		@ link register save eliminated.
 1957 0000 80B4     		push	{r7}
 1958              	.LCFI0:
 1959              		.cfi_def_cfa_offset 4
 1960 0002 83B0     		sub	sp, sp, #12
 1961              	.LCFI1:
 1962              		.cfi_def_cfa_offset 16
 1963 0004 00AF     		add	r7, sp, #0
 1964              		.cfi_offset 7, -4
 1965              	.LCFI2:
 1966              		.cfi_def_cfa_register 7
 1967 0006 7860     		str	r0, [r7, #4]
 1968              		.loc 10 48 0
 1969 0008 7B68     		ldr	r3, [r7, #4]
 1970 000a 1B79     		ldrb	r3, [r3, #4]	@ zero_extendqisi2
 1971 000c 5BB2     		sxtb	r3, r3
 1972 000e 1846     		mov	r0, r3
 1973 0010 07F10C07 		add	r7, r7, #12
 1974 0014 BD46     		mov	sp, r7
 1975 0016 80BC     		pop	{r7}
 1976 0018 7047     		bx	lr
 1977              		.cfi_endproc
 1978              	.LFE7:
 1980 001a 00BF     		.section	.text._ZN8IXFEvent11setBehaviorEP11IXFReactive,"axG",%progbits,_ZN8IXFEvent11setBehaviorE
 1981              		.align	2
 1982              		.weak	_ZN8IXFEvent11setBehaviorEP11IXFReactive
 1983              		.thumb
 1984              		.thumb_func
 1986              	_ZN8IXFEvent11setBehaviorEP11IXFReactive:
 1987              	.LFB9:
  49:../xf/ixfevent.h **** 
  50:../xf/ixfevent.h **** 	/** \brief Returns pointer to behavioral class.
  51:../xf/ixfevent.h **** 	 *
  52:../xf/ixfevent.h **** 	 * Returns a pointer to the behavioral class processing the event (see #_pBehavior).
  53:../xf/ixfevent.h **** 	 */
  54:../xf/ixfevent.h **** 	inline IXFReactive * getBehavior() const { return _pBehavior; }
  55:../xf/ixfevent.h **** 
  56:../xf/ixfevent.h **** 	/** \brief Sets pointer to behavioral class (see #_pBehavior).
  57:../xf/ixfevent.h **** 	 * Sets the behavior in which the event should be executed.
  58:../xf/ixfevent.h **** 	 */
  59:../xf/ixfevent.h **** 	inline void setBehavior(IXFReactive * pBehavior) { _pBehavior = pBehavior; }
 1988              		.loc 10 59 0
 1989              		.cfi_startproc
 1990              		@ args = 0, pretend = 0, frame = 8
 1991              		@ frame_needed = 1, uses_anonymous_args = 0
 1992              		@ link register save eliminated.
 1993 0000 80B4     		push	{r7}
 1994              	.LCFI3:
 1995              		.cfi_def_cfa_offset 4
 1996 0002 83B0     		sub	sp, sp, #12
 1997              	.LCFI4:
 1998              		.cfi_def_cfa_offset 16
 1999 0004 00AF     		add	r7, sp, #0
 2000              		.cfi_offset 7, -4
 2001              	.LCFI5:
 2002              		.cfi_def_cfa_register 7
 2003 0006 7860     		str	r0, [r7, #4]
 2004 0008 3960     		str	r1, [r7, #0]
 2005              		.loc 10 59 0
 2006 000a 7B68     		ldr	r3, [r7, #4]
 2007 000c 3A68     		ldr	r2, [r7, #0]
 2008 000e 1A61     		str	r2, [r3, #16]
 2009 0010 07F10C07 		add	r7, r7, #12
 2010 0014 BD46     		mov	sp, r7
 2011 0016 80BC     		pop	{r7}
 2012 0018 7047     		bx	lr
 2013              		.cfi_endproc
 2014              	.LFE9:
 2016 001a 00BF     		.section	.text._ZN11EventStatusC2ENS_12eEventStatusE,"axG",%progbits,_ZN11EventStatusC5ENS_12eEven
 2017              		.align	2
 2018              		.weak	_ZN11EventStatusC2ENS_12eEventStatusE
 2019              		.thumb
 2020              		.thumb_func
 2022              	_ZN11EventStatusC2ENS_12eEventStatusE:
 2023              	.LFB721:
   1:../xf/xfeventstatus.h **** #ifndef XFEVENTSTATUS_H
   2:../xf/xfeventstatus.h **** #define XFEVENTSTATUS_H
   3:../xf/xfeventstatus.h **** 
   4:../xf/xfeventstatus.h **** 
   5:../xf/xfeventstatus.h **** /**
   6:../xf/xfeventstatus.h ****  * @ingroup xf
   7:../xf/xfeventstatus.h ****  * The EventStatus is used after consumption of an event. It gives an
   8:../xf/xfeventstatus.h ****  * information on how the event was consument and how the framework should
   9:../xf/xfeventstatus.h ****  * react.
  10:../xf/xfeventstatus.h ****  */
  11:../xf/xfeventstatus.h **** class EventStatus
  12:../xf/xfeventstatus.h **** {
  13:../xf/xfeventstatus.h **** public:
  14:../xf/xfeventstatus.h **** 	/**
  15:../xf/xfeventstatus.h **** 	 * Status values about the event processed.
  16:../xf/xfeventstatus.h **** 	 *
  17:../xf/xfeventstatus.h **** 	 * \see XFReactive::process
  18:../xf/xfeventstatus.h **** 	 */
  19:../xf/xfeventstatus.h **** 	typedef enum
  20:../xf/xfeventstatus.h **** 	{
  21:../xf/xfeventstatus.h **** 		Unknown			= 0,
  22:../xf/xfeventstatus.h **** 		Consumed		= 0x0001,
  23:../xf/xfeventstatus.h **** 		NotConsumed		= 0x0002,
  24:../xf/xfeventstatus.h **** 		Terminate		= 0x0004
  25:../xf/xfeventstatus.h **** 	} eEventStatus;
  26:../xf/xfeventstatus.h **** 
  27:../xf/xfeventstatus.h **** 	/**
  28:../xf/xfeventstatus.h **** 	 * Constructor
  29:../xf/xfeventstatus.h **** 	 *
  30:../xf/xfeventstatus.h **** 	 * \param eventStatus Initial value of the event status.
  31:../xf/xfeventstatus.h **** 	 */
  32:../xf/xfeventstatus.h **** 	EventStatus(eEventStatus eventStatus = Unknown) : _status(eventStatus) {}
 2024              		.loc 52 32 0
 2025              		.cfi_startproc
 2026              		@ args = 0, pretend = 0, frame = 8
 2027              		@ frame_needed = 1, uses_anonymous_args = 0
 2028              		@ link register save eliminated.
 2029 0000 80B4     		push	{r7}
 2030              	.LCFI6:
 2031              		.cfi_def_cfa_offset 4
 2032 0002 83B0     		sub	sp, sp, #12
 2033              	.LCFI7:
 2034              		.cfi_def_cfa_offset 16
 2035 0004 00AF     		add	r7, sp, #0
 2036              		.cfi_offset 7, -4
 2037              	.LCFI8:
 2038              		.cfi_def_cfa_register 7
 2039 0006 7860     		str	r0, [r7, #4]
 2040 0008 0B46     		mov	r3, r1
 2041 000a FB70     		strb	r3, [r7, #3]
 2042              	.LBB2:
 2043              		.loc 52 32 0
 2044 000c 7B68     		ldr	r3, [r7, #4]
 2045 000e FA78     		ldrb	r2, [r7, #3]
 2046 0010 1A70     		strb	r2, [r3, #0]
 2047              	.LBE2:
 2048 0012 7B68     		ldr	r3, [r7, #4]
 2049 0014 1846     		mov	r0, r3
 2050 0016 07F10C07 		add	r7, r7, #12
 2051 001a BD46     		mov	sp, r7
 2052 001c 80BC     		pop	{r7}
 2053 001e 7047     		bx	lr
 2054              		.cfi_endproc
 2055              	.LFE721:
 2057              		.weak	_ZN11EventStatusC1ENS_12eEventStatusE
 2058              		.thumb_set _ZN11EventStatusC1ENS_12eEventStatusE,_ZN11EventStatusC2ENS_12eEventStatusE
 2059              		.section	.text._ZN11IXFReactiveC2EP9IXFThread,"axG",%progbits,_ZN11IXFReactiveC5EP9IXFThread,comda
 2060              		.align	2
 2061              		.weak	_ZN11IXFReactiveC2EP9IXFThread
 2062              		.thumb
 2063              		.thumb_func
 2065              	_ZN11IXFReactiveC2EP9IXFThread:
 2066              	.LFB725:
   1:../xf/ixfreactive.h **** #ifndef IXFREACTIVE_H
   2:../xf/ixfreactive.h **** #define IXFREACTIVE_H
   3:../xf/ixfreactive.h **** 
   4:../xf/ixfreactive.h **** 
   5:../xf/ixfreactive.h **** #include "xf.h"
   6:../xf/ixfreactive.h **** #include "ixfevent.h"
   7:../xf/ixfreactive.h **** #include "xfeventstatus.h"
   8:../xf/ixfreactive.h **** 
   9:../xf/ixfreactive.h **** class IXFThread;
  10:../xf/ixfreactive.h **** 
  11:../xf/ixfreactive.h **** 
  12:../xf/ixfreactive.h **** /**
  13:../xf/ixfreactive.h ****  * @ingroup xf
  14:../xf/ixfreactive.h ****  * Interface that needs to be implemented by every class having a
  15:../xf/ixfreactive.h ****  * behavior. Interface methods are needed by the other parts of the XF.
  16:../xf/ixfreactive.h ****  */
  17:../xf/ixfreactive.h **** class IXFReactive
  18:../xf/ixfreactive.h **** {
  19:../xf/ixfreactive.h **** 
  20:../xf/ixfreactive.h **** public:
  21:../xf/ixfreactive.h **** 	/**
  22:../xf/ixfreactive.h **** 	 * Constructor
  23:../xf/ixfreactive.h **** 	 *
  24:../xf/ixfreactive.h **** 	 * \param pThread Reference to thread executing the behavior of this class.
  25:../xf/ixfreactive.h **** 	 */
  26:../xf/ixfreactive.h **** 	IXFReactive(IXFThread * pThread = NULL) {}
 2067              		.loc 51 26 0
 2068              		.cfi_startproc
 2069              		@ args = 0, pretend = 0, frame = 8
 2070              		@ frame_needed = 1, uses_anonymous_args = 0
 2071              		@ link register save eliminated.
 2072 0000 80B4     		push	{r7}
 2073              	.LCFI9:
 2074              		.cfi_def_cfa_offset 4
 2075 0002 83B0     		sub	sp, sp, #12
 2076              	.LCFI10:
 2077              		.cfi_def_cfa_offset 16
 2078 0004 00AF     		add	r7, sp, #0
 2079              		.cfi_offset 7, -4
 2080              	.LCFI11:
 2081              		.cfi_def_cfa_register 7
 2082 0006 7860     		str	r0, [r7, #4]
 2083 0008 3960     		str	r1, [r7, #0]
 2084              	.LBB3:
 2085              		.loc 51 26 0
 2086 000a 7B68     		ldr	r3, [r7, #4]
 2087 000c 044A     		ldr	r2, .L7
 2088 000e 1A60     		str	r2, [r3, #0]
 2089              	.LBE3:
 2090 0010 7B68     		ldr	r3, [r7, #4]
 2091 0012 1846     		mov	r0, r3
 2092 0014 07F10C07 		add	r7, r7, #12
 2093 0018 BD46     		mov	sp, r7
 2094 001a 80BC     		pop	{r7}
 2095 001c 7047     		bx	lr
 2096              	.L8:
 2097 001e 00BF     		.align	2
 2098              	.L7:
 2099 0020 08000000 		.word	_ZTV11IXFReactive+8
 2100              		.cfi_endproc
 2101              	.LFE725:
 2103              		.weak	_ZN11IXFReactiveC1EP9IXFThread
 2104              		.thumb_set _ZN11IXFReactiveC1EP9IXFThread,_ZN11IXFReactiveC2EP9IXFThread
 2105              		.section	.text._ZN11IXFReactiveD2Ev,"axG",%progbits,_ZN11IXFReactiveD5Ev,comdat
 2106              		.align	2
 2107              		.weak	_ZN11IXFReactiveD2Ev
 2108              		.thumb
 2109              		.thumb_func
 2111              	_ZN11IXFReactiveD2Ev:
 2112              	.LFB728:
  27:../xf/ixfreactive.h **** 	virtual ~IXFReactive() {}
 2113              		.loc 51 27 0
 2114              		.cfi_startproc
 2115              		@ args = 0, pretend = 0, frame = 8
 2116              		@ frame_needed = 1, uses_anonymous_args = 0
 2117 0000 80B5     		push	{r7, lr}
 2118              	.LCFI12:
 2119              		.cfi_def_cfa_offset 8
 2120 0002 82B0     		sub	sp, sp, #8
 2121              	.LCFI13:
 2122              		.cfi_def_cfa_offset 16
 2123 0004 00AF     		add	r7, sp, #0
 2124              		.cfi_offset 14, -4
 2125              		.cfi_offset 7, -8
 2126              	.LCFI14:
 2127              		.cfi_def_cfa_register 7
 2128 0006 7860     		str	r0, [r7, #4]
 2129              	.LBB4:
 2130              		.loc 51 27 0
 2131 0008 7B68     		ldr	r3, [r7, #4]
 2132 000a 094A     		ldr	r2, .L12
 2133 000c 1A60     		str	r2, [r3, #0]
 2134              	.LBE4:
 2135 000e 4FF00003 		mov	r3, #0
 2136 0012 03F00103 		and	r3, r3, #1
 2137 0016 DBB2     		uxtb	r3, r3
 2138 0018 002B     		cmp	r3, #0
 2139 001a 02D0     		beq	.L11
 2140              		.loc 51 27 0 is_stmt 0 discriminator 1
 2141 001c 7868     		ldr	r0, [r7, #4]
 2142 001e FFF7FEFF 		bl	_ZdlPv
 2143              	.L11:
 2144              		.loc 51 27 0 discriminator 2
 2145 0022 7B68     		ldr	r3, [r7, #4]
 2146 0024 1846     		mov	r0, r3
 2147 0026 07F10807 		add	r7, r7, #8
 2148 002a BD46     		mov	sp, r7
 2149 002c 80BD     		pop	{r7, pc}
 2150              	.L13:
 2151 002e 00BF     		.align	2
 2152              	.L12:
 2153 0030 08000000 		.word	_ZTV11IXFReactive+8
 2154              		.cfi_endproc
 2155              	.LFE728:
 2157              		.weak	_ZN11IXFReactiveD1Ev
 2158              		.thumb_set _ZN11IXFReactiveD1Ev,_ZN11IXFReactiveD2Ev
 2159              		.section	.text._ZN11IXFReactiveD0Ev,"axG",%progbits,_ZN11IXFReactiveD5Ev,comdat
 2160              		.align	2
 2161              		.weak	_ZN11IXFReactiveD0Ev
 2162              		.thumb
 2163              		.thumb_func
 2165              	_ZN11IXFReactiveD0Ev:
 2166              	.LFB730:
 2167              		.loc 51 27 0 is_stmt 1
 2168              		.cfi_startproc
 2169              		@ args = 0, pretend = 0, frame = 8
 2170              		@ frame_needed = 1, uses_anonymous_args = 0
 2171 0000 80B5     		push	{r7, lr}
 2172              	.LCFI15:
 2173              		.cfi_def_cfa_offset 8
 2174 0002 82B0     		sub	sp, sp, #8
 2175              	.LCFI16:
 2176              		.cfi_def_cfa_offset 16
 2177 0004 00AF     		add	r7, sp, #0
 2178              		.cfi_offset 14, -4
 2179              		.cfi_offset 7, -8
 2180              	.LCFI17:
 2181              		.cfi_def_cfa_register 7
 2182 0006 7860     		str	r0, [r7, #4]
 2183              		.loc 51 27 0
 2184 0008 7868     		ldr	r0, [r7, #4]
 2185 000a FFF7FEFF 		bl	_ZN11IXFReactiveD1Ev
 2186 000e 7868     		ldr	r0, [r7, #4]
 2187 0010 FFF7FEFF 		bl	_ZdlPv
 2188 0014 7B68     		ldr	r3, [r7, #4]
 2189 0016 1846     		mov	r0, r3
 2190 0018 07F10807 		add	r7, r7, #8
 2191 001c BD46     		mov	sp, r7
 2192 001e 80BD     		pop	{r7, pc}
 2193              		.cfi_endproc
 2194              	.LFE730:
 2196              		.section	.text._ZN10XFReactiveC2EP8XFThread,"ax",%progbits
 2197              		.align	2
 2198              		.global	_ZN10XFReactiveC2EP8XFThread
 2199              		.thumb
 2200              		.thumb_func
 2202              	_ZN10XFReactiveC2EP8XFThread:
 2203              	.LFB732:
   1:../xf/xfreactive.cpp **** #include <assert.h>
   2:../xf/xfreactive.cpp **** #include "xf.h"
   3:../xf/xfreactive.cpp **** #include "xfreactive.h"
   4:../xf/xfreactive.cpp **** #include "xftimeout.h"
   5:../xf/xfreactive.cpp **** #include "initialevent.h"
   6:../xf/xfreactive.cpp **** 
   7:../xf/xfreactive.cpp **** 
   8:../xf/xfreactive.cpp **** /**
   9:../xf/xfreactive.cpp ****  * Constructor
  10:../xf/xfreactive.cpp ****  *
  11:../xf/xfreactive.cpp ****  * \param pThread Reference to thread who will process the behavioral part of this reactive class.
  12:../xf/xfreactive.cpp ****  */
  13:../xf/xfreactive.cpp **** XFReactive::XFReactive(XFThread * pThread)
 2204              		.loc 1 13 0
 2205              		.cfi_startproc
 2206              		@ args = 0, pretend = 0, frame = 8
 2207              		@ frame_needed = 1, uses_anonymous_args = 0
 2208 0000 80B5     		push	{r7, lr}
 2209              	.LCFI18:
 2210              		.cfi_def_cfa_offset 8
 2211 0002 82B0     		sub	sp, sp, #8
 2212              	.LCFI19:
 2213              		.cfi_def_cfa_offset 16
 2214 0004 00AF     		add	r7, sp, #0
 2215              		.cfi_offset 14, -4
 2216              		.cfi_offset 7, -8
 2217              	.LCFI20:
 2218              		.cfi_def_cfa_register 7
 2219 0006 7860     		str	r0, [r7, #4]
 2220 0008 3960     		str	r1, [r7, #0]
 2221              	.LBB5:
  14:../xf/xfreactive.cpp **** 	: _pThread((pThread) ? pThread : XF::getMainThread())
 2222              		.loc 1 14 0
 2223 000a 7B68     		ldr	r3, [r7, #4]
 2224 000c 1846     		mov	r0, r3
 2225 000e 4FF00001 		mov	r1, #0
 2226 0012 FFF7FEFF 		bl	_ZN11IXFReactiveC2EP9IXFThread
 2227 0016 7B68     		ldr	r3, [r7, #4]
 2228 0018 084A     		ldr	r2, .L20
 2229 001a 1A60     		str	r2, [r3, #0]
 2230 001c 3B68     		ldr	r3, [r7, #0]
 2231 001e 002B     		cmp	r3, #0
 2232 0020 03D1     		bne	.L17
 2233              		.loc 1 14 0 is_stmt 0 discriminator 1
 2234 0022 FFF7FEFF 		bl	_ZN2XF13getMainThreadEv
 2235 0026 0346     		mov	r3, r0
 2236 0028 00E0     		b	.L18
 2237              	.L17:
 2238              		.loc 1 14 0 discriminator 2
 2239 002a 3B68     		ldr	r3, [r7, #0]
 2240              	.L18:
 2241              		.loc 1 14 0 discriminator 3
 2242 002c 7A68     		ldr	r2, [r7, #4]
 2243 002e 5360     		str	r3, [r2, #4]
 2244              	.LBE5:
  15:../xf/xfreactive.cpp **** {
  16:../xf/xfreactive.cpp **** }
 2245              		.loc 1 16 0 is_stmt 1 discriminator 3
 2246 0030 7B68     		ldr	r3, [r7, #4]
 2247 0032 1846     		mov	r0, r3
 2248 0034 07F10807 		add	r7, r7, #8
 2249 0038 BD46     		mov	sp, r7
 2250 003a 80BD     		pop	{r7, pc}
 2251              	.L21:
 2252              		.align	2
 2253              	.L20:
 2254 003c 08000000 		.word	_ZTV10XFReactive+8
 2255              		.cfi_endproc
 2256              	.LFE732:
 2258              		.global	_ZN10XFReactiveC1EP8XFThread
 2259              		.thumb_set _ZN10XFReactiveC1EP8XFThread,_ZN10XFReactiveC2EP8XFThread
 2260              		.section	.text._ZN10XFReactiveD2Ev,"ax",%progbits
 2261              		.align	2
 2262              		.global	_ZN10XFReactiveD2Ev
 2263              		.thumb
 2264              		.thumb_func
 2266              	_ZN10XFReactiveD2Ev:
 2267              	.LFB735:
  17:../xf/xfreactive.cpp **** 
  18:../xf/xfreactive.cpp **** XFReactive::~XFReactive()
 2268              		.loc 1 18 0
 2269              		.cfi_startproc
 2270              		@ args = 0, pretend = 0, frame = 8
 2271              		@ frame_needed = 1, uses_anonymous_args = 0
 2272 0000 80B5     		push	{r7, lr}
 2273              	.LCFI21:
 2274              		.cfi_def_cfa_offset 8
 2275 0002 82B0     		sub	sp, sp, #8
 2276              	.LCFI22:
 2277              		.cfi_def_cfa_offset 16
 2278 0004 00AF     		add	r7, sp, #0
 2279              		.cfi_offset 14, -4
 2280              		.cfi_offset 7, -8
 2281              	.LCFI23:
 2282              		.cfi_def_cfa_register 7
 2283 0006 7860     		str	r0, [r7, #4]
 2284              	.LBB6:
 2285              		.loc 1 18 0
 2286 0008 7B68     		ldr	r3, [r7, #4]
 2287 000a 0B4A     		ldr	r2, .L25
 2288 000c 1A60     		str	r2, [r3, #0]
 2289 000e 7B68     		ldr	r3, [r7, #4]
  19:../xf/xfreactive.cpp **** {
  20:../xf/xfreactive.cpp **** 
  21:../xf/xfreactive.cpp **** }
 2290              		.loc 1 21 0
 2291 0010 1846     		mov	r0, r3
 2292 0012 FFF7FEFF 		bl	_ZN11IXFReactiveD2Ev
 2293              	.LBE6:
 2294 0016 4FF00003 		mov	r3, #0
 2295 001a 03F00103 		and	r3, r3, #1
 2296 001e DBB2     		uxtb	r3, r3
 2297 0020 002B     		cmp	r3, #0
 2298 0022 02D0     		beq	.L24
 2299              		.loc 1 21 0 is_stmt 0 discriminator 2
 2300 0024 7868     		ldr	r0, [r7, #4]
 2301 0026 FFF7FEFF 		bl	_ZdlPv
 2302              	.L24:
 2303              		.loc 1 21 0 discriminator 3
 2304 002a 7B68     		ldr	r3, [r7, #4]
 2305 002c 1846     		mov	r0, r3
 2306 002e 07F10807 		add	r7, r7, #8
 2307 0032 BD46     		mov	sp, r7
 2308 0034 80BD     		pop	{r7, pc}
 2309              	.L26:
 2310 0036 00BF     		.align	2
 2311              	.L25:
 2312 0038 08000000 		.word	_ZTV10XFReactive+8
 2313              		.cfi_endproc
 2314              	.LFE735:
 2316              		.global	_ZN10XFReactiveD1Ev
 2317              		.thumb_set _ZN10XFReactiveD1Ev,_ZN10XFReactiveD2Ev
 2318              		.section	.text._ZN10XFReactiveD0Ev,"ax",%progbits
 2319              		.align	2
 2320              		.global	_ZN10XFReactiveD0Ev
 2321              		.thumb
 2322              		.thumb_func
 2324              	_ZN10XFReactiveD0Ev:
 2325              	.LFB737:
  18:../xf/xfreactive.cpp **** XFReactive::~XFReactive()
 2326              		.loc 1 18 0 is_stmt 1
 2327              		.cfi_startproc
 2328              		@ args = 0, pretend = 0, frame = 8
 2329              		@ frame_needed = 1, uses_anonymous_args = 0
 2330 0000 80B5     		push	{r7, lr}
 2331              	.LCFI24:
 2332              		.cfi_def_cfa_offset 8
 2333 0002 82B0     		sub	sp, sp, #8
 2334              	.LCFI25:
 2335              		.cfi_def_cfa_offset 16
 2336 0004 00AF     		add	r7, sp, #0
 2337              		.cfi_offset 14, -4
 2338              		.cfi_offset 7, -8
 2339              	.LCFI26:
 2340              		.cfi_def_cfa_register 7
 2341 0006 7860     		str	r0, [r7, #4]
 2342              		.loc 1 21 0
 2343 0008 7868     		ldr	r0, [r7, #4]
 2344 000a FFF7FEFF 		bl	_ZN10XFReactiveD1Ev
 2345 000e 7868     		ldr	r0, [r7, #4]
 2346 0010 FFF7FEFF 		bl	_ZdlPv
 2347 0014 7B68     		ldr	r3, [r7, #4]
 2348 0016 1846     		mov	r0, r3
 2349 0018 07F10807 		add	r7, r7, #8
 2350 001c BD46     		mov	sp, r7
 2351 001e 80BD     		pop	{r7, pc}
 2352              		.cfi_endproc
 2353              	.LFE737:
 2355              		.section	.text._ZN10XFReactive13startBehaviorEv,"ax",%progbits
 2356              		.align	2
 2357              		.global	_ZN10XFReactive13startBehaviorEv
 2358              		.thumb
 2359              		.thumb_func
 2361              	_ZN10XFReactive13startBehaviorEv:
 2362              	.LFB738:
  22:../xf/xfreactive.cpp **** 
  23:../xf/xfreactive.cpp **** void XFReactive::startBehavior()
  24:../xf/xfreactive.cpp **** {
 2363              		.loc 1 24 0
 2364              		.cfi_startproc
 2365              		@ args = 0, pretend = 0, frame = 8
 2366              		@ frame_needed = 1, uses_anonymous_args = 0
 2367 0000 B0B5     		push	{r4, r5, r7, lr}
 2368              	.LCFI27:
 2369              		.cfi_def_cfa_offset 16
 2370 0002 82B0     		sub	sp, sp, #8
 2371              	.LCFI28:
 2372              		.cfi_def_cfa_offset 24
 2373 0004 00AF     		add	r7, sp, #0
 2374              		.cfi_offset 14, -4
 2375              		.cfi_offset 7, -8
 2376              		.cfi_offset 5, -12
 2377              		.cfi_offset 4, -16
 2378              	.LCFI29:
 2379              		.cfi_def_cfa_register 7
 2380 0006 7860     		str	r0, [r7, #4]
  25:../xf/xfreactive.cpp **** 	GEN(InitialEvent());
 2381              		.loc 1 25 0
 2382 0008 7B68     		ldr	r3, [r7, #4]
 2383 000a 1B68     		ldr	r3, [r3, #0]
 2384 000c 03F10C03 		add	r3, r3, #12
 2385 0010 1D68     		ldr	r5, [r3, #0]
 2386 0012 4FF01400 		mov	r0, #20
 2387 0016 FFF7FEFF 		bl	_Znwj
 2388 001a 0446     		mov	r4, r0
 2389 001c 2346     		mov	r3, r4
 2390 001e 1846     		mov	r0, r3
 2391 0020 FFF7FEFF 		bl	_ZN12InitialEventC1Ev
 2392 0024 2346     		mov	r3, r4
 2393 0026 7868     		ldr	r0, [r7, #4]
 2394 0028 1946     		mov	r1, r3
 2395 002a A847     		blx	r5
  26:../xf/xfreactive.cpp **** }
 2396              		.loc 1 26 0
 2397 002c 07F10807 		add	r7, r7, #8
 2398 0030 BD46     		mov	sp, r7
 2399 0032 B0BD     		pop	{r4, r5, r7, pc}
 2400              		.cfi_endproc
 2401              	.LFE738:
 2403              		.section	.rodata
 2404              		.align	2
 2405              	.LC0:
 2406 0000 2E2E2F78 		.ascii	"../xf/xfreactive.cpp\000"
 2406      662F7866 
 2406      72656163 
 2406      74697665 
 2406      2E637070 
 2407 0015 000000   		.align	2
 2408              	.LC1:
 2409 0018 70457665 		.ascii	"pEvent\000"
 2409      6E7400
 2410              		.section	.text._ZN10XFReactive9pushEventEP8IXFEvent,"ax",%progbits
 2411              		.align	2
 2412              		.global	_ZN10XFReactive9pushEventEP8IXFEvent
 2413              		.thumb
 2414              		.thumb_func
 2416              	_ZN10XFReactive9pushEventEP8IXFEvent:
 2417              	.LFB739:
  27:../xf/xfreactive.cpp **** 
  28:../xf/xfreactive.cpp **** 
  29:../xf/xfreactive.cpp **** void XFReactive::pushEvent(IXFEvent * pEvent)
  30:../xf/xfreactive.cpp **** {
 2418              		.loc 1 30 0
 2419              		.cfi_startproc
 2420              		@ args = 0, pretend = 0, frame = 8
 2421              		@ frame_needed = 1, uses_anonymous_args = 0
 2422 0000 80B5     		push	{r7, lr}
 2423              	.LCFI30:
 2424              		.cfi_def_cfa_offset 8
 2425 0002 82B0     		sub	sp, sp, #8
 2426              	.LCFI31:
 2427              		.cfi_def_cfa_offset 16
 2428 0004 00AF     		add	r7, sp, #0
 2429              		.cfi_offset 14, -4
 2430              		.cfi_offset 7, -8
 2431              	.LCFI32:
 2432              		.cfi_def_cfa_register 7
 2433 0006 7860     		str	r0, [r7, #4]
 2434 0008 3960     		str	r1, [r7, #0]
 2435              	.LBB7:
  31:../xf/xfreactive.cpp **** 	assert(pEvent);
 2436              		.loc 1 31 0
 2437 000a 3B68     		ldr	r3, [r7, #0]
 2438 000c 002B     		cmp	r3, #0
 2439 000e 0FD1     		bne	.L31
 2440              		.loc 1 31 0 is_stmt 0 discriminator 1
 2441 0010 40F20000 		movw	r0, #:lower16:.LC0
 2442 0014 C0F20000 		movt	r0, #:upper16:.LC0
 2443 0018 4FF01F01 		mov	r1, #31
 2444 001c 40F20002 		movw	r2, #:lower16:_ZZN10XFReactive9pushEventEP8IXFEventE19__PRETTY_FUNCTION__
 2445 0020 C0F20002 		movt	r2, #:upper16:_ZZN10XFReactive9pushEventEP8IXFEventE19__PRETTY_FUNCTION__
 2446 0024 40F20003 		movw	r3, #:lower16:.LC1
 2447 0028 C0F20003 		movt	r3, #:upper16:.LC1
 2448 002c FFF7FEFF 		bl	__assert_func
 2449              	.L31:
  32:../xf/xfreactive.cpp **** 
  33:../xf/xfreactive.cpp **** 	// Set owner
  34:../xf/xfreactive.cpp **** 	pEvent->setBehavior(this);
 2450              		.loc 1 34 0 is_stmt 1
 2451 0030 7B68     		ldr	r3, [r7, #4]
 2452 0032 3868     		ldr	r0, [r7, #0]
 2453 0034 1946     		mov	r1, r3
 2454 0036 FFF7FEFF 		bl	_ZN8IXFEvent11setBehaviorEP11IXFReactive
  35:../xf/xfreactive.cpp **** 	// Push to threads event queue
  36:../xf/xfreactive.cpp **** 	getThread()->pushEvent(pEvent);
 2455              		.loc 1 36 0
 2456 003a 7B68     		ldr	r3, [r7, #4]
 2457 003c 1B68     		ldr	r3, [r3, #0]
 2458 003e 03F11803 		add	r3, r3, #24
 2459 0042 1B68     		ldr	r3, [r3, #0]
 2460 0044 7868     		ldr	r0, [r7, #4]
 2461 0046 9847     		blx	r3
 2462 0048 0346     		mov	r3, r0
 2463 004a 1846     		mov	r0, r3
 2464 004c 3968     		ldr	r1, [r7, #0]
 2465 004e FFF7FEFF 		bl	_ZN8XFThread9pushEventEP8IXFEvent
 2466              	.LBE7:
  37:../xf/xfreactive.cpp **** }
 2467              		.loc 1 37 0
 2468 0052 07F10807 		add	r7, r7, #8
 2469 0056 BD46     		mov	sp, r7
 2470 0058 80BD     		pop	{r7, pc}
 2471              		.cfi_endproc
 2472              	.LFE739:
 2474 005a 00BF     		.section	.text._ZN10XFReactive7processEP8IXFEvent,"ax",%progbits
 2475              		.align	2
 2476              		.global	_ZN10XFReactive7processEP8IXFEvent
 2477              		.thumb
 2478              		.thumb_func
 2480              	_ZN10XFReactive7processEP8IXFEvent:
 2481              	.LFB740:
  38:../xf/xfreactive.cpp **** 
  39:../xf/xfreactive.cpp **** /**
  40:../xf/xfreactive.cpp ****  * \brief Processes the given event.
  41:../xf/xfreactive.cpp ****  *
  42:../xf/xfreactive.cpp ****  * This may change the state of the class
  43:../xf/xfreactive.cpp ****  * according to its implemented behavior.
  44:../xf/xfreactive.cpp ****  *
  45:../xf/xfreactive.cpp ****  * Must only be called by the associated thread (see #_pThread).
  46:../xf/xfreactive.cpp ****  *
  47:../xf/xfreactive.cpp ****  * \param pEvent The event to process.
  48:../xf/xfreactive.cpp ****  */
  49:../xf/xfreactive.cpp **** EventStatus XFReactive::process(IXFEvent * pEvent)
  50:../xf/xfreactive.cpp **** {
 2482              		.loc 1 50 0
 2483              		.cfi_startproc
 2484              		@ args = 0, pretend = 0, frame = 16
 2485              		@ frame_needed = 1, uses_anonymous_args = 0
 2486 0000 80B5     		push	{r7, lr}
 2487              	.LCFI33:
 2488              		.cfi_def_cfa_offset 8
 2489 0002 84B0     		sub	sp, sp, #16
 2490              	.LCFI34:
 2491              		.cfi_def_cfa_offset 24
 2492 0004 00AF     		add	r7, sp, #0
 2493              		.cfi_offset 14, -4
 2494              		.cfi_offset 7, -8
 2495              	.LCFI35:
 2496              		.cfi_def_cfa_register 7
 2497 0006 7860     		str	r0, [r7, #4]
 2498 0008 3960     		str	r1, [r7, #0]
 2499              	.LBB8:
  51:../xf/xfreactive.cpp **** 	EventStatus eventStatus;
 2500              		.loc 1 51 0
 2501 000a 07F10C03 		add	r3, r7, #12
 2502 000e 1846     		mov	r0, r3
 2503 0010 4FF00001 		mov	r1, #0
 2504 0014 FFF7FEFF 		bl	_ZN11EventStatusC1ENS_12eEventStatusE
  52:../xf/xfreactive.cpp **** 
  53:../xf/xfreactive.cpp **** 	assert(pEvent);
 2505              		.loc 1 53 0
 2506 0018 3B68     		ldr	r3, [r7, #0]
 2507 001a 002B     		cmp	r3, #0
 2508 001c 0FD1     		bne	.L33
 2509              		.loc 1 53 0 is_stmt 0 discriminator 1
 2510 001e 40F20000 		movw	r0, #:lower16:.LC0
 2511 0022 C0F20000 		movt	r0, #:upper16:.LC0
 2512 0026 4FF03501 		mov	r1, #53
 2513 002a 40F20002 		movw	r2, #:lower16:_ZZN10XFReactive7processEP8IXFEventE19__PRETTY_FUNCTION__
 2514 002e C0F20002 		movt	r2, #:upper16:_ZZN10XFReactive7processEP8IXFEventE19__PRETTY_FUNCTION__
 2515 0032 40F20003 		movw	r3, #:lower16:.LC1
 2516 0036 C0F20003 		movt	r3, #:upper16:.LC1
 2517 003a FFF7FEFF 		bl	__assert_func
 2518              	.L33:
  54:../xf/xfreactive.cpp **** 
  55:../xf/xfreactive.cpp **** 	setCurrentEvent(pEvent);
 2519              		.loc 1 55 0 is_stmt 1
 2520 003e 7868     		ldr	r0, [r7, #4]
 2521 0040 3968     		ldr	r1, [r7, #0]
 2522 0042 FFF7FEFF 		bl	_ZN10XFReactive15setCurrentEventEP8IXFEvent
  56:../xf/xfreactive.cpp **** 
  57:../xf/xfreactive.cpp **** 	eventStatus = processEvent();
 2523              		.loc 1 57 0
 2524 0046 7B68     		ldr	r3, [r7, #4]
 2525 0048 1B68     		ldr	r3, [r3, #0]
 2526 004a 03F11403 		add	r3, r3, #20
 2527 004e 1B68     		ldr	r3, [r3, #0]
 2528 0050 7868     		ldr	r0, [r7, #4]
 2529 0052 9847     		blx	r3
 2530 0054 0346     		mov	r3, r0
 2531 0056 3B73     		strb	r3, [r7, #12]
  58:../xf/xfreactive.cpp **** 
  59:../xf/xfreactive.cpp **** 	setCurrentEvent(NULL);
 2532              		.loc 1 59 0
 2533 0058 7868     		ldr	r0, [r7, #4]
 2534 005a 4FF00001 		mov	r1, #0
 2535 005e FFF7FEFF 		bl	_ZN10XFReactive15setCurrentEventEP8IXFEvent
  60:../xf/xfreactive.cpp **** 
  61:../xf/xfreactive.cpp **** 	return eventStatus;
 2536              		.loc 1 61 0
 2537 0062 3B7B     		ldrb	r3, [r7, #12]
 2538              	.LBE8:
  62:../xf/xfreactive.cpp **** }
 2539              		.loc 1 62 0
 2540 0064 1846     		mov	r0, r3
 2541 0066 07F11007 		add	r7, r7, #16
 2542 006a BD46     		mov	sp, r7
 2543 006c 80BD     		pop	{r7, pc}
 2544              		.cfi_endproc
 2545              	.LFE740:
 2547 006e 00BF     		.section	.text._ZN10XFReactive12processEventEv,"ax",%progbits
 2548              		.align	2
 2549              		.global	_ZN10XFReactive12processEventEv
 2550              		.thumb
 2551              		.thumb_func
 2553              	_ZN10XFReactive12processEventEv:
 2554              	.LFB741:
  63:../xf/xfreactive.cpp **** 
  64:../xf/xfreactive.cpp **** /**
  65:../xf/xfreactive.cpp ****  * Executes the current event in its implemented behavior.
  66:../xf/xfreactive.cpp ****  * This method needs to be overridden to implement the behavior needed.
  67:../xf/xfreactive.cpp ****  */
  68:../xf/xfreactive.cpp **** EventStatus XFReactive::processEvent()
  69:../xf/xfreactive.cpp **** {
 2555              		.loc 1 69 0
 2556              		.cfi_startproc
 2557              		@ args = 0, pretend = 0, frame = 16
 2558              		@ frame_needed = 1, uses_anonymous_args = 0
 2559 0000 80B5     		push	{r7, lr}
 2560              	.LCFI36:
 2561              		.cfi_def_cfa_offset 8
 2562 0002 84B0     		sub	sp, sp, #16
 2563              	.LCFI37:
 2564              		.cfi_def_cfa_offset 24
 2565 0004 00AF     		add	r7, sp, #0
 2566              		.cfi_offset 14, -4
 2567              		.cfi_offset 7, -8
 2568              	.LCFI38:
 2569              		.cfi_def_cfa_register 7
 2570 0006 7860     		str	r0, [r7, #4]
  70:../xf/xfreactive.cpp **** 	// You should really implement this function in
  71:../xf/xfreactive.cpp **** 	// the derived class!
  72:../xf/xfreactive.cpp **** 
  73:../xf/xfreactive.cpp **** 	return EventStatus::Unknown;
 2571              		.loc 1 73 0
 2572 0008 07F10C03 		add	r3, r7, #12
 2573 000c 1846     		mov	r0, r3
 2574 000e 4FF00001 		mov	r1, #0
 2575 0012 FFF7FEFF 		bl	_ZN11EventStatusC1ENS_12eEventStatusE
 2576 0016 3B7B     		ldrb	r3, [r7, #12]
  74:../xf/xfreactive.cpp **** }
 2577              		.loc 1 74 0
 2578 0018 1846     		mov	r0, r3
 2579 001a 07F11007 		add	r7, r7, #16
 2580 001e BD46     		mov	sp, r7
 2581 0020 80BD     		pop	{r7, pc}
 2582              		.cfi_endproc
 2583              	.LFE741:
 2585 0022 00BF     		.section	.text._ZN10XFReactive9getThreadEv,"ax",%progbits
 2586              		.align	2
 2587              		.global	_ZN10XFReactive9getThreadEv
 2588              		.thumb
 2589              		.thumb_func
 2591              	_ZN10XFReactive9getThreadEv:
 2592              	.LFB742:
  75:../xf/xfreactive.cpp **** 
  76:../xf/xfreactive.cpp **** 
  77:../xf/xfreactive.cpp **** XFThread * XFReactive::getThread()
  78:../xf/xfreactive.cpp **** {
 2593              		.loc 1 78 0
 2594              		.cfi_startproc
 2595              		@ args = 0, pretend = 0, frame = 8
 2596              		@ frame_needed = 1, uses_anonymous_args = 0
 2597              		@ link register save eliminated.
 2598 0000 80B4     		push	{r7}
 2599              	.LCFI39:
 2600              		.cfi_def_cfa_offset 4
 2601 0002 83B0     		sub	sp, sp, #12
 2602              	.LCFI40:
 2603              		.cfi_def_cfa_offset 16
 2604 0004 00AF     		add	r7, sp, #0
 2605              		.cfi_offset 7, -4
 2606              	.LCFI41:
 2607              		.cfi_def_cfa_register 7
 2608 0006 7860     		str	r0, [r7, #4]
  79:../xf/xfreactive.cpp **** 	return _pThread;
 2609              		.loc 1 79 0
 2610 0008 7B68     		ldr	r3, [r7, #4]
 2611 000a 5B68     		ldr	r3, [r3, #4]
  80:../xf/xfreactive.cpp **** }
 2612              		.loc 1 80 0
 2613 000c 1846     		mov	r0, r3
 2614 000e 07F10C07 		add	r7, r7, #12
 2615 0012 BD46     		mov	sp, r7
 2616 0014 80BC     		pop	{r7}
 2617 0016 7047     		bx	lr
 2618              		.cfi_endproc
 2619              	.LFE742:
 2621              		.section	.text._ZN10XFReactive15setCurrentEventEP8IXFEvent,"ax",%progbits
 2622              		.align	2
 2623              		.global	_ZN10XFReactive15setCurrentEventEP8IXFEvent
 2624              		.thumb
 2625              		.thumb_func
 2627              	_ZN10XFReactive15setCurrentEventEP8IXFEvent:
 2628              	.LFB743:
  81:../xf/xfreactive.cpp **** 
  82:../xf/xfreactive.cpp **** void XFReactive::setCurrentEvent(IXFEvent * pEvent)
  83:../xf/xfreactive.cpp **** {
 2629              		.loc 1 83 0
 2630              		.cfi_startproc
 2631              		@ args = 0, pretend = 0, frame = 8
 2632              		@ frame_needed = 1, uses_anonymous_args = 0
 2633              		@ link register save eliminated.
 2634 0000 80B4     		push	{r7}
 2635              	.LCFI42:
 2636              		.cfi_def_cfa_offset 4
 2637 0002 83B0     		sub	sp, sp, #12
 2638              	.LCFI43:
 2639              		.cfi_def_cfa_offset 16
 2640 0004 00AF     		add	r7, sp, #0
 2641              		.cfi_offset 7, -4
 2642              	.LCFI44:
 2643              		.cfi_def_cfa_register 7
 2644 0006 7860     		str	r0, [r7, #4]
 2645 0008 3960     		str	r1, [r7, #0]
  84:../xf/xfreactive.cpp **** 	_pCurrentEvent = pEvent;
 2646              		.loc 1 84 0
 2647 000a 7B68     		ldr	r3, [r7, #4]
 2648 000c 3A68     		ldr	r2, [r7, #0]
 2649 000e 9A60     		str	r2, [r3, #8]
  85:../xf/xfreactive.cpp **** }
 2650              		.loc 1 85 0
 2651 0010 07F10C07 		add	r7, r7, #12
 2652 0014 BD46     		mov	sp, r7
 2653 0016 80BC     		pop	{r7}
 2654 0018 7047     		bx	lr
 2655              		.cfi_endproc
 2656              	.LFE743:
 2658 001a 00BF     		.section	.rodata
 2659 001f 00       		.align	2
 2660              	.LC2:
 2661 0020 5F704375 		.ascii	"_pCurrentEvent\000"
 2661      7272656E 
 2661      74457665 
 2661      6E7400
 2662              		.section	.text._ZNK10XFReactive15getCurrentEventEv,"ax",%progbits
 2663              		.align	2
 2664              		.global	_ZNK10XFReactive15getCurrentEventEv
 2665              		.thumb
 2666              		.thumb_func
 2668              	_ZNK10XFReactive15getCurrentEventEv:
 2669              	.LFB744:
  86:../xf/xfreactive.cpp **** 
  87:../xf/xfreactive.cpp **** IXFEvent * XFReactive::getCurrentEvent() const
  88:../xf/xfreactive.cpp **** {
 2670              		.loc 1 88 0
 2671              		.cfi_startproc
 2672              		@ args = 0, pretend = 0, frame = 8
 2673              		@ frame_needed = 1, uses_anonymous_args = 0
 2674 0000 80B5     		push	{r7, lr}
 2675              	.LCFI45:
 2676              		.cfi_def_cfa_offset 8
 2677 0002 82B0     		sub	sp, sp, #8
 2678              	.LCFI46:
 2679              		.cfi_def_cfa_offset 16
 2680 0004 00AF     		add	r7, sp, #0
 2681              		.cfi_offset 14, -4
 2682              		.cfi_offset 7, -8
 2683              	.LCFI47:
 2684              		.cfi_def_cfa_register 7
 2685 0006 7860     		str	r0, [r7, #4]
 2686              	.LBB9:
  89:../xf/xfreactive.cpp **** 	assert(_pCurrentEvent);
 2687              		.loc 1 89 0
 2688 0008 7B68     		ldr	r3, [r7, #4]
 2689 000a 9B68     		ldr	r3, [r3, #8]
 2690 000c 002B     		cmp	r3, #0
 2691 000e 0FD1     		bne	.L38
 2692              		.loc 1 89 0 is_stmt 0 discriminator 1
 2693 0010 40F20000 		movw	r0, #:lower16:.LC0
 2694 0014 C0F20000 		movt	r0, #:upper16:.LC0
 2695 0018 4FF05901 		mov	r1, #89
 2696 001c 40F20002 		movw	r2, #:lower16:_ZZNK10XFReactive15getCurrentEventEvE19__PRETTY_FUNCTION__
 2697 0020 C0F20002 		movt	r2, #:upper16:_ZZNK10XFReactive15getCurrentEventEvE19__PRETTY_FUNCTION__
 2698 0024 40F20003 		movw	r3, #:lower16:.LC2
 2699 0028 C0F20003 		movt	r3, #:upper16:.LC2
 2700 002c FFF7FEFF 		bl	__assert_func
 2701              	.L38:
  90:../xf/xfreactive.cpp **** 	return _pCurrentEvent;
 2702              		.loc 1 90 0 is_stmt 1
 2703 0030 7B68     		ldr	r3, [r7, #4]
 2704 0032 9B68     		ldr	r3, [r3, #8]
 2705              	.LBE9:
  91:../xf/xfreactive.cpp **** }
 2706              		.loc 1 91 0
 2707 0034 1846     		mov	r0, r3
 2708 0036 07F10807 		add	r7, r7, #8
 2709 003a BD46     		mov	sp, r7
 2710 003c 80BD     		pop	{r7, pc}
 2711              		.cfi_endproc
 2712              	.LFE744:
 2714 003e 00BF     		.section	.rodata
 2715 002f 00       		.align	2
 2716              	.LC3:
 2717 0030 67657443 		.ascii	"getCurrentEvent()->getEventType() == IXFEvent::Time"
 2717      75727265 
 2717      6E744576 
 2717      656E7428 
 2717      292D3E67 
 2718 0063 6F757400 		.ascii	"out\000"
 2719 0067 00       		.section	.text._ZN10XFReactive17getCurrentTimeoutEv,"ax",%progbits
 2720              		.align	2
 2721              		.global	_ZN10XFReactive17getCurrentTimeoutEv
 2722              		.thumb
 2723              		.thumb_func
 2725              	_ZN10XFReactive17getCurrentTimeoutEv:
 2726              	.LFB745:
  92:../xf/xfreactive.cpp **** 
  93:../xf/xfreactive.cpp **** /** \brief Returns a reference to the actually processed timeout.
  94:../xf/xfreactive.cpp ****  *
  95:../xf/xfreactive.cpp ****  * Will work only if the current event is of type IXFEvent::Timeout.
  96:../xf/xfreactive.cpp ****  */
  97:../xf/xfreactive.cpp **** XFTimeout * XFReactive::getCurrentTimeout()
  98:../xf/xfreactive.cpp **** {
 2727              		.loc 1 98 0
 2728              		.cfi_startproc
 2729              		@ args = 0, pretend = 0, frame = 8
 2730              		@ frame_needed = 1, uses_anonymous_args = 0
 2731 0000 80B5     		push	{r7, lr}
 2732              	.LCFI48:
 2733              		.cfi_def_cfa_offset 8
 2734 0002 82B0     		sub	sp, sp, #8
 2735              	.LCFI49:
 2736              		.cfi_def_cfa_offset 16
 2737 0004 00AF     		add	r7, sp, #0
 2738              		.cfi_offset 14, -4
 2739              		.cfi_offset 7, -8
 2740              	.LCFI50:
 2741              		.cfi_def_cfa_register 7
 2742 0006 7860     		str	r0, [r7, #4]
 2743              	.LBB10:
  99:../xf/xfreactive.cpp **** 	assert(getCurrentEvent()->getEventType() == IXFEvent::Timeout);
 2744              		.loc 1 99 0
 2745 0008 7868     		ldr	r0, [r7, #4]
 2746 000a FFF7FEFF 		bl	_ZNK10XFReactive15getCurrentEventEv
 2747 000e 0346     		mov	r3, r0
 2748 0010 1846     		mov	r0, r3
 2749 0012 FFF7FEFF 		bl	_ZNK8IXFEvent12getEventTypeEv
 2750 0016 0346     		mov	r3, r0
 2751 0018 042B     		cmp	r3, #4
 2752 001a 0FD0     		beq	.L40
 2753              		.loc 1 99 0 is_stmt 0 discriminator 1
 2754 001c 40F20000 		movw	r0, #:lower16:.LC0
 2755 0020 C0F20000 		movt	r0, #:upper16:.LC0
 2756 0024 4FF06301 		mov	r1, #99
 2757 0028 40F20002 		movw	r2, #:lower16:_ZZN10XFReactive17getCurrentTimeoutEvE19__PRETTY_FUNCTION__
 2758 002c C0F20002 		movt	r2, #:upper16:_ZZN10XFReactive17getCurrentTimeoutEvE19__PRETTY_FUNCTION__
 2759 0030 40F20003 		movw	r3, #:lower16:.LC3
 2760 0034 C0F20003 		movt	r3, #:upper16:.LC3
 2761 0038 FFF7FEFF 		bl	__assert_func
 2762              	.L40:
 100:../xf/xfreactive.cpp **** 
 101:../xf/xfreactive.cpp **** 	return (XFTimeout *)getCurrentEvent();
 2763              		.loc 1 101 0 is_stmt 1
 2764 003c 7868     		ldr	r0, [r7, #4]
 2765 003e FFF7FEFF 		bl	_ZNK10XFReactive15getCurrentEventEv
 2766 0042 0346     		mov	r3, r0
 2767              	.LBE10:
 102:../xf/xfreactive.cpp **** }
 2768              		.loc 1 102 0
 2769 0044 1846     		mov	r0, r3
 2770 0046 07F10807 		add	r7, r7, #8
 2771 004a BD46     		mov	sp, r7
 2772 004c 80BD     		pop	{r7, pc}
 2773              		.cfi_endproc
 2774              	.LFE745:
 2776              		.global	_ZTV10XFReactive
 2777 004e 00BF     		.section	.rodata._ZTV10XFReactive,"a",%progbits
 2778              		.align	3
 2781              	_ZTV10XFReactive:
 2782 0000 00000000 		.word	0
 2783 0004 00000000 		.word	0
 2784 0008 00000000 		.word	_ZN10XFReactiveD1Ev
 2785 000c 00000000 		.word	_ZN10XFReactiveD0Ev
 2786 0010 00000000 		.word	_ZN10XFReactive13startBehaviorEv
 2787 0014 00000000 		.word	_ZN10XFReactive9pushEventEP8IXFEvent
 2788 0018 00000000 		.word	_ZN10XFReactive7processEP8IXFEvent
 2789 001c 00000000 		.word	_ZN10XFReactive12processEventEv
 2790 0020 00000000 		.word	_ZN10XFReactive9getThreadEv
 2791              		.weak	_ZTV11IXFReactive
 2792 0024 00000000 		.section	.rodata._ZTV11IXFReactive,"aG",%progbits,_ZTV11IXFReactive,comdat
 2793              		.align	3
 2796              	_ZTV11IXFReactive:
 2797 0000 00000000 		.word	0
 2798 0004 00000000 		.word	0
 2799 0008 00000000 		.word	_ZN11IXFReactiveD1Ev
 2800 000c 00000000 		.word	_ZN11IXFReactiveD0Ev
 2801 0010 00000000 		.word	__cxa_pure_virtual
 2802 0014 00000000 		.word	__cxa_pure_virtual
 2803 0018 00000000 		.word	__cxa_pure_virtual
 2804 001c 00000000 		.section	.rodata._ZZN10XFReactive17getCurrentTimeoutEvE19__PRETTY_FUNCTION__,"a",%progbits
 2805              		.align	2
 2808              	_ZZN10XFReactive17getCurrentTimeoutEvE19__PRETTY_FUNCTION__:
 2809 0000 58465469 		.ascii	"XFTimeout* XFReactive::getCurrentTimeout()\000"
 2809      6D656F75 
 2809      742A2058 
 2809      46526561 
 2809      63746976 
 2810 002b 00       		.section	.rodata._ZZNK10XFReactive15getCurrentEventEvE19__PRETTY_FUNCTION__,"a",%progbits
 2811              		.align	2
 2814              	_ZZNK10XFReactive15getCurrentEventEvE19__PRETTY_FUNCTION__:
 2815 0000 49584645 		.ascii	"IXFEvent* XFReactive::getCurrentEvent() const\000"
 2815      76656E74 
 2815      2A205846 
 2815      52656163 
 2815      74697665 
 2816 002e 0000     		.section	.rodata._ZZN10XFReactive7processEP8IXFEventE19__PRETTY_FUNCTION__,"a",%progbits
 2817              		.align	2
 2820              	_ZZN10XFReactive7processEP8IXFEventE19__PRETTY_FUNCTION__:
 2821 0000 76697274 		.ascii	"virtual EventStatus XFReactive::process(IXFEvent*)\000"
 2821      75616C20 
 2821      4576656E 
 2821      74537461 
 2821      74757320 
 2822 0033 00       		.section	.rodata._ZZN10XFReactive9pushEventEP8IXFEventE19__PRETTY_FUNCTION__,"a",%progbits
 2823              		.align	2
 2826              	_ZZN10XFReactive9pushEventEP8IXFEventE19__PRETTY_FUNCTION__:
 2827 0000 76697274 		.ascii	"virtual void XFReactive::pushEvent(IXFEvent*)\000"
 2827      75616C20 
 2827      766F6964 
 2827      20584652 
 2827      65616374 
 2828 002e 0000     		.text
 2829              	.Letext0: