   1              		.syntax unified
   2              		.cpu cortex-m3
   3              		.fpu softvfp
   4              		.eabi_attribute 20, 1
   5              		.eabi_attribute 21, 1
   6              		.eabi_attribute 23, 3
   7              		.eabi_attribute 24, 1
   8              		.eabi_attribute 25, 1
   9              		.eabi_attribute 26, 1
  10              		.eabi_attribute 30, 6
  11              		.eabi_attribute 18, 4
  12              		.thumb
  13              		.file	"xfstaticevent.cpp"
  23              	.Ltext0:
  24              		.file 1 "../xf/xfstaticevent.cpp"
 1735              		.align	2
 1736              		.weak	_ZN8IXFEventC2ENS_10eEventTypeEiP11IXFReactive
 1737              		.thumb
 1738              		.thumb_func
 1740              	_ZN8IXFEventC2ENS_10eEventTypeEiP11IXFReactive:
 1741              	.LFB1:
   1:../xf/ixfevent.h **** #ifndef IXFEVENT_H
   2:../xf/ixfevent.h **** #define IXFEVENT_H
   3:../xf/ixfevent.h **** 
   4:../xf/ixfevent.h **** 
   5:../xf/ixfevent.h **** class IXFReactive;
   6:../xf/ixfevent.h **** 
   7:../xf/ixfevent.h **** 
   8:../xf/ixfevent.h **** /**
   9:../xf/ixfevent.h ****  * @ingroup xf
  10:../xf/ixfevent.h ****  * Interface for an event. The abstract methods defined in this interface
  11:../xf/ixfevent.h ****  * need to be reimplemented in its derived classes. These methods are
  12:../xf/ixfevent.h ****  * used by other classes in the framework (ex. XFThread, XFReactive).
  13:../xf/ixfevent.h ****  *
  14:../xf/ixfevent.h ****  * Requirements:
  15:../xf/ixfevent.h ****  * - Needs to hold a property which allows to distinguish between different
  16:../xf/ixfevent.h ****  *   types of events.
  17:../xf/ixfevent.h ****  * - Use an enumeration to define the type for the type property.
  18:../xf/ixfevent.h ****  * - The type property needs to be set at initialization time and cannot be
  19:../xf/ixfevent.h ****  *   changed afterwards.
  20:../xf/ixfevent.h ****  */
  21:../xf/ixfevent.h **** class IXFEvent
  22:../xf/ixfevent.h **** {
  23:../xf/ixfevent.h **** public:
  24:../xf/ixfevent.h **** 	/**
  25:../xf/ixfevent.h **** 	 * Defines the types of events
  26:../xf/ixfevent.h **** 	 */
  27:../xf/ixfevent.h **** 	typedef enum
  28:../xf/ixfevent.h **** 	{
  29:../xf/ixfevent.h **** 		Unknown			= 0,		///< Unknown state (not initialized)
  30:../xf/ixfevent.h **** 		Initial			= 1,		///< Initial pseudo-state
  31:../xf/ixfevent.h **** 		NullTransition	= 2,		///< Event generated by the state machine to define a null transition
  32:../xf/ixfevent.h **** 		Event			= 3,		///< Normal event
  33:../xf/ixfevent.h **** 		Timeout			= 4,		///< Defines a timeout event.
  34:../xf/ixfevent.h **** 		Terminate		= -1		///< Defines a terminate state. Will end the state machine.
  35:../xf/ixfevent.h **** 	} eEventType;
  36:../xf/ixfevent.h **** 
  37:../xf/ixfevent.h **** public :
  38:../xf/ixfevent.h **** 	/**
  39:../xf/ixfevent.h **** 	 * Default class constructor
  40:../xf/ixfevent.h **** 	 */
  41:../xf/ixfevent.h **** 	IXFEvent(eEventType eventType, int id, IXFReactive * pBehavior) : _eventType(eventType), _id(id), 
 1742              		.loc 5 41 0
 1743              		.cfi_startproc
 1744              		@ args = 0, pretend = 0, frame = 16
 1745              		@ frame_needed = 1, uses_anonymous_args = 0
 1746 0000 80B5     		push	{r7, lr}
 1747              	.LCFI0:
 1748              		.cfi_def_cfa_offset 8
 1749 0002 84B0     		sub	sp, sp, #16
 1750              	.LCFI1:
 1751              		.cfi_def_cfa_offset 24
 1752 0004 00AF     		add	r7, sp, #0
 1753              		.cfi_offset 14, -4
 1754              		.cfi_offset 7, -8
 1755              	.LCFI2:
 1756              		.cfi_def_cfa_register 7
 1757 0006 F860     		str	r0, [r7, #12]
 1758 0008 7A60     		str	r2, [r7, #4]
 1759 000a 3B60     		str	r3, [r7, #0]
 1760 000c 0B46     		mov	r3, r1
 1761 000e FB72     		strb	r3, [r7, #11]
 1762              	.LBB2:
 1763              		.loc 5 41 0
 1764 0010 FB68     		ldr	r3, [r7, #12]
 1765 0012 0E4A     		ldr	r2, .L3
 1766 0014 1A60     		str	r2, [r3, #0]
 1767 0016 FB68     		ldr	r3, [r7, #12]
 1768 0018 FA7A     		ldrb	r2, [r7, #11]
 1769 001a 1A71     		strb	r2, [r3, #4]
 1770 001c FB68     		ldr	r3, [r7, #12]
 1771 001e 7A68     		ldr	r2, [r7, #4]
 1772 0020 9A60     		str	r2, [r3, #8]
 1773 0022 FB68     		ldr	r3, [r7, #12]
 1774 0024 03F10C03 		add	r3, r3, #12
 1775 0028 1846     		mov	r0, r3
 1776 002a FFF7FEFF 		bl	_ZN8IXFEvent13_tEventStatusC1Ev
 1777 002e FB68     		ldr	r3, [r7, #12]
 1778 0030 3A68     		ldr	r2, [r7, #0]
 1779 0032 1A61     		str	r2, [r3, #16]
 1780 0034 FA68     		ldr	r2, [r7, #12]
 1781 0036 137B     		ldrb	r3, [r2, #12]
 1782 0038 43F00103 		orr	r3, r3, #1
 1783 003c 1373     		strb	r3, [r2, #12]
 1784              	.LBE2:
 1785 003e FB68     		ldr	r3, [r7, #12]
 1786 0040 1846     		mov	r0, r3
 1787 0042 07F11007 		add	r7, r7, #16
 1788 0046 BD46     		mov	sp, r7
 1789 0048 80BD     		pop	{r7, pc}
 1790              	.L4:
 1791 004a 00BF     		.align	2
 1792              	.L3:
 1793 004c 08000000 		.word	_ZTV8IXFEvent+8
 1794              		.cfi_endproc
 1795              	.LFE1:
 1797              		.weak	_ZN8IXFEventC1ENS_10eEventTypeEiP11IXFReactive
 1798              		.thumb_set _ZN8IXFEventC1ENS_10eEventTypeEiP11IXFReactive,_ZN8IXFEventC2ENS_10eEventTypeEiP11IXFRe
 1799              		.section	.text._ZN8IXFEventD2Ev,"axG",%progbits,_ZN8IXFEventD5Ev,comdat
 1800              		.align	2
 1801              		.weak	_ZN8IXFEventD2Ev
 1802              		.thumb
 1803              		.thumb_func
 1805              	_ZN8IXFEventD2Ev:
 1806              	.LFB4:
  42:../xf/ixfevent.h **** 	virtual ~IXFEvent() {}		///< Class destructor
 1807              		.loc 5 42 0
 1808              		.cfi_startproc
 1809              		@ args = 0, pretend = 0, frame = 8
 1810              		@ frame_needed = 1, uses_anonymous_args = 0
 1811 0000 80B5     		push	{r7, lr}
 1812              	.LCFI3:
 1813              		.cfi_def_cfa_offset 8
 1814 0002 82B0     		sub	sp, sp, #8
 1815              	.LCFI4:
 1816              		.cfi_def_cfa_offset 16
 1817 0004 00AF     		add	r7, sp, #0
 1818              		.cfi_offset 14, -4
 1819              		.cfi_offset 7, -8
 1820              	.LCFI5:
 1821              		.cfi_def_cfa_register 7
 1822 0006 7860     		str	r0, [r7, #4]
 1823              	.LBB3:
 1824              		.loc 5 42 0
 1825 0008 7B68     		ldr	r3, [r7, #4]
 1826 000a 094A     		ldr	r2, .L8
 1827 000c 1A60     		str	r2, [r3, #0]
 1828              	.LBE3:
 1829 000e 4FF00003 		mov	r3, #0
 1830 0012 03F00103 		and	r3, r3, #1
 1831 0016 DBB2     		uxtb	r3, r3
 1832 0018 002B     		cmp	r3, #0
 1833 001a 02D0     		beq	.L7
 1834              		.loc 5 42 0 is_stmt 0 discriminator 1
 1835 001c 7868     		ldr	r0, [r7, #4]
 1836 001e FFF7FEFF 		bl	_ZdlPv
 1837              	.L7:
 1838              		.loc 5 42 0 discriminator 2
 1839 0022 7B68     		ldr	r3, [r7, #4]
 1840 0024 1846     		mov	r0, r3
 1841 0026 07F10807 		add	r7, r7, #8
 1842 002a BD46     		mov	sp, r7
 1843 002c 80BD     		pop	{r7, pc}
 1844              	.L9:
 1845 002e 00BF     		.align	2
 1846              	.L8:
 1847 0030 08000000 		.word	_ZTV8IXFEvent+8
 1848              		.cfi_endproc
 1849              	.LFE4:
 1851              		.weak	_ZN8IXFEventD1Ev
 1852              		.thumb_set _ZN8IXFEventD1Ev,_ZN8IXFEventD2Ev
 1853              		.section	.text._ZN8IXFEventD0Ev,"axG",%progbits,_ZN8IXFEventD5Ev,comdat
 1854              		.align	2
 1855              		.weak	_ZN8IXFEventD0Ev
 1856              		.thumb
 1857              		.thumb_func
 1859              	_ZN8IXFEventD0Ev:
 1860              	.LFB6:
 1861              		.loc 5 42 0 is_stmt 1
 1862              		.cfi_startproc
 1863              		@ args = 0, pretend = 0, frame = 8
 1864              		@ frame_needed = 1, uses_anonymous_args = 0
 1865 0000 80B5     		push	{r7, lr}
 1866              	.LCFI6:
 1867              		.cfi_def_cfa_offset 8
 1868 0002 82B0     		sub	sp, sp, #8
 1869              	.LCFI7:
 1870              		.cfi_def_cfa_offset 16
 1871 0004 00AF     		add	r7, sp, #0
 1872              		.cfi_offset 14, -4
 1873              		.cfi_offset 7, -8
 1874              	.LCFI8:
 1875              		.cfi_def_cfa_register 7
 1876 0006 7860     		str	r0, [r7, #4]
 1877              		.loc 5 42 0
 1878 0008 7868     		ldr	r0, [r7, #4]
 1879 000a FFF7FEFF 		bl	_ZN8IXFEventD1Ev
 1880 000e 7868     		ldr	r0, [r7, #4]
 1881 0010 FFF7FEFF 		bl	_ZdlPv
 1882 0014 7B68     		ldr	r3, [r7, #4]
 1883 0016 1846     		mov	r0, r3
 1884 0018 07F10807 		add	r7, r7, #8
 1885 001c BD46     		mov	sp, r7
 1886 001e 80BD     		pop	{r7, pc}
 1887              		.cfi_endproc
 1888              	.LFE6:
 1890              		.section	.text._ZN8IXFEvent15setShouldDeleteEb,"axG",%progbits,_ZN8IXFEvent15setShouldDeleteEb,com
 1891              		.align	2
 1892              		.weak	_ZN8IXFEvent15setShouldDeleteEb
 1893              		.thumb
 1894              		.thumb_func
 1896              	_ZN8IXFEvent15setShouldDeleteEb:
 1897              	.LFB11:
  43:../xf/ixfevent.h **** 
  44:../xf/ixfevent.h **** 	/** \brief Returns the type of the event.
  45:../xf/ixfevent.h **** 	 *
  46:../xf/ixfevent.h **** 	 * Can be used to distinguish between an event or a timeout.
  47:../xf/ixfevent.h **** 	 */
  48:../xf/ixfevent.h **** 	inline eEventType getEventType() const { return _eventType; }
  49:../xf/ixfevent.h **** 
  50:../xf/ixfevent.h **** 	/** \brief Returns pointer to behavioral class.
  51:../xf/ixfevent.h **** 	 *
  52:../xf/ixfevent.h **** 	 * Returns a pointer to the behavioral class processing the event (see #_pBehavior).
  53:../xf/ixfevent.h **** 	 */
  54:../xf/ixfevent.h **** 	inline IXFReactive * getBehavior() const { return _pBehavior; }
  55:../xf/ixfevent.h **** 
  56:../xf/ixfevent.h **** 	/** \brief Sets pointer to behavioral class (see #_pBehavior).
  57:../xf/ixfevent.h **** 	 * Sets the behavior in which the event should be executed.
  58:../xf/ixfevent.h **** 	 */
  59:../xf/ixfevent.h **** 	inline void setBehavior(IXFReactive * pBehavior) { _pBehavior = pBehavior; }
  60:../xf/ixfevent.h **** 
  61:../xf/ixfevent.h **** 	inline int getId() const { return _id; }		///< Returns #_id identifying the event in the behaviors
  62:../xf/ixfevent.h **** 
  63:../xf/ixfevent.h **** 	/**
  64:../xf/ixfevent.h **** 	 * Marks the event as non-deletable. Used for static events.
  65:../xf/ixfevent.h **** 	 */
  66:../xf/ixfevent.h **** 	inline void setShouldDelete(bool bShouldDelete = true) { _eventStatus.shouldDelete = bShouldDelete
 1898              		.loc 5 66 0
 1899              		.cfi_startproc
 1900              		@ args = 0, pretend = 0, frame = 8
 1901              		@ frame_needed = 1, uses_anonymous_args = 0
 1902              		@ link register save eliminated.
 1903 0000 80B4     		push	{r7}
 1904              	.LCFI9:
 1905              		.cfi_def_cfa_offset 4
 1906 0002 83B0     		sub	sp, sp, #12
 1907              	.LCFI10:
 1908              		.cfi_def_cfa_offset 16
 1909 0004 00AF     		add	r7, sp, #0
 1910              		.cfi_offset 7, -4
 1911              	.LCFI11:
 1912              		.cfi_def_cfa_register 7
 1913 0006 7860     		str	r0, [r7, #4]
 1914 0008 0B46     		mov	r3, r1
 1915 000a FB70     		strb	r3, [r7, #3]
 1916              		.loc 5 66 0
 1917 000c FB78     		ldrb	r3, [r7, #3]	@ zero_extendqisi2
 1918 000e 03F00103 		and	r3, r3, #1
 1919 0012 D9B2     		uxtb	r1, r3
 1920 0014 7A68     		ldr	r2, [r7, #4]
 1921 0016 137B     		ldrb	r3, [r2, #12]
 1922 0018 61F30003 		bfi	r3, r1, #0, #1
 1923 001c 1373     		strb	r3, [r2, #12]
 1924 001e 07F10C07 		add	r7, r7, #12
 1925 0022 BD46     		mov	sp, r7
 1926 0024 80BC     		pop	{r7}
 1927 0026 7047     		bx	lr
 1928              		.cfi_endproc
 1929              	.LFE11:
 1931              		.section	.text._ZN8IXFEvent13_tEventStatusC2Ev,"axG",%progbits,_ZN8IXFEvent13_tEventStatusC5Ev,com
 1932              		.align	2
 1933              		.weak	_ZN8IXFEvent13_tEventStatusC2Ev
 1934              		.thumb
 1935              		.thumb_func
 1937              	_ZN8IXFEvent13_tEventStatusC2Ev:
 1938              	.LFB14:
  67:../xf/ixfevent.h **** 
  68:../xf/ixfevent.h **** 	/** \brief Returns true in case the event should be deleted
  69:../xf/ixfevent.h **** 	 * Used by XFThread to check if the event should be delete after consume
  70:../xf/ixfevent.h **** 	 */
  71:../xf/ixfevent.h **** 	inline bool shouldDelete() const { return _eventStatus.shouldDelete; }
  72:../xf/ixfevent.h **** 
  73:../xf/ixfevent.h **** protected:
  74:../xf/ixfevent.h **** 	typedef struct _tEventStatus
  75:../xf/ixfevent.h **** 	{
  76:../xf/ixfevent.h **** 		unsigned char shouldDelete : 1;	///< True in case the event should be deleted after consume.
  77:../xf/ixfevent.h **** 
  78:../xf/ixfevent.h **** 		_tEventStatus()
 1939              		.loc 5 78 0
 1940              		.cfi_startproc
 1941              		@ args = 0, pretend = 0, frame = 8
 1942              		@ frame_needed = 1, uses_anonymous_args = 0
 1943              		@ link register save eliminated.
 1944 0000 80B4     		push	{r7}
 1945              	.LCFI12:
 1946              		.cfi_def_cfa_offset 4
 1947 0002 83B0     		sub	sp, sp, #12
 1948              	.LCFI13:
 1949              		.cfi_def_cfa_offset 16
 1950 0004 00AF     		add	r7, sp, #0
 1951              		.cfi_offset 7, -4
 1952              	.LCFI14:
 1953              		.cfi_def_cfa_register 7
 1954 0006 7860     		str	r0, [r7, #4]
 1955              	.LBB4:
  79:../xf/ixfevent.h **** 		{
  80:../xf/ixfevent.h **** 			shouldDelete = true;
 1956              		.loc 5 80 0
 1957 0008 7A68     		ldr	r2, [r7, #4]
 1958 000a 1378     		ldrb	r3, [r2, #0]
 1959 000c 43F00103 		orr	r3, r3, #1
 1960 0010 1370     		strb	r3, [r2, #0]
 1961              	.LBE4:
  81:../xf/ixfevent.h **** 		}
 1962              		.loc 5 81 0
 1963 0012 7B68     		ldr	r3, [r7, #4]
 1964 0014 1846     		mov	r0, r3
 1965 0016 07F10C07 		add	r7, r7, #12
 1966 001a BD46     		mov	sp, r7
 1967 001c 80BC     		pop	{r7}
 1968 001e 7047     		bx	lr
 1969              		.cfi_endproc
 1970              	.LFE14:
 1972              		.weak	_ZN8IXFEvent13_tEventStatusC1Ev
 1973              		.thumb_set _ZN8IXFEvent13_tEventStatusC1Ev,_ZN8IXFEvent13_tEventStatusC2Ev
 1974              		.section	.text._ZN13XFStaticEventC2EiP11IXFReactive,"ax",%progbits
 1975              		.align	2
 1976              		.global	_ZN13XFStaticEventC2EiP11IXFReactive
 1977              		.thumb
 1978              		.thumb_func
 1980              	_ZN13XFStaticEventC2EiP11IXFReactive:
 1981              	.LFB721:
   1:../xf/xfstaticevent.cpp **** #include "xfstaticevent.h"
   2:../xf/xfstaticevent.cpp **** 
   3:../xf/xfstaticevent.cpp **** 
   4:../xf/xfstaticevent.cpp **** XFStaticEvent::XFStaticEvent(int id, IXFReactive * pBehavior)
 1982              		.loc 1 4 0
 1983              		.cfi_startproc
 1984              		@ args = 0, pretend = 0, frame = 16
 1985              		@ frame_needed = 1, uses_anonymous_args = 0
 1986 0000 80B5     		push	{r7, lr}
 1987              	.LCFI15:
 1988              		.cfi_def_cfa_offset 8
 1989 0002 84B0     		sub	sp, sp, #16
 1990              	.LCFI16:
 1991              		.cfi_def_cfa_offset 24
 1992 0004 00AF     		add	r7, sp, #0
 1993              		.cfi_offset 14, -4
 1994              		.cfi_offset 7, -8
 1995              	.LCFI17:
 1996              		.cfi_def_cfa_register 7
 1997 0006 F860     		str	r0, [r7, #12]
 1998 0008 B960     		str	r1, [r7, #8]
 1999 000a 7A60     		str	r2, [r7, #4]
 2000              	.LBB5:
   5:../xf/xfstaticevent.cpp **** : IXFEvent(IXFEvent::Event, id, pBehavior)
 2001              		.loc 1 5 0
 2002 000c FB68     		ldr	r3, [r7, #12]
 2003 000e 1846     		mov	r0, r3
 2004 0010 4FF00301 		mov	r1, #3
 2005 0014 BA68     		ldr	r2, [r7, #8]
 2006 0016 7B68     		ldr	r3, [r7, #4]
 2007 0018 FFF7FEFF 		bl	_ZN8IXFEventC2ENS_10eEventTypeEiP11IXFReactive
 2008 001c FB68     		ldr	r3, [r7, #12]
 2009 001e 074A     		ldr	r2, .L17
 2010 0020 1A60     		str	r2, [r3, #0]
   6:../xf/xfstaticevent.cpp **** {
   7:../xf/xfstaticevent.cpp **** 	// Clear the shouldDelete flag in the _eventStatus attribute.
   8:../xf/xfstaticevent.cpp **** 	setShouldDelete(false);
 2011              		.loc 1 8 0
 2012 0022 FB68     		ldr	r3, [r7, #12]
 2013 0024 1846     		mov	r0, r3
 2014 0026 4FF00001 		mov	r1, #0
 2015 002a FFF7FEFF 		bl	_ZN8IXFEvent15setShouldDeleteEb
 2016              	.LBE5:
   9:../xf/xfstaticevent.cpp **** }
 2017              		.loc 1 9 0
 2018 002e FB68     		ldr	r3, [r7, #12]
 2019 0030 1846     		mov	r0, r3
 2020 0032 07F11007 		add	r7, r7, #16
 2021 0036 BD46     		mov	sp, r7
 2022 0038 80BD     		pop	{r7, pc}
 2023              	.L18:
 2024 003a 00BF     		.align	2
 2025              	.L17:
 2026 003c 08000000 		.word	_ZTV13XFStaticEvent+8
 2027              		.cfi_endproc
 2028              	.LFE721:
 2030              		.global	_ZN13XFStaticEventC1EiP11IXFReactive
 2031              		.thumb_set _ZN13XFStaticEventC1EiP11IXFReactive,_ZN13XFStaticEventC2EiP11IXFReactive
 2032              		.section	.text._ZN13XFStaticEventD2Ev,"ax",%progbits
 2033              		.align	2
 2034              		.global	_ZN13XFStaticEventD2Ev
 2035              		.thumb
 2036              		.thumb_func
 2038              	_ZN13XFStaticEventD2Ev:
 2039              	.LFB724:
  10:../xf/xfstaticevent.cpp **** 
  11:../xf/xfstaticevent.cpp **** XFStaticEvent::~XFStaticEvent()
 2040              		.loc 1 11 0
 2041              		.cfi_startproc
 2042              		@ args = 0, pretend = 0, frame = 8
 2043              		@ frame_needed = 1, uses_anonymous_args = 0
 2044 0000 80B5     		push	{r7, lr}
 2045              	.LCFI18:
 2046              		.cfi_def_cfa_offset 8
 2047 0002 82B0     		sub	sp, sp, #8
 2048              	.LCFI19:
 2049              		.cfi_def_cfa_offset 16
 2050 0004 00AF     		add	r7, sp, #0
 2051              		.cfi_offset 14, -4
 2052              		.cfi_offset 7, -8
 2053              	.LCFI20:
 2054              		.cfi_def_cfa_register 7
 2055 0006 7860     		str	r0, [r7, #4]
 2056              	.LBB6:
 2057              		.loc 1 11 0
 2058 0008 7B68     		ldr	r3, [r7, #4]
 2059 000a 0B4A     		ldr	r2, .L22
 2060 000c 1A60     		str	r2, [r3, #0]
 2061 000e 7B68     		ldr	r3, [r7, #4]
  12:../xf/xfstaticevent.cpp **** {
  13:../xf/xfstaticevent.cpp **** 
  14:../xf/xfstaticevent.cpp **** }
 2062              		.loc 1 14 0
 2063 0010 1846     		mov	r0, r3
 2064 0012 FFF7FEFF 		bl	_ZN8IXFEventD2Ev
 2065              	.LBE6:
 2066 0016 4FF00003 		mov	r3, #0
 2067 001a 03F00103 		and	r3, r3, #1
 2068 001e DBB2     		uxtb	r3, r3
 2069 0020 002B     		cmp	r3, #0
 2070 0022 02D0     		beq	.L21
 2071              		.loc 1 14 0 is_stmt 0 discriminator 2
 2072 0024 7868     		ldr	r0, [r7, #4]
 2073 0026 FFF7FEFF 		bl	_ZdlPv
 2074              	.L21:
 2075              		.loc 1 14 0 discriminator 3
 2076 002a 7B68     		ldr	r3, [r7, #4]
 2077 002c 1846     		mov	r0, r3
 2078 002e 07F10807 		add	r7, r7, #8
 2079 0032 BD46     		mov	sp, r7
 2080 0034 80BD     		pop	{r7, pc}
 2081              	.L23:
 2082 0036 00BF     		.align	2
 2083              	.L22:
 2084 0038 08000000 		.word	_ZTV13XFStaticEvent+8
 2085              		.cfi_endproc
 2086              	.LFE724:
 2088              		.global	_ZN13XFStaticEventD1Ev
 2089              		.thumb_set _ZN13XFStaticEventD1Ev,_ZN13XFStaticEventD2Ev
 2090              		.section	.text._ZN13XFStaticEventD0Ev,"ax",%progbits
 2091              		.align	2
 2092              		.global	_ZN13XFStaticEventD0Ev
 2093              		.thumb
 2094              		.thumb_func
 2096              	_ZN13XFStaticEventD0Ev:
 2097              	.LFB726:
  11:../xf/xfstaticevent.cpp **** XFStaticEvent::~XFStaticEvent()
 2098              		.loc 1 11 0 is_stmt 1
 2099              		.cfi_startproc
 2100              		@ args = 0, pretend = 0, frame = 8
 2101              		@ frame_needed = 1, uses_anonymous_args = 0
 2102 0000 80B5     		push	{r7, lr}
 2103              	.LCFI21:
 2104              		.cfi_def_cfa_offset 8
 2105 0002 82B0     		sub	sp, sp, #8
 2106              	.LCFI22:
 2107              		.cfi_def_cfa_offset 16
 2108 0004 00AF     		add	r7, sp, #0
 2109              		.cfi_offset 14, -4
 2110              		.cfi_offset 7, -8
 2111              	.LCFI23:
 2112              		.cfi_def_cfa_register 7
 2113 0006 7860     		str	r0, [r7, #4]
 2114              		.loc 1 14 0
 2115 0008 7868     		ldr	r0, [r7, #4]
 2116 000a FFF7FEFF 		bl	_ZN13XFStaticEventD1Ev
 2117 000e 7868     		ldr	r0, [r7, #4]
 2118 0010 FFF7FEFF 		bl	_ZdlPv
 2119 0014 7B68     		ldr	r3, [r7, #4]
 2120 0016 1846     		mov	r0, r3
 2121 0018 07F10807 		add	r7, r7, #8
 2122 001c BD46     		mov	sp, r7
 2123 001e 80BD     		pop	{r7, pc}
 2124              		.cfi_endproc
 2125              	.LFE726:
 2127              		.global	_ZTV13XFStaticEvent
 2128              		.section	.rodata._ZTV13XFStaticEvent,"a",%progbits
 2129              		.align	3
 2132              	_ZTV13XFStaticEvent:
 2133 0000 00000000 		.word	0
 2134 0004 00000000 		.word	0
 2135 0008 00000000 		.word	_ZN13XFStaticEventD1Ev
 2136 000c 00000000 		.word	_ZN13XFStaticEventD0Ev
 2137              		.weak	_ZTV8IXFEvent
 2138              		.section	.rodata._ZTV8IXFEvent,"aG",%progbits,_ZTV8IXFEvent,comdat
 2139              		.align	3
 2142              	_ZTV8IXFEvent:
 2143 0000 00000000 		.word	0
 2144 0004 00000000 		.word	0
 2145 0008 00000000 		.word	_ZN8IXFEventD1Ev
 2146 000c 00000000 		.word	_ZN8IXFEventD0Ev
 2147              		.text
 2148              	.Letext0: