   1              		.syntax unified
   2              		.cpu cortex-m3
   3              		.fpu softvfp
   4              		.eabi_attribute 20, 1
   5              		.eabi_attribute 21, 1
   6              		.eabi_attribute 23, 3
   7              		.eabi_attribute 24, 1
   8              		.eabi_attribute 25, 1
   9              		.eabi_attribute 26, 1
  10              		.eabi_attribute 30, 6
  11              		.eabi_attribute 18, 4
  12              		.thumb
  13              		.file	"xfthread.cpp"
  23              	.Ltext0:
  24              		.file 1 "../xf/xfthread.cpp"
 1786              		.align	2
 1787              		.weak	_ZNK8IXFEvent12getEventTypeEv
 1788              		.thumb
 1789              		.thumb_func
 1791              	_ZNK8IXFEvent12getEventTypeEv:
 1792              	.LFB7:
   1:../xf/ixfevent.h **** #ifndef IXFEVENT_H
   2:../xf/ixfevent.h **** #define IXFEVENT_H
   3:../xf/ixfevent.h **** 
   4:../xf/ixfevent.h **** 
   5:../xf/ixfevent.h **** class IXFReactive;
   6:../xf/ixfevent.h **** 
   7:../xf/ixfevent.h **** 
   8:../xf/ixfevent.h **** /**
   9:../xf/ixfevent.h ****  * @ingroup xf
  10:../xf/ixfevent.h ****  * Interface for an event. The abstract methods defined in this interface
  11:../xf/ixfevent.h ****  * need to be reimplemented in its derived classes. These methods are
  12:../xf/ixfevent.h ****  * used by other classes in the framework (ex. XFThread, XFReactive).
  13:../xf/ixfevent.h ****  *
  14:../xf/ixfevent.h ****  * Requirements:
  15:../xf/ixfevent.h ****  * - Needs to hold a property which allows to distinguish between different
  16:../xf/ixfevent.h ****  *   types of events.
  17:../xf/ixfevent.h ****  * - Use an enumeration to define the type for the type property.
  18:../xf/ixfevent.h ****  * - The type property needs to be set at initialization time and cannot be
  19:../xf/ixfevent.h ****  *   changed afterwards.
  20:../xf/ixfevent.h ****  */
  21:../xf/ixfevent.h **** class IXFEvent
  22:../xf/ixfevent.h **** {
  23:../xf/ixfevent.h **** public:
  24:../xf/ixfevent.h **** 	/**
  25:../xf/ixfevent.h **** 	 * Defines the types of events
  26:../xf/ixfevent.h **** 	 */
  27:../xf/ixfevent.h **** 	typedef enum
  28:../xf/ixfevent.h **** 	{
  29:../xf/ixfevent.h **** 		Unknown			= 0,		///< Unknown state (not initialized)
  30:../xf/ixfevent.h **** 		Initial			= 1,		///< Initial pseudo-state
  31:../xf/ixfevent.h **** 		NullTransition	= 2,		///< Event generated by the state machine to define a null transition
  32:../xf/ixfevent.h **** 		Event			= 3,		///< Normal event
  33:../xf/ixfevent.h **** 		Timeout			= 4,		///< Defines a timeout event.
  34:../xf/ixfevent.h **** 		Terminate		= -1		///< Defines a terminate state. Will end the state machine.
  35:../xf/ixfevent.h **** 	} eEventType;
  36:../xf/ixfevent.h **** 
  37:../xf/ixfevent.h **** public :
  38:../xf/ixfevent.h **** 	/**
  39:../xf/ixfevent.h **** 	 * Default class constructor
  40:../xf/ixfevent.h **** 	 */
  41:../xf/ixfevent.h **** 	IXFEvent(eEventType eventType, int id, IXFReactive * pBehavior) : _eventType(eventType), _id(id), 
  42:../xf/ixfevent.h **** 	virtual ~IXFEvent() {}		///< Class destructor
  43:../xf/ixfevent.h **** 
  44:../xf/ixfevent.h **** 	/** \brief Returns the type of the event.
  45:../xf/ixfevent.h **** 	 *
  46:../xf/ixfevent.h **** 	 * Can be used to distinguish between an event or a timeout.
  47:../xf/ixfevent.h **** 	 */
  48:../xf/ixfevent.h **** 	inline eEventType getEventType() const { return _eventType; }
 1793              		.loc 3 48 0
 1794              		.cfi_startproc
 1795              		@ args = 0, pretend = 0, frame = 8
 1796              		@ frame_needed = 1, uses_anonymous_args = 0
 1797              		@ link register save eliminated.
 1798 0000 80B4     		push	{r7}
 1799              	.LCFI0:
 1800              		.cfi_def_cfa_offset 4
 1801 0002 83B0     		sub	sp, sp, #12
 1802              	.LCFI1:
 1803              		.cfi_def_cfa_offset 16
 1804 0004 00AF     		add	r7, sp, #0
 1805              		.cfi_offset 7, -4
 1806              	.LCFI2:
 1807              		.cfi_def_cfa_register 7
 1808 0006 7860     		str	r0, [r7, #4]
 1809              		.loc 3 48 0
 1810 0008 7B68     		ldr	r3, [r7, #4]
 1811 000a 1B79     		ldrb	r3, [r3, #4]	@ zero_extendqisi2
 1812 000c 5BB2     		sxtb	r3, r3
 1813 000e 1846     		mov	r0, r3
 1814 0010 07F10C07 		add	r7, r7, #12
 1815 0014 BD46     		mov	sp, r7
 1816 0016 80BC     		pop	{r7}
 1817 0018 7047     		bx	lr
 1818              		.cfi_endproc
 1819              	.LFE7:
 1821 001a 00BF     		.section	.text._ZNK8IXFEvent11getBehaviorEv,"axG",%progbits,_ZNK8IXFEvent11getBehaviorEv,comdat
 1822              		.align	2
 1823              		.weak	_ZNK8IXFEvent11getBehaviorEv
 1824              		.thumb
 1825              		.thumb_func
 1827              	_ZNK8IXFEvent11getBehaviorEv:
 1828              	.LFB8:
  49:../xf/ixfevent.h **** 
  50:../xf/ixfevent.h **** 	/** \brief Returns pointer to behavioral class.
  51:../xf/ixfevent.h **** 	 *
  52:../xf/ixfevent.h **** 	 * Returns a pointer to the behavioral class processing the event (see #_pBehavior).
  53:../xf/ixfevent.h **** 	 */
  54:../xf/ixfevent.h **** 	inline IXFReactive * getBehavior() const { return _pBehavior; }
 1829              		.loc 3 54 0
 1830              		.cfi_startproc
 1831              		@ args = 0, pretend = 0, frame = 8
 1832              		@ frame_needed = 1, uses_anonymous_args = 0
 1833              		@ link register save eliminated.
 1834 0000 80B4     		push	{r7}
 1835              	.LCFI3:
 1836              		.cfi_def_cfa_offset 4
 1837 0002 83B0     		sub	sp, sp, #12
 1838              	.LCFI4:
 1839              		.cfi_def_cfa_offset 16
 1840 0004 00AF     		add	r7, sp, #0
 1841              		.cfi_offset 7, -4
 1842              	.LCFI5:
 1843              		.cfi_def_cfa_register 7
 1844 0006 7860     		str	r0, [r7, #4]
 1845              		.loc 3 54 0
 1846 0008 7B68     		ldr	r3, [r7, #4]
 1847 000a 1B69     		ldr	r3, [r3, #16]
 1848 000c 1846     		mov	r0, r3
 1849 000e 07F10C07 		add	r7, r7, #12
 1850 0012 BD46     		mov	sp, r7
 1851 0014 80BC     		pop	{r7}
 1852 0016 7047     		bx	lr
 1853              		.cfi_endproc
 1854              	.LFE8:
 1856              		.section	.text._ZNK8IXFEvent12shouldDeleteEv,"axG",%progbits,_ZNK8IXFEvent12shouldDeleteEv,comdat
 1857              		.align	2
 1858              		.weak	_ZNK8IXFEvent12shouldDeleteEv
 1859              		.thumb
 1860              		.thumb_func
 1862              	_ZNK8IXFEvent12shouldDeleteEv:
 1863              	.LFB12:
  55:../xf/ixfevent.h **** 
  56:../xf/ixfevent.h **** 	/** \brief Sets pointer to behavioral class (see #_pBehavior).
  57:../xf/ixfevent.h **** 	 * Sets the behavior in which the event should be executed.
  58:../xf/ixfevent.h **** 	 */
  59:../xf/ixfevent.h **** 	inline void setBehavior(IXFReactive * pBehavior) { _pBehavior = pBehavior; }
  60:../xf/ixfevent.h **** 
  61:../xf/ixfevent.h **** 	inline int getId() const { return _id; }		///< Returns #_id identifying the event in the behaviors
  62:../xf/ixfevent.h **** 
  63:../xf/ixfevent.h **** 	/**
  64:../xf/ixfevent.h **** 	 * Marks the event as non-deletable. Used for static events.
  65:../xf/ixfevent.h **** 	 */
  66:../xf/ixfevent.h **** 	inline void setShouldDelete(bool bShouldDelete = true) { _eventStatus.shouldDelete = bShouldDelete
  67:../xf/ixfevent.h **** 
  68:../xf/ixfevent.h **** 	/** \brief Returns true in case the event should be deleted
  69:../xf/ixfevent.h **** 	 * Used by XFThread to check if the event should be delete after consume
  70:../xf/ixfevent.h **** 	 */
  71:../xf/ixfevent.h **** 	inline bool shouldDelete() const { return _eventStatus.shouldDelete; }
 1864              		.loc 3 71 0
 1865              		.cfi_startproc
 1866              		@ args = 0, pretend = 0, frame = 8
 1867              		@ frame_needed = 1, uses_anonymous_args = 0
 1868              		@ link register save eliminated.
 1869 0000 80B4     		push	{r7}
 1870              	.LCFI6:
 1871              		.cfi_def_cfa_offset 4
 1872 0002 83B0     		sub	sp, sp, #12
 1873              	.LCFI7:
 1874              		.cfi_def_cfa_offset 16
 1875 0004 00AF     		add	r7, sp, #0
 1876              		.cfi_offset 7, -4
 1877              	.LCFI8:
 1878              		.cfi_def_cfa_register 7
 1879 0006 7860     		str	r0, [r7, #4]
 1880              		.loc 3 71 0
 1881 0008 7B68     		ldr	r3, [r7, #4]
 1882 000a 1B7B     		ldrb	r3, [r3, #12]	@ zero_extendqisi2
 1883 000c 03F00103 		and	r3, r3, #1
 1884 0010 DBB2     		uxtb	r3, r3
 1885 0012 002B     		cmp	r3, #0
 1886 0014 0CBF     		ite	eq
 1887 0016 0023     		moveq	r3, #0
 1888 0018 0123     		movne	r3, #1
 1889 001a DBB2     		uxtb	r3, r3
 1890 001c 1846     		mov	r0, r3
 1891 001e 07F10C07 		add	r7, r7, #12
 1892 0022 BD46     		mov	sp, r7
 1893 0024 80BC     		pop	{r7}
 1894 0026 7047     		bx	lr
 1895              		.cfi_endproc
 1896              	.LFE12:
 1898              		.section	.text._ZnwjPv,"axG",%progbits,_ZnwjPv,comdat
 1899              		.align	2
 1900              		.weak	_ZnwjPv
 1901              		.thumb
 1902              		.thumb_func
 1904              	_ZnwjPv:
 1905              	.LFB179:
   1:/opt/toolchains/arm-none-eabi/bin/../lib/gcc/arm-none-eabi/4.5.2/../../../../arm-none-eabi/include/c++/4.5.2/new **** // The -*- C++ -*- dynamic memory management header.
   2:/opt/toolchains/arm-none-eabi/bin/../lib/gcc/arm-none-eabi/4.5.2/../../../../arm-none-eabi/include/c++/4.5.2/new **** 
   3:/opt/toolchains/arm-none-eabi/bin/../lib/gcc/arm-none-eabi/4.5.2/../../../../arm-none-eabi/include/c++/4.5.2/new **** // Copyright (C) 1994, 1995, 1996, 1997, 1998, 1999, 2000, 2001, 2002,
   4:/opt/toolchains/arm-none-eabi/bin/../lib/gcc/arm-none-eabi/4.5.2/../../../../arm-none-eabi/include/c++/4.5.2/new **** // 2003, 2004, 2005, 2006, 2007, 2009, 2010
   5:/opt/toolchains/arm-none-eabi/bin/../lib/gcc/arm-none-eabi/4.5.2/../../../../arm-none-eabi/include/c++/4.5.2/new **** // Free Software Foundation
   6:/opt/toolchains/arm-none-eabi/bin/../lib/gcc/arm-none-eabi/4.5.2/../../../../arm-none-eabi/include/c++/4.5.2/new **** 
   7:/opt/toolchains/arm-none-eabi/bin/../lib/gcc/arm-none-eabi/4.5.2/../../../../arm-none-eabi/include/c++/4.5.2/new **** // This file is part of GCC.
   8:/opt/toolchains/arm-none-eabi/bin/../lib/gcc/arm-none-eabi/4.5.2/../../../../arm-none-eabi/include/c++/4.5.2/new **** //
   9:/opt/toolchains/arm-none-eabi/bin/../lib/gcc/arm-none-eabi/4.5.2/../../../../arm-none-eabi/include/c++/4.5.2/new **** // GCC is free software; you can redistribute it and/or modify
  10:/opt/toolchains/arm-none-eabi/bin/../lib/gcc/arm-none-eabi/4.5.2/../../../../arm-none-eabi/include/c++/4.5.2/new **** // it under the terms of the GNU General Public License as published by
  11:/opt/toolchains/arm-none-eabi/bin/../lib/gcc/arm-none-eabi/4.5.2/../../../../arm-none-eabi/include/c++/4.5.2/new **** // the Free Software Foundation; either version 3, or (at your option)
  12:/opt/toolchains/arm-none-eabi/bin/../lib/gcc/arm-none-eabi/4.5.2/../../../../arm-none-eabi/include/c++/4.5.2/new **** // any later version.
  13:/opt/toolchains/arm-none-eabi/bin/../lib/gcc/arm-none-eabi/4.5.2/../../../../arm-none-eabi/include/c++/4.5.2/new **** // 
  14:/opt/toolchains/arm-none-eabi/bin/../lib/gcc/arm-none-eabi/4.5.2/../../../../arm-none-eabi/include/c++/4.5.2/new **** // GCC is distributed in the hope that it will be useful,
  15:/opt/toolchains/arm-none-eabi/bin/../lib/gcc/arm-none-eabi/4.5.2/../../../../arm-none-eabi/include/c++/4.5.2/new **** // but WITHOUT ANY WARRANTY; without even the implied warranty of
  16:/opt/toolchains/arm-none-eabi/bin/../lib/gcc/arm-none-eabi/4.5.2/../../../../arm-none-eabi/include/c++/4.5.2/new **** // MERCHANTABILITY or FITNESS FOR A PARTICULAR PURPOSE.  See the
  17:/opt/toolchains/arm-none-eabi/bin/../lib/gcc/arm-none-eabi/4.5.2/../../../../arm-none-eabi/include/c++/4.5.2/new **** // GNU General Public License for more details.
  18:/opt/toolchains/arm-none-eabi/bin/../lib/gcc/arm-none-eabi/4.5.2/../../../../arm-none-eabi/include/c++/4.5.2/new **** // 
  19:/opt/toolchains/arm-none-eabi/bin/../lib/gcc/arm-none-eabi/4.5.2/../../../../arm-none-eabi/include/c++/4.5.2/new **** // Under Section 7 of GPL version 3, you are granted additional
  20:/opt/toolchains/arm-none-eabi/bin/../lib/gcc/arm-none-eabi/4.5.2/../../../../arm-none-eabi/include/c++/4.5.2/new **** // permissions described in the GCC Runtime Library Exception, version
  21:/opt/toolchains/arm-none-eabi/bin/../lib/gcc/arm-none-eabi/4.5.2/../../../../arm-none-eabi/include/c++/4.5.2/new **** // 3.1, as published by the Free Software Foundation.
  22:/opt/toolchains/arm-none-eabi/bin/../lib/gcc/arm-none-eabi/4.5.2/../../../../arm-none-eabi/include/c++/4.5.2/new **** 
  23:/opt/toolchains/arm-none-eabi/bin/../lib/gcc/arm-none-eabi/4.5.2/../../../../arm-none-eabi/include/c++/4.5.2/new **** // You should have received a copy of the GNU General Public License and
  24:/opt/toolchains/arm-none-eabi/bin/../lib/gcc/arm-none-eabi/4.5.2/../../../../arm-none-eabi/include/c++/4.5.2/new **** // a copy of the GCC Runtime Library Exception along with this program;
  25:/opt/toolchains/arm-none-eabi/bin/../lib/gcc/arm-none-eabi/4.5.2/../../../../arm-none-eabi/include/c++/4.5.2/new **** // see the files COPYING3 and COPYING.RUNTIME respectively.  If not, see
  26:/opt/toolchains/arm-none-eabi/bin/../lib/gcc/arm-none-eabi/4.5.2/../../../../arm-none-eabi/include/c++/4.5.2/new **** // <http://www.gnu.org/licenses/>.
  27:/opt/toolchains/arm-none-eabi/bin/../lib/gcc/arm-none-eabi/4.5.2/../../../../arm-none-eabi/include/c++/4.5.2/new **** 
  28:/opt/toolchains/arm-none-eabi/bin/../lib/gcc/arm-none-eabi/4.5.2/../../../../arm-none-eabi/include/c++/4.5.2/new **** /** @file new
  29:/opt/toolchains/arm-none-eabi/bin/../lib/gcc/arm-none-eabi/4.5.2/../../../../arm-none-eabi/include/c++/4.5.2/new ****  *  This is a Standard C++ Library header.
  30:/opt/toolchains/arm-none-eabi/bin/../lib/gcc/arm-none-eabi/4.5.2/../../../../arm-none-eabi/include/c++/4.5.2/new ****  *
  31:/opt/toolchains/arm-none-eabi/bin/../lib/gcc/arm-none-eabi/4.5.2/../../../../arm-none-eabi/include/c++/4.5.2/new ****  *  The header @c new defines several functions to manage dynamic memory and
  32:/opt/toolchains/arm-none-eabi/bin/../lib/gcc/arm-none-eabi/4.5.2/../../../../arm-none-eabi/include/c++/4.5.2/new ****  *  handling memory allocation errors; see
  33:/opt/toolchains/arm-none-eabi/bin/../lib/gcc/arm-none-eabi/4.5.2/../../../../arm-none-eabi/include/c++/4.5.2/new ****  *  http://gcc.gnu.org/onlinedocs/libstdc++/18_support/howto.html#4 for more.
  34:/opt/toolchains/arm-none-eabi/bin/../lib/gcc/arm-none-eabi/4.5.2/../../../../arm-none-eabi/include/c++/4.5.2/new ****  */
  35:/opt/toolchains/arm-none-eabi/bin/../lib/gcc/arm-none-eabi/4.5.2/../../../../arm-none-eabi/include/c++/4.5.2/new **** 
  36:/opt/toolchains/arm-none-eabi/bin/../lib/gcc/arm-none-eabi/4.5.2/../../../../arm-none-eabi/include/c++/4.5.2/new **** #ifndef _NEW
  37:/opt/toolchains/arm-none-eabi/bin/../lib/gcc/arm-none-eabi/4.5.2/../../../../arm-none-eabi/include/c++/4.5.2/new **** #define _NEW
  38:/opt/toolchains/arm-none-eabi/bin/../lib/gcc/arm-none-eabi/4.5.2/../../../../arm-none-eabi/include/c++/4.5.2/new **** 
  39:/opt/toolchains/arm-none-eabi/bin/../lib/gcc/arm-none-eabi/4.5.2/../../../../arm-none-eabi/include/c++/4.5.2/new **** #pragma GCC system_header
  40:/opt/toolchains/arm-none-eabi/bin/../lib/gcc/arm-none-eabi/4.5.2/../../../../arm-none-eabi/include/c++/4.5.2/new **** 
  41:/opt/toolchains/arm-none-eabi/bin/../lib/gcc/arm-none-eabi/4.5.2/../../../../arm-none-eabi/include/c++/4.5.2/new **** #include <cstddef>
  42:/opt/toolchains/arm-none-eabi/bin/../lib/gcc/arm-none-eabi/4.5.2/../../../../arm-none-eabi/include/c++/4.5.2/new **** #include <exception>
  43:/opt/toolchains/arm-none-eabi/bin/../lib/gcc/arm-none-eabi/4.5.2/../../../../arm-none-eabi/include/c++/4.5.2/new **** 
  44:/opt/toolchains/arm-none-eabi/bin/../lib/gcc/arm-none-eabi/4.5.2/../../../../arm-none-eabi/include/c++/4.5.2/new **** #pragma GCC visibility push(default)
  45:/opt/toolchains/arm-none-eabi/bin/../lib/gcc/arm-none-eabi/4.5.2/../../../../arm-none-eabi/include/c++/4.5.2/new **** 
  46:/opt/toolchains/arm-none-eabi/bin/../lib/gcc/arm-none-eabi/4.5.2/../../../../arm-none-eabi/include/c++/4.5.2/new **** extern "C++" {
  47:/opt/toolchains/arm-none-eabi/bin/../lib/gcc/arm-none-eabi/4.5.2/../../../../arm-none-eabi/include/c++/4.5.2/new **** 
  48:/opt/toolchains/arm-none-eabi/bin/../lib/gcc/arm-none-eabi/4.5.2/../../../../arm-none-eabi/include/c++/4.5.2/new **** namespace std 
  49:/opt/toolchains/arm-none-eabi/bin/../lib/gcc/arm-none-eabi/4.5.2/../../../../arm-none-eabi/include/c++/4.5.2/new **** {
  50:/opt/toolchains/arm-none-eabi/bin/../lib/gcc/arm-none-eabi/4.5.2/../../../../arm-none-eabi/include/c++/4.5.2/new ****   /**
  51:/opt/toolchains/arm-none-eabi/bin/../lib/gcc/arm-none-eabi/4.5.2/../../../../arm-none-eabi/include/c++/4.5.2/new ****    *  @brief  Exception possibly thrown by @c new.
  52:/opt/toolchains/arm-none-eabi/bin/../lib/gcc/arm-none-eabi/4.5.2/../../../../arm-none-eabi/include/c++/4.5.2/new ****    *  @ingroup exceptions
  53:/opt/toolchains/arm-none-eabi/bin/../lib/gcc/arm-none-eabi/4.5.2/../../../../arm-none-eabi/include/c++/4.5.2/new ****    *
  54:/opt/toolchains/arm-none-eabi/bin/../lib/gcc/arm-none-eabi/4.5.2/../../../../arm-none-eabi/include/c++/4.5.2/new ****    *  @c bad_alloc (or classes derived from it) is used to report allocation
  55:/opt/toolchains/arm-none-eabi/bin/../lib/gcc/arm-none-eabi/4.5.2/../../../../arm-none-eabi/include/c++/4.5.2/new ****    *  errors from the throwing forms of @c new.  */
  56:/opt/toolchains/arm-none-eabi/bin/../lib/gcc/arm-none-eabi/4.5.2/../../../../arm-none-eabi/include/c++/4.5.2/new ****   class bad_alloc : public exception 
  57:/opt/toolchains/arm-none-eabi/bin/../lib/gcc/arm-none-eabi/4.5.2/../../../../arm-none-eabi/include/c++/4.5.2/new ****   {
  58:/opt/toolchains/arm-none-eabi/bin/../lib/gcc/arm-none-eabi/4.5.2/../../../../arm-none-eabi/include/c++/4.5.2/new ****   public:
  59:/opt/toolchains/arm-none-eabi/bin/../lib/gcc/arm-none-eabi/4.5.2/../../../../arm-none-eabi/include/c++/4.5.2/new ****     bad_alloc() throw() { }
  60:/opt/toolchains/arm-none-eabi/bin/../lib/gcc/arm-none-eabi/4.5.2/../../../../arm-none-eabi/include/c++/4.5.2/new **** 
  61:/opt/toolchains/arm-none-eabi/bin/../lib/gcc/arm-none-eabi/4.5.2/../../../../arm-none-eabi/include/c++/4.5.2/new ****     // This declaration is not useless:
  62:/opt/toolchains/arm-none-eabi/bin/../lib/gcc/arm-none-eabi/4.5.2/../../../../arm-none-eabi/include/c++/4.5.2/new ****     // http://gcc.gnu.org/onlinedocs/gcc-3.0.2/gcc_6.html#SEC118
  63:/opt/toolchains/arm-none-eabi/bin/../lib/gcc/arm-none-eabi/4.5.2/../../../../arm-none-eabi/include/c++/4.5.2/new ****     virtual ~bad_alloc() throw();
  64:/opt/toolchains/arm-none-eabi/bin/../lib/gcc/arm-none-eabi/4.5.2/../../../../arm-none-eabi/include/c++/4.5.2/new **** 
  65:/opt/toolchains/arm-none-eabi/bin/../lib/gcc/arm-none-eabi/4.5.2/../../../../arm-none-eabi/include/c++/4.5.2/new ****     // See comment in eh_exception.cc.
  66:/opt/toolchains/arm-none-eabi/bin/../lib/gcc/arm-none-eabi/4.5.2/../../../../arm-none-eabi/include/c++/4.5.2/new ****     virtual const char* what() const throw();
  67:/opt/toolchains/arm-none-eabi/bin/../lib/gcc/arm-none-eabi/4.5.2/../../../../arm-none-eabi/include/c++/4.5.2/new ****   };
  68:/opt/toolchains/arm-none-eabi/bin/../lib/gcc/arm-none-eabi/4.5.2/../../../../arm-none-eabi/include/c++/4.5.2/new **** 
  69:/opt/toolchains/arm-none-eabi/bin/../lib/gcc/arm-none-eabi/4.5.2/../../../../arm-none-eabi/include/c++/4.5.2/new ****   struct nothrow_t { };
  70:/opt/toolchains/arm-none-eabi/bin/../lib/gcc/arm-none-eabi/4.5.2/../../../../arm-none-eabi/include/c++/4.5.2/new **** 
  71:/opt/toolchains/arm-none-eabi/bin/../lib/gcc/arm-none-eabi/4.5.2/../../../../arm-none-eabi/include/c++/4.5.2/new ****   extern const nothrow_t nothrow;
  72:/opt/toolchains/arm-none-eabi/bin/../lib/gcc/arm-none-eabi/4.5.2/../../../../arm-none-eabi/include/c++/4.5.2/new **** 
  73:/opt/toolchains/arm-none-eabi/bin/../lib/gcc/arm-none-eabi/4.5.2/../../../../arm-none-eabi/include/c++/4.5.2/new ****   /** If you write your own error handler to be called by @c new, it must
  74:/opt/toolchains/arm-none-eabi/bin/../lib/gcc/arm-none-eabi/4.5.2/../../../../arm-none-eabi/include/c++/4.5.2/new ****    *  be of this type.  */
  75:/opt/toolchains/arm-none-eabi/bin/../lib/gcc/arm-none-eabi/4.5.2/../../../../arm-none-eabi/include/c++/4.5.2/new ****   typedef void (*new_handler)();
  76:/opt/toolchains/arm-none-eabi/bin/../lib/gcc/arm-none-eabi/4.5.2/../../../../arm-none-eabi/include/c++/4.5.2/new **** 
  77:/opt/toolchains/arm-none-eabi/bin/../lib/gcc/arm-none-eabi/4.5.2/../../../../arm-none-eabi/include/c++/4.5.2/new ****   /// Takes a replacement handler as the argument, returns the
  78:/opt/toolchains/arm-none-eabi/bin/../lib/gcc/arm-none-eabi/4.5.2/../../../../arm-none-eabi/include/c++/4.5.2/new ****   /// previous handler.
  79:/opt/toolchains/arm-none-eabi/bin/../lib/gcc/arm-none-eabi/4.5.2/../../../../arm-none-eabi/include/c++/4.5.2/new ****   new_handler set_new_handler(new_handler) throw();
  80:/opt/toolchains/arm-none-eabi/bin/../lib/gcc/arm-none-eabi/4.5.2/../../../../arm-none-eabi/include/c++/4.5.2/new **** } // namespace std
  81:/opt/toolchains/arm-none-eabi/bin/../lib/gcc/arm-none-eabi/4.5.2/../../../../arm-none-eabi/include/c++/4.5.2/new **** 
  82:/opt/toolchains/arm-none-eabi/bin/../lib/gcc/arm-none-eabi/4.5.2/../../../../arm-none-eabi/include/c++/4.5.2/new **** //@{
  83:/opt/toolchains/arm-none-eabi/bin/../lib/gcc/arm-none-eabi/4.5.2/../../../../arm-none-eabi/include/c++/4.5.2/new **** /** These are replaceable signatures:
  84:/opt/toolchains/arm-none-eabi/bin/../lib/gcc/arm-none-eabi/4.5.2/../../../../arm-none-eabi/include/c++/4.5.2/new ****  *  - normal single new and delete (no arguments, throw @c bad_alloc on error)
  85:/opt/toolchains/arm-none-eabi/bin/../lib/gcc/arm-none-eabi/4.5.2/../../../../arm-none-eabi/include/c++/4.5.2/new ****  *  - normal array new and delete (same)
  86:/opt/toolchains/arm-none-eabi/bin/../lib/gcc/arm-none-eabi/4.5.2/../../../../arm-none-eabi/include/c++/4.5.2/new ****  *  - @c nothrow single new and delete (take a @c nothrow argument, return
  87:/opt/toolchains/arm-none-eabi/bin/../lib/gcc/arm-none-eabi/4.5.2/../../../../arm-none-eabi/include/c++/4.5.2/new ****  *    @c NULL on error)
  88:/opt/toolchains/arm-none-eabi/bin/../lib/gcc/arm-none-eabi/4.5.2/../../../../arm-none-eabi/include/c++/4.5.2/new ****  *  - @c nothrow array new and delete (same)
  89:/opt/toolchains/arm-none-eabi/bin/../lib/gcc/arm-none-eabi/4.5.2/../../../../arm-none-eabi/include/c++/4.5.2/new ****  *
  90:/opt/toolchains/arm-none-eabi/bin/../lib/gcc/arm-none-eabi/4.5.2/../../../../arm-none-eabi/include/c++/4.5.2/new ****  *  Placement new and delete signatures (take a memory address argument,
  91:/opt/toolchains/arm-none-eabi/bin/../lib/gcc/arm-none-eabi/4.5.2/../../../../arm-none-eabi/include/c++/4.5.2/new ****  *  does nothing) may not be replaced by a user's program.
  92:/opt/toolchains/arm-none-eabi/bin/../lib/gcc/arm-none-eabi/4.5.2/../../../../arm-none-eabi/include/c++/4.5.2/new **** */
  93:/opt/toolchains/arm-none-eabi/bin/../lib/gcc/arm-none-eabi/4.5.2/../../../../arm-none-eabi/include/c++/4.5.2/new **** void* operator new(std::size_t) throw (std::bad_alloc);
  94:/opt/toolchains/arm-none-eabi/bin/../lib/gcc/arm-none-eabi/4.5.2/../../../../arm-none-eabi/include/c++/4.5.2/new **** void* operator new[](std::size_t) throw (std::bad_alloc);
  95:/opt/toolchains/arm-none-eabi/bin/../lib/gcc/arm-none-eabi/4.5.2/../../../../arm-none-eabi/include/c++/4.5.2/new **** void operator delete(void*) throw();
  96:/opt/toolchains/arm-none-eabi/bin/../lib/gcc/arm-none-eabi/4.5.2/../../../../arm-none-eabi/include/c++/4.5.2/new **** void operator delete[](void*) throw();
  97:/opt/toolchains/arm-none-eabi/bin/../lib/gcc/arm-none-eabi/4.5.2/../../../../arm-none-eabi/include/c++/4.5.2/new **** void* operator new(std::size_t, const std::nothrow_t&) throw();
  98:/opt/toolchains/arm-none-eabi/bin/../lib/gcc/arm-none-eabi/4.5.2/../../../../arm-none-eabi/include/c++/4.5.2/new **** void* operator new[](std::size_t, const std::nothrow_t&) throw();
  99:/opt/toolchains/arm-none-eabi/bin/../lib/gcc/arm-none-eabi/4.5.2/../../../../arm-none-eabi/include/c++/4.5.2/new **** void operator delete(void*, const std::nothrow_t&) throw();
 100:/opt/toolchains/arm-none-eabi/bin/../lib/gcc/arm-none-eabi/4.5.2/../../../../arm-none-eabi/include/c++/4.5.2/new **** void operator delete[](void*, const std::nothrow_t&) throw();
 101:/opt/toolchains/arm-none-eabi/bin/../lib/gcc/arm-none-eabi/4.5.2/../../../../arm-none-eabi/include/c++/4.5.2/new **** 
 102:/opt/toolchains/arm-none-eabi/bin/../lib/gcc/arm-none-eabi/4.5.2/../../../../arm-none-eabi/include/c++/4.5.2/new **** // Default placement versions of operator new.
 103:/opt/toolchains/arm-none-eabi/bin/../lib/gcc/arm-none-eabi/4.5.2/../../../../arm-none-eabi/include/c++/4.5.2/new **** inline void* operator new(std::size_t, void* __p) throw() { return __p; }
 1906              		.loc 28 103 0
 1907              		.cfi_startproc
 1908              		@ args = 0, pretend = 0, frame = 8
 1909              		@ frame_needed = 1, uses_anonymous_args = 0
 1910              		@ link register save eliminated.
 1911 0000 80B4     		push	{r7}
 1912              	.LCFI9:
 1913              		.cfi_def_cfa_offset 4
 1914 0002 83B0     		sub	sp, sp, #12
 1915              	.LCFI10:
 1916              		.cfi_def_cfa_offset 16
 1917 0004 00AF     		add	r7, sp, #0
 1918              		.cfi_offset 7, -4
 1919              	.LCFI11:
 1920              		.cfi_def_cfa_register 7
 1921 0006 7860     		str	r0, [r7, #4]
 1922 0008 3960     		str	r1, [r7, #0]
 1923              		.loc 28 103 0
 1924 000a 3B68     		ldr	r3, [r7, #0]
 1925 000c 1846     		mov	r0, r3
 1926 000e 07F10C07 		add	r7, r7, #12
 1927 0012 BD46     		mov	sp, r7
 1928 0014 80BC     		pop	{r7}
 1929 0016 7047     		bx	lr
 1930              		.cfi_endproc
 1931              	.LFE179:
 1933              		.section	.text._ZSt16__deque_buf_sizej,"axG",%progbits,_ZSt16__deque_buf_sizej,comdat
 1934              		.align	2
 1935              		.weak	_ZSt16__deque_buf_sizej
 1936              		.thumb
 1937              		.thumb_func
 1939              	_ZSt16__deque_buf_sizej:
 1940              	.LFB238:
   1:/opt/toolchains/arm-none-eabi/bin/../lib/gcc/arm-none-eabi/4.5.2/../../../../arm-none-eabi/include/c++/4.5.2/bits/stl_deque.h **** // Deque implementation -*- C++ -*-
   2:/opt/toolchains/arm-none-eabi/bin/../lib/gcc/arm-none-eabi/4.5.2/../../../../arm-none-eabi/include/c++/4.5.2/bits/stl_deque.h **** 
   3:/opt/toolchains/arm-none-eabi/bin/../lib/gcc/arm-none-eabi/4.5.2/../../../../arm-none-eabi/include/c++/4.5.2/bits/stl_deque.h **** // Copyright (C) 2001, 2002, 2003, 2004, 2005, 2006, 2007, 2008, 2009, 2010
   4:/opt/toolchains/arm-none-eabi/bin/../lib/gcc/arm-none-eabi/4.5.2/../../../../arm-none-eabi/include/c++/4.5.2/bits/stl_deque.h **** // Free Software Foundation, Inc.
   5:/opt/toolchains/arm-none-eabi/bin/../lib/gcc/arm-none-eabi/4.5.2/../../../../arm-none-eabi/include/c++/4.5.2/bits/stl_deque.h **** //
   6:/opt/toolchains/arm-none-eabi/bin/../lib/gcc/arm-none-eabi/4.5.2/../../../../arm-none-eabi/include/c++/4.5.2/bits/stl_deque.h **** // This file is part of the GNU ISO C++ Library.  This library is free
   7:/opt/toolchains/arm-none-eabi/bin/../lib/gcc/arm-none-eabi/4.5.2/../../../../arm-none-eabi/include/c++/4.5.2/bits/stl_deque.h **** // software; you can redistribute it and/or modify it under the
   8:/opt/toolchains/arm-none-eabi/bin/../lib/gcc/arm-none-eabi/4.5.2/../../../../arm-none-eabi/include/c++/4.5.2/bits/stl_deque.h **** // terms of the GNU General Public License as published by the
   9:/opt/toolchains/arm-none-eabi/bin/../lib/gcc/arm-none-eabi/4.5.2/../../../../arm-none-eabi/include/c++/4.5.2/bits/stl_deque.h **** // Free Software Foundation; either version 3, or (at your option)
  10:/opt/toolchains/arm-none-eabi/bin/../lib/gcc/arm-none-eabi/4.5.2/../../../../arm-none-eabi/include/c++/4.5.2/bits/stl_deque.h **** // any later version.
  11:/opt/toolchains/arm-none-eabi/bin/../lib/gcc/arm-none-eabi/4.5.2/../../../../arm-none-eabi/include/c++/4.5.2/bits/stl_deque.h **** 
  12:/opt/toolchains/arm-none-eabi/bin/../lib/gcc/arm-none-eabi/4.5.2/../../../../arm-none-eabi/include/c++/4.5.2/bits/stl_deque.h **** // This library is distributed in the hope that it will be useful,
  13:/opt/toolchains/arm-none-eabi/bin/../lib/gcc/arm-none-eabi/4.5.2/../../../../arm-none-eabi/include/c++/4.5.2/bits/stl_deque.h **** // but WITHOUT ANY WARRANTY; without even the implied warranty of
  14:/opt/toolchains/arm-none-eabi/bin/../lib/gcc/arm-none-eabi/4.5.2/../../../../arm-none-eabi/include/c++/4.5.2/bits/stl_deque.h **** // MERCHANTABILITY or FITNESS FOR A PARTICULAR PURPOSE.  See the
  15:/opt/toolchains/arm-none-eabi/bin/../lib/gcc/arm-none-eabi/4.5.2/../../../../arm-none-eabi/include/c++/4.5.2/bits/stl_deque.h **** // GNU General Public License for more details.
  16:/opt/toolchains/arm-none-eabi/bin/../lib/gcc/arm-none-eabi/4.5.2/../../../../arm-none-eabi/include/c++/4.5.2/bits/stl_deque.h **** 
  17:/opt/toolchains/arm-none-eabi/bin/../lib/gcc/arm-none-eabi/4.5.2/../../../../arm-none-eabi/include/c++/4.5.2/bits/stl_deque.h **** // Under Section 7 of GPL version 3, you are granted additional
  18:/opt/toolchains/arm-none-eabi/bin/../lib/gcc/arm-none-eabi/4.5.2/../../../../arm-none-eabi/include/c++/4.5.2/bits/stl_deque.h **** // permissions described in the GCC Runtime Library Exception, version
  19:/opt/toolchains/arm-none-eabi/bin/../lib/gcc/arm-none-eabi/4.5.2/../../../../arm-none-eabi/include/c++/4.5.2/bits/stl_deque.h **** // 3.1, as published by the Free Software Foundation.
  20:/opt/toolchains/arm-none-eabi/bin/../lib/gcc/arm-none-eabi/4.5.2/../../../../arm-none-eabi/include/c++/4.5.2/bits/stl_deque.h **** 
  21:/opt/toolchains/arm-none-eabi/bin/../lib/gcc/arm-none-eabi/4.5.2/../../../../arm-none-eabi/include/c++/4.5.2/bits/stl_deque.h **** // You should have received a copy of the GNU General Public License and
  22:/opt/toolchains/arm-none-eabi/bin/../lib/gcc/arm-none-eabi/4.5.2/../../../../arm-none-eabi/include/c++/4.5.2/bits/stl_deque.h **** // a copy of the GCC Runtime Library Exception along with this program;
  23:/opt/toolchains/arm-none-eabi/bin/../lib/gcc/arm-none-eabi/4.5.2/../../../../arm-none-eabi/include/c++/4.5.2/bits/stl_deque.h **** // see the files COPYING3 and COPYING.RUNTIME respectively.  If not, see
  24:/opt/toolchains/arm-none-eabi/bin/../lib/gcc/arm-none-eabi/4.5.2/../../../../arm-none-eabi/include/c++/4.5.2/bits/stl_deque.h **** // <http://www.gnu.org/licenses/>.
  25:/opt/toolchains/arm-none-eabi/bin/../lib/gcc/arm-none-eabi/4.5.2/../../../../arm-none-eabi/include/c++/4.5.2/bits/stl_deque.h **** 
  26:/opt/toolchains/arm-none-eabi/bin/../lib/gcc/arm-none-eabi/4.5.2/../../../../arm-none-eabi/include/c++/4.5.2/bits/stl_deque.h **** /*
  27:/opt/toolchains/arm-none-eabi/bin/../lib/gcc/arm-none-eabi/4.5.2/../../../../arm-none-eabi/include/c++/4.5.2/bits/stl_deque.h ****  *
  28:/opt/toolchains/arm-none-eabi/bin/../lib/gcc/arm-none-eabi/4.5.2/../../../../arm-none-eabi/include/c++/4.5.2/bits/stl_deque.h ****  * Copyright (c) 1994
  29:/opt/toolchains/arm-none-eabi/bin/../lib/gcc/arm-none-eabi/4.5.2/../../../../arm-none-eabi/include/c++/4.5.2/bits/stl_deque.h ****  * Hewlett-Packard Company
  30:/opt/toolchains/arm-none-eabi/bin/../lib/gcc/arm-none-eabi/4.5.2/../../../../arm-none-eabi/include/c++/4.5.2/bits/stl_deque.h ****  *
  31:/opt/toolchains/arm-none-eabi/bin/../lib/gcc/arm-none-eabi/4.5.2/../../../../arm-none-eabi/include/c++/4.5.2/bits/stl_deque.h ****  * Permission to use, copy, modify, distribute and sell this software
  32:/opt/toolchains/arm-none-eabi/bin/../lib/gcc/arm-none-eabi/4.5.2/../../../../arm-none-eabi/include/c++/4.5.2/bits/stl_deque.h ****  * and its documentation for any purpose is hereby granted without fee,
  33:/opt/toolchains/arm-none-eabi/bin/../lib/gcc/arm-none-eabi/4.5.2/../../../../arm-none-eabi/include/c++/4.5.2/bits/stl_deque.h ****  * provided that the above copyright notice appear in all copies and
  34:/opt/toolchains/arm-none-eabi/bin/../lib/gcc/arm-none-eabi/4.5.2/../../../../arm-none-eabi/include/c++/4.5.2/bits/stl_deque.h ****  * that both that copyright notice and this permission notice appear
  35:/opt/toolchains/arm-none-eabi/bin/../lib/gcc/arm-none-eabi/4.5.2/../../../../arm-none-eabi/include/c++/4.5.2/bits/stl_deque.h ****  * in supporting documentation.  Hewlett-Packard Company makes no
  36:/opt/toolchains/arm-none-eabi/bin/../lib/gcc/arm-none-eabi/4.5.2/../../../../arm-none-eabi/include/c++/4.5.2/bits/stl_deque.h ****  * representations about the suitability of this software for any
  37:/opt/toolchains/arm-none-eabi/bin/../lib/gcc/arm-none-eabi/4.5.2/../../../../arm-none-eabi/include/c++/4.5.2/bits/stl_deque.h ****  * purpose.  It is provided "as is" without express or implied warranty.
  38:/opt/toolchains/arm-none-eabi/bin/../lib/gcc/arm-none-eabi/4.5.2/../../../../arm-none-eabi/include/c++/4.5.2/bits/stl_deque.h ****  *
  39:/opt/toolchains/arm-none-eabi/bin/../lib/gcc/arm-none-eabi/4.5.2/../../../../arm-none-eabi/include/c++/4.5.2/bits/stl_deque.h ****  *
  40:/opt/toolchains/arm-none-eabi/bin/../lib/gcc/arm-none-eabi/4.5.2/../../../../arm-none-eabi/include/c++/4.5.2/bits/stl_deque.h ****  * Copyright (c) 1997
  41:/opt/toolchains/arm-none-eabi/bin/../lib/gcc/arm-none-eabi/4.5.2/../../../../arm-none-eabi/include/c++/4.5.2/bits/stl_deque.h ****  * Silicon Graphics Computer Systems, Inc.
  42:/opt/toolchains/arm-none-eabi/bin/../lib/gcc/arm-none-eabi/4.5.2/../../../../arm-none-eabi/include/c++/4.5.2/bits/stl_deque.h ****  *
  43:/opt/toolchains/arm-none-eabi/bin/../lib/gcc/arm-none-eabi/4.5.2/../../../../arm-none-eabi/include/c++/4.5.2/bits/stl_deque.h ****  * Permission to use, copy, modify, distribute and sell this software
  44:/opt/toolchains/arm-none-eabi/bin/../lib/gcc/arm-none-eabi/4.5.2/../../../../arm-none-eabi/include/c++/4.5.2/bits/stl_deque.h ****  * and its documentation for any purpose is hereby granted without fee,
  45:/opt/toolchains/arm-none-eabi/bin/../lib/gcc/arm-none-eabi/4.5.2/../../../../arm-none-eabi/include/c++/4.5.2/bits/stl_deque.h ****  * provided that the above copyright notice appear in all copies and
  46:/opt/toolchains/arm-none-eabi/bin/../lib/gcc/arm-none-eabi/4.5.2/../../../../arm-none-eabi/include/c++/4.5.2/bits/stl_deque.h ****  * that both that copyright notice and this permission notice appear
  47:/opt/toolchains/arm-none-eabi/bin/../lib/gcc/arm-none-eabi/4.5.2/../../../../arm-none-eabi/include/c++/4.5.2/bits/stl_deque.h ****  * in supporting documentation.  Silicon Graphics makes no
  48:/opt/toolchains/arm-none-eabi/bin/../lib/gcc/arm-none-eabi/4.5.2/../../../../arm-none-eabi/include/c++/4.5.2/bits/stl_deque.h ****  * representations about the suitability of this software for any
  49:/opt/toolchains/arm-none-eabi/bin/../lib/gcc/arm-none-eabi/4.5.2/../../../../arm-none-eabi/include/c++/4.5.2/bits/stl_deque.h ****  * purpose.  It is provided "as is" without express or implied warranty.
  50:/opt/toolchains/arm-none-eabi/bin/../lib/gcc/arm-none-eabi/4.5.2/../../../../arm-none-eabi/include/c++/4.5.2/bits/stl_deque.h ****  */
  51:/opt/toolchains/arm-none-eabi/bin/../lib/gcc/arm-none-eabi/4.5.2/../../../../arm-none-eabi/include/c++/4.5.2/bits/stl_deque.h **** 
  52:/opt/toolchains/arm-none-eabi/bin/../lib/gcc/arm-none-eabi/4.5.2/../../../../arm-none-eabi/include/c++/4.5.2/bits/stl_deque.h **** /** @file stl_deque.h
  53:/opt/toolchains/arm-none-eabi/bin/../lib/gcc/arm-none-eabi/4.5.2/../../../../arm-none-eabi/include/c++/4.5.2/bits/stl_deque.h ****  *  This is an internal header file, included by other library headers.
  54:/opt/toolchains/arm-none-eabi/bin/../lib/gcc/arm-none-eabi/4.5.2/../../../../arm-none-eabi/include/c++/4.5.2/bits/stl_deque.h ****  *  You should not attempt to use it directly.
  55:/opt/toolchains/arm-none-eabi/bin/../lib/gcc/arm-none-eabi/4.5.2/../../../../arm-none-eabi/include/c++/4.5.2/bits/stl_deque.h ****  */
  56:/opt/toolchains/arm-none-eabi/bin/../lib/gcc/arm-none-eabi/4.5.2/../../../../arm-none-eabi/include/c++/4.5.2/bits/stl_deque.h **** 
  57:/opt/toolchains/arm-none-eabi/bin/../lib/gcc/arm-none-eabi/4.5.2/../../../../arm-none-eabi/include/c++/4.5.2/bits/stl_deque.h **** #ifndef _STL_DEQUE_H
  58:/opt/toolchains/arm-none-eabi/bin/../lib/gcc/arm-none-eabi/4.5.2/../../../../arm-none-eabi/include/c++/4.5.2/bits/stl_deque.h **** #define _STL_DEQUE_H 1
  59:/opt/toolchains/arm-none-eabi/bin/../lib/gcc/arm-none-eabi/4.5.2/../../../../arm-none-eabi/include/c++/4.5.2/bits/stl_deque.h **** 
  60:/opt/toolchains/arm-none-eabi/bin/../lib/gcc/arm-none-eabi/4.5.2/../../../../arm-none-eabi/include/c++/4.5.2/bits/stl_deque.h **** #include <bits/concept_check.h>
  61:/opt/toolchains/arm-none-eabi/bin/../lib/gcc/arm-none-eabi/4.5.2/../../../../arm-none-eabi/include/c++/4.5.2/bits/stl_deque.h **** #include <bits/stl_iterator_base_types.h>
  62:/opt/toolchains/arm-none-eabi/bin/../lib/gcc/arm-none-eabi/4.5.2/../../../../arm-none-eabi/include/c++/4.5.2/bits/stl_deque.h **** #include <bits/stl_iterator_base_funcs.h>
  63:/opt/toolchains/arm-none-eabi/bin/../lib/gcc/arm-none-eabi/4.5.2/../../../../arm-none-eabi/include/c++/4.5.2/bits/stl_deque.h **** #include <initializer_list>
  64:/opt/toolchains/arm-none-eabi/bin/../lib/gcc/arm-none-eabi/4.5.2/../../../../arm-none-eabi/include/c++/4.5.2/bits/stl_deque.h **** 
  65:/opt/toolchains/arm-none-eabi/bin/../lib/gcc/arm-none-eabi/4.5.2/../../../../arm-none-eabi/include/c++/4.5.2/bits/stl_deque.h **** _GLIBCXX_BEGIN_NESTED_NAMESPACE(std, _GLIBCXX_STD_D)
  66:/opt/toolchains/arm-none-eabi/bin/../lib/gcc/arm-none-eabi/4.5.2/../../../../arm-none-eabi/include/c++/4.5.2/bits/stl_deque.h **** 
  67:/opt/toolchains/arm-none-eabi/bin/../lib/gcc/arm-none-eabi/4.5.2/../../../../arm-none-eabi/include/c++/4.5.2/bits/stl_deque.h ****   /**
  68:/opt/toolchains/arm-none-eabi/bin/../lib/gcc/arm-none-eabi/4.5.2/../../../../arm-none-eabi/include/c++/4.5.2/bits/stl_deque.h ****    *  @brief This function controls the size of memory nodes.
  69:/opt/toolchains/arm-none-eabi/bin/../lib/gcc/arm-none-eabi/4.5.2/../../../../arm-none-eabi/include/c++/4.5.2/bits/stl_deque.h ****    *  @param  size  The size of an element.
  70:/opt/toolchains/arm-none-eabi/bin/../lib/gcc/arm-none-eabi/4.5.2/../../../../arm-none-eabi/include/c++/4.5.2/bits/stl_deque.h ****    *  @return   The number (not byte size) of elements per node.
  71:/opt/toolchains/arm-none-eabi/bin/../lib/gcc/arm-none-eabi/4.5.2/../../../../arm-none-eabi/include/c++/4.5.2/bits/stl_deque.h ****    *
  72:/opt/toolchains/arm-none-eabi/bin/../lib/gcc/arm-none-eabi/4.5.2/../../../../arm-none-eabi/include/c++/4.5.2/bits/stl_deque.h ****    *  This function started off as a compiler kludge from SGI, but
  73:/opt/toolchains/arm-none-eabi/bin/../lib/gcc/arm-none-eabi/4.5.2/../../../../arm-none-eabi/include/c++/4.5.2/bits/stl_deque.h ****    *  seems to be a useful wrapper around a repeated constant
  74:/opt/toolchains/arm-none-eabi/bin/../lib/gcc/arm-none-eabi/4.5.2/../../../../arm-none-eabi/include/c++/4.5.2/bits/stl_deque.h ****    *  expression.  The @b 512 is tunable (and no other code needs to
  75:/opt/toolchains/arm-none-eabi/bin/../lib/gcc/arm-none-eabi/4.5.2/../../../../arm-none-eabi/include/c++/4.5.2/bits/stl_deque.h ****    *  change), but no investigation has been done since inheriting the
  76:/opt/toolchains/arm-none-eabi/bin/../lib/gcc/arm-none-eabi/4.5.2/../../../../arm-none-eabi/include/c++/4.5.2/bits/stl_deque.h ****    *  SGI code.  Touch _GLIBCXX_DEQUE_BUF_SIZE only if you know what
  77:/opt/toolchains/arm-none-eabi/bin/../lib/gcc/arm-none-eabi/4.5.2/../../../../arm-none-eabi/include/c++/4.5.2/bits/stl_deque.h ****    *  you are doing, however: changing it breaks the binary
  78:/opt/toolchains/arm-none-eabi/bin/../lib/gcc/arm-none-eabi/4.5.2/../../../../arm-none-eabi/include/c++/4.5.2/bits/stl_deque.h ****    *  compatibility!!
  79:/opt/toolchains/arm-none-eabi/bin/../lib/gcc/arm-none-eabi/4.5.2/../../../../arm-none-eabi/include/c++/4.5.2/bits/stl_deque.h ****   */
  80:/opt/toolchains/arm-none-eabi/bin/../lib/gcc/arm-none-eabi/4.5.2/../../../../arm-none-eabi/include/c++/4.5.2/bits/stl_deque.h **** 
  81:/opt/toolchains/arm-none-eabi/bin/../lib/gcc/arm-none-eabi/4.5.2/../../../../arm-none-eabi/include/c++/4.5.2/bits/stl_deque.h **** #ifndef _GLIBCXX_DEQUE_BUF_SIZE
  82:/opt/toolchains/arm-none-eabi/bin/../lib/gcc/arm-none-eabi/4.5.2/../../../../arm-none-eabi/include/c++/4.5.2/bits/stl_deque.h **** #define _GLIBCXX_DEQUE_BUF_SIZE 512
  83:/opt/toolchains/arm-none-eabi/bin/../lib/gcc/arm-none-eabi/4.5.2/../../../../arm-none-eabi/include/c++/4.5.2/bits/stl_deque.h **** #endif
  84:/opt/toolchains/arm-none-eabi/bin/../lib/gcc/arm-none-eabi/4.5.2/../../../../arm-none-eabi/include/c++/4.5.2/bits/stl_deque.h **** 
  85:/opt/toolchains/arm-none-eabi/bin/../lib/gcc/arm-none-eabi/4.5.2/../../../../arm-none-eabi/include/c++/4.5.2/bits/stl_deque.h ****   inline size_t
  86:/opt/toolchains/arm-none-eabi/bin/../lib/gcc/arm-none-eabi/4.5.2/../../../../arm-none-eabi/include/c++/4.5.2/bits/stl_deque.h ****   __deque_buf_size(size_t __size)
  87:/opt/toolchains/arm-none-eabi/bin/../lib/gcc/arm-none-eabi/4.5.2/../../../../arm-none-eabi/include/c++/4.5.2/bits/stl_deque.h ****   { return (__size < _GLIBCXX_DEQUE_BUF_SIZE
 1941              		.loc 32 87 0
 1942              		.cfi_startproc
 1943              		@ args = 0, pretend = 0, frame = 8
 1944              		@ frame_needed = 1, uses_anonymous_args = 0
 1945              		@ link register save eliminated.
 1946 0000 80B4     		push	{r7}
 1947              	.LCFI12:
 1948              		.cfi_def_cfa_offset 4
 1949 0002 83B0     		sub	sp, sp, #12
 1950              	.LCFI13:
 1951              		.cfi_def_cfa_offset 16
 1952 0004 00AF     		add	r7, sp, #0
 1953              		.cfi_offset 7, -4
 1954              	.LCFI14:
 1955              		.cfi_def_cfa_register 7
 1956 0006 7860     		str	r0, [r7, #4]
  88:/opt/toolchains/arm-none-eabi/bin/../lib/gcc/arm-none-eabi/4.5.2/../../../../arm-none-eabi/include/c++/4.5.2/bits/stl_deque.h **** 	    ? size_t(_GLIBCXX_DEQUE_BUF_SIZE / __size) : size_t(1)); }
 1957              		.loc 32 88 0
 1958 0008 7A68     		ldr	r2, [r7, #4]
 1959 000a 40F2FF13 		movw	r3, #511
 1960 000e 9A42     		cmp	r2, r3
 1961 0010 05D8     		bhi	.L6
 1962              		.loc 32 88 0 is_stmt 0 discriminator 1
 1963 0012 4FF40072 		mov	r2, #512
 1964 0016 7B68     		ldr	r3, [r7, #4]
 1965 0018 B2FBF3F3 		udiv	r3, r2, r3
 1966 001c 01E0     		b	.L7
 1967              	.L6:
 1968              		.loc 32 88 0 discriminator 2
 1969 001e 4FF00103 		mov	r3, #1
 1970              	.L7:
 1971              		.loc 32 88 0 discriminator 3
 1972 0022 1846     		mov	r0, r3
 1973 0024 07F10C07 		add	r7, r7, #12
 1974 0028 BD46     		mov	sp, r7
 1975 002a 80BC     		pop	{r7}
 1976 002c 7047     		bx	lr
 1977              		.cfi_endproc
 1978              	.LFE238:
 1980 002e 00BF     		.section	.text._ZNSt5queueIP8IXFEventSt5dequeIS1_SaIS1_EEED2Ev,"axG",%progbits,_ZNSt5queueIP8IXFEv
 1981              		.align	2
 1982              		.weak	_ZNSt5queueIP8IXFEventSt5dequeIS1_SaIS1_EEED2Ev
 1983              		.thumb
 1984              		.thumb_func
 1986              	_ZNSt5queueIP8IXFEventSt5dequeIS1_SaIS1_EEED2Ev:
 1987              	.LFB711:
   1:/opt/toolchains/arm-none-eabi/bin/../lib/gcc/arm-none-eabi/4.5.2/../../../../arm-none-eabi/include/c++/4.5.2/bits/stl_queue.h **** // Queue implementation -*- C++ -*-
   2:/opt/toolchains/arm-none-eabi/bin/../lib/gcc/arm-none-eabi/4.5.2/../../../../arm-none-eabi/include/c++/4.5.2/bits/stl_queue.h **** 
   3:/opt/toolchains/arm-none-eabi/bin/../lib/gcc/arm-none-eabi/4.5.2/../../../../arm-none-eabi/include/c++/4.5.2/bits/stl_queue.h **** // Copyright (C) 2001, 2002, 2003, 2004, 2005, 2006, 2007, 2008, 2009
   4:/opt/toolchains/arm-none-eabi/bin/../lib/gcc/arm-none-eabi/4.5.2/../../../../arm-none-eabi/include/c++/4.5.2/bits/stl_queue.h **** // Free Software Foundation, Inc.
   5:/opt/toolchains/arm-none-eabi/bin/../lib/gcc/arm-none-eabi/4.5.2/../../../../arm-none-eabi/include/c++/4.5.2/bits/stl_queue.h **** //
   6:/opt/toolchains/arm-none-eabi/bin/../lib/gcc/arm-none-eabi/4.5.2/../../../../arm-none-eabi/include/c++/4.5.2/bits/stl_queue.h **** // This file is part of the GNU ISO C++ Library.  This library is free
   7:/opt/toolchains/arm-none-eabi/bin/../lib/gcc/arm-none-eabi/4.5.2/../../../../arm-none-eabi/include/c++/4.5.2/bits/stl_queue.h **** // software; you can redistribute it and/or modify it under the
   8:/opt/toolchains/arm-none-eabi/bin/../lib/gcc/arm-none-eabi/4.5.2/../../../../arm-none-eabi/include/c++/4.5.2/bits/stl_queue.h **** // terms of the GNU General Public License as published by the
   9:/opt/toolchains/arm-none-eabi/bin/../lib/gcc/arm-none-eabi/4.5.2/../../../../arm-none-eabi/include/c++/4.5.2/bits/stl_queue.h **** // Free Software Foundation; either version 3, or (at your option)
  10:/opt/toolchains/arm-none-eabi/bin/../lib/gcc/arm-none-eabi/4.5.2/../../../../arm-none-eabi/include/c++/4.5.2/bits/stl_queue.h **** // any later version.
  11:/opt/toolchains/arm-none-eabi/bin/../lib/gcc/arm-none-eabi/4.5.2/../../../../arm-none-eabi/include/c++/4.5.2/bits/stl_queue.h **** 
  12:/opt/toolchains/arm-none-eabi/bin/../lib/gcc/arm-none-eabi/4.5.2/../../../../arm-none-eabi/include/c++/4.5.2/bits/stl_queue.h **** // This library is distributed in the hope that it will be useful,
  13:/opt/toolchains/arm-none-eabi/bin/../lib/gcc/arm-none-eabi/4.5.2/../../../../arm-none-eabi/include/c++/4.5.2/bits/stl_queue.h **** // but WITHOUT ANY WARRANTY; without even the implied warranty of
  14:/opt/toolchains/arm-none-eabi/bin/../lib/gcc/arm-none-eabi/4.5.2/../../../../arm-none-eabi/include/c++/4.5.2/bits/stl_queue.h **** // MERCHANTABILITY or FITNESS FOR A PARTICULAR PURPOSE.  See the
  15:/opt/toolchains/arm-none-eabi/bin/../lib/gcc/arm-none-eabi/4.5.2/../../../../arm-none-eabi/include/c++/4.5.2/bits/stl_queue.h **** // GNU General Public License for more details.
  16:/opt/toolchains/arm-none-eabi/bin/../lib/gcc/arm-none-eabi/4.5.2/../../../../arm-none-eabi/include/c++/4.5.2/bits/stl_queue.h **** 
  17:/opt/toolchains/arm-none-eabi/bin/../lib/gcc/arm-none-eabi/4.5.2/../../../../arm-none-eabi/include/c++/4.5.2/bits/stl_queue.h **** // Under Section 7 of GPL version 3, you are granted additional
  18:/opt/toolchains/arm-none-eabi/bin/../lib/gcc/arm-none-eabi/4.5.2/../../../../arm-none-eabi/include/c++/4.5.2/bits/stl_queue.h **** // permissions described in the GCC Runtime Library Exception, version
  19:/opt/toolchains/arm-none-eabi/bin/../lib/gcc/arm-none-eabi/4.5.2/../../../../arm-none-eabi/include/c++/4.5.2/bits/stl_queue.h **** // 3.1, as published by the Free Software Foundation.
  20:/opt/toolchains/arm-none-eabi/bin/../lib/gcc/arm-none-eabi/4.5.2/../../../../arm-none-eabi/include/c++/4.5.2/bits/stl_queue.h **** 
  21:/opt/toolchains/arm-none-eabi/bin/../lib/gcc/arm-none-eabi/4.5.2/../../../../arm-none-eabi/include/c++/4.5.2/bits/stl_queue.h **** // You should have received a copy of the GNU General Public License and
  22:/opt/toolchains/arm-none-eabi/bin/../lib/gcc/arm-none-eabi/4.5.2/../../../../arm-none-eabi/include/c++/4.5.2/bits/stl_queue.h **** // a copy of the GCC Runtime Library Exception along with this program;
  23:/opt/toolchains/arm-none-eabi/bin/../lib/gcc/arm-none-eabi/4.5.2/../../../../arm-none-eabi/include/c++/4.5.2/bits/stl_queue.h **** // see the files COPYING3 and COPYING.RUNTIME respectively.  If not, see
  24:/opt/toolchains/arm-none-eabi/bin/../lib/gcc/arm-none-eabi/4.5.2/../../../../arm-none-eabi/include/c++/4.5.2/bits/stl_queue.h **** // <http://www.gnu.org/licenses/>.
  25:/opt/toolchains/arm-none-eabi/bin/../lib/gcc/arm-none-eabi/4.5.2/../../../../arm-none-eabi/include/c++/4.5.2/bits/stl_queue.h **** 
  26:/opt/toolchains/arm-none-eabi/bin/../lib/gcc/arm-none-eabi/4.5.2/../../../../arm-none-eabi/include/c++/4.5.2/bits/stl_queue.h **** /*
  27:/opt/toolchains/arm-none-eabi/bin/../lib/gcc/arm-none-eabi/4.5.2/../../../../arm-none-eabi/include/c++/4.5.2/bits/stl_queue.h ****  *
  28:/opt/toolchains/arm-none-eabi/bin/../lib/gcc/arm-none-eabi/4.5.2/../../../../arm-none-eabi/include/c++/4.5.2/bits/stl_queue.h ****  * Copyright (c) 1994
  29:/opt/toolchains/arm-none-eabi/bin/../lib/gcc/arm-none-eabi/4.5.2/../../../../arm-none-eabi/include/c++/4.5.2/bits/stl_queue.h ****  * Hewlett-Packard Company
  30:/opt/toolchains/arm-none-eabi/bin/../lib/gcc/arm-none-eabi/4.5.2/../../../../arm-none-eabi/include/c++/4.5.2/bits/stl_queue.h ****  *
  31:/opt/toolchains/arm-none-eabi/bin/../lib/gcc/arm-none-eabi/4.5.2/../../../../arm-none-eabi/include/c++/4.5.2/bits/stl_queue.h ****  * Permission to use, copy, modify, distribute and sell this software
  32:/opt/toolchains/arm-none-eabi/bin/../lib/gcc/arm-none-eabi/4.5.2/../../../../arm-none-eabi/include/c++/4.5.2/bits/stl_queue.h ****  * and its documentation for any purpose is hereby granted without fee,
  33:/opt/toolchains/arm-none-eabi/bin/../lib/gcc/arm-none-eabi/4.5.2/../../../../arm-none-eabi/include/c++/4.5.2/bits/stl_queue.h ****  * provided that the above copyright notice appear in all copies and
  34:/opt/toolchains/arm-none-eabi/bin/../lib/gcc/arm-none-eabi/4.5.2/../../../../arm-none-eabi/include/c++/4.5.2/bits/stl_queue.h ****  * that both that copyright notice and this permission notice appear
  35:/opt/toolchains/arm-none-eabi/bin/../lib/gcc/arm-none-eabi/4.5.2/../../../../arm-none-eabi/include/c++/4.5.2/bits/stl_queue.h ****  * in supporting documentation.  Hewlett-Packard Company makes no
  36:/opt/toolchains/arm-none-eabi/bin/../lib/gcc/arm-none-eabi/4.5.2/../../../../arm-none-eabi/include/c++/4.5.2/bits/stl_queue.h ****  * representations about the suitability of this software for any
  37:/opt/toolchains/arm-none-eabi/bin/../lib/gcc/arm-none-eabi/4.5.2/../../../../arm-none-eabi/include/c++/4.5.2/bits/stl_queue.h ****  * purpose.  It is provided "as is" without express or implied warranty.
  38:/opt/toolchains/arm-none-eabi/bin/../lib/gcc/arm-none-eabi/4.5.2/../../../../arm-none-eabi/include/c++/4.5.2/bits/stl_queue.h ****  *
  39:/opt/toolchains/arm-none-eabi/bin/../lib/gcc/arm-none-eabi/4.5.2/../../../../arm-none-eabi/include/c++/4.5.2/bits/stl_queue.h ****  *
  40:/opt/toolchains/arm-none-eabi/bin/../lib/gcc/arm-none-eabi/4.5.2/../../../../arm-none-eabi/include/c++/4.5.2/bits/stl_queue.h ****  * Copyright (c) 1996,1997
  41:/opt/toolchains/arm-none-eabi/bin/../lib/gcc/arm-none-eabi/4.5.2/../../../../arm-none-eabi/include/c++/4.5.2/bits/stl_queue.h ****  * Silicon Graphics Computer Systems, Inc.
  42:/opt/toolchains/arm-none-eabi/bin/../lib/gcc/arm-none-eabi/4.5.2/../../../../arm-none-eabi/include/c++/4.5.2/bits/stl_queue.h ****  *
  43:/opt/toolchains/arm-none-eabi/bin/../lib/gcc/arm-none-eabi/4.5.2/../../../../arm-none-eabi/include/c++/4.5.2/bits/stl_queue.h ****  * Permission to use, copy, modify, distribute and sell this software
  44:/opt/toolchains/arm-none-eabi/bin/../lib/gcc/arm-none-eabi/4.5.2/../../../../arm-none-eabi/include/c++/4.5.2/bits/stl_queue.h ****  * and its documentation for any purpose is hereby granted without fee,
  45:/opt/toolchains/arm-none-eabi/bin/../lib/gcc/arm-none-eabi/4.5.2/../../../../arm-none-eabi/include/c++/4.5.2/bits/stl_queue.h ****  * provided that the above copyright notice appear in all copies and
  46:/opt/toolchains/arm-none-eabi/bin/../lib/gcc/arm-none-eabi/4.5.2/../../../../arm-none-eabi/include/c++/4.5.2/bits/stl_queue.h ****  * that both that copyright notice and this permission notice appear
  47:/opt/toolchains/arm-none-eabi/bin/../lib/gcc/arm-none-eabi/4.5.2/../../../../arm-none-eabi/include/c++/4.5.2/bits/stl_queue.h ****  * in supporting documentation.  Silicon Graphics makes no
  48:/opt/toolchains/arm-none-eabi/bin/../lib/gcc/arm-none-eabi/4.5.2/../../../../arm-none-eabi/include/c++/4.5.2/bits/stl_queue.h ****  * representations about the suitability of this software for any
  49:/opt/toolchains/arm-none-eabi/bin/../lib/gcc/arm-none-eabi/4.5.2/../../../../arm-none-eabi/include/c++/4.5.2/bits/stl_queue.h ****  * purpose.  It is provided "as is" without express or implied warranty.
  50:/opt/toolchains/arm-none-eabi/bin/../lib/gcc/arm-none-eabi/4.5.2/../../../../arm-none-eabi/include/c++/4.5.2/bits/stl_queue.h ****  */
  51:/opt/toolchains/arm-none-eabi/bin/../lib/gcc/arm-none-eabi/4.5.2/../../../../arm-none-eabi/include/c++/4.5.2/bits/stl_queue.h **** 
  52:/opt/toolchains/arm-none-eabi/bin/../lib/gcc/arm-none-eabi/4.5.2/../../../../arm-none-eabi/include/c++/4.5.2/bits/stl_queue.h **** /** @file stl_queue.h
  53:/opt/toolchains/arm-none-eabi/bin/../lib/gcc/arm-none-eabi/4.5.2/../../../../arm-none-eabi/include/c++/4.5.2/bits/stl_queue.h ****  *  This is an internal header file, included by other library headers.
  54:/opt/toolchains/arm-none-eabi/bin/../lib/gcc/arm-none-eabi/4.5.2/../../../../arm-none-eabi/include/c++/4.5.2/bits/stl_queue.h ****  *  You should not attempt to use it directly.
  55:/opt/toolchains/arm-none-eabi/bin/../lib/gcc/arm-none-eabi/4.5.2/../../../../arm-none-eabi/include/c++/4.5.2/bits/stl_queue.h ****  */
  56:/opt/toolchains/arm-none-eabi/bin/../lib/gcc/arm-none-eabi/4.5.2/../../../../arm-none-eabi/include/c++/4.5.2/bits/stl_queue.h **** 
  57:/opt/toolchains/arm-none-eabi/bin/../lib/gcc/arm-none-eabi/4.5.2/../../../../arm-none-eabi/include/c++/4.5.2/bits/stl_queue.h **** #ifndef _STL_QUEUE_H
  58:/opt/toolchains/arm-none-eabi/bin/../lib/gcc/arm-none-eabi/4.5.2/../../../../arm-none-eabi/include/c++/4.5.2/bits/stl_queue.h **** #define _STL_QUEUE_H 1
  59:/opt/toolchains/arm-none-eabi/bin/../lib/gcc/arm-none-eabi/4.5.2/../../../../arm-none-eabi/include/c++/4.5.2/bits/stl_queue.h **** 
  60:/opt/toolchains/arm-none-eabi/bin/../lib/gcc/arm-none-eabi/4.5.2/../../../../arm-none-eabi/include/c++/4.5.2/bits/stl_queue.h **** #include <bits/concept_check.h>
  61:/opt/toolchains/arm-none-eabi/bin/../lib/gcc/arm-none-eabi/4.5.2/../../../../arm-none-eabi/include/c++/4.5.2/bits/stl_queue.h **** #include <debug/debug.h>
  62:/opt/toolchains/arm-none-eabi/bin/../lib/gcc/arm-none-eabi/4.5.2/../../../../arm-none-eabi/include/c++/4.5.2/bits/stl_queue.h **** 
  63:/opt/toolchains/arm-none-eabi/bin/../lib/gcc/arm-none-eabi/4.5.2/../../../../arm-none-eabi/include/c++/4.5.2/bits/stl_queue.h **** _GLIBCXX_BEGIN_NAMESPACE(std)
  64:/opt/toolchains/arm-none-eabi/bin/../lib/gcc/arm-none-eabi/4.5.2/../../../../arm-none-eabi/include/c++/4.5.2/bits/stl_queue.h **** 
  65:/opt/toolchains/arm-none-eabi/bin/../lib/gcc/arm-none-eabi/4.5.2/../../../../arm-none-eabi/include/c++/4.5.2/bits/stl_queue.h ****   /**
  66:/opt/toolchains/arm-none-eabi/bin/../lib/gcc/arm-none-eabi/4.5.2/../../../../arm-none-eabi/include/c++/4.5.2/bits/stl_queue.h ****    *  @brief  A standard container giving FIFO behavior.
  67:/opt/toolchains/arm-none-eabi/bin/../lib/gcc/arm-none-eabi/4.5.2/../../../../arm-none-eabi/include/c++/4.5.2/bits/stl_queue.h ****    *
  68:/opt/toolchains/arm-none-eabi/bin/../lib/gcc/arm-none-eabi/4.5.2/../../../../arm-none-eabi/include/c++/4.5.2/bits/stl_queue.h ****    *  @ingroup sequences
  69:/opt/toolchains/arm-none-eabi/bin/../lib/gcc/arm-none-eabi/4.5.2/../../../../arm-none-eabi/include/c++/4.5.2/bits/stl_queue.h ****    *
  70:/opt/toolchains/arm-none-eabi/bin/../lib/gcc/arm-none-eabi/4.5.2/../../../../arm-none-eabi/include/c++/4.5.2/bits/stl_queue.h ****    *  Meets many of the requirements of a
  71:/opt/toolchains/arm-none-eabi/bin/../lib/gcc/arm-none-eabi/4.5.2/../../../../arm-none-eabi/include/c++/4.5.2/bits/stl_queue.h ****    *  <a href="tables.html#65">container</a>,
  72:/opt/toolchains/arm-none-eabi/bin/../lib/gcc/arm-none-eabi/4.5.2/../../../../arm-none-eabi/include/c++/4.5.2/bits/stl_queue.h ****    *  but does not define anything to do with iterators.  Very few of the
  73:/opt/toolchains/arm-none-eabi/bin/../lib/gcc/arm-none-eabi/4.5.2/../../../../arm-none-eabi/include/c++/4.5.2/bits/stl_queue.h ****    *  other standard container interfaces are defined.
  74:/opt/toolchains/arm-none-eabi/bin/../lib/gcc/arm-none-eabi/4.5.2/../../../../arm-none-eabi/include/c++/4.5.2/bits/stl_queue.h ****    *
  75:/opt/toolchains/arm-none-eabi/bin/../lib/gcc/arm-none-eabi/4.5.2/../../../../arm-none-eabi/include/c++/4.5.2/bits/stl_queue.h ****    *  This is not a true container, but an @e adaptor.  It holds another
  76:/opt/toolchains/arm-none-eabi/bin/../lib/gcc/arm-none-eabi/4.5.2/../../../../arm-none-eabi/include/c++/4.5.2/bits/stl_queue.h ****    *  container, and provides a wrapper interface to that container.  The
  77:/opt/toolchains/arm-none-eabi/bin/../lib/gcc/arm-none-eabi/4.5.2/../../../../arm-none-eabi/include/c++/4.5.2/bits/stl_queue.h ****    *  wrapper is what enforces strict first-in-first-out %queue behavior.
  78:/opt/toolchains/arm-none-eabi/bin/../lib/gcc/arm-none-eabi/4.5.2/../../../../arm-none-eabi/include/c++/4.5.2/bits/stl_queue.h ****    *
  79:/opt/toolchains/arm-none-eabi/bin/../lib/gcc/arm-none-eabi/4.5.2/../../../../arm-none-eabi/include/c++/4.5.2/bits/stl_queue.h ****    *  The second template parameter defines the type of the underlying
  80:/opt/toolchains/arm-none-eabi/bin/../lib/gcc/arm-none-eabi/4.5.2/../../../../arm-none-eabi/include/c++/4.5.2/bits/stl_queue.h ****    *  sequence/container.  It defaults to std::deque, but it can be any type
  81:/opt/toolchains/arm-none-eabi/bin/../lib/gcc/arm-none-eabi/4.5.2/../../../../arm-none-eabi/include/c++/4.5.2/bits/stl_queue.h ****    *  that supports @c front, @c back, @c push_back, and @c pop_front,
  82:/opt/toolchains/arm-none-eabi/bin/../lib/gcc/arm-none-eabi/4.5.2/../../../../arm-none-eabi/include/c++/4.5.2/bits/stl_queue.h ****    *  such as std::list or an appropriate user-defined type.
  83:/opt/toolchains/arm-none-eabi/bin/../lib/gcc/arm-none-eabi/4.5.2/../../../../arm-none-eabi/include/c++/4.5.2/bits/stl_queue.h ****    *
  84:/opt/toolchains/arm-none-eabi/bin/../lib/gcc/arm-none-eabi/4.5.2/../../../../arm-none-eabi/include/c++/4.5.2/bits/stl_queue.h ****    *  Members not found in @a normal containers are @c container_type,
  85:/opt/toolchains/arm-none-eabi/bin/../lib/gcc/arm-none-eabi/4.5.2/../../../../arm-none-eabi/include/c++/4.5.2/bits/stl_queue.h ****    *  which is a typedef for the second Sequence parameter, and @c push and
  86:/opt/toolchains/arm-none-eabi/bin/../lib/gcc/arm-none-eabi/4.5.2/../../../../arm-none-eabi/include/c++/4.5.2/bits/stl_queue.h ****    *  @c pop, which are standard %queue/FIFO operations.
  87:/opt/toolchains/arm-none-eabi/bin/../lib/gcc/arm-none-eabi/4.5.2/../../../../arm-none-eabi/include/c++/4.5.2/bits/stl_queue.h ****   */
  88:/opt/toolchains/arm-none-eabi/bin/../lib/gcc/arm-none-eabi/4.5.2/../../../../arm-none-eabi/include/c++/4.5.2/bits/stl_queue.h ****   template<typename _Tp, typename _Sequence = deque<_Tp> >
  89:/opt/toolchains/arm-none-eabi/bin/../lib/gcc/arm-none-eabi/4.5.2/../../../../arm-none-eabi/include/c++/4.5.2/bits/stl_queue.h ****     class queue
  90:/opt/toolchains/arm-none-eabi/bin/../lib/gcc/arm-none-eabi/4.5.2/../../../../arm-none-eabi/include/c++/4.5.2/bits/stl_queue.h ****     {
 1988              		.loc 42 90 0 is_stmt 1
 1989              		.cfi_startproc
 1990              		@ args = 0, pretend = 0, frame = 8
 1991              		@ frame_needed = 1, uses_anonymous_args = 0
 1992 0000 80B5     		push	{r7, lr}
 1993              	.LCFI15:
 1994              		.cfi_def_cfa_offset 8
 1995 0002 82B0     		sub	sp, sp, #8
 1996              	.LCFI16:
 1997              		.cfi_def_cfa_offset 16
 1998 0004 00AF     		add	r7, sp, #0
 1999              		.cfi_offset 14, -4
 2000              		.cfi_offset 7, -8
 2001              	.LCFI17:
 2002              		.cfi_def_cfa_register 7
 2003 0006 7860     		str	r0, [r7, #4]
 2004              	.LBB2:
 2005              		.loc 42 90 0
 2006 0008 7B68     		ldr	r3, [r7, #4]
 2007 000a 1846     		mov	r0, r3
 2008 000c FFF7FEFF 		bl	_ZNSt5dequeIP8IXFEventSaIS1_EED1Ev
 2009              	.LBE2:
 2010 0010 7B68     		ldr	r3, [r7, #4]
 2011 0012 1846     		mov	r0, r3
 2012 0014 07F10807 		add	r7, r7, #8
 2013 0018 BD46     		mov	sp, r7
 2014 001a 80BD     		pop	{r7, pc}
 2015              		.cfi_endproc
 2016              	.LFE711:
 2018              		.weak	_ZNSt5queueIP8IXFEventSt5dequeIS1_SaIS1_EEED1Ev
 2019              		.thumb_set _ZNSt5queueIP8IXFEventSt5dequeIS1_SaIS1_EEED1Ev,_ZNSt5queueIP8IXFEventSt5dequeIS1_SaIS1
 2020              		.section	.text._ZN12XFEventQueueC2Ev,"axG",%progbits,_ZN12XFEventQueueC5Ev,comdat
 2021              		.align	2
 2022              		.weak	_ZN12XFEventQueueC2Ev
 2023              		.thumb
 2024              		.thumb_func
 2026              	_ZN12XFEventQueueC2Ev:
 2027              	.LFB713:
   1:../xf/xfeventqueue.hpp **** #pragma once
   2:../xf/xfeventqueue.hpp **** 
   3:../xf/xfeventqueue.hpp **** 
   4:../xf/xfeventqueue.hpp **** #include <queue>
   5:../xf/xfeventqueue.hpp **** #include "ixfevent.h"
   6:../xf/xfeventqueue.hpp **** 
   7:../xf/xfeventqueue.hpp **** /**
   8:../xf/xfeventqueue.hpp ****  * @ingroup xf
   9:../xf/xfeventqueue.hpp ****  * Queue for pending events.
  10:../xf/xfeventqueue.hpp ****  */
  11:../xf/xfeventqueue.hpp **** class XFEventQueue : public std::queue<IXFEvent *>
  12:../xf/xfeventqueue.hpp **** {
  13:../xf/xfeventqueue.hpp **** public:
  14:../xf/xfeventqueue.hpp **** 	XFEventQueue() {}
 2028              		.loc 4 14 0
 2029              		.cfi_startproc
 2030              		@ args = 0, pretend = 0, frame = 48
 2031              		@ frame_needed = 1, uses_anonymous_args = 0
 2032 0000 90B5     		push	{r4, r7, lr}
 2033              	.LCFI18:
 2034              		.cfi_def_cfa_offset 12
 2035 0002 8DB0     		sub	sp, sp, #52
 2036              	.LCFI19:
 2037              		.cfi_def_cfa_offset 64
 2038 0004 00AF     		add	r7, sp, #0
 2039              		.cfi_offset 14, -4
 2040              		.cfi_offset 7, -8
 2041              		.cfi_offset 4, -12
 2042              	.LCFI20:
 2043              		.cfi_def_cfa_register 7
 2044 0006 7860     		str	r0, [r7, #4]
 2045              	.LBB3:
 2046              		.loc 4 14 0
 2047 0008 7B68     		ldr	r3, [r7, #4]
 2048 000a 03F10404 		add	r4, r3, #4
 2049 000e 07F10803 		add	r3, r7, #8
 2050 0012 1846     		mov	r0, r3
 2051 0014 FFF7FEFF 		bl	_ZNSt5dequeIP8IXFEventSaIS1_EEC1Ev
 2052 0018 07F10803 		add	r3, r7, #8
 2053 001c 2046     		mov	r0, r4
 2054 001e 1946     		mov	r1, r3
 2055 0020 FFF7FEFF 		bl	_ZNSt5queueIP8IXFEventSt5dequeIS1_SaIS1_EEEC2ERKS4_
 2056 0024 07F10803 		add	r3, r7, #8
 2057 0028 1846     		mov	r0, r3
 2058 002a FFF7FEFF 		bl	_ZNSt5dequeIP8IXFEventSaIS1_EED1Ev
 2059 002e 7B68     		ldr	r3, [r7, #4]
 2060 0030 034A     		ldr	r2, .L12
 2061 0032 1A60     		str	r2, [r3, #0]
 2062              	.LBE3:
 2063 0034 7B68     		ldr	r3, [r7, #4]
 2064 0036 1846     		mov	r0, r3
 2065 0038 07F13407 		add	r7, r7, #52
 2066 003c BD46     		mov	sp, r7
 2067 003e 90BD     		pop	{r4, r7, pc}
 2068              	.L13:
 2069              		.align	2
 2070              	.L12:
 2071 0040 08000000 		.word	_ZTV12XFEventQueue+8
 2072              		.cfi_endproc
 2073              	.LFE713:
 2075              		.weak	_ZN12XFEventQueueC1Ev
 2076              		.thumb_set _ZN12XFEventQueueC1Ev,_ZN12XFEventQueueC2Ev
 2077              		.section	.text._ZN12XFEventQueueD2Ev,"axG",%progbits,_ZN12XFEventQueueD5Ev,comdat
 2078              		.align	2
 2079              		.weak	_ZN12XFEventQueueD2Ev
 2080              		.thumb
 2081              		.thumb_func
 2083              	_ZN12XFEventQueueD2Ev:
 2084              	.LFB716:
  15:../xf/xfeventqueue.hpp **** 	virtual ~XFEventQueue() {}
 2085              		.loc 4 15 0
 2086              		.cfi_startproc
 2087              		@ args = 0, pretend = 0, frame = 8
 2088              		@ frame_needed = 1, uses_anonymous_args = 0
 2089 0000 80B5     		push	{r7, lr}
 2090              	.LCFI21:
 2091              		.cfi_def_cfa_offset 8
 2092 0002 82B0     		sub	sp, sp, #8
 2093              	.LCFI22:
 2094              		.cfi_def_cfa_offset 16
 2095 0004 00AF     		add	r7, sp, #0
 2096              		.cfi_offset 14, -4
 2097              		.cfi_offset 7, -8
 2098              	.LCFI23:
 2099              		.cfi_def_cfa_register 7
 2100 0006 7860     		str	r0, [r7, #4]
 2101              	.LBB4:
 2102              		.loc 4 15 0
 2103 0008 7B68     		ldr	r3, [r7, #4]
 2104 000a 0C4A     		ldr	r2, .L17
 2105 000c 1A60     		str	r2, [r3, #0]
 2106 000e 7B68     		ldr	r3, [r7, #4]
 2107 0010 03F10403 		add	r3, r3, #4
 2108 0014 1846     		mov	r0, r3
 2109 0016 FFF7FEFF 		bl	_ZNSt5queueIP8IXFEventSt5dequeIS1_SaIS1_EEED2Ev
 2110              	.LBE4:
 2111 001a 4FF00003 		mov	r3, #0
 2112 001e 03F00103 		and	r3, r3, #1
 2113 0022 DBB2     		uxtb	r3, r3
 2114 0024 002B     		cmp	r3, #0
 2115 0026 02D0     		beq	.L16
 2116              		.loc 4 15 0 is_stmt 0 discriminator 2
 2117 0028 7868     		ldr	r0, [r7, #4]
 2118 002a FFF7FEFF 		bl	_ZdlPv
 2119              	.L16:
 2120              		.loc 4 15 0 discriminator 3
 2121 002e 7B68     		ldr	r3, [r7, #4]
 2122 0030 1846     		mov	r0, r3
 2123 0032 07F10807 		add	r7, r7, #8
 2124 0036 BD46     		mov	sp, r7
 2125 0038 80BD     		pop	{r7, pc}
 2126              	.L18:
 2127 003a 00BF     		.align	2
 2128              	.L17:
 2129 003c 08000000 		.word	_ZTV12XFEventQueue+8
 2130              		.cfi_endproc
 2131              	.LFE716:
 2133              		.weak	_ZN12XFEventQueueD1Ev
 2134              		.thumb_set _ZN12XFEventQueueD1Ev,_ZN12XFEventQueueD2Ev
 2135              		.section	.text._ZN12XFEventQueueD0Ev,"axG",%progbits,_ZN12XFEventQueueD5Ev,comdat
 2136              		.align	2
 2137              		.weak	_ZN12XFEventQueueD0Ev
 2138              		.thumb
 2139              		.thumb_func
 2141              	_ZN12XFEventQueueD0Ev:
 2142              	.LFB718:
 2143              		.loc 4 15 0 is_stmt 1
 2144              		.cfi_startproc
 2145              		@ args = 0, pretend = 0, frame = 8
 2146              		@ frame_needed = 1, uses_anonymous_args = 0
 2147 0000 80B5     		push	{r7, lr}
 2148              	.LCFI24:
 2149              		.cfi_def_cfa_offset 8
 2150 0002 82B0     		sub	sp, sp, #8
 2151              	.LCFI25:
 2152              		.cfi_def_cfa_offset 16
 2153 0004 00AF     		add	r7, sp, #0
 2154              		.cfi_offset 14, -4
 2155              		.cfi_offset 7, -8
 2156              	.LCFI26:
 2157              		.cfi_def_cfa_register 7
 2158 0006 7860     		str	r0, [r7, #4]
 2159              		.loc 4 15 0
 2160 0008 7868     		ldr	r0, [r7, #4]
 2161 000a FFF7FEFF 		bl	_ZN12XFEventQueueD1Ev
 2162 000e 7868     		ldr	r0, [r7, #4]
 2163 0010 FFF7FEFF 		bl	_ZdlPv
 2164 0014 7B68     		ldr	r3, [r7, #4]
 2165 0016 1846     		mov	r0, r3
 2166 0018 07F10807 		add	r7, r7, #8
 2167 001c BD46     		mov	sp, r7
 2168 001e 80BD     		pop	{r7, pc}
 2169              		.cfi_endproc
 2170              	.LFE718:
 2172              		.section	.text._ZN12XFEventQueue5emptyEv,"axG",%progbits,_ZN12XFEventQueue5emptyEv,comdat
 2173              		.align	2
 2174              		.weak	_ZN12XFEventQueue5emptyEv
 2175              		.thumb
 2176              		.thumb_func
 2178              	_ZN12XFEventQueue5emptyEv:
 2179              	.LFB719:
  16:../xf/xfeventqueue.hpp **** 
  17:../xf/xfeventqueue.hpp **** 	typedef std::queue<IXFEvent *> BaseClass;
  18:../xf/xfeventqueue.hpp **** 
  19:../xf/xfeventqueue.hpp **** 	bool empty() __attribute__ ((noinline)) { return BaseClass::empty(); }	// Prevent gcc from optimiz
 2180              		.loc 4 19 0
 2181              		.cfi_startproc
 2182              		@ args = 0, pretend = 0, frame = 8
 2183              		@ frame_needed = 1, uses_anonymous_args = 0
 2184 0000 80B5     		push	{r7, lr}
 2185              	.LCFI27:
 2186              		.cfi_def_cfa_offset 8
 2187 0002 82B0     		sub	sp, sp, #8
 2188              	.LCFI28:
 2189              		.cfi_def_cfa_offset 16
 2190 0004 00AF     		add	r7, sp, #0
 2191              		.cfi_offset 14, -4
 2192              		.cfi_offset 7, -8
 2193              	.LCFI29:
 2194              		.cfi_def_cfa_register 7
 2195 0006 7860     		str	r0, [r7, #4]
 2196              		.loc 4 19 0
 2197 0008 7B68     		ldr	r3, [r7, #4]
 2198 000a 03F10403 		add	r3, r3, #4
 2199 000e 1846     		mov	r0, r3
 2200 0010 FFF7FEFF 		bl	_ZNKSt5queueIP8IXFEventSt5dequeIS1_SaIS1_EEE5emptyEv
 2201 0014 0346     		mov	r3, r0
 2202 0016 1846     		mov	r0, r3
 2203 0018 07F10807 		add	r7, r7, #8
 2204 001c BD46     		mov	sp, r7
 2205 001e 80BD     		pop	{r7, pc}
 2206              		.cfi_endproc
 2207              	.LFE719:
 2209              		.section	.text._ZN11EventStatusC2ENS_12eEventStatusE,"axG",%progbits,_ZN11EventStatusC5ENS_12eEven
 2210              		.align	2
 2211              		.weak	_ZN11EventStatusC2ENS_12eEventStatusE
 2212              		.thumb
 2213              		.thumb_func
 2215              	_ZN11EventStatusC2ENS_12eEventStatusE:
 2216              	.LFB721:
   1:../xf/xfeventstatus.h **** #ifndef XFEVENTSTATUS_H
   2:../xf/xfeventstatus.h **** #define XFEVENTSTATUS_H
   3:../xf/xfeventstatus.h **** 
   4:../xf/xfeventstatus.h **** 
   5:../xf/xfeventstatus.h **** /**
   6:../xf/xfeventstatus.h ****  * @ingroup xf
   7:../xf/xfeventstatus.h ****  * The EventStatus is used after consumption of an event. It gives an
   8:../xf/xfeventstatus.h ****  * information on how the event was consument and how the framework should
   9:../xf/xfeventstatus.h ****  * react.
  10:../xf/xfeventstatus.h ****  */
  11:../xf/xfeventstatus.h **** class EventStatus
  12:../xf/xfeventstatus.h **** {
  13:../xf/xfeventstatus.h **** public:
  14:../xf/xfeventstatus.h **** 	/**
  15:../xf/xfeventstatus.h **** 	 * Status values about the event processed.
  16:../xf/xfeventstatus.h **** 	 *
  17:../xf/xfeventstatus.h **** 	 * \see XFReactive::process
  18:../xf/xfeventstatus.h **** 	 */
  19:../xf/xfeventstatus.h **** 	typedef enum
  20:../xf/xfeventstatus.h **** 	{
  21:../xf/xfeventstatus.h **** 		Unknown			= 0,
  22:../xf/xfeventstatus.h **** 		Consumed		= 0x0001,
  23:../xf/xfeventstatus.h **** 		NotConsumed		= 0x0002,
  24:../xf/xfeventstatus.h **** 		Terminate		= 0x0004
  25:../xf/xfeventstatus.h **** 	} eEventStatus;
  26:../xf/xfeventstatus.h **** 
  27:../xf/xfeventstatus.h **** 	/**
  28:../xf/xfeventstatus.h **** 	 * Constructor
  29:../xf/xfeventstatus.h **** 	 *
  30:../xf/xfeventstatus.h **** 	 * \param eventStatus Initial value of the event status.
  31:../xf/xfeventstatus.h **** 	 */
  32:../xf/xfeventstatus.h **** 	EventStatus(eEventStatus eventStatus = Unknown) : _status(eventStatus) {}
 2217              		.loc 45 32 0
 2218              		.cfi_startproc
 2219              		@ args = 0, pretend = 0, frame = 8
 2220              		@ frame_needed = 1, uses_anonymous_args = 0
 2221              		@ link register save eliminated.
 2222 0000 80B4     		push	{r7}
 2223              	.LCFI30:
 2224              		.cfi_def_cfa_offset 4
 2225 0002 83B0     		sub	sp, sp, #12
 2226              	.LCFI31:
 2227              		.cfi_def_cfa_offset 16
 2228 0004 00AF     		add	r7, sp, #0
 2229              		.cfi_offset 7, -4
 2230              	.LCFI32:
 2231              		.cfi_def_cfa_register 7
 2232 0006 7860     		str	r0, [r7, #4]
 2233 0008 0B46     		mov	r3, r1
 2234 000a FB70     		strb	r3, [r7, #3]
 2235              	.LBB5:
 2236              		.loc 45 32 0
 2237 000c 7B68     		ldr	r3, [r7, #4]
 2238 000e FA78     		ldrb	r2, [r7, #3]
 2239 0010 1A70     		strb	r2, [r3, #0]
 2240              	.LBE5:
 2241 0012 7B68     		ldr	r3, [r7, #4]
 2242 0014 1846     		mov	r0, r3
 2243 0016 07F10C07 		add	r7, r7, #12
 2244 001a BD46     		mov	sp, r7
 2245 001c 80BC     		pop	{r7}
 2246 001e 7047     		bx	lr
 2247              		.cfi_endproc
 2248              	.LFE721:
 2250              		.weak	_ZN11EventStatusC1ENS_12eEventStatusE
 2251              		.thumb_set _ZN11EventStatusC1ENS_12eEventStatusE,_ZN11EventStatusC2ENS_12eEventStatusE
 2252              		.section	.text._ZNK11EventStatuseqERKNS_12eEventStatusE,"axG",%progbits,_ZNK11EventStatuseqERKNS_1
 2253              		.align	2
 2254              		.weak	_ZNK11EventStatuseqERKNS_12eEventStatusE
 2255              		.thumb
 2256              		.thumb_func
 2258              	_ZNK11EventStatuseqERKNS_12eEventStatusE:
 2259              	.LFB723:
  33:../xf/xfeventstatus.h **** 
  34:../xf/xfeventstatus.h **** 	/**
  35:../xf/xfeventstatus.h **** 	 * Check if both variables contain the same event status
  36:../xf/xfeventstatus.h **** 	 */
  37:../xf/xfeventstatus.h **** 	bool operator == (const EventStatus::eEventStatus & eventStatus) const
 2260              		.loc 45 37 0
 2261              		.cfi_startproc
 2262              		@ args = 0, pretend = 0, frame = 8
 2263              		@ frame_needed = 1, uses_anonymous_args = 0
 2264              		@ link register save eliminated.
 2265 0000 80B4     		push	{r7}
 2266              	.LCFI33:
 2267              		.cfi_def_cfa_offset 4
 2268 0002 83B0     		sub	sp, sp, #12
 2269              	.LCFI34:
 2270              		.cfi_def_cfa_offset 16
 2271 0004 00AF     		add	r7, sp, #0
 2272              		.cfi_offset 7, -4
 2273              	.LCFI35:
 2274              		.cfi_def_cfa_register 7
 2275 0006 7860     		str	r0, [r7, #4]
 2276 0008 3960     		str	r1, [r7, #0]
  38:../xf/xfeventstatus.h **** 	{
  39:../xf/xfeventstatus.h **** 		return (this->_status == eventStatus);
 2277              		.loc 45 39 0
 2278 000a 7B68     		ldr	r3, [r7, #4]
 2279 000c 1A78     		ldrb	r2, [r3, #0]	@ zero_extendqisi2
 2280 000e 3B68     		ldr	r3, [r7, #0]
 2281 0010 1B78     		ldrb	r3, [r3, #0]	@ zero_extendqisi2
 2282 0012 9A42     		cmp	r2, r3
 2283 0014 14BF     		ite	ne
 2284 0016 0023     		movne	r3, #0
 2285 0018 0123     		moveq	r3, #1
 2286 001a DBB2     		uxtb	r3, r3
  40:../xf/xfeventstatus.h **** 	}
 2287              		.loc 45 40 0
 2288 001c 1846     		mov	r0, r3
 2289 001e 07F10C07 		add	r7, r7, #12
 2290 0022 BD46     		mov	sp, r7
 2291 0024 80BC     		pop	{r7}
 2292 0026 7047     		bx	lr
 2293              		.cfi_endproc
 2294              	.LFE723:
 2296              		.section	.text._ZN8XFThreadC2Ev,"ax",%progbits
 2297              		.align	2
 2298              		.global	_ZN8XFThreadC2Ev
 2299              		.thumb
 2300              		.thumb_func
 2302              	_ZN8XFThreadC2Ev:
 2303              	.LFB834:
   1:../xf/xfthread.cpp **** #include "xfthread.h"
   2:../xf/xfthread.cpp **** #include "ixfreactive.h"
   3:../xf/xfthread.cpp **** #include "xftimeoutmanager.h"
   4:../xf/xfthread.cpp **** 
   5:../xf/xfthread.cpp **** 
   6:../xf/xfthread.cpp **** XFThread::XFThread()
 2304              		.loc 1 6 0
 2305              		.cfi_startproc
 2306              		@ args = 0, pretend = 0, frame = 8
 2307              		@ frame_needed = 1, uses_anonymous_args = 0
 2308 0000 80B5     		push	{r7, lr}
 2309              	.LCFI36:
 2310              		.cfi_def_cfa_offset 8
 2311 0002 82B0     		sub	sp, sp, #8
 2312              	.LCFI37:
 2313              		.cfi_def_cfa_offset 16
 2314 0004 00AF     		add	r7, sp, #0
 2315              		.cfi_offset 14, -4
 2316              		.cfi_offset 7, -8
 2317              	.LCFI38:
 2318              		.cfi_def_cfa_register 7
 2319 0006 7860     		str	r0, [r7, #4]
 2320              	.LBB6:
   7:../xf/xfthread.cpp ****  : _bExecuting(true)
 2321              		.loc 1 7 0
 2322 0008 7B68     		ldr	r3, [r7, #4]
 2323 000a 094A     		ldr	r2, .L27
 2324 000c 1A60     		str	r2, [r3, #0]
 2325 000e 7B68     		ldr	r3, [r7, #4]
 2326 0010 4FF00102 		mov	r2, #1
 2327 0014 1A71     		strb	r2, [r3, #4]
 2328 0016 7B68     		ldr	r3, [r7, #4]
 2329 0018 03F10803 		add	r3, r3, #8
 2330 001c 1846     		mov	r0, r3
 2331 001e FFF7FEFF 		bl	_ZN12XFEventQueueC1Ev
 2332              	.LBE6:
   8:../xf/xfthread.cpp **** 
   9:../xf/xfthread.cpp **** 
  10:../xf/xfthread.cpp **** #ifdef TC_MESHSIM /********************************************************************************
  11:../xf/xfthread.cpp **** 
  12:../xf/xfthread.cpp **** 	, _tid( -1 )
  13:../xf/xfthread.cpp **** 
  14:../xf/xfthread.cpp **** #endif /*******************************************************************************************
  15:../xf/xfthread.cpp **** 
  16:../xf/xfthread.cpp **** 
  17:../xf/xfthread.cpp **** {
  18:../xf/xfthread.cpp **** }
 2333              		.loc 1 18 0
 2334 0022 7B68     		ldr	r3, [r7, #4]
 2335 0024 1846     		mov	r0, r3
 2336 0026 07F10807 		add	r7, r7, #8
 2337 002a BD46     		mov	sp, r7
 2338 002c 80BD     		pop	{r7, pc}
 2339              	.L28:
 2340 002e 00BF     		.align	2
 2341              	.L27:
 2342 0030 08000000 		.word	_ZTV8XFThread+8
 2343              		.cfi_endproc
 2344              	.LFE834:
 2346              		.global	_ZN8XFThreadC1Ev
 2347              		.thumb_set _ZN8XFThreadC1Ev,_ZN8XFThreadC2Ev
 2348              		.section	.text._ZN8XFThreadD2Ev,"ax",%progbits
 2349              		.align	2
 2350              		.global	_ZN8XFThreadD2Ev
 2351              		.thumb
 2352              		.thumb_func
 2354              	_ZN8XFThreadD2Ev:
 2355              	.LFB837:
  19:../xf/xfthread.cpp **** 
  20:../xf/xfthread.cpp **** XFThread::~XFThread()
 2356              		.loc 1 20 0
 2357              		.cfi_startproc
 2358              		@ args = 0, pretend = 0, frame = 8
 2359              		@ frame_needed = 1, uses_anonymous_args = 0
 2360 0000 80B5     		push	{r7, lr}
 2361              	.LCFI39:
 2362              		.cfi_def_cfa_offset 8
 2363 0002 82B0     		sub	sp, sp, #8
 2364              	.LCFI40:
 2365              		.cfi_def_cfa_offset 16
 2366 0004 00AF     		add	r7, sp, #0
 2367              		.cfi_offset 14, -4
 2368              		.cfi_offset 7, -8
 2369              	.LCFI41:
 2370              		.cfi_def_cfa_register 7
 2371 0006 7860     		str	r0, [r7, #4]
 2372              	.LBB7:
 2373              		.loc 1 20 0
 2374 0008 7B68     		ldr	r3, [r7, #4]
 2375 000a 0C4A     		ldr	r2, .L32
 2376 000c 1A60     		str	r2, [r3, #0]
 2377 000e 7B68     		ldr	r3, [r7, #4]
 2378 0010 03F10803 		add	r3, r3, #8
  21:../xf/xfthread.cpp **** {
  22:../xf/xfthread.cpp **** }
 2379              		.loc 1 22 0
 2380 0014 1846     		mov	r0, r3
 2381 0016 FFF7FEFF 		bl	_ZN12XFEventQueueD1Ev
 2382              	.LBE7:
 2383 001a 4FF00003 		mov	r3, #0
 2384 001e 03F00103 		and	r3, r3, #1
 2385 0022 DBB2     		uxtb	r3, r3
 2386 0024 002B     		cmp	r3, #0
 2387 0026 02D0     		beq	.L31
 2388              		.loc 1 22 0 is_stmt 0 discriminator 2
 2389 0028 7868     		ldr	r0, [r7, #4]
 2390 002a FFF7FEFF 		bl	_ZdlPv
 2391              	.L31:
 2392              		.loc 1 22 0 discriminator 3
 2393 002e 7B68     		ldr	r3, [r7, #4]
 2394 0030 1846     		mov	r0, r3
 2395 0032 07F10807 		add	r7, r7, #8
 2396 0036 BD46     		mov	sp, r7
 2397 0038 80BD     		pop	{r7, pc}
 2398              	.L33:
 2399 003a 00BF     		.align	2
 2400              	.L32:
 2401 003c 08000000 		.word	_ZTV8XFThread+8
 2402              		.cfi_endproc
 2403              	.LFE837:
 2405              		.global	_ZN8XFThreadD1Ev
 2406              		.thumb_set _ZN8XFThreadD1Ev,_ZN8XFThreadD2Ev
 2407              		.section	.text._ZN8XFThreadD0Ev,"ax",%progbits
 2408              		.align	2
 2409              		.global	_ZN8XFThreadD0Ev
 2410              		.thumb
 2411              		.thumb_func
 2413              	_ZN8XFThreadD0Ev:
 2414              	.LFB839:
  20:../xf/xfthread.cpp **** XFThread::~XFThread()
 2415              		.loc 1 20 0 is_stmt 1
 2416              		.cfi_startproc
 2417              		@ args = 0, pretend = 0, frame = 8
 2418              		@ frame_needed = 1, uses_anonymous_args = 0
 2419 0000 80B5     		push	{r7, lr}
 2420              	.LCFI42:
 2421              		.cfi_def_cfa_offset 8
 2422 0002 82B0     		sub	sp, sp, #8
 2423              	.LCFI43:
 2424              		.cfi_def_cfa_offset 16
 2425 0004 00AF     		add	r7, sp, #0
 2426              		.cfi_offset 14, -4
 2427              		.cfi_offset 7, -8
 2428              	.LCFI44:
 2429              		.cfi_def_cfa_register 7
 2430 0006 7860     		str	r0, [r7, #4]
 2431              		.loc 1 22 0
 2432 0008 7868     		ldr	r0, [r7, #4]
 2433 000a FFF7FEFF 		bl	_ZN8XFThreadD1Ev
 2434 000e 7868     		ldr	r0, [r7, #4]
 2435 0010 FFF7FEFF 		bl	_ZdlPv
 2436 0014 7B68     		ldr	r3, [r7, #4]
 2437 0016 1846     		mov	r0, r3
 2438 0018 07F10807 		add	r7, r7, #8
 2439 001c BD46     		mov	sp, r7
 2440 001e 80BD     		pop	{r7, pc}
 2441              		.cfi_endproc
 2442              	.LFE839:
 2444              		.section	.text._ZN8XFThread5startEv,"ax",%progbits
 2445              		.align	2
 2446              		.global	_ZN8XFThread5startEv
 2447              		.thumb
 2448              		.thumb_func
 2450              	_ZN8XFThread5startEv:
 2451              	.LFB840:
  23:../xf/xfthread.cpp **** 
  24:../xf/xfthread.cpp **** void XFThread::start()
  25:../xf/xfthread.cpp **** {
 2452              		.loc 1 25 0
 2453              		.cfi_startproc
 2454              		@ args = 0, pretend = 0, frame = 8
 2455              		@ frame_needed = 1, uses_anonymous_args = 0
 2456 0000 80B5     		push	{r7, lr}
 2457              	.LCFI45:
 2458              		.cfi_def_cfa_offset 8
 2459 0002 82B0     		sub	sp, sp, #8
 2460              	.LCFI46:
 2461              		.cfi_def_cfa_offset 16
 2462 0004 00AF     		add	r7, sp, #0
 2463              		.cfi_offset 14, -4
 2464              		.cfi_offset 7, -8
 2465              	.LCFI47:
 2466              		.cfi_def_cfa_register 7
 2467 0006 7860     		str	r0, [r7, #4]
  26:../xf/xfthread.cpp **** 	execute();
 2468              		.loc 1 26 0
 2469 0008 7868     		ldr	r0, [r7, #4]
 2470 000a FFF7FEFF 		bl	_ZN8XFThread7executeEv
  27:../xf/xfthread.cpp **** }
 2471              		.loc 1 27 0
 2472 000e 07F10807 		add	r7, r7, #8
 2473 0012 BD46     		mov	sp, r7
 2474 0014 80BD     		pop	{r7, pc}
 2475              		.cfi_endproc
 2476              	.LFE840:
 2478 0016 00BF     		.section	.text._ZNK8XFThread17getTimeoutManagerEv,"ax",%progbits
 2479              		.align	2
 2480              		.global	_ZNK8XFThread17getTimeoutManagerEv
 2481              		.thumb
 2482              		.thumb_func
 2484              	_ZNK8XFThread17getTimeoutManagerEv:
 2485              	.LFB841:
  28:../xf/xfthread.cpp **** 
  29:../xf/xfthread.cpp **** XFTimeoutManager * XFThread::getTimeoutManager() const
  30:../xf/xfthread.cpp **** {
 2486              		.loc 1 30 0
 2487              		.cfi_startproc
 2488              		@ args = 0, pretend = 0, frame = 8
 2489              		@ frame_needed = 1, uses_anonymous_args = 0
 2490 0000 80B5     		push	{r7, lr}
 2491              	.LCFI48:
 2492              		.cfi_def_cfa_offset 8
 2493 0002 82B0     		sub	sp, sp, #8
 2494              	.LCFI49:
 2495              		.cfi_def_cfa_offset 16
 2496 0004 00AF     		add	r7, sp, #0
 2497              		.cfi_offset 14, -4
 2498              		.cfi_offset 7, -8
 2499              	.LCFI50:
 2500              		.cfi_def_cfa_register 7
 2501 0006 7860     		str	r0, [r7, #4]
  31:../xf/xfthread.cpp **** 	return XFTimeoutManager::getInstance();
 2502              		.loc 1 31 0
 2503 0008 FFF7FEFF 		bl	_ZN16XFTimeoutManager11getInstanceEv
 2504 000c 0346     		mov	r3, r0
  32:../xf/xfthread.cpp **** }
 2505              		.loc 1 32 0
 2506 000e 1846     		mov	r0, r3
 2507 0010 07F10807 		add	r7, r7, #8
 2508 0014 BD46     		mov	sp, r7
 2509 0016 80BD     		pop	{r7, pc}
 2510              		.cfi_endproc
 2511              	.LFE841:
 2513              		.section	.text._ZNK8XFThread13dispatchEventEP8IXFEvent,"ax",%progbits
 2514              		.align	2
 2515              		.global	_ZNK8XFThread13dispatchEventEP8IXFEvent
 2516              		.thumb
 2517              		.thumb_func
 2519              	_ZNK8XFThread13dispatchEventEP8IXFEvent:
 2520              	.LFB842:
  33:../xf/xfthread.cpp **** 
  34:../xf/xfthread.cpp **** /**
  35:../xf/xfthread.cpp ****  * Dispatchs the event to the corresponding behavioral part. For example
  36:../xf/xfthread.cpp ****  * the state machine which sould process the event.
  37:../xf/xfthread.cpp ****  * \param pEvent The event to dispatch
  38:../xf/xfthread.cpp ****  */
  39:../xf/xfthread.cpp **** void XFThread::dispatchEvent(IXFEvent * pEvent) const
  40:../xf/xfthread.cpp **** {
 2521              		.loc 1 40 0
 2522              		.cfi_startproc
 2523              		@ args = 0, pretend = 0, frame = 16
 2524              		@ frame_needed = 1, uses_anonymous_args = 0
 2525 0000 80B5     		push	{r7, lr}
 2526              	.LCFI51:
 2527              		.cfi_def_cfa_offset 8
 2528 0002 84B0     		sub	sp, sp, #16
 2529              	.LCFI52:
 2530              		.cfi_def_cfa_offset 24
 2531 0004 00AF     		add	r7, sp, #0
 2532              		.cfi_offset 14, -4
 2533              		.cfi_offset 7, -8
 2534              	.LCFI53:
 2535              		.cfi_def_cfa_register 7
 2536 0006 7860     		str	r0, [r7, #4]
 2537 0008 3960     		str	r1, [r7, #0]
 2538              	.LBB8:
  41:../xf/xfthread.cpp **** 	EventStatus eventStatus;
 2539              		.loc 1 41 0
 2540 000a 07F10C03 		add	r3, r7, #12
 2541 000e 1846     		mov	r0, r3
 2542 0010 4FF00001 		mov	r1, #0
 2543 0014 FFF7FEFF 		bl	_ZN11EventStatusC1ENS_12eEventStatusE
  42:../xf/xfthread.cpp **** 
  43:../xf/xfthread.cpp **** 	eventStatus = pEvent->getBehavior()->process(pEvent);
 2544              		.loc 1 43 0
 2545 0018 3868     		ldr	r0, [r7, #0]
 2546 001a FFF7FEFF 		bl	_ZNK8IXFEvent11getBehaviorEv
 2547 001e 0346     		mov	r3, r0
 2548 0020 1A68     		ldr	r2, [r3, #0]
 2549 0022 02F11002 		add	r2, r2, #16
 2550 0026 1268     		ldr	r2, [r2, #0]
 2551 0028 1846     		mov	r0, r3
 2552 002a 3968     		ldr	r1, [r7, #0]
 2553 002c 9047     		blx	r2
 2554 002e 0346     		mov	r3, r0
 2555 0030 3B73     		strb	r3, [r7, #12]
  44:../xf/xfthread.cpp **** 
  45:../xf/xfthread.cpp **** 	// Check if behavior should be deleted
  46:../xf/xfthread.cpp **** 	if (eventStatus == EventStatus::Terminate)
 2556              		.loc 1 46 0
 2557 0032 4FF00403 		mov	r3, #4
 2558 0036 FB73     		strb	r3, [r7, #15]
 2559 0038 07F10C02 		add	r2, r7, #12
 2560 003c 07F10F03 		add	r3, r7, #15
 2561 0040 1046     		mov	r0, r2
 2562 0042 1946     		mov	r1, r3
 2563 0044 FFF7FEFF 		bl	_ZNK11EventStatuseqERKNS_12eEventStatusE
 2564 0048 0346     		mov	r3, r0
 2565 004a 002B     		cmp	r3, #0
 2566 004c 0BD0     		beq	.L38
  47:../xf/xfthread.cpp **** 	{
  48:../xf/xfthread.cpp **** 		delete pEvent->getBehavior();
 2567              		.loc 1 48 0
 2568 004e 3868     		ldr	r0, [r7, #0]
 2569 0050 FFF7FEFF 		bl	_ZNK8IXFEvent11getBehaviorEv
 2570 0054 0346     		mov	r3, r0
 2571 0056 002B     		cmp	r3, #0
 2572 0058 05D0     		beq	.L38
 2573              		.loc 1 48 0 is_stmt 0 discriminator 1
 2574 005a 1A68     		ldr	r2, [r3, #0]
 2575 005c 02F10402 		add	r2, r2, #4
 2576 0060 1268     		ldr	r2, [r2, #0]
 2577 0062 1846     		mov	r0, r3
 2578 0064 9047     		blx	r2
 2579              	.L38:
 2580              	.LBE8:
  49:../xf/xfthread.cpp **** 	}
  50:../xf/xfthread.cpp **** }
 2581              		.loc 1 50 0 is_stmt 1
 2582 0066 07F11007 		add	r7, r7, #16
 2583 006a BD46     		mov	sp, r7
 2584 006c 80BD     		pop	{r7, pc}
 2585              		.cfi_endproc
 2586              	.LFE842:
 2588 006e 00BF     		.section	.text._ZN8XFThread9pushEventEP8IXFEvent,"ax",%progbits
 2589              		.align	2
 2590              		.global	_ZN8XFThread9pushEventEP8IXFEvent
 2591              		.thumb
 2592              		.thumb_func
 2594              	_ZN8XFThread9pushEventEP8IXFEvent:
 2595              	.LFB843:
  51:../xf/xfthread.cpp **** 
  52:../xf/xfthread.cpp **** void XFThread::pushEvent(IXFEvent * pEvent)
  53:../xf/xfthread.cpp **** {
 2596              		.loc 1 53 0
 2597              		.cfi_startproc
 2598              		@ args = 0, pretend = 0, frame = 8
 2599              		@ frame_needed = 1, uses_anonymous_args = 0
 2600 0000 80B5     		push	{r7, lr}
 2601              	.LCFI54:
 2602              		.cfi_def_cfa_offset 8
 2603 0002 82B0     		sub	sp, sp, #8
 2604              	.LCFI55:
 2605              		.cfi_def_cfa_offset 16
 2606 0004 00AF     		add	r7, sp, #0
 2607              		.cfi_offset 14, -4
 2608              		.cfi_offset 7, -8
 2609              	.LCFI56:
 2610              		.cfi_def_cfa_register 7
 2611 0006 7860     		str	r0, [r7, #4]
 2612 0008 3960     		str	r1, [r7, #0]
  54:../xf/xfthread.cpp **** 	_events.push(pEvent);
 2613              		.loc 1 54 0
 2614 000a 7B68     		ldr	r3, [r7, #4]
 2615 000c 03F10C02 		add	r2, r3, #12
 2616 0010 3B46     		mov	r3, r7
 2617 0012 1046     		mov	r0, r2
 2618 0014 1946     		mov	r1, r3
 2619 0016 FFF7FEFF 		bl	_ZNSt5queueIP8IXFEventSt5dequeIS1_SaIS1_EEE4pushERKS1_
  55:../xf/xfthread.cpp **** 
  56:../xf/xfthread.cpp **** 
  57:../xf/xfthread.cpp **** #ifdef TC_MESHSIM /********************************************************************************
  58:../xf/xfthread.cpp **** 
  59:../xf/xfthread.cpp **** 	if ( _tid == -1 )
  60:../xf/xfthread.cpp **** 	{
  61:../xf/xfthread.cpp **** 		_tid = startTimer( 0 );
  62:../xf/xfthread.cpp **** 	}
  63:../xf/xfthread.cpp **** 
  64:../xf/xfthread.cpp **** #endif /*******************************************************************************************
  65:../xf/xfthread.cpp **** 
  66:../xf/xfthread.cpp **** 
  67:../xf/xfthread.cpp **** }
 2620              		.loc 1 67 0
 2621 001a 07F10807 		add	r7, r7, #8
 2622 001e BD46     		mov	sp, r7
 2623 0020 80BD     		pop	{r7, pc}
 2624              		.cfi_endproc
 2625              	.LFE843:
 2627 0022 00BF     		.section	.text._ZN8XFThread15scheduleTimeoutEiiP11IXFReactive,"ax",%progbits
 2628              		.align	2
 2629              		.global	_ZN8XFThread15scheduleTimeoutEiiP11IXFReactive
 2630              		.thumb
 2631              		.thumb_func
 2633              	_ZN8XFThread15scheduleTimeoutEiiP11IXFReactive:
 2634              	.LFB844:
  68:../xf/xfthread.cpp **** 
  69:../xf/xfthread.cpp **** /**
  70:../xf/xfthread.cpp ****  * Adds a new timeout to be handled. The XFThread will forward the timeout
  71:../xf/xfthread.cpp ****  * information to the timeout manager which is responsible to handle all timeouts.
  72:../xf/xfthread.cpp ****  */
  73:../xf/xfthread.cpp **** void XFThread::scheduleTimeout(int timeoutId, int interval, IXFReactive * pReactive)
  74:../xf/xfthread.cpp **** {
 2635              		.loc 1 74 0
 2636              		.cfi_startproc
 2637              		@ args = 0, pretend = 0, frame = 16
 2638              		@ frame_needed = 1, uses_anonymous_args = 0
 2639 0000 80B5     		push	{r7, lr}
 2640              	.LCFI57:
 2641              		.cfi_def_cfa_offset 8
 2642 0002 84B0     		sub	sp, sp, #16
 2643              	.LCFI58:
 2644              		.cfi_def_cfa_offset 24
 2645 0004 00AF     		add	r7, sp, #0
 2646              		.cfi_offset 14, -4
 2647              		.cfi_offset 7, -8
 2648              	.LCFI59:
 2649              		.cfi_def_cfa_register 7
 2650 0006 F860     		str	r0, [r7, #12]
 2651 0008 B960     		str	r1, [r7, #8]
 2652 000a 7A60     		str	r2, [r7, #4]
 2653 000c 3B60     		str	r3, [r7, #0]
  75:../xf/xfthread.cpp **** 	// Forward timeout to the timeout manager
  76:../xf/xfthread.cpp **** 	getTimeoutManager()->scheduleTimeout(timeoutId, interval, pReactive);
 2654              		.loc 1 76 0
 2655 000e F868     		ldr	r0, [r7, #12]
 2656 0010 FFF7FEFF 		bl	_ZNK8XFThread17getTimeoutManagerEv
 2657 0014 0346     		mov	r3, r0
 2658 0016 1846     		mov	r0, r3
 2659 0018 B968     		ldr	r1, [r7, #8]
 2660 001a 7A68     		ldr	r2, [r7, #4]
 2661 001c 3B68     		ldr	r3, [r7, #0]
 2662 001e FFF7FEFF 		bl	_ZN16XFTimeoutManager15scheduleTimeoutEiiP11IXFReactive
  77:../xf/xfthread.cpp **** }
 2663              		.loc 1 77 0
 2664 0022 07F11007 		add	r7, r7, #16
 2665 0026 BD46     		mov	sp, r7
 2666 0028 80BD     		pop	{r7, pc}
 2667              		.cfi_endproc
 2668              	.LFE844:
 2670 002a 00BF     		.section	.text._ZN8XFThread17unscheduleTimeoutEiP11IXFReactive,"ax",%progbits
 2671              		.align	2
 2672              		.global	_ZN8XFThread17unscheduleTimeoutEiP11IXFReactive
 2673              		.thumb
 2674              		.thumb_func
 2676              	_ZN8XFThread17unscheduleTimeoutEiP11IXFReactive:
 2677              	.LFB845:
  78:../xf/xfthread.cpp **** 
  79:../xf/xfthread.cpp **** /**
  80:../xf/xfthread.cpp ****  * Removes all timeouts corresponding the given parameters.
  81:../xf/xfthread.cpp ****  */
  82:../xf/xfthread.cpp **** void XFThread::unscheduleTimeout(int timeoutId, IXFReactive * pReactive)
  83:../xf/xfthread.cpp **** {
 2678              		.loc 1 83 0
 2679              		.cfi_startproc
 2680              		@ args = 0, pretend = 0, frame = 16
 2681              		@ frame_needed = 1, uses_anonymous_args = 0
 2682 0000 80B5     		push	{r7, lr}
 2683              	.LCFI60:
 2684              		.cfi_def_cfa_offset 8
 2685 0002 84B0     		sub	sp, sp, #16
 2686              	.LCFI61:
 2687              		.cfi_def_cfa_offset 24
 2688 0004 00AF     		add	r7, sp, #0
 2689              		.cfi_offset 14, -4
 2690              		.cfi_offset 7, -8
 2691              	.LCFI62:
 2692              		.cfi_def_cfa_register 7
 2693 0006 F860     		str	r0, [r7, #12]
 2694 0008 B960     		str	r1, [r7, #8]
 2695 000a 7A60     		str	r2, [r7, #4]
  84:../xf/xfthread.cpp **** 	// Forward timeout to the timeout manager
  85:../xf/xfthread.cpp **** 	getTimeoutManager()->unscheduleTimeout(timeoutId, pReactive);
 2696              		.loc 1 85 0
 2697 000c F868     		ldr	r0, [r7, #12]
 2698 000e FFF7FEFF 		bl	_ZNK8XFThread17getTimeoutManagerEv
 2699 0012 0346     		mov	r3, r0
 2700 0014 1846     		mov	r0, r3
 2701 0016 B968     		ldr	r1, [r7, #8]
 2702 0018 7A68     		ldr	r2, [r7, #4]
 2703 001a FFF7FEFF 		bl	_ZN16XFTimeoutManager17unscheduleTimeoutEiP11IXFReactive
  86:../xf/xfthread.cpp **** }
 2704              		.loc 1 86 0
 2705 001e 07F11007 		add	r7, r7, #16
 2706 0022 BD46     		mov	sp, r7
 2707 0024 80BD     		pop	{r7, pc}
 2708              		.cfi_endproc
 2709              	.LFE845:
 2711 0026 00BF     		.section	.text._ZN8XFThread7executeEv,"ax",%progbits
 2712              		.align	2
 2713              		.global	_ZN8XFThread7executeEv
 2714              		.thumb
 2715              		.thumb_func
 2717              	_ZN8XFThread7executeEv:
 2718              	.LFB846:
  87:../xf/xfthread.cpp **** 
  88:../xf/xfthread.cpp **** /**
  89:../xf/xfthread.cpp ****  * Main loop of the thread. Implements event loop processing.
  90:../xf/xfthread.cpp ****  */
  91:../xf/xfthread.cpp **** void XFThread::execute()
  92:../xf/xfthread.cpp **** {
 2719              		.loc 1 92 0
 2720              		.cfi_startproc
 2721              		@ args = 0, pretend = 0, frame = 16
 2722              		@ frame_needed = 1, uses_anonymous_args = 0
 2723 0000 80B5     		push	{r7, lr}
 2724              	.LCFI63:
 2725              		.cfi_def_cfa_offset 8
 2726 0002 84B0     		sub	sp, sp, #16
 2727              	.LCFI64:
 2728              		.cfi_def_cfa_offset 24
 2729 0004 00AF     		add	r7, sp, #0
 2730              		.cfi_offset 14, -4
 2731              		.cfi_offset 7, -8
 2732              	.LCFI65:
 2733              		.cfi_def_cfa_register 7
 2734 0006 7860     		str	r0, [r7, #4]
 2735              	.LBB9:
  93:../xf/xfthread.cpp **** 	while(_bExecuting)
 2736              		.loc 1 93 0
 2737 0008 3FE0     		b	.L44
 2738              	.L49:
 2739              	.LBB10:
  94:../xf/xfthread.cpp **** 	{
  95:../xf/xfthread.cpp **** 		IXFEvent * pEvent;
  96:../xf/xfthread.cpp **** 
  97:../xf/xfthread.cpp **** 		while (_events.empty())
 2740              		.loc 1 97 0
 2741 000a 00BF     		nop
 2742              	.L45:
 2743              		.loc 1 97 0 is_stmt 0 discriminator 1
 2744 000c 7B68     		ldr	r3, [r7, #4]
 2745 000e 03F10803 		add	r3, r3, #8
 2746 0012 1846     		mov	r0, r3
 2747 0014 FFF7FEFF 		bl	_ZN12XFEventQueue5emptyEv
 2748 0018 0346     		mov	r3, r0
 2749 001a 002B     		cmp	r3, #0
 2750 001c F6D1     		bne	.L45
  98:../xf/xfthread.cpp **** 		{
  99:../xf/xfthread.cpp **** 			// Wait until something to do
 100:../xf/xfthread.cpp **** 
 101:../xf/xfthread.cpp **** 
 102:../xf/xfthread.cpp **** #ifdef TC_MESHSIM /********************************************************************************
 103:../xf/xfthread.cpp **** 
 104:../xf/xfthread.cpp **** 			killTimer( _tid );
 105:../xf/xfthread.cpp **** 			_tid = -1;
 106:../xf/xfthread.cpp **** 			return;
 107:../xf/xfthread.cpp **** 
 108:../xf/xfthread.cpp **** #endif /*******************************************************************************************
 109:../xf/xfthread.cpp **** 
 110:../xf/xfthread.cpp **** 
 111:../xf/xfthread.cpp **** 		}
 112:../xf/xfthread.cpp **** 
 113:../xf/xfthread.cpp **** 		// Deque next event from queue
 114:../xf/xfthread.cpp **** 		pEvent = _events.front(); _events.pop();
 2751              		.loc 1 114 0 is_stmt 1
 2752 001e 7B68     		ldr	r3, [r7, #4]
 2753 0020 03F10C03 		add	r3, r3, #12
 2754 0024 1846     		mov	r0, r3
 2755 0026 FFF7FEFF 		bl	_ZNSt5queueIP8IXFEventSt5dequeIS1_SaIS1_EEE5frontEv
 2756 002a 0346     		mov	r3, r0
 2757 002c 1B68     		ldr	r3, [r3, #0]
 2758 002e FB60     		str	r3, [r7, #12]
 2759 0030 7B68     		ldr	r3, [r7, #4]
 2760 0032 03F10C03 		add	r3, r3, #12
 2761 0036 1846     		mov	r0, r3
 2762 0038 FFF7FEFF 		bl	_ZNSt5queueIP8IXFEventSt5dequeIS1_SaIS1_EEE3popEv
 115:../xf/xfthread.cpp **** 
 116:../xf/xfthread.cpp **** 		if (pEvent)
 2763              		.loc 1 116 0
 2764 003c FB68     		ldr	r3, [r7, #12]
 2765 003e 002B     		cmp	r3, #0
 2766 0040 03D0     		beq	.L46
 117:../xf/xfthread.cpp **** 		{
 118:../xf/xfthread.cpp **** 			// Forward the event to the behavioral class
 119:../xf/xfthread.cpp **** 			dispatchEvent(pEvent);
 2767              		.loc 1 119 0
 2768 0042 7868     		ldr	r0, [r7, #4]
 2769 0044 F968     		ldr	r1, [r7, #12]
 2770 0046 FFF7FEFF 		bl	_ZNK8XFThread13dispatchEventEP8IXFEvent
 2771              	.L46:
 120:../xf/xfthread.cpp **** 		}
 121:../xf/xfthread.cpp **** 
 122:../xf/xfthread.cpp **** 		if (pEvent->getEventType() == IXFEvent::Terminate)
 2772              		.loc 1 122 0
 2773 004a F868     		ldr	r0, [r7, #12]
 2774 004c FFF7FEFF 		bl	_ZNK8IXFEvent12getEventTypeEv
 2775 0050 0346     		mov	r3, r0
 2776 0052 B3F1FF3F 		cmp	r3, #-1
 2777 0056 14BF     		ite	ne
 2778 0058 0023     		movne	r3, #0
 2779 005a 0123     		moveq	r3, #1
 2780 005c DBB2     		uxtb	r3, r3
 2781 005e 002B     		cmp	r3, #0
 2782 0060 03D0     		beq	.L47
 123:../xf/xfthread.cpp **** 		{
 124:../xf/xfthread.cpp **** 			// Exit the event loop
 125:../xf/xfthread.cpp **** 			_bExecuting = false;
 2783              		.loc 1 125 0
 2784 0062 7B68     		ldr	r3, [r7, #4]
 2785 0064 4FF00002 		mov	r2, #0
 2786 0068 1A71     		strb	r2, [r3, #4]
 2787              	.L47:
 126:../xf/xfthread.cpp **** 		}
 127:../xf/xfthread.cpp **** 
 128:../xf/xfthread.cpp **** 		if (pEvent->shouldDelete())
 2788              		.loc 1 128 0
 2789 006a F868     		ldr	r0, [r7, #12]
 2790 006c FFF7FEFF 		bl	_ZNK8IXFEvent12shouldDeleteEv
 2791 0070 0346     		mov	r3, r0
 2792 0072 002B     		cmp	r3, #0
 2793 0074 09D0     		beq	.L44
 129:../xf/xfthread.cpp **** 		{
 130:../xf/xfthread.cpp **** 			// Delete consumed event
 131:../xf/xfthread.cpp **** 			delete pEvent;
 2794              		.loc 1 131 0
 2795 0076 FB68     		ldr	r3, [r7, #12]
 2796 0078 002B     		cmp	r3, #0
 2797 007a 06D0     		beq	.L44
 2798              		.loc 1 131 0 is_stmt 0 discriminator 1
 2799 007c FB68     		ldr	r3, [r7, #12]
 2800 007e 1B68     		ldr	r3, [r3, #0]
 2801 0080 03F10403 		add	r3, r3, #4
 2802 0084 1B68     		ldr	r3, [r3, #0]
 2803 0086 F868     		ldr	r0, [r7, #12]
 2804 0088 9847     		blx	r3
 2805              	.L44:
 2806              	.LBE10:
  93:../xf/xfthread.cpp **** 	while(_bExecuting)
 2807              		.loc 1 93 0 is_stmt 1 discriminator 1
 2808 008a 7B68     		ldr	r3, [r7, #4]
 2809 008c 1B79     		ldrb	r3, [r3, #4]	@ zero_extendqisi2
 2810 008e 002B     		cmp	r3, #0
 2811 0090 BBD1     		bne	.L49
 2812              	.LBE9:
 132:../xf/xfthread.cpp **** 		}
 133:../xf/xfthread.cpp **** 	}
 134:../xf/xfthread.cpp **** }
 2813              		.loc 1 134 0
 2814 0092 07F11007 		add	r7, r7, #16
 2815 0096 BD46     		mov	sp, r7
 2816 0098 80BD     		pop	{r7, pc}
 2817              		.cfi_endproc
 2818              	.LFE846:
 2820 009a 00BF     		.section	.text._ZNSt5dequeIP8IXFEventSaIS1_EEC2Ev,"axG",%progbits,_ZNSt5dequeIP8IXFEventSaIS1_EEC5
 2821              		.align	2
 2822              		.weak	_ZNSt5dequeIP8IXFEventSaIS1_EEC2Ev
 2823              		.thumb
 2824              		.thumb_func
 2826              	_ZNSt5dequeIP8IXFEventSaIS1_EEC2Ev:
 2827              	.LFB849:
  89:/opt/toolchains/arm-none-eabi/bin/../lib/gcc/arm-none-eabi/4.5.2/../../../../arm-none-eabi/include/c++/4.5.2/bits/stl_deque.h **** 
  90:/opt/toolchains/arm-none-eabi/bin/../lib/gcc/arm-none-eabi/4.5.2/../../../../arm-none-eabi/include/c++/4.5.2/bits/stl_deque.h **** 
  91:/opt/toolchains/arm-none-eabi/bin/../lib/gcc/arm-none-eabi/4.5.2/../../../../arm-none-eabi/include/c++/4.5.2/bits/stl_deque.h ****   /**
  92:/opt/toolchains/arm-none-eabi/bin/../lib/gcc/arm-none-eabi/4.5.2/../../../../arm-none-eabi/include/c++/4.5.2/bits/stl_deque.h ****    *  @brief A deque::iterator.
  93:/opt/toolchains/arm-none-eabi/bin/../lib/gcc/arm-none-eabi/4.5.2/../../../../arm-none-eabi/include/c++/4.5.2/bits/stl_deque.h ****    *
  94:/opt/toolchains/arm-none-eabi/bin/../lib/gcc/arm-none-eabi/4.5.2/../../../../arm-none-eabi/include/c++/4.5.2/bits/stl_deque.h ****    *  Quite a bit of intelligence here.  Much of the functionality of
  95:/opt/toolchains/arm-none-eabi/bin/../lib/gcc/arm-none-eabi/4.5.2/../../../../arm-none-eabi/include/c++/4.5.2/bits/stl_deque.h ****    *  deque is actually passed off to this class.  A deque holds two
  96:/opt/toolchains/arm-none-eabi/bin/../lib/gcc/arm-none-eabi/4.5.2/../../../../arm-none-eabi/include/c++/4.5.2/bits/stl_deque.h ****    *  of these internally, marking its valid range.  Access to
  97:/opt/toolchains/arm-none-eabi/bin/../lib/gcc/arm-none-eabi/4.5.2/../../../../arm-none-eabi/include/c++/4.5.2/bits/stl_deque.h ****    *  elements is done as offsets of either of those two, relying on
  98:/opt/toolchains/arm-none-eabi/bin/../lib/gcc/arm-none-eabi/4.5.2/../../../../arm-none-eabi/include/c++/4.5.2/bits/stl_deque.h ****    *  operator overloading in this class.
  99:/opt/toolchains/arm-none-eabi/bin/../lib/gcc/arm-none-eabi/4.5.2/../../../../arm-none-eabi/include/c++/4.5.2/bits/stl_deque.h ****    *
 100:/opt/toolchains/arm-none-eabi/bin/../lib/gcc/arm-none-eabi/4.5.2/../../../../arm-none-eabi/include/c++/4.5.2/bits/stl_deque.h ****    *  All the functions are op overloads except for _M_set_node.
 101:/opt/toolchains/arm-none-eabi/bin/../lib/gcc/arm-none-eabi/4.5.2/../../../../arm-none-eabi/include/c++/4.5.2/bits/stl_deque.h ****   */
 102:/opt/toolchains/arm-none-eabi/bin/../lib/gcc/arm-none-eabi/4.5.2/../../../../arm-none-eabi/include/c++/4.5.2/bits/stl_deque.h ****   template<typename _Tp, typename _Ref, typename _Ptr>
 103:/opt/toolchains/arm-none-eabi/bin/../lib/gcc/arm-none-eabi/4.5.2/../../../../arm-none-eabi/include/c++/4.5.2/bits/stl_deque.h ****     struct _Deque_iterator
 104:/opt/toolchains/arm-none-eabi/bin/../lib/gcc/arm-none-eabi/4.5.2/../../../../arm-none-eabi/include/c++/4.5.2/bits/stl_deque.h ****     {
 105:/opt/toolchains/arm-none-eabi/bin/../lib/gcc/arm-none-eabi/4.5.2/../../../../arm-none-eabi/include/c++/4.5.2/bits/stl_deque.h ****       typedef _Deque_iterator<_Tp, _Tp&, _Tp*>             iterator;
 106:/opt/toolchains/arm-none-eabi/bin/../lib/gcc/arm-none-eabi/4.5.2/../../../../arm-none-eabi/include/c++/4.5.2/bits/stl_deque.h ****       typedef _Deque_iterator<_Tp, const _Tp&, const _Tp*> const_iterator;
 107:/opt/toolchains/arm-none-eabi/bin/../lib/gcc/arm-none-eabi/4.5.2/../../../../arm-none-eabi/include/c++/4.5.2/bits/stl_deque.h **** 
 108:/opt/toolchains/arm-none-eabi/bin/../lib/gcc/arm-none-eabi/4.5.2/../../../../arm-none-eabi/include/c++/4.5.2/bits/stl_deque.h ****       static size_t _S_buffer_size()
 109:/opt/toolchains/arm-none-eabi/bin/../lib/gcc/arm-none-eabi/4.5.2/../../../../arm-none-eabi/include/c++/4.5.2/bits/stl_deque.h ****       { return __deque_buf_size(sizeof(_Tp)); }
 110:/opt/toolchains/arm-none-eabi/bin/../lib/gcc/arm-none-eabi/4.5.2/../../../../arm-none-eabi/include/c++/4.5.2/bits/stl_deque.h **** 
 111:/opt/toolchains/arm-none-eabi/bin/../lib/gcc/arm-none-eabi/4.5.2/../../../../arm-none-eabi/include/c++/4.5.2/bits/stl_deque.h ****       typedef std::random_access_iterator_tag iterator_category;
 112:/opt/toolchains/arm-none-eabi/bin/../lib/gcc/arm-none-eabi/4.5.2/../../../../arm-none-eabi/include/c++/4.5.2/bits/stl_deque.h ****       typedef _Tp                             value_type;
 113:/opt/toolchains/arm-none-eabi/bin/../lib/gcc/arm-none-eabi/4.5.2/../../../../arm-none-eabi/include/c++/4.5.2/bits/stl_deque.h ****       typedef _Ptr                            pointer;
 114:/opt/toolchains/arm-none-eabi/bin/../lib/gcc/arm-none-eabi/4.5.2/../../../../arm-none-eabi/include/c++/4.5.2/bits/stl_deque.h ****       typedef _Ref                            reference;
 115:/opt/toolchains/arm-none-eabi/bin/../lib/gcc/arm-none-eabi/4.5.2/../../../../arm-none-eabi/include/c++/4.5.2/bits/stl_deque.h ****       typedef size_t                          size_type;
 116:/opt/toolchains/arm-none-eabi/bin/../lib/gcc/arm-none-eabi/4.5.2/../../../../arm-none-eabi/include/c++/4.5.2/bits/stl_deque.h ****       typedef ptrdiff_t                       difference_type;
 117:/opt/toolchains/arm-none-eabi/bin/../lib/gcc/arm-none-eabi/4.5.2/../../../../arm-none-eabi/include/c++/4.5.2/bits/stl_deque.h ****       typedef _Tp**                           _Map_pointer;
 118:/opt/toolchains/arm-none-eabi/bin/../lib/gcc/arm-none-eabi/4.5.2/../../../../arm-none-eabi/include/c++/4.5.2/bits/stl_deque.h ****       typedef _Deque_iterator                 _Self;
 119:/opt/toolchains/arm-none-eabi/bin/../lib/gcc/arm-none-eabi/4.5.2/../../../../arm-none-eabi/include/c++/4.5.2/bits/stl_deque.h **** 
 120:/opt/toolchains/arm-none-eabi/bin/../lib/gcc/arm-none-eabi/4.5.2/../../../../arm-none-eabi/include/c++/4.5.2/bits/stl_deque.h ****       _Tp* _M_cur;
 121:/opt/toolchains/arm-none-eabi/bin/../lib/gcc/arm-none-eabi/4.5.2/../../../../arm-none-eabi/include/c++/4.5.2/bits/stl_deque.h ****       _Tp* _M_first;
 122:/opt/toolchains/arm-none-eabi/bin/../lib/gcc/arm-none-eabi/4.5.2/../../../../arm-none-eabi/include/c++/4.5.2/bits/stl_deque.h ****       _Tp* _M_last;
 123:/opt/toolchains/arm-none-eabi/bin/../lib/gcc/arm-none-eabi/4.5.2/../../../../arm-none-eabi/include/c++/4.5.2/bits/stl_deque.h ****       _Map_pointer _M_node;
 124:/opt/toolchains/arm-none-eabi/bin/../lib/gcc/arm-none-eabi/4.5.2/../../../../arm-none-eabi/include/c++/4.5.2/bits/stl_deque.h **** 
 125:/opt/toolchains/arm-none-eabi/bin/../lib/gcc/arm-none-eabi/4.5.2/../../../../arm-none-eabi/include/c++/4.5.2/bits/stl_deque.h ****       _Deque_iterator(_Tp* __x, _Map_pointer __y)
 126:/opt/toolchains/arm-none-eabi/bin/../lib/gcc/arm-none-eabi/4.5.2/../../../../arm-none-eabi/include/c++/4.5.2/bits/stl_deque.h ****       : _M_cur(__x), _M_first(*__y),
 127:/opt/toolchains/arm-none-eabi/bin/../lib/gcc/arm-none-eabi/4.5.2/../../../../arm-none-eabi/include/c++/4.5.2/bits/stl_deque.h ****         _M_last(*__y + _S_buffer_size()), _M_node(__y) { }
 128:/opt/toolchains/arm-none-eabi/bin/../lib/gcc/arm-none-eabi/4.5.2/../../../../arm-none-eabi/include/c++/4.5.2/bits/stl_deque.h **** 
 129:/opt/toolchains/arm-none-eabi/bin/../lib/gcc/arm-none-eabi/4.5.2/../../../../arm-none-eabi/include/c++/4.5.2/bits/stl_deque.h ****       _Deque_iterator()
 130:/opt/toolchains/arm-none-eabi/bin/../lib/gcc/arm-none-eabi/4.5.2/../../../../arm-none-eabi/include/c++/4.5.2/bits/stl_deque.h ****       : _M_cur(0), _M_first(0), _M_last(0), _M_node(0) { }
 131:/opt/toolchains/arm-none-eabi/bin/../lib/gcc/arm-none-eabi/4.5.2/../../../../arm-none-eabi/include/c++/4.5.2/bits/stl_deque.h **** 
 132:/opt/toolchains/arm-none-eabi/bin/../lib/gcc/arm-none-eabi/4.5.2/../../../../arm-none-eabi/include/c++/4.5.2/bits/stl_deque.h ****       _Deque_iterator(const iterator& __x)
 133:/opt/toolchains/arm-none-eabi/bin/../lib/gcc/arm-none-eabi/4.5.2/../../../../arm-none-eabi/include/c++/4.5.2/bits/stl_deque.h ****       : _M_cur(__x._M_cur), _M_first(__x._M_first),
 134:/opt/toolchains/arm-none-eabi/bin/../lib/gcc/arm-none-eabi/4.5.2/../../../../arm-none-eabi/include/c++/4.5.2/bits/stl_deque.h ****         _M_last(__x._M_last), _M_node(__x._M_node) { }
 135:/opt/toolchains/arm-none-eabi/bin/../lib/gcc/arm-none-eabi/4.5.2/../../../../arm-none-eabi/include/c++/4.5.2/bits/stl_deque.h **** 
 136:/opt/toolchains/arm-none-eabi/bin/../lib/gcc/arm-none-eabi/4.5.2/../../../../arm-none-eabi/include/c++/4.5.2/bits/stl_deque.h ****       reference
 137:/opt/toolchains/arm-none-eabi/bin/../lib/gcc/arm-none-eabi/4.5.2/../../../../arm-none-eabi/include/c++/4.5.2/bits/stl_deque.h ****       operator*() const
 138:/opt/toolchains/arm-none-eabi/bin/../lib/gcc/arm-none-eabi/4.5.2/../../../../arm-none-eabi/include/c++/4.5.2/bits/stl_deque.h ****       { return *_M_cur; }
 139:/opt/toolchains/arm-none-eabi/bin/../lib/gcc/arm-none-eabi/4.5.2/../../../../arm-none-eabi/include/c++/4.5.2/bits/stl_deque.h **** 
 140:/opt/toolchains/arm-none-eabi/bin/../lib/gcc/arm-none-eabi/4.5.2/../../../../arm-none-eabi/include/c++/4.5.2/bits/stl_deque.h ****       pointer
 141:/opt/toolchains/arm-none-eabi/bin/../lib/gcc/arm-none-eabi/4.5.2/../../../../arm-none-eabi/include/c++/4.5.2/bits/stl_deque.h ****       operator->() const
 142:/opt/toolchains/arm-none-eabi/bin/../lib/gcc/arm-none-eabi/4.5.2/../../../../arm-none-eabi/include/c++/4.5.2/bits/stl_deque.h ****       { return _M_cur; }
 143:/opt/toolchains/arm-none-eabi/bin/../lib/gcc/arm-none-eabi/4.5.2/../../../../arm-none-eabi/include/c++/4.5.2/bits/stl_deque.h **** 
 144:/opt/toolchains/arm-none-eabi/bin/../lib/gcc/arm-none-eabi/4.5.2/../../../../arm-none-eabi/include/c++/4.5.2/bits/stl_deque.h ****       _Self&
 145:/opt/toolchains/arm-none-eabi/bin/../lib/gcc/arm-none-eabi/4.5.2/../../../../arm-none-eabi/include/c++/4.5.2/bits/stl_deque.h ****       operator++()
 146:/opt/toolchains/arm-none-eabi/bin/../lib/gcc/arm-none-eabi/4.5.2/../../../../arm-none-eabi/include/c++/4.5.2/bits/stl_deque.h ****       {
 147:/opt/toolchains/arm-none-eabi/bin/../lib/gcc/arm-none-eabi/4.5.2/../../../../arm-none-eabi/include/c++/4.5.2/bits/stl_deque.h **** 	++_M_cur;
 148:/opt/toolchains/arm-none-eabi/bin/../lib/gcc/arm-none-eabi/4.5.2/../../../../arm-none-eabi/include/c++/4.5.2/bits/stl_deque.h **** 	if (_M_cur == _M_last)
 149:/opt/toolchains/arm-none-eabi/bin/../lib/gcc/arm-none-eabi/4.5.2/../../../../arm-none-eabi/include/c++/4.5.2/bits/stl_deque.h **** 	  {
 150:/opt/toolchains/arm-none-eabi/bin/../lib/gcc/arm-none-eabi/4.5.2/../../../../arm-none-eabi/include/c++/4.5.2/bits/stl_deque.h **** 	    _M_set_node(_M_node + 1);
 151:/opt/toolchains/arm-none-eabi/bin/../lib/gcc/arm-none-eabi/4.5.2/../../../../arm-none-eabi/include/c++/4.5.2/bits/stl_deque.h **** 	    _M_cur = _M_first;
 152:/opt/toolchains/arm-none-eabi/bin/../lib/gcc/arm-none-eabi/4.5.2/../../../../arm-none-eabi/include/c++/4.5.2/bits/stl_deque.h **** 	  }
 153:/opt/toolchains/arm-none-eabi/bin/../lib/gcc/arm-none-eabi/4.5.2/../../../../arm-none-eabi/include/c++/4.5.2/bits/stl_deque.h **** 	return *this;
 154:/opt/toolchains/arm-none-eabi/bin/../lib/gcc/arm-none-eabi/4.5.2/../../../../arm-none-eabi/include/c++/4.5.2/bits/stl_deque.h ****       }
 155:/opt/toolchains/arm-none-eabi/bin/../lib/gcc/arm-none-eabi/4.5.2/../../../../arm-none-eabi/include/c++/4.5.2/bits/stl_deque.h **** 
 156:/opt/toolchains/arm-none-eabi/bin/../lib/gcc/arm-none-eabi/4.5.2/../../../../arm-none-eabi/include/c++/4.5.2/bits/stl_deque.h ****       _Self
 157:/opt/toolchains/arm-none-eabi/bin/../lib/gcc/arm-none-eabi/4.5.2/../../../../arm-none-eabi/include/c++/4.5.2/bits/stl_deque.h ****       operator++(int)
 158:/opt/toolchains/arm-none-eabi/bin/../lib/gcc/arm-none-eabi/4.5.2/../../../../arm-none-eabi/include/c++/4.5.2/bits/stl_deque.h ****       {
 159:/opt/toolchains/arm-none-eabi/bin/../lib/gcc/arm-none-eabi/4.5.2/../../../../arm-none-eabi/include/c++/4.5.2/bits/stl_deque.h **** 	_Self __tmp = *this;
 160:/opt/toolchains/arm-none-eabi/bin/../lib/gcc/arm-none-eabi/4.5.2/../../../../arm-none-eabi/include/c++/4.5.2/bits/stl_deque.h **** 	++*this;
 161:/opt/toolchains/arm-none-eabi/bin/../lib/gcc/arm-none-eabi/4.5.2/../../../../arm-none-eabi/include/c++/4.5.2/bits/stl_deque.h **** 	return __tmp;
 162:/opt/toolchains/arm-none-eabi/bin/../lib/gcc/arm-none-eabi/4.5.2/../../../../arm-none-eabi/include/c++/4.5.2/bits/stl_deque.h ****       }
 163:/opt/toolchains/arm-none-eabi/bin/../lib/gcc/arm-none-eabi/4.5.2/../../../../arm-none-eabi/include/c++/4.5.2/bits/stl_deque.h **** 
 164:/opt/toolchains/arm-none-eabi/bin/../lib/gcc/arm-none-eabi/4.5.2/../../../../arm-none-eabi/include/c++/4.5.2/bits/stl_deque.h ****       _Self&
 165:/opt/toolchains/arm-none-eabi/bin/../lib/gcc/arm-none-eabi/4.5.2/../../../../arm-none-eabi/include/c++/4.5.2/bits/stl_deque.h ****       operator--()
 166:/opt/toolchains/arm-none-eabi/bin/../lib/gcc/arm-none-eabi/4.5.2/../../../../arm-none-eabi/include/c++/4.5.2/bits/stl_deque.h ****       {
 167:/opt/toolchains/arm-none-eabi/bin/../lib/gcc/arm-none-eabi/4.5.2/../../../../arm-none-eabi/include/c++/4.5.2/bits/stl_deque.h **** 	if (_M_cur == _M_first)
 168:/opt/toolchains/arm-none-eabi/bin/../lib/gcc/arm-none-eabi/4.5.2/../../../../arm-none-eabi/include/c++/4.5.2/bits/stl_deque.h **** 	  {
 169:/opt/toolchains/arm-none-eabi/bin/../lib/gcc/arm-none-eabi/4.5.2/../../../../arm-none-eabi/include/c++/4.5.2/bits/stl_deque.h **** 	    _M_set_node(_M_node - 1);
 170:/opt/toolchains/arm-none-eabi/bin/../lib/gcc/arm-none-eabi/4.5.2/../../../../arm-none-eabi/include/c++/4.5.2/bits/stl_deque.h **** 	    _M_cur = _M_last;
 171:/opt/toolchains/arm-none-eabi/bin/../lib/gcc/arm-none-eabi/4.5.2/../../../../arm-none-eabi/include/c++/4.5.2/bits/stl_deque.h **** 	  }
 172:/opt/toolchains/arm-none-eabi/bin/../lib/gcc/arm-none-eabi/4.5.2/../../../../arm-none-eabi/include/c++/4.5.2/bits/stl_deque.h **** 	--_M_cur;
 173:/opt/toolchains/arm-none-eabi/bin/../lib/gcc/arm-none-eabi/4.5.2/../../../../arm-none-eabi/include/c++/4.5.2/bits/stl_deque.h **** 	return *this;
 174:/opt/toolchains/arm-none-eabi/bin/../lib/gcc/arm-none-eabi/4.5.2/../../../../arm-none-eabi/include/c++/4.5.2/bits/stl_deque.h ****       }
 175:/opt/toolchains/arm-none-eabi/bin/../lib/gcc/arm-none-eabi/4.5.2/../../../../arm-none-eabi/include/c++/4.5.2/bits/stl_deque.h **** 
 176:/opt/toolchains/arm-none-eabi/bin/../lib/gcc/arm-none-eabi/4.5.2/../../../../arm-none-eabi/include/c++/4.5.2/bits/stl_deque.h ****       _Self
 177:/opt/toolchains/arm-none-eabi/bin/../lib/gcc/arm-none-eabi/4.5.2/../../../../arm-none-eabi/include/c++/4.5.2/bits/stl_deque.h ****       operator--(int)
 178:/opt/toolchains/arm-none-eabi/bin/../lib/gcc/arm-none-eabi/4.5.2/../../../../arm-none-eabi/include/c++/4.5.2/bits/stl_deque.h ****       {
 179:/opt/toolchains/arm-none-eabi/bin/../lib/gcc/arm-none-eabi/4.5.2/../../../../arm-none-eabi/include/c++/4.5.2/bits/stl_deque.h **** 	_Self __tmp = *this;
 180:/opt/toolchains/arm-none-eabi/bin/../lib/gcc/arm-none-eabi/4.5.2/../../../../arm-none-eabi/include/c++/4.5.2/bits/stl_deque.h **** 	--*this;
 181:/opt/toolchains/arm-none-eabi/bin/../lib/gcc/arm-none-eabi/4.5.2/../../../../arm-none-eabi/include/c++/4.5.2/bits/stl_deque.h **** 	return __tmp;
 182:/opt/toolchains/arm-none-eabi/bin/../lib/gcc/arm-none-eabi/4.5.2/../../../../arm-none-eabi/include/c++/4.5.2/bits/stl_deque.h ****       }
 183:/opt/toolchains/arm-none-eabi/bin/../lib/gcc/arm-none-eabi/4.5.2/../../../../arm-none-eabi/include/c++/4.5.2/bits/stl_deque.h **** 
 184:/opt/toolchains/arm-none-eabi/bin/../lib/gcc/arm-none-eabi/4.5.2/../../../../arm-none-eabi/include/c++/4.5.2/bits/stl_deque.h ****       _Self&
 185:/opt/toolchains/arm-none-eabi/bin/../lib/gcc/arm-none-eabi/4.5.2/../../../../arm-none-eabi/include/c++/4.5.2/bits/stl_deque.h ****       operator+=(difference_type __n)
 186:/opt/toolchains/arm-none-eabi/bin/../lib/gcc/arm-none-eabi/4.5.2/../../../../arm-none-eabi/include/c++/4.5.2/bits/stl_deque.h ****       {
 187:/opt/toolchains/arm-none-eabi/bin/../lib/gcc/arm-none-eabi/4.5.2/../../../../arm-none-eabi/include/c++/4.5.2/bits/stl_deque.h **** 	const difference_type __offset = __n + (_M_cur - _M_first);
 188:/opt/toolchains/arm-none-eabi/bin/../lib/gcc/arm-none-eabi/4.5.2/../../../../arm-none-eabi/include/c++/4.5.2/bits/stl_deque.h **** 	if (__offset >= 0 && __offset < difference_type(_S_buffer_size()))
 189:/opt/toolchains/arm-none-eabi/bin/../lib/gcc/arm-none-eabi/4.5.2/../../../../arm-none-eabi/include/c++/4.5.2/bits/stl_deque.h **** 	  _M_cur += __n;
 190:/opt/toolchains/arm-none-eabi/bin/../lib/gcc/arm-none-eabi/4.5.2/../../../../arm-none-eabi/include/c++/4.5.2/bits/stl_deque.h **** 	else
 191:/opt/toolchains/arm-none-eabi/bin/../lib/gcc/arm-none-eabi/4.5.2/../../../../arm-none-eabi/include/c++/4.5.2/bits/stl_deque.h **** 	  {
 192:/opt/toolchains/arm-none-eabi/bin/../lib/gcc/arm-none-eabi/4.5.2/../../../../arm-none-eabi/include/c++/4.5.2/bits/stl_deque.h **** 	    const difference_type __node_offset =
 193:/opt/toolchains/arm-none-eabi/bin/../lib/gcc/arm-none-eabi/4.5.2/../../../../arm-none-eabi/include/c++/4.5.2/bits/stl_deque.h **** 	      __offset > 0 ? __offset / difference_type(_S_buffer_size())
 194:/opt/toolchains/arm-none-eabi/bin/../lib/gcc/arm-none-eabi/4.5.2/../../../../arm-none-eabi/include/c++/4.5.2/bits/stl_deque.h **** 	                   : -difference_type((-__offset - 1)
 195:/opt/toolchains/arm-none-eabi/bin/../lib/gcc/arm-none-eabi/4.5.2/../../../../arm-none-eabi/include/c++/4.5.2/bits/stl_deque.h **** 					      / _S_buffer_size()) - 1;
 196:/opt/toolchains/arm-none-eabi/bin/../lib/gcc/arm-none-eabi/4.5.2/../../../../arm-none-eabi/include/c++/4.5.2/bits/stl_deque.h **** 	    _M_set_node(_M_node + __node_offset);
 197:/opt/toolchains/arm-none-eabi/bin/../lib/gcc/arm-none-eabi/4.5.2/../../../../arm-none-eabi/include/c++/4.5.2/bits/stl_deque.h **** 	    _M_cur = _M_first + (__offset - __node_offset
 198:/opt/toolchains/arm-none-eabi/bin/../lib/gcc/arm-none-eabi/4.5.2/../../../../arm-none-eabi/include/c++/4.5.2/bits/stl_deque.h **** 				 * difference_type(_S_buffer_size()));
 199:/opt/toolchains/arm-none-eabi/bin/../lib/gcc/arm-none-eabi/4.5.2/../../../../arm-none-eabi/include/c++/4.5.2/bits/stl_deque.h **** 	  }
 200:/opt/toolchains/arm-none-eabi/bin/../lib/gcc/arm-none-eabi/4.5.2/../../../../arm-none-eabi/include/c++/4.5.2/bits/stl_deque.h **** 	return *this;
 201:/opt/toolchains/arm-none-eabi/bin/../lib/gcc/arm-none-eabi/4.5.2/../../../../arm-none-eabi/include/c++/4.5.2/bits/stl_deque.h ****       }
 202:/opt/toolchains/arm-none-eabi/bin/../lib/gcc/arm-none-eabi/4.5.2/../../../../arm-none-eabi/include/c++/4.5.2/bits/stl_deque.h **** 
 203:/opt/toolchains/arm-none-eabi/bin/../lib/gcc/arm-none-eabi/4.5.2/../../../../arm-none-eabi/include/c++/4.5.2/bits/stl_deque.h ****       _Self
 204:/opt/toolchains/arm-none-eabi/bin/../lib/gcc/arm-none-eabi/4.5.2/../../../../arm-none-eabi/include/c++/4.5.2/bits/stl_deque.h ****       operator+(difference_type __n) const
 205:/opt/toolchains/arm-none-eabi/bin/../lib/gcc/arm-none-eabi/4.5.2/../../../../arm-none-eabi/include/c++/4.5.2/bits/stl_deque.h ****       {
 206:/opt/toolchains/arm-none-eabi/bin/../lib/gcc/arm-none-eabi/4.5.2/../../../../arm-none-eabi/include/c++/4.5.2/bits/stl_deque.h **** 	_Self __tmp = *this;
 207:/opt/toolchains/arm-none-eabi/bin/../lib/gcc/arm-none-eabi/4.5.2/../../../../arm-none-eabi/include/c++/4.5.2/bits/stl_deque.h **** 	return __tmp += __n;
 208:/opt/toolchains/arm-none-eabi/bin/../lib/gcc/arm-none-eabi/4.5.2/../../../../arm-none-eabi/include/c++/4.5.2/bits/stl_deque.h ****       }
 209:/opt/toolchains/arm-none-eabi/bin/../lib/gcc/arm-none-eabi/4.5.2/../../../../arm-none-eabi/include/c++/4.5.2/bits/stl_deque.h **** 
 210:/opt/toolchains/arm-none-eabi/bin/../lib/gcc/arm-none-eabi/4.5.2/../../../../arm-none-eabi/include/c++/4.5.2/bits/stl_deque.h ****       _Self&
 211:/opt/toolchains/arm-none-eabi/bin/../lib/gcc/arm-none-eabi/4.5.2/../../../../arm-none-eabi/include/c++/4.5.2/bits/stl_deque.h ****       operator-=(difference_type __n)
 212:/opt/toolchains/arm-none-eabi/bin/../lib/gcc/arm-none-eabi/4.5.2/../../../../arm-none-eabi/include/c++/4.5.2/bits/stl_deque.h ****       { return *this += -__n; }
 213:/opt/toolchains/arm-none-eabi/bin/../lib/gcc/arm-none-eabi/4.5.2/../../../../arm-none-eabi/include/c++/4.5.2/bits/stl_deque.h **** 
 214:/opt/toolchains/arm-none-eabi/bin/../lib/gcc/arm-none-eabi/4.5.2/../../../../arm-none-eabi/include/c++/4.5.2/bits/stl_deque.h ****       _Self
 215:/opt/toolchains/arm-none-eabi/bin/../lib/gcc/arm-none-eabi/4.5.2/../../../../arm-none-eabi/include/c++/4.5.2/bits/stl_deque.h ****       operator-(difference_type __n) const
 216:/opt/toolchains/arm-none-eabi/bin/../lib/gcc/arm-none-eabi/4.5.2/../../../../arm-none-eabi/include/c++/4.5.2/bits/stl_deque.h ****       {
 217:/opt/toolchains/arm-none-eabi/bin/../lib/gcc/arm-none-eabi/4.5.2/../../../../arm-none-eabi/include/c++/4.5.2/bits/stl_deque.h **** 	_Self __tmp = *this;
 218:/opt/toolchains/arm-none-eabi/bin/../lib/gcc/arm-none-eabi/4.5.2/../../../../arm-none-eabi/include/c++/4.5.2/bits/stl_deque.h **** 	return __tmp -= __n;
 219:/opt/toolchains/arm-none-eabi/bin/../lib/gcc/arm-none-eabi/4.5.2/../../../../arm-none-eabi/include/c++/4.5.2/bits/stl_deque.h ****       }
 220:/opt/toolchains/arm-none-eabi/bin/../lib/gcc/arm-none-eabi/4.5.2/../../../../arm-none-eabi/include/c++/4.5.2/bits/stl_deque.h **** 
 221:/opt/toolchains/arm-none-eabi/bin/../lib/gcc/arm-none-eabi/4.5.2/../../../../arm-none-eabi/include/c++/4.5.2/bits/stl_deque.h ****       reference
 222:/opt/toolchains/arm-none-eabi/bin/../lib/gcc/arm-none-eabi/4.5.2/../../../../arm-none-eabi/include/c++/4.5.2/bits/stl_deque.h ****       operator[](difference_type __n) const
 223:/opt/toolchains/arm-none-eabi/bin/../lib/gcc/arm-none-eabi/4.5.2/../../../../arm-none-eabi/include/c++/4.5.2/bits/stl_deque.h ****       { return *(*this + __n); }
 224:/opt/toolchains/arm-none-eabi/bin/../lib/gcc/arm-none-eabi/4.5.2/../../../../arm-none-eabi/include/c++/4.5.2/bits/stl_deque.h **** 
 225:/opt/toolchains/arm-none-eabi/bin/../lib/gcc/arm-none-eabi/4.5.2/../../../../arm-none-eabi/include/c++/4.5.2/bits/stl_deque.h ****       /** 
 226:/opt/toolchains/arm-none-eabi/bin/../lib/gcc/arm-none-eabi/4.5.2/../../../../arm-none-eabi/include/c++/4.5.2/bits/stl_deque.h ****        *  Prepares to traverse new_node.  Sets everything except
 227:/opt/toolchains/arm-none-eabi/bin/../lib/gcc/arm-none-eabi/4.5.2/../../../../arm-none-eabi/include/c++/4.5.2/bits/stl_deque.h ****        *  _M_cur, which should therefore be set by the caller
 228:/opt/toolchains/arm-none-eabi/bin/../lib/gcc/arm-none-eabi/4.5.2/../../../../arm-none-eabi/include/c++/4.5.2/bits/stl_deque.h ****        *  immediately afterwards, based on _M_first and _M_last.
 229:/opt/toolchains/arm-none-eabi/bin/../lib/gcc/arm-none-eabi/4.5.2/../../../../arm-none-eabi/include/c++/4.5.2/bits/stl_deque.h ****        */
 230:/opt/toolchains/arm-none-eabi/bin/../lib/gcc/arm-none-eabi/4.5.2/../../../../arm-none-eabi/include/c++/4.5.2/bits/stl_deque.h ****       void
 231:/opt/toolchains/arm-none-eabi/bin/../lib/gcc/arm-none-eabi/4.5.2/../../../../arm-none-eabi/include/c++/4.5.2/bits/stl_deque.h ****       _M_set_node(_Map_pointer __new_node)
 232:/opt/toolchains/arm-none-eabi/bin/../lib/gcc/arm-none-eabi/4.5.2/../../../../arm-none-eabi/include/c++/4.5.2/bits/stl_deque.h ****       {
 233:/opt/toolchains/arm-none-eabi/bin/../lib/gcc/arm-none-eabi/4.5.2/../../../../arm-none-eabi/include/c++/4.5.2/bits/stl_deque.h **** 	_M_node = __new_node;
 234:/opt/toolchains/arm-none-eabi/bin/../lib/gcc/arm-none-eabi/4.5.2/../../../../arm-none-eabi/include/c++/4.5.2/bits/stl_deque.h **** 	_M_first = *__new_node;
 235:/opt/toolchains/arm-none-eabi/bin/../lib/gcc/arm-none-eabi/4.5.2/../../../../arm-none-eabi/include/c++/4.5.2/bits/stl_deque.h **** 	_M_last = _M_first + difference_type(_S_buffer_size());
 236:/opt/toolchains/arm-none-eabi/bin/../lib/gcc/arm-none-eabi/4.5.2/../../../../arm-none-eabi/include/c++/4.5.2/bits/stl_deque.h ****       }
 237:/opt/toolchains/arm-none-eabi/bin/../lib/gcc/arm-none-eabi/4.5.2/../../../../arm-none-eabi/include/c++/4.5.2/bits/stl_deque.h ****     };
 238:/opt/toolchains/arm-none-eabi/bin/../lib/gcc/arm-none-eabi/4.5.2/../../../../arm-none-eabi/include/c++/4.5.2/bits/stl_deque.h **** 
 239:/opt/toolchains/arm-none-eabi/bin/../lib/gcc/arm-none-eabi/4.5.2/../../../../arm-none-eabi/include/c++/4.5.2/bits/stl_deque.h ****   // Note: we also provide overloads whose operands are of the same type in
 240:/opt/toolchains/arm-none-eabi/bin/../lib/gcc/arm-none-eabi/4.5.2/../../../../arm-none-eabi/include/c++/4.5.2/bits/stl_deque.h ****   // order to avoid ambiguous overload resolution when std::rel_ops operators
 241:/opt/toolchains/arm-none-eabi/bin/../lib/gcc/arm-none-eabi/4.5.2/../../../../arm-none-eabi/include/c++/4.5.2/bits/stl_deque.h ****   // are in scope (for additional details, see libstdc++/3628)
 242:/opt/toolchains/arm-none-eabi/bin/../lib/gcc/arm-none-eabi/4.5.2/../../../../arm-none-eabi/include/c++/4.5.2/bits/stl_deque.h ****   template<typename _Tp, typename _Ref, typename _Ptr>
 243:/opt/toolchains/arm-none-eabi/bin/../lib/gcc/arm-none-eabi/4.5.2/../../../../arm-none-eabi/include/c++/4.5.2/bits/stl_deque.h ****     inline bool
 244:/opt/toolchains/arm-none-eabi/bin/../lib/gcc/arm-none-eabi/4.5.2/../../../../arm-none-eabi/include/c++/4.5.2/bits/stl_deque.h ****     operator==(const _Deque_iterator<_Tp, _Ref, _Ptr>& __x,
 245:/opt/toolchains/arm-none-eabi/bin/../lib/gcc/arm-none-eabi/4.5.2/../../../../arm-none-eabi/include/c++/4.5.2/bits/stl_deque.h **** 	       const _Deque_iterator<_Tp, _Ref, _Ptr>& __y)
 246:/opt/toolchains/arm-none-eabi/bin/../lib/gcc/arm-none-eabi/4.5.2/../../../../arm-none-eabi/include/c++/4.5.2/bits/stl_deque.h ****     { return __x._M_cur == __y._M_cur; }
 247:/opt/toolchains/arm-none-eabi/bin/../lib/gcc/arm-none-eabi/4.5.2/../../../../arm-none-eabi/include/c++/4.5.2/bits/stl_deque.h **** 
 248:/opt/toolchains/arm-none-eabi/bin/../lib/gcc/arm-none-eabi/4.5.2/../../../../arm-none-eabi/include/c++/4.5.2/bits/stl_deque.h ****   template<typename _Tp, typename _RefL, typename _PtrL,
 249:/opt/toolchains/arm-none-eabi/bin/../lib/gcc/arm-none-eabi/4.5.2/../../../../arm-none-eabi/include/c++/4.5.2/bits/stl_deque.h **** 	   typename _RefR, typename _PtrR>
 250:/opt/toolchains/arm-none-eabi/bin/../lib/gcc/arm-none-eabi/4.5.2/../../../../arm-none-eabi/include/c++/4.5.2/bits/stl_deque.h ****     inline bool
 251:/opt/toolchains/arm-none-eabi/bin/../lib/gcc/arm-none-eabi/4.5.2/../../../../arm-none-eabi/include/c++/4.5.2/bits/stl_deque.h ****     operator==(const _Deque_iterator<_Tp, _RefL, _PtrL>& __x,
 252:/opt/toolchains/arm-none-eabi/bin/../lib/gcc/arm-none-eabi/4.5.2/../../../../arm-none-eabi/include/c++/4.5.2/bits/stl_deque.h **** 	       const _Deque_iterator<_Tp, _RefR, _PtrR>& __y)
 253:/opt/toolchains/arm-none-eabi/bin/../lib/gcc/arm-none-eabi/4.5.2/../../../../arm-none-eabi/include/c++/4.5.2/bits/stl_deque.h ****     { return __x._M_cur == __y._M_cur; }
 254:/opt/toolchains/arm-none-eabi/bin/../lib/gcc/arm-none-eabi/4.5.2/../../../../arm-none-eabi/include/c++/4.5.2/bits/stl_deque.h **** 
 255:/opt/toolchains/arm-none-eabi/bin/../lib/gcc/arm-none-eabi/4.5.2/../../../../arm-none-eabi/include/c++/4.5.2/bits/stl_deque.h ****   template<typename _Tp, typename _Ref, typename _Ptr>
 256:/opt/toolchains/arm-none-eabi/bin/../lib/gcc/arm-none-eabi/4.5.2/../../../../arm-none-eabi/include/c++/4.5.2/bits/stl_deque.h ****     inline bool
 257:/opt/toolchains/arm-none-eabi/bin/../lib/gcc/arm-none-eabi/4.5.2/../../../../arm-none-eabi/include/c++/4.5.2/bits/stl_deque.h ****     operator!=(const _Deque_iterator<_Tp, _Ref, _Ptr>& __x,
 258:/opt/toolchains/arm-none-eabi/bin/../lib/gcc/arm-none-eabi/4.5.2/../../../../arm-none-eabi/include/c++/4.5.2/bits/stl_deque.h **** 	       const _Deque_iterator<_Tp, _Ref, _Ptr>& __y)
 259:/opt/toolchains/arm-none-eabi/bin/../lib/gcc/arm-none-eabi/4.5.2/../../../../arm-none-eabi/include/c++/4.5.2/bits/stl_deque.h ****     { return !(__x == __y); }
 260:/opt/toolchains/arm-none-eabi/bin/../lib/gcc/arm-none-eabi/4.5.2/../../../../arm-none-eabi/include/c++/4.5.2/bits/stl_deque.h **** 
 261:/opt/toolchains/arm-none-eabi/bin/../lib/gcc/arm-none-eabi/4.5.2/../../../../arm-none-eabi/include/c++/4.5.2/bits/stl_deque.h ****   template<typename _Tp, typename _RefL, typename _PtrL,
 262:/opt/toolchains/arm-none-eabi/bin/../lib/gcc/arm-none-eabi/4.5.2/../../../../arm-none-eabi/include/c++/4.5.2/bits/stl_deque.h **** 	   typename _RefR, typename _PtrR>
 263:/opt/toolchains/arm-none-eabi/bin/../lib/gcc/arm-none-eabi/4.5.2/../../../../arm-none-eabi/include/c++/4.5.2/bits/stl_deque.h ****     inline bool
 264:/opt/toolchains/arm-none-eabi/bin/../lib/gcc/arm-none-eabi/4.5.2/../../../../arm-none-eabi/include/c++/4.5.2/bits/stl_deque.h ****     operator!=(const _Deque_iterator<_Tp, _RefL, _PtrL>& __x,
 265:/opt/toolchains/arm-none-eabi/bin/../lib/gcc/arm-none-eabi/4.5.2/../../../../arm-none-eabi/include/c++/4.5.2/bits/stl_deque.h **** 	       const _Deque_iterator<_Tp, _RefR, _PtrR>& __y)
 266:/opt/toolchains/arm-none-eabi/bin/../lib/gcc/arm-none-eabi/4.5.2/../../../../arm-none-eabi/include/c++/4.5.2/bits/stl_deque.h ****     { return !(__x == __y); }
 267:/opt/toolchains/arm-none-eabi/bin/../lib/gcc/arm-none-eabi/4.5.2/../../../../arm-none-eabi/include/c++/4.5.2/bits/stl_deque.h **** 
 268:/opt/toolchains/arm-none-eabi/bin/../lib/gcc/arm-none-eabi/4.5.2/../../../../arm-none-eabi/include/c++/4.5.2/bits/stl_deque.h ****   template<typename _Tp, typename _Ref, typename _Ptr>
 269:/opt/toolchains/arm-none-eabi/bin/../lib/gcc/arm-none-eabi/4.5.2/../../../../arm-none-eabi/include/c++/4.5.2/bits/stl_deque.h ****     inline bool
 270:/opt/toolchains/arm-none-eabi/bin/../lib/gcc/arm-none-eabi/4.5.2/../../../../arm-none-eabi/include/c++/4.5.2/bits/stl_deque.h ****     operator<(const _Deque_iterator<_Tp, _Ref, _Ptr>& __x,
 271:/opt/toolchains/arm-none-eabi/bin/../lib/gcc/arm-none-eabi/4.5.2/../../../../arm-none-eabi/include/c++/4.5.2/bits/stl_deque.h **** 	      const _Deque_iterator<_Tp, _Ref, _Ptr>& __y)
 272:/opt/toolchains/arm-none-eabi/bin/../lib/gcc/arm-none-eabi/4.5.2/../../../../arm-none-eabi/include/c++/4.5.2/bits/stl_deque.h ****     { return (__x._M_node == __y._M_node) ? (__x._M_cur < __y._M_cur)
 273:/opt/toolchains/arm-none-eabi/bin/../lib/gcc/arm-none-eabi/4.5.2/../../../../arm-none-eabi/include/c++/4.5.2/bits/stl_deque.h ****                                           : (__x._M_node < __y._M_node); }
 274:/opt/toolchains/arm-none-eabi/bin/../lib/gcc/arm-none-eabi/4.5.2/../../../../arm-none-eabi/include/c++/4.5.2/bits/stl_deque.h **** 
 275:/opt/toolchains/arm-none-eabi/bin/../lib/gcc/arm-none-eabi/4.5.2/../../../../arm-none-eabi/include/c++/4.5.2/bits/stl_deque.h ****   template<typename _Tp, typename _RefL, typename _PtrL,
 276:/opt/toolchains/arm-none-eabi/bin/../lib/gcc/arm-none-eabi/4.5.2/../../../../arm-none-eabi/include/c++/4.5.2/bits/stl_deque.h **** 	   typename _RefR, typename _PtrR>
 277:/opt/toolchains/arm-none-eabi/bin/../lib/gcc/arm-none-eabi/4.5.2/../../../../arm-none-eabi/include/c++/4.5.2/bits/stl_deque.h ****     inline bool
 278:/opt/toolchains/arm-none-eabi/bin/../lib/gcc/arm-none-eabi/4.5.2/../../../../arm-none-eabi/include/c++/4.5.2/bits/stl_deque.h ****     operator<(const _Deque_iterator<_Tp, _RefL, _PtrL>& __x,
 279:/opt/toolchains/arm-none-eabi/bin/../lib/gcc/arm-none-eabi/4.5.2/../../../../arm-none-eabi/include/c++/4.5.2/bits/stl_deque.h **** 	      const _Deque_iterator<_Tp, _RefR, _PtrR>& __y)
 280:/opt/toolchains/arm-none-eabi/bin/../lib/gcc/arm-none-eabi/4.5.2/../../../../arm-none-eabi/include/c++/4.5.2/bits/stl_deque.h ****     { return (__x._M_node == __y._M_node) ? (__x._M_cur < __y._M_cur)
 281:/opt/toolchains/arm-none-eabi/bin/../lib/gcc/arm-none-eabi/4.5.2/../../../../arm-none-eabi/include/c++/4.5.2/bits/stl_deque.h **** 	                                  : (__x._M_node < __y._M_node); }
 282:/opt/toolchains/arm-none-eabi/bin/../lib/gcc/arm-none-eabi/4.5.2/../../../../arm-none-eabi/include/c++/4.5.2/bits/stl_deque.h **** 
 283:/opt/toolchains/arm-none-eabi/bin/../lib/gcc/arm-none-eabi/4.5.2/../../../../arm-none-eabi/include/c++/4.5.2/bits/stl_deque.h ****   template<typename _Tp, typename _Ref, typename _Ptr>
 284:/opt/toolchains/arm-none-eabi/bin/../lib/gcc/arm-none-eabi/4.5.2/../../../../arm-none-eabi/include/c++/4.5.2/bits/stl_deque.h ****     inline bool
 285:/opt/toolchains/arm-none-eabi/bin/../lib/gcc/arm-none-eabi/4.5.2/../../../../arm-none-eabi/include/c++/4.5.2/bits/stl_deque.h ****     operator>(const _Deque_iterator<_Tp, _Ref, _Ptr>& __x,
 286:/opt/toolchains/arm-none-eabi/bin/../lib/gcc/arm-none-eabi/4.5.2/../../../../arm-none-eabi/include/c++/4.5.2/bits/stl_deque.h **** 	      const _Deque_iterator<_Tp, _Ref, _Ptr>& __y)
 287:/opt/toolchains/arm-none-eabi/bin/../lib/gcc/arm-none-eabi/4.5.2/../../../../arm-none-eabi/include/c++/4.5.2/bits/stl_deque.h ****     { return __y < __x; }
 288:/opt/toolchains/arm-none-eabi/bin/../lib/gcc/arm-none-eabi/4.5.2/../../../../arm-none-eabi/include/c++/4.5.2/bits/stl_deque.h **** 
 289:/opt/toolchains/arm-none-eabi/bin/../lib/gcc/arm-none-eabi/4.5.2/../../../../arm-none-eabi/include/c++/4.5.2/bits/stl_deque.h ****   template<typename _Tp, typename _RefL, typename _PtrL,
 290:/opt/toolchains/arm-none-eabi/bin/../lib/gcc/arm-none-eabi/4.5.2/../../../../arm-none-eabi/include/c++/4.5.2/bits/stl_deque.h **** 	   typename _RefR, typename _PtrR>
 291:/opt/toolchains/arm-none-eabi/bin/../lib/gcc/arm-none-eabi/4.5.2/../../../../arm-none-eabi/include/c++/4.5.2/bits/stl_deque.h ****     inline bool
 292:/opt/toolchains/arm-none-eabi/bin/../lib/gcc/arm-none-eabi/4.5.2/../../../../arm-none-eabi/include/c++/4.5.2/bits/stl_deque.h ****     operator>(const _Deque_iterator<_Tp, _RefL, _PtrL>& __x,
 293:/opt/toolchains/arm-none-eabi/bin/../lib/gcc/arm-none-eabi/4.5.2/../../../../arm-none-eabi/include/c++/4.5.2/bits/stl_deque.h **** 	      const _Deque_iterator<_Tp, _RefR, _PtrR>& __y)
 294:/opt/toolchains/arm-none-eabi/bin/../lib/gcc/arm-none-eabi/4.5.2/../../../../arm-none-eabi/include/c++/4.5.2/bits/stl_deque.h ****     { return __y < __x; }
 295:/opt/toolchains/arm-none-eabi/bin/../lib/gcc/arm-none-eabi/4.5.2/../../../../arm-none-eabi/include/c++/4.5.2/bits/stl_deque.h **** 
 296:/opt/toolchains/arm-none-eabi/bin/../lib/gcc/arm-none-eabi/4.5.2/../../../../arm-none-eabi/include/c++/4.5.2/bits/stl_deque.h ****   template<typename _Tp, typename _Ref, typename _Ptr>
 297:/opt/toolchains/arm-none-eabi/bin/../lib/gcc/arm-none-eabi/4.5.2/../../../../arm-none-eabi/include/c++/4.5.2/bits/stl_deque.h ****     inline bool
 298:/opt/toolchains/arm-none-eabi/bin/../lib/gcc/arm-none-eabi/4.5.2/../../../../arm-none-eabi/include/c++/4.5.2/bits/stl_deque.h ****     operator<=(const _Deque_iterator<_Tp, _Ref, _Ptr>& __x,
 299:/opt/toolchains/arm-none-eabi/bin/../lib/gcc/arm-none-eabi/4.5.2/../../../../arm-none-eabi/include/c++/4.5.2/bits/stl_deque.h **** 	       const _Deque_iterator<_Tp, _Ref, _Ptr>& __y)
 300:/opt/toolchains/arm-none-eabi/bin/../lib/gcc/arm-none-eabi/4.5.2/../../../../arm-none-eabi/include/c++/4.5.2/bits/stl_deque.h ****     { return !(__y < __x); }
 301:/opt/toolchains/arm-none-eabi/bin/../lib/gcc/arm-none-eabi/4.5.2/../../../../arm-none-eabi/include/c++/4.5.2/bits/stl_deque.h **** 
 302:/opt/toolchains/arm-none-eabi/bin/../lib/gcc/arm-none-eabi/4.5.2/../../../../arm-none-eabi/include/c++/4.5.2/bits/stl_deque.h ****   template<typename _Tp, typename _RefL, typename _PtrL,
 303:/opt/toolchains/arm-none-eabi/bin/../lib/gcc/arm-none-eabi/4.5.2/../../../../arm-none-eabi/include/c++/4.5.2/bits/stl_deque.h **** 	   typename _RefR, typename _PtrR>
 304:/opt/toolchains/arm-none-eabi/bin/../lib/gcc/arm-none-eabi/4.5.2/../../../../arm-none-eabi/include/c++/4.5.2/bits/stl_deque.h ****     inline bool
 305:/opt/toolchains/arm-none-eabi/bin/../lib/gcc/arm-none-eabi/4.5.2/../../../../arm-none-eabi/include/c++/4.5.2/bits/stl_deque.h ****     operator<=(const _Deque_iterator<_Tp, _RefL, _PtrL>& __x,
 306:/opt/toolchains/arm-none-eabi/bin/../lib/gcc/arm-none-eabi/4.5.2/../../../../arm-none-eabi/include/c++/4.5.2/bits/stl_deque.h **** 	       const _Deque_iterator<_Tp, _RefR, _PtrR>& __y)
 307:/opt/toolchains/arm-none-eabi/bin/../lib/gcc/arm-none-eabi/4.5.2/../../../../arm-none-eabi/include/c++/4.5.2/bits/stl_deque.h ****     { return !(__y < __x); }
 308:/opt/toolchains/arm-none-eabi/bin/../lib/gcc/arm-none-eabi/4.5.2/../../../../arm-none-eabi/include/c++/4.5.2/bits/stl_deque.h **** 
 309:/opt/toolchains/arm-none-eabi/bin/../lib/gcc/arm-none-eabi/4.5.2/../../../../arm-none-eabi/include/c++/4.5.2/bits/stl_deque.h ****   template<typename _Tp, typename _Ref, typename _Ptr>
 310:/opt/toolchains/arm-none-eabi/bin/../lib/gcc/arm-none-eabi/4.5.2/../../../../arm-none-eabi/include/c++/4.5.2/bits/stl_deque.h ****     inline bool
 311:/opt/toolchains/arm-none-eabi/bin/../lib/gcc/arm-none-eabi/4.5.2/../../../../arm-none-eabi/include/c++/4.5.2/bits/stl_deque.h ****     operator>=(const _Deque_iterator<_Tp, _Ref, _Ptr>& __x,
 312:/opt/toolchains/arm-none-eabi/bin/../lib/gcc/arm-none-eabi/4.5.2/../../../../arm-none-eabi/include/c++/4.5.2/bits/stl_deque.h **** 	       const _Deque_iterator<_Tp, _Ref, _Ptr>& __y)
 313:/opt/toolchains/arm-none-eabi/bin/../lib/gcc/arm-none-eabi/4.5.2/../../../../arm-none-eabi/include/c++/4.5.2/bits/stl_deque.h ****     { return !(__x < __y); }
 314:/opt/toolchains/arm-none-eabi/bin/../lib/gcc/arm-none-eabi/4.5.2/../../../../arm-none-eabi/include/c++/4.5.2/bits/stl_deque.h **** 
 315:/opt/toolchains/arm-none-eabi/bin/../lib/gcc/arm-none-eabi/4.5.2/../../../../arm-none-eabi/include/c++/4.5.2/bits/stl_deque.h ****   template<typename _Tp, typename _RefL, typename _PtrL,
 316:/opt/toolchains/arm-none-eabi/bin/../lib/gcc/arm-none-eabi/4.5.2/../../../../arm-none-eabi/include/c++/4.5.2/bits/stl_deque.h **** 	   typename _RefR, typename _PtrR>
 317:/opt/toolchains/arm-none-eabi/bin/../lib/gcc/arm-none-eabi/4.5.2/../../../../arm-none-eabi/include/c++/4.5.2/bits/stl_deque.h ****     inline bool
 318:/opt/toolchains/arm-none-eabi/bin/../lib/gcc/arm-none-eabi/4.5.2/../../../../arm-none-eabi/include/c++/4.5.2/bits/stl_deque.h ****     operator>=(const _Deque_iterator<_Tp, _RefL, _PtrL>& __x,
 319:/opt/toolchains/arm-none-eabi/bin/../lib/gcc/arm-none-eabi/4.5.2/../../../../arm-none-eabi/include/c++/4.5.2/bits/stl_deque.h **** 	       const _Deque_iterator<_Tp, _RefR, _PtrR>& __y)
 320:/opt/toolchains/arm-none-eabi/bin/../lib/gcc/arm-none-eabi/4.5.2/../../../../arm-none-eabi/include/c++/4.5.2/bits/stl_deque.h ****     { return !(__x < __y); }
 321:/opt/toolchains/arm-none-eabi/bin/../lib/gcc/arm-none-eabi/4.5.2/../../../../arm-none-eabi/include/c++/4.5.2/bits/stl_deque.h **** 
 322:/opt/toolchains/arm-none-eabi/bin/../lib/gcc/arm-none-eabi/4.5.2/../../../../arm-none-eabi/include/c++/4.5.2/bits/stl_deque.h ****   // _GLIBCXX_RESOLVE_LIB_DEFECTS
 323:/opt/toolchains/arm-none-eabi/bin/../lib/gcc/arm-none-eabi/4.5.2/../../../../arm-none-eabi/include/c++/4.5.2/bits/stl_deque.h ****   // According to the resolution of DR179 not only the various comparison
 324:/opt/toolchains/arm-none-eabi/bin/../lib/gcc/arm-none-eabi/4.5.2/../../../../arm-none-eabi/include/c++/4.5.2/bits/stl_deque.h ****   // operators but also operator- must accept mixed iterator/const_iterator
 325:/opt/toolchains/arm-none-eabi/bin/../lib/gcc/arm-none-eabi/4.5.2/../../../../arm-none-eabi/include/c++/4.5.2/bits/stl_deque.h ****   // parameters.
 326:/opt/toolchains/arm-none-eabi/bin/../lib/gcc/arm-none-eabi/4.5.2/../../../../arm-none-eabi/include/c++/4.5.2/bits/stl_deque.h ****   template<typename _Tp, typename _Ref, typename _Ptr>
 327:/opt/toolchains/arm-none-eabi/bin/../lib/gcc/arm-none-eabi/4.5.2/../../../../arm-none-eabi/include/c++/4.5.2/bits/stl_deque.h ****     inline typename _Deque_iterator<_Tp, _Ref, _Ptr>::difference_type
 328:/opt/toolchains/arm-none-eabi/bin/../lib/gcc/arm-none-eabi/4.5.2/../../../../arm-none-eabi/include/c++/4.5.2/bits/stl_deque.h ****     operator-(const _Deque_iterator<_Tp, _Ref, _Ptr>& __x,
 329:/opt/toolchains/arm-none-eabi/bin/../lib/gcc/arm-none-eabi/4.5.2/../../../../arm-none-eabi/include/c++/4.5.2/bits/stl_deque.h **** 	      const _Deque_iterator<_Tp, _Ref, _Ptr>& __y)
 330:/opt/toolchains/arm-none-eabi/bin/../lib/gcc/arm-none-eabi/4.5.2/../../../../arm-none-eabi/include/c++/4.5.2/bits/stl_deque.h ****     {
 331:/opt/toolchains/arm-none-eabi/bin/../lib/gcc/arm-none-eabi/4.5.2/../../../../arm-none-eabi/include/c++/4.5.2/bits/stl_deque.h ****       return typename _Deque_iterator<_Tp, _Ref, _Ptr>::difference_type
 332:/opt/toolchains/arm-none-eabi/bin/../lib/gcc/arm-none-eabi/4.5.2/../../../../arm-none-eabi/include/c++/4.5.2/bits/stl_deque.h **** 	(_Deque_iterator<_Tp, _Ref, _Ptr>::_S_buffer_size())
 333:/opt/toolchains/arm-none-eabi/bin/../lib/gcc/arm-none-eabi/4.5.2/../../../../arm-none-eabi/include/c++/4.5.2/bits/stl_deque.h **** 	* (__x._M_node - __y._M_node - 1) + (__x._M_cur - __x._M_first)
 334:/opt/toolchains/arm-none-eabi/bin/../lib/gcc/arm-none-eabi/4.5.2/../../../../arm-none-eabi/include/c++/4.5.2/bits/stl_deque.h **** 	+ (__y._M_last - __y._M_cur);
 335:/opt/toolchains/arm-none-eabi/bin/../lib/gcc/arm-none-eabi/4.5.2/../../../../arm-none-eabi/include/c++/4.5.2/bits/stl_deque.h ****     }
 336:/opt/toolchains/arm-none-eabi/bin/../lib/gcc/arm-none-eabi/4.5.2/../../../../arm-none-eabi/include/c++/4.5.2/bits/stl_deque.h **** 
 337:/opt/toolchains/arm-none-eabi/bin/../lib/gcc/arm-none-eabi/4.5.2/../../../../arm-none-eabi/include/c++/4.5.2/bits/stl_deque.h ****   template<typename _Tp, typename _RefL, typename _PtrL,
 338:/opt/toolchains/arm-none-eabi/bin/../lib/gcc/arm-none-eabi/4.5.2/../../../../arm-none-eabi/include/c++/4.5.2/bits/stl_deque.h **** 	   typename _RefR, typename _PtrR>
 339:/opt/toolchains/arm-none-eabi/bin/../lib/gcc/arm-none-eabi/4.5.2/../../../../arm-none-eabi/include/c++/4.5.2/bits/stl_deque.h ****     inline typename _Deque_iterator<_Tp, _RefL, _PtrL>::difference_type
 340:/opt/toolchains/arm-none-eabi/bin/../lib/gcc/arm-none-eabi/4.5.2/../../../../arm-none-eabi/include/c++/4.5.2/bits/stl_deque.h ****     operator-(const _Deque_iterator<_Tp, _RefL, _PtrL>& __x,
 341:/opt/toolchains/arm-none-eabi/bin/../lib/gcc/arm-none-eabi/4.5.2/../../../../arm-none-eabi/include/c++/4.5.2/bits/stl_deque.h **** 	      const _Deque_iterator<_Tp, _RefR, _PtrR>& __y)
 342:/opt/toolchains/arm-none-eabi/bin/../lib/gcc/arm-none-eabi/4.5.2/../../../../arm-none-eabi/include/c++/4.5.2/bits/stl_deque.h ****     {
 343:/opt/toolchains/arm-none-eabi/bin/../lib/gcc/arm-none-eabi/4.5.2/../../../../arm-none-eabi/include/c++/4.5.2/bits/stl_deque.h ****       return typename _Deque_iterator<_Tp, _RefL, _PtrL>::difference_type
 344:/opt/toolchains/arm-none-eabi/bin/../lib/gcc/arm-none-eabi/4.5.2/../../../../arm-none-eabi/include/c++/4.5.2/bits/stl_deque.h **** 	(_Deque_iterator<_Tp, _RefL, _PtrL>::_S_buffer_size())
 345:/opt/toolchains/arm-none-eabi/bin/../lib/gcc/arm-none-eabi/4.5.2/../../../../arm-none-eabi/include/c++/4.5.2/bits/stl_deque.h **** 	* (__x._M_node - __y._M_node - 1) + (__x._M_cur - __x._M_first)
 346:/opt/toolchains/arm-none-eabi/bin/../lib/gcc/arm-none-eabi/4.5.2/../../../../arm-none-eabi/include/c++/4.5.2/bits/stl_deque.h **** 	+ (__y._M_last - __y._M_cur);
 347:/opt/toolchains/arm-none-eabi/bin/../lib/gcc/arm-none-eabi/4.5.2/../../../../arm-none-eabi/include/c++/4.5.2/bits/stl_deque.h ****     }
 348:/opt/toolchains/arm-none-eabi/bin/../lib/gcc/arm-none-eabi/4.5.2/../../../../arm-none-eabi/include/c++/4.5.2/bits/stl_deque.h **** 
 349:/opt/toolchains/arm-none-eabi/bin/../lib/gcc/arm-none-eabi/4.5.2/../../../../arm-none-eabi/include/c++/4.5.2/bits/stl_deque.h ****   template<typename _Tp, typename _Ref, typename _Ptr>
 350:/opt/toolchains/arm-none-eabi/bin/../lib/gcc/arm-none-eabi/4.5.2/../../../../arm-none-eabi/include/c++/4.5.2/bits/stl_deque.h ****     inline _Deque_iterator<_Tp, _Ref, _Ptr>
 351:/opt/toolchains/arm-none-eabi/bin/../lib/gcc/arm-none-eabi/4.5.2/../../../../arm-none-eabi/include/c++/4.5.2/bits/stl_deque.h ****     operator+(ptrdiff_t __n, const _Deque_iterator<_Tp, _Ref, _Ptr>& __x)
 352:/opt/toolchains/arm-none-eabi/bin/../lib/gcc/arm-none-eabi/4.5.2/../../../../arm-none-eabi/include/c++/4.5.2/bits/stl_deque.h ****     { return __x + __n; }
 353:/opt/toolchains/arm-none-eabi/bin/../lib/gcc/arm-none-eabi/4.5.2/../../../../arm-none-eabi/include/c++/4.5.2/bits/stl_deque.h **** 
 354:/opt/toolchains/arm-none-eabi/bin/../lib/gcc/arm-none-eabi/4.5.2/../../../../arm-none-eabi/include/c++/4.5.2/bits/stl_deque.h ****   template<typename _Tp>
 355:/opt/toolchains/arm-none-eabi/bin/../lib/gcc/arm-none-eabi/4.5.2/../../../../arm-none-eabi/include/c++/4.5.2/bits/stl_deque.h ****     void
 356:/opt/toolchains/arm-none-eabi/bin/../lib/gcc/arm-none-eabi/4.5.2/../../../../arm-none-eabi/include/c++/4.5.2/bits/stl_deque.h ****     fill(const _Deque_iterator<_Tp, _Tp&, _Tp*>&,
 357:/opt/toolchains/arm-none-eabi/bin/../lib/gcc/arm-none-eabi/4.5.2/../../../../arm-none-eabi/include/c++/4.5.2/bits/stl_deque.h **** 	 const _Deque_iterator<_Tp, _Tp&, _Tp*>&, const _Tp&);
 358:/opt/toolchains/arm-none-eabi/bin/../lib/gcc/arm-none-eabi/4.5.2/../../../../arm-none-eabi/include/c++/4.5.2/bits/stl_deque.h **** 
 359:/opt/toolchains/arm-none-eabi/bin/../lib/gcc/arm-none-eabi/4.5.2/../../../../arm-none-eabi/include/c++/4.5.2/bits/stl_deque.h ****   template<typename _Tp>
 360:/opt/toolchains/arm-none-eabi/bin/../lib/gcc/arm-none-eabi/4.5.2/../../../../arm-none-eabi/include/c++/4.5.2/bits/stl_deque.h ****     _Deque_iterator<_Tp, _Tp&, _Tp*>
 361:/opt/toolchains/arm-none-eabi/bin/../lib/gcc/arm-none-eabi/4.5.2/../../../../arm-none-eabi/include/c++/4.5.2/bits/stl_deque.h ****     copy(_Deque_iterator<_Tp, const _Tp&, const _Tp*>,
 362:/opt/toolchains/arm-none-eabi/bin/../lib/gcc/arm-none-eabi/4.5.2/../../../../arm-none-eabi/include/c++/4.5.2/bits/stl_deque.h **** 	 _Deque_iterator<_Tp, const _Tp&, const _Tp*>,
 363:/opt/toolchains/arm-none-eabi/bin/../lib/gcc/arm-none-eabi/4.5.2/../../../../arm-none-eabi/include/c++/4.5.2/bits/stl_deque.h **** 	 _Deque_iterator<_Tp, _Tp&, _Tp*>);
 364:/opt/toolchains/arm-none-eabi/bin/../lib/gcc/arm-none-eabi/4.5.2/../../../../arm-none-eabi/include/c++/4.5.2/bits/stl_deque.h **** 
 365:/opt/toolchains/arm-none-eabi/bin/../lib/gcc/arm-none-eabi/4.5.2/../../../../arm-none-eabi/include/c++/4.5.2/bits/stl_deque.h ****   template<typename _Tp>
 366:/opt/toolchains/arm-none-eabi/bin/../lib/gcc/arm-none-eabi/4.5.2/../../../../arm-none-eabi/include/c++/4.5.2/bits/stl_deque.h ****     inline _Deque_iterator<_Tp, _Tp&, _Tp*>
 367:/opt/toolchains/arm-none-eabi/bin/../lib/gcc/arm-none-eabi/4.5.2/../../../../arm-none-eabi/include/c++/4.5.2/bits/stl_deque.h ****     copy(_Deque_iterator<_Tp, _Tp&, _Tp*> __first,
 368:/opt/toolchains/arm-none-eabi/bin/../lib/gcc/arm-none-eabi/4.5.2/../../../../arm-none-eabi/include/c++/4.5.2/bits/stl_deque.h **** 	 _Deque_iterator<_Tp, _Tp&, _Tp*> __last,
 369:/opt/toolchains/arm-none-eabi/bin/../lib/gcc/arm-none-eabi/4.5.2/../../../../arm-none-eabi/include/c++/4.5.2/bits/stl_deque.h **** 	 _Deque_iterator<_Tp, _Tp&, _Tp*> __result)
 370:/opt/toolchains/arm-none-eabi/bin/../lib/gcc/arm-none-eabi/4.5.2/../../../../arm-none-eabi/include/c++/4.5.2/bits/stl_deque.h ****     { return std::copy(_Deque_iterator<_Tp, const _Tp&, const _Tp*>(__first),
 371:/opt/toolchains/arm-none-eabi/bin/../lib/gcc/arm-none-eabi/4.5.2/../../../../arm-none-eabi/include/c++/4.5.2/bits/stl_deque.h **** 		       _Deque_iterator<_Tp, const _Tp&, const _Tp*>(__last),
 372:/opt/toolchains/arm-none-eabi/bin/../lib/gcc/arm-none-eabi/4.5.2/../../../../arm-none-eabi/include/c++/4.5.2/bits/stl_deque.h **** 		       __result); }
 373:/opt/toolchains/arm-none-eabi/bin/../lib/gcc/arm-none-eabi/4.5.2/../../../../arm-none-eabi/include/c++/4.5.2/bits/stl_deque.h **** 
 374:/opt/toolchains/arm-none-eabi/bin/../lib/gcc/arm-none-eabi/4.5.2/../../../../arm-none-eabi/include/c++/4.5.2/bits/stl_deque.h ****   template<typename _Tp>
 375:/opt/toolchains/arm-none-eabi/bin/../lib/gcc/arm-none-eabi/4.5.2/../../../../arm-none-eabi/include/c++/4.5.2/bits/stl_deque.h ****     _Deque_iterator<_Tp, _Tp&, _Tp*>
 376:/opt/toolchains/arm-none-eabi/bin/../lib/gcc/arm-none-eabi/4.5.2/../../../../arm-none-eabi/include/c++/4.5.2/bits/stl_deque.h ****     copy_backward(_Deque_iterator<_Tp, const _Tp&, const _Tp*>,
 377:/opt/toolchains/arm-none-eabi/bin/../lib/gcc/arm-none-eabi/4.5.2/../../../../arm-none-eabi/include/c++/4.5.2/bits/stl_deque.h **** 		  _Deque_iterator<_Tp, const _Tp&, const _Tp*>,
 378:/opt/toolchains/arm-none-eabi/bin/../lib/gcc/arm-none-eabi/4.5.2/../../../../arm-none-eabi/include/c++/4.5.2/bits/stl_deque.h **** 		  _Deque_iterator<_Tp, _Tp&, _Tp*>);
 379:/opt/toolchains/arm-none-eabi/bin/../lib/gcc/arm-none-eabi/4.5.2/../../../../arm-none-eabi/include/c++/4.5.2/bits/stl_deque.h **** 
 380:/opt/toolchains/arm-none-eabi/bin/../lib/gcc/arm-none-eabi/4.5.2/../../../../arm-none-eabi/include/c++/4.5.2/bits/stl_deque.h ****   template<typename _Tp>
 381:/opt/toolchains/arm-none-eabi/bin/../lib/gcc/arm-none-eabi/4.5.2/../../../../arm-none-eabi/include/c++/4.5.2/bits/stl_deque.h ****     inline _Deque_iterator<_Tp, _Tp&, _Tp*>
 382:/opt/toolchains/arm-none-eabi/bin/../lib/gcc/arm-none-eabi/4.5.2/../../../../arm-none-eabi/include/c++/4.5.2/bits/stl_deque.h ****     copy_backward(_Deque_iterator<_Tp, _Tp&, _Tp*> __first,
 383:/opt/toolchains/arm-none-eabi/bin/../lib/gcc/arm-none-eabi/4.5.2/../../../../arm-none-eabi/include/c++/4.5.2/bits/stl_deque.h **** 		  _Deque_iterator<_Tp, _Tp&, _Tp*> __last,
 384:/opt/toolchains/arm-none-eabi/bin/../lib/gcc/arm-none-eabi/4.5.2/../../../../arm-none-eabi/include/c++/4.5.2/bits/stl_deque.h **** 		  _Deque_iterator<_Tp, _Tp&, _Tp*> __result)
 385:/opt/toolchains/arm-none-eabi/bin/../lib/gcc/arm-none-eabi/4.5.2/../../../../arm-none-eabi/include/c++/4.5.2/bits/stl_deque.h ****     { return std::copy_backward(_Deque_iterator<_Tp,
 386:/opt/toolchains/arm-none-eabi/bin/../lib/gcc/arm-none-eabi/4.5.2/../../../../arm-none-eabi/include/c++/4.5.2/bits/stl_deque.h **** 				const _Tp&, const _Tp*>(__first),
 387:/opt/toolchains/arm-none-eabi/bin/../lib/gcc/arm-none-eabi/4.5.2/../../../../arm-none-eabi/include/c++/4.5.2/bits/stl_deque.h **** 				_Deque_iterator<_Tp,
 388:/opt/toolchains/arm-none-eabi/bin/../lib/gcc/arm-none-eabi/4.5.2/../../../../arm-none-eabi/include/c++/4.5.2/bits/stl_deque.h **** 				const _Tp&, const _Tp*>(__last),
 389:/opt/toolchains/arm-none-eabi/bin/../lib/gcc/arm-none-eabi/4.5.2/../../../../arm-none-eabi/include/c++/4.5.2/bits/stl_deque.h **** 				__result); }
 390:/opt/toolchains/arm-none-eabi/bin/../lib/gcc/arm-none-eabi/4.5.2/../../../../arm-none-eabi/include/c++/4.5.2/bits/stl_deque.h **** 
 391:/opt/toolchains/arm-none-eabi/bin/../lib/gcc/arm-none-eabi/4.5.2/../../../../arm-none-eabi/include/c++/4.5.2/bits/stl_deque.h **** #ifdef __GXX_EXPERIMENTAL_CXX0X__
 392:/opt/toolchains/arm-none-eabi/bin/../lib/gcc/arm-none-eabi/4.5.2/../../../../arm-none-eabi/include/c++/4.5.2/bits/stl_deque.h ****   template<typename _Tp>
 393:/opt/toolchains/arm-none-eabi/bin/../lib/gcc/arm-none-eabi/4.5.2/../../../../arm-none-eabi/include/c++/4.5.2/bits/stl_deque.h ****     _Deque_iterator<_Tp, _Tp&, _Tp*>
 394:/opt/toolchains/arm-none-eabi/bin/../lib/gcc/arm-none-eabi/4.5.2/../../../../arm-none-eabi/include/c++/4.5.2/bits/stl_deque.h ****     move(_Deque_iterator<_Tp, const _Tp&, const _Tp*>,
 395:/opt/toolchains/arm-none-eabi/bin/../lib/gcc/arm-none-eabi/4.5.2/../../../../arm-none-eabi/include/c++/4.5.2/bits/stl_deque.h **** 	 _Deque_iterator<_Tp, const _Tp&, const _Tp*>,
 396:/opt/toolchains/arm-none-eabi/bin/../lib/gcc/arm-none-eabi/4.5.2/../../../../arm-none-eabi/include/c++/4.5.2/bits/stl_deque.h **** 	 _Deque_iterator<_Tp, _Tp&, _Tp*>);
 397:/opt/toolchains/arm-none-eabi/bin/../lib/gcc/arm-none-eabi/4.5.2/../../../../arm-none-eabi/include/c++/4.5.2/bits/stl_deque.h **** 
 398:/opt/toolchains/arm-none-eabi/bin/../lib/gcc/arm-none-eabi/4.5.2/../../../../arm-none-eabi/include/c++/4.5.2/bits/stl_deque.h ****   template<typename _Tp>
 399:/opt/toolchains/arm-none-eabi/bin/../lib/gcc/arm-none-eabi/4.5.2/../../../../arm-none-eabi/include/c++/4.5.2/bits/stl_deque.h ****     inline _Deque_iterator<_Tp, _Tp&, _Tp*>
 400:/opt/toolchains/arm-none-eabi/bin/../lib/gcc/arm-none-eabi/4.5.2/../../../../arm-none-eabi/include/c++/4.5.2/bits/stl_deque.h ****     move(_Deque_iterator<_Tp, _Tp&, _Tp*> __first,
 401:/opt/toolchains/arm-none-eabi/bin/../lib/gcc/arm-none-eabi/4.5.2/../../../../arm-none-eabi/include/c++/4.5.2/bits/stl_deque.h **** 	 _Deque_iterator<_Tp, _Tp&, _Tp*> __last,
 402:/opt/toolchains/arm-none-eabi/bin/../lib/gcc/arm-none-eabi/4.5.2/../../../../arm-none-eabi/include/c++/4.5.2/bits/stl_deque.h **** 	 _Deque_iterator<_Tp, _Tp&, _Tp*> __result)
 403:/opt/toolchains/arm-none-eabi/bin/../lib/gcc/arm-none-eabi/4.5.2/../../../../arm-none-eabi/include/c++/4.5.2/bits/stl_deque.h ****     { return std::move(_Deque_iterator<_Tp, const _Tp&, const _Tp*>(__first),
 404:/opt/toolchains/arm-none-eabi/bin/../lib/gcc/arm-none-eabi/4.5.2/../../../../arm-none-eabi/include/c++/4.5.2/bits/stl_deque.h **** 		       _Deque_iterator<_Tp, const _Tp&, const _Tp*>(__last),
 405:/opt/toolchains/arm-none-eabi/bin/../lib/gcc/arm-none-eabi/4.5.2/../../../../arm-none-eabi/include/c++/4.5.2/bits/stl_deque.h **** 		       __result); }
 406:/opt/toolchains/arm-none-eabi/bin/../lib/gcc/arm-none-eabi/4.5.2/../../../../arm-none-eabi/include/c++/4.5.2/bits/stl_deque.h **** 
 407:/opt/toolchains/arm-none-eabi/bin/../lib/gcc/arm-none-eabi/4.5.2/../../../../arm-none-eabi/include/c++/4.5.2/bits/stl_deque.h ****   template<typename _Tp>
 408:/opt/toolchains/arm-none-eabi/bin/../lib/gcc/arm-none-eabi/4.5.2/../../../../arm-none-eabi/include/c++/4.5.2/bits/stl_deque.h ****     _Deque_iterator<_Tp, _Tp&, _Tp*>
 409:/opt/toolchains/arm-none-eabi/bin/../lib/gcc/arm-none-eabi/4.5.2/../../../../arm-none-eabi/include/c++/4.5.2/bits/stl_deque.h ****     move_backward(_Deque_iterator<_Tp, const _Tp&, const _Tp*>,
 410:/opt/toolchains/arm-none-eabi/bin/../lib/gcc/arm-none-eabi/4.5.2/../../../../arm-none-eabi/include/c++/4.5.2/bits/stl_deque.h **** 		  _Deque_iterator<_Tp, const _Tp&, const _Tp*>,
 411:/opt/toolchains/arm-none-eabi/bin/../lib/gcc/arm-none-eabi/4.5.2/../../../../arm-none-eabi/include/c++/4.5.2/bits/stl_deque.h **** 		  _Deque_iterator<_Tp, _Tp&, _Tp*>);
 412:/opt/toolchains/arm-none-eabi/bin/../lib/gcc/arm-none-eabi/4.5.2/../../../../arm-none-eabi/include/c++/4.5.2/bits/stl_deque.h **** 
 413:/opt/toolchains/arm-none-eabi/bin/../lib/gcc/arm-none-eabi/4.5.2/../../../../arm-none-eabi/include/c++/4.5.2/bits/stl_deque.h ****   template<typename _Tp>
 414:/opt/toolchains/arm-none-eabi/bin/../lib/gcc/arm-none-eabi/4.5.2/../../../../arm-none-eabi/include/c++/4.5.2/bits/stl_deque.h ****     inline _Deque_iterator<_Tp, _Tp&, _Tp*>
 415:/opt/toolchains/arm-none-eabi/bin/../lib/gcc/arm-none-eabi/4.5.2/../../../../arm-none-eabi/include/c++/4.5.2/bits/stl_deque.h ****     move_backward(_Deque_iterator<_Tp, _Tp&, _Tp*> __first,
 416:/opt/toolchains/arm-none-eabi/bin/../lib/gcc/arm-none-eabi/4.5.2/../../../../arm-none-eabi/include/c++/4.5.2/bits/stl_deque.h **** 		  _Deque_iterator<_Tp, _Tp&, _Tp*> __last,
 417:/opt/toolchains/arm-none-eabi/bin/../lib/gcc/arm-none-eabi/4.5.2/../../../../arm-none-eabi/include/c++/4.5.2/bits/stl_deque.h **** 		  _Deque_iterator<_Tp, _Tp&, _Tp*> __result)
 418:/opt/toolchains/arm-none-eabi/bin/../lib/gcc/arm-none-eabi/4.5.2/../../../../arm-none-eabi/include/c++/4.5.2/bits/stl_deque.h ****     { return std::move_backward(_Deque_iterator<_Tp,
 419:/opt/toolchains/arm-none-eabi/bin/../lib/gcc/arm-none-eabi/4.5.2/../../../../arm-none-eabi/include/c++/4.5.2/bits/stl_deque.h **** 				const _Tp&, const _Tp*>(__first),
 420:/opt/toolchains/arm-none-eabi/bin/../lib/gcc/arm-none-eabi/4.5.2/../../../../arm-none-eabi/include/c++/4.5.2/bits/stl_deque.h **** 				_Deque_iterator<_Tp,
 421:/opt/toolchains/arm-none-eabi/bin/../lib/gcc/arm-none-eabi/4.5.2/../../../../arm-none-eabi/include/c++/4.5.2/bits/stl_deque.h **** 				const _Tp&, const _Tp*>(__last),
 422:/opt/toolchains/arm-none-eabi/bin/../lib/gcc/arm-none-eabi/4.5.2/../../../../arm-none-eabi/include/c++/4.5.2/bits/stl_deque.h **** 				__result); }
 423:/opt/toolchains/arm-none-eabi/bin/../lib/gcc/arm-none-eabi/4.5.2/../../../../arm-none-eabi/include/c++/4.5.2/bits/stl_deque.h **** #endif
 424:/opt/toolchains/arm-none-eabi/bin/../lib/gcc/arm-none-eabi/4.5.2/../../../../arm-none-eabi/include/c++/4.5.2/bits/stl_deque.h **** 
 425:/opt/toolchains/arm-none-eabi/bin/../lib/gcc/arm-none-eabi/4.5.2/../../../../arm-none-eabi/include/c++/4.5.2/bits/stl_deque.h ****   /**
 426:/opt/toolchains/arm-none-eabi/bin/../lib/gcc/arm-none-eabi/4.5.2/../../../../arm-none-eabi/include/c++/4.5.2/bits/stl_deque.h ****    *  Deque base class.  This class provides the unified face for %deque's
 427:/opt/toolchains/arm-none-eabi/bin/../lib/gcc/arm-none-eabi/4.5.2/../../../../arm-none-eabi/include/c++/4.5.2/bits/stl_deque.h ****    *  allocation.  This class's constructor and destructor allocate and
 428:/opt/toolchains/arm-none-eabi/bin/../lib/gcc/arm-none-eabi/4.5.2/../../../../arm-none-eabi/include/c++/4.5.2/bits/stl_deque.h ****    *  deallocate (but do not initialize) storage.  This makes %exception
 429:/opt/toolchains/arm-none-eabi/bin/../lib/gcc/arm-none-eabi/4.5.2/../../../../arm-none-eabi/include/c++/4.5.2/bits/stl_deque.h ****    *  safety easier.
 430:/opt/toolchains/arm-none-eabi/bin/../lib/gcc/arm-none-eabi/4.5.2/../../../../arm-none-eabi/include/c++/4.5.2/bits/stl_deque.h ****    *
 431:/opt/toolchains/arm-none-eabi/bin/../lib/gcc/arm-none-eabi/4.5.2/../../../../arm-none-eabi/include/c++/4.5.2/bits/stl_deque.h ****    *  Nothing in this class ever constructs or destroys an actual Tp element.
 432:/opt/toolchains/arm-none-eabi/bin/../lib/gcc/arm-none-eabi/4.5.2/../../../../arm-none-eabi/include/c++/4.5.2/bits/stl_deque.h ****    *  (Deque handles that itself.)  Only/All memory management is performed
 433:/opt/toolchains/arm-none-eabi/bin/../lib/gcc/arm-none-eabi/4.5.2/../../../../arm-none-eabi/include/c++/4.5.2/bits/stl_deque.h ****    *  here.
 434:/opt/toolchains/arm-none-eabi/bin/../lib/gcc/arm-none-eabi/4.5.2/../../../../arm-none-eabi/include/c++/4.5.2/bits/stl_deque.h ****   */
 435:/opt/toolchains/arm-none-eabi/bin/../lib/gcc/arm-none-eabi/4.5.2/../../../../arm-none-eabi/include/c++/4.5.2/bits/stl_deque.h ****   template<typename _Tp, typename _Alloc>
 436:/opt/toolchains/arm-none-eabi/bin/../lib/gcc/arm-none-eabi/4.5.2/../../../../arm-none-eabi/include/c++/4.5.2/bits/stl_deque.h ****     class _Deque_base
 437:/opt/toolchains/arm-none-eabi/bin/../lib/gcc/arm-none-eabi/4.5.2/../../../../arm-none-eabi/include/c++/4.5.2/bits/stl_deque.h ****     {
 438:/opt/toolchains/arm-none-eabi/bin/../lib/gcc/arm-none-eabi/4.5.2/../../../../arm-none-eabi/include/c++/4.5.2/bits/stl_deque.h ****     public:
 439:/opt/toolchains/arm-none-eabi/bin/../lib/gcc/arm-none-eabi/4.5.2/../../../../arm-none-eabi/include/c++/4.5.2/bits/stl_deque.h ****       typedef _Alloc                  allocator_type;
 440:/opt/toolchains/arm-none-eabi/bin/../lib/gcc/arm-none-eabi/4.5.2/../../../../arm-none-eabi/include/c++/4.5.2/bits/stl_deque.h **** 
 441:/opt/toolchains/arm-none-eabi/bin/../lib/gcc/arm-none-eabi/4.5.2/../../../../arm-none-eabi/include/c++/4.5.2/bits/stl_deque.h ****       allocator_type
 442:/opt/toolchains/arm-none-eabi/bin/../lib/gcc/arm-none-eabi/4.5.2/../../../../arm-none-eabi/include/c++/4.5.2/bits/stl_deque.h ****       get_allocator() const
 443:/opt/toolchains/arm-none-eabi/bin/../lib/gcc/arm-none-eabi/4.5.2/../../../../arm-none-eabi/include/c++/4.5.2/bits/stl_deque.h ****       { return allocator_type(_M_get_Tp_allocator()); }
 444:/opt/toolchains/arm-none-eabi/bin/../lib/gcc/arm-none-eabi/4.5.2/../../../../arm-none-eabi/include/c++/4.5.2/bits/stl_deque.h **** 
 445:/opt/toolchains/arm-none-eabi/bin/../lib/gcc/arm-none-eabi/4.5.2/../../../../arm-none-eabi/include/c++/4.5.2/bits/stl_deque.h ****       typedef _Deque_iterator<_Tp, _Tp&, _Tp*>             iterator;
 446:/opt/toolchains/arm-none-eabi/bin/../lib/gcc/arm-none-eabi/4.5.2/../../../../arm-none-eabi/include/c++/4.5.2/bits/stl_deque.h ****       typedef _Deque_iterator<_Tp, const _Tp&, const _Tp*> const_iterator;
 447:/opt/toolchains/arm-none-eabi/bin/../lib/gcc/arm-none-eabi/4.5.2/../../../../arm-none-eabi/include/c++/4.5.2/bits/stl_deque.h **** 
 448:/opt/toolchains/arm-none-eabi/bin/../lib/gcc/arm-none-eabi/4.5.2/../../../../arm-none-eabi/include/c++/4.5.2/bits/stl_deque.h ****       _Deque_base()
 449:/opt/toolchains/arm-none-eabi/bin/../lib/gcc/arm-none-eabi/4.5.2/../../../../arm-none-eabi/include/c++/4.5.2/bits/stl_deque.h ****       : _M_impl()
 450:/opt/toolchains/arm-none-eabi/bin/../lib/gcc/arm-none-eabi/4.5.2/../../../../arm-none-eabi/include/c++/4.5.2/bits/stl_deque.h ****       { _M_initialize_map(0); }
 451:/opt/toolchains/arm-none-eabi/bin/../lib/gcc/arm-none-eabi/4.5.2/../../../../arm-none-eabi/include/c++/4.5.2/bits/stl_deque.h **** 
 452:/opt/toolchains/arm-none-eabi/bin/../lib/gcc/arm-none-eabi/4.5.2/../../../../arm-none-eabi/include/c++/4.5.2/bits/stl_deque.h ****       _Deque_base(const allocator_type& __a, size_t __num_elements)
 453:/opt/toolchains/arm-none-eabi/bin/../lib/gcc/arm-none-eabi/4.5.2/../../../../arm-none-eabi/include/c++/4.5.2/bits/stl_deque.h ****       : _M_impl(__a)
 454:/opt/toolchains/arm-none-eabi/bin/../lib/gcc/arm-none-eabi/4.5.2/../../../../arm-none-eabi/include/c++/4.5.2/bits/stl_deque.h ****       { _M_initialize_map(__num_elements); }
 455:/opt/toolchains/arm-none-eabi/bin/../lib/gcc/arm-none-eabi/4.5.2/../../../../arm-none-eabi/include/c++/4.5.2/bits/stl_deque.h **** 
 456:/opt/toolchains/arm-none-eabi/bin/../lib/gcc/arm-none-eabi/4.5.2/../../../../arm-none-eabi/include/c++/4.5.2/bits/stl_deque.h ****       _Deque_base(const allocator_type& __a)
 457:/opt/toolchains/arm-none-eabi/bin/../lib/gcc/arm-none-eabi/4.5.2/../../../../arm-none-eabi/include/c++/4.5.2/bits/stl_deque.h ****       : _M_impl(__a)
 458:/opt/toolchains/arm-none-eabi/bin/../lib/gcc/arm-none-eabi/4.5.2/../../../../arm-none-eabi/include/c++/4.5.2/bits/stl_deque.h ****       { }
 459:/opt/toolchains/arm-none-eabi/bin/../lib/gcc/arm-none-eabi/4.5.2/../../../../arm-none-eabi/include/c++/4.5.2/bits/stl_deque.h **** 
 460:/opt/toolchains/arm-none-eabi/bin/../lib/gcc/arm-none-eabi/4.5.2/../../../../arm-none-eabi/include/c++/4.5.2/bits/stl_deque.h **** #ifdef __GXX_EXPERIMENTAL_CXX0X__
 461:/opt/toolchains/arm-none-eabi/bin/../lib/gcc/arm-none-eabi/4.5.2/../../../../arm-none-eabi/include/c++/4.5.2/bits/stl_deque.h ****       _Deque_base(_Deque_base&& __x)
 462:/opt/toolchains/arm-none-eabi/bin/../lib/gcc/arm-none-eabi/4.5.2/../../../../arm-none-eabi/include/c++/4.5.2/bits/stl_deque.h ****       : _M_impl(__x._M_get_Tp_allocator())
 463:/opt/toolchains/arm-none-eabi/bin/../lib/gcc/arm-none-eabi/4.5.2/../../../../arm-none-eabi/include/c++/4.5.2/bits/stl_deque.h ****       {
 464:/opt/toolchains/arm-none-eabi/bin/../lib/gcc/arm-none-eabi/4.5.2/../../../../arm-none-eabi/include/c++/4.5.2/bits/stl_deque.h **** 	_M_initialize_map(0);
 465:/opt/toolchains/arm-none-eabi/bin/../lib/gcc/arm-none-eabi/4.5.2/../../../../arm-none-eabi/include/c++/4.5.2/bits/stl_deque.h **** 	if (__x._M_impl._M_map)
 466:/opt/toolchains/arm-none-eabi/bin/../lib/gcc/arm-none-eabi/4.5.2/../../../../arm-none-eabi/include/c++/4.5.2/bits/stl_deque.h **** 	  {
 467:/opt/toolchains/arm-none-eabi/bin/../lib/gcc/arm-none-eabi/4.5.2/../../../../arm-none-eabi/include/c++/4.5.2/bits/stl_deque.h **** 	    std::swap(this->_M_impl._M_start, __x._M_impl._M_start);
 468:/opt/toolchains/arm-none-eabi/bin/../lib/gcc/arm-none-eabi/4.5.2/../../../../arm-none-eabi/include/c++/4.5.2/bits/stl_deque.h **** 	    std::swap(this->_M_impl._M_finish, __x._M_impl._M_finish);
 469:/opt/toolchains/arm-none-eabi/bin/../lib/gcc/arm-none-eabi/4.5.2/../../../../arm-none-eabi/include/c++/4.5.2/bits/stl_deque.h **** 	    std::swap(this->_M_impl._M_map, __x._M_impl._M_map);
 470:/opt/toolchains/arm-none-eabi/bin/../lib/gcc/arm-none-eabi/4.5.2/../../../../arm-none-eabi/include/c++/4.5.2/bits/stl_deque.h **** 	    std::swap(this->_M_impl._M_map_size, __x._M_impl._M_map_size);
 471:/opt/toolchains/arm-none-eabi/bin/../lib/gcc/arm-none-eabi/4.5.2/../../../../arm-none-eabi/include/c++/4.5.2/bits/stl_deque.h **** 	  }
 472:/opt/toolchains/arm-none-eabi/bin/../lib/gcc/arm-none-eabi/4.5.2/../../../../arm-none-eabi/include/c++/4.5.2/bits/stl_deque.h ****       }
 473:/opt/toolchains/arm-none-eabi/bin/../lib/gcc/arm-none-eabi/4.5.2/../../../../arm-none-eabi/include/c++/4.5.2/bits/stl_deque.h **** #endif
 474:/opt/toolchains/arm-none-eabi/bin/../lib/gcc/arm-none-eabi/4.5.2/../../../../arm-none-eabi/include/c++/4.5.2/bits/stl_deque.h **** 
 475:/opt/toolchains/arm-none-eabi/bin/../lib/gcc/arm-none-eabi/4.5.2/../../../../arm-none-eabi/include/c++/4.5.2/bits/stl_deque.h ****       ~_Deque_base();
 476:/opt/toolchains/arm-none-eabi/bin/../lib/gcc/arm-none-eabi/4.5.2/../../../../arm-none-eabi/include/c++/4.5.2/bits/stl_deque.h **** 
 477:/opt/toolchains/arm-none-eabi/bin/../lib/gcc/arm-none-eabi/4.5.2/../../../../arm-none-eabi/include/c++/4.5.2/bits/stl_deque.h ****     protected:
 478:/opt/toolchains/arm-none-eabi/bin/../lib/gcc/arm-none-eabi/4.5.2/../../../../arm-none-eabi/include/c++/4.5.2/bits/stl_deque.h ****       //This struct encapsulates the implementation of the std::deque
 479:/opt/toolchains/arm-none-eabi/bin/../lib/gcc/arm-none-eabi/4.5.2/../../../../arm-none-eabi/include/c++/4.5.2/bits/stl_deque.h ****       //standard container and at the same time makes use of the EBO
 480:/opt/toolchains/arm-none-eabi/bin/../lib/gcc/arm-none-eabi/4.5.2/../../../../arm-none-eabi/include/c++/4.5.2/bits/stl_deque.h ****       //for empty allocators.
 481:/opt/toolchains/arm-none-eabi/bin/../lib/gcc/arm-none-eabi/4.5.2/../../../../arm-none-eabi/include/c++/4.5.2/bits/stl_deque.h ****       typedef typename _Alloc::template rebind<_Tp*>::other _Map_alloc_type;
 482:/opt/toolchains/arm-none-eabi/bin/../lib/gcc/arm-none-eabi/4.5.2/../../../../arm-none-eabi/include/c++/4.5.2/bits/stl_deque.h **** 
 483:/opt/toolchains/arm-none-eabi/bin/../lib/gcc/arm-none-eabi/4.5.2/../../../../arm-none-eabi/include/c++/4.5.2/bits/stl_deque.h ****       typedef typename _Alloc::template rebind<_Tp>::other  _Tp_alloc_type;
 484:/opt/toolchains/arm-none-eabi/bin/../lib/gcc/arm-none-eabi/4.5.2/../../../../arm-none-eabi/include/c++/4.5.2/bits/stl_deque.h **** 
 485:/opt/toolchains/arm-none-eabi/bin/../lib/gcc/arm-none-eabi/4.5.2/../../../../arm-none-eabi/include/c++/4.5.2/bits/stl_deque.h ****       struct _Deque_impl
 486:/opt/toolchains/arm-none-eabi/bin/../lib/gcc/arm-none-eabi/4.5.2/../../../../arm-none-eabi/include/c++/4.5.2/bits/stl_deque.h ****       : public _Tp_alloc_type
 487:/opt/toolchains/arm-none-eabi/bin/../lib/gcc/arm-none-eabi/4.5.2/../../../../arm-none-eabi/include/c++/4.5.2/bits/stl_deque.h ****       {
 488:/opt/toolchains/arm-none-eabi/bin/../lib/gcc/arm-none-eabi/4.5.2/../../../../arm-none-eabi/include/c++/4.5.2/bits/stl_deque.h **** 	_Tp** _M_map;
 489:/opt/toolchains/arm-none-eabi/bin/../lib/gcc/arm-none-eabi/4.5.2/../../../../arm-none-eabi/include/c++/4.5.2/bits/stl_deque.h **** 	size_t _M_map_size;
 490:/opt/toolchains/arm-none-eabi/bin/../lib/gcc/arm-none-eabi/4.5.2/../../../../arm-none-eabi/include/c++/4.5.2/bits/stl_deque.h **** 	iterator _M_start;
 491:/opt/toolchains/arm-none-eabi/bin/../lib/gcc/arm-none-eabi/4.5.2/../../../../arm-none-eabi/include/c++/4.5.2/bits/stl_deque.h **** 	iterator _M_finish;
 492:/opt/toolchains/arm-none-eabi/bin/../lib/gcc/arm-none-eabi/4.5.2/../../../../arm-none-eabi/include/c++/4.5.2/bits/stl_deque.h **** 
 493:/opt/toolchains/arm-none-eabi/bin/../lib/gcc/arm-none-eabi/4.5.2/../../../../arm-none-eabi/include/c++/4.5.2/bits/stl_deque.h **** 	_Deque_impl()
 494:/opt/toolchains/arm-none-eabi/bin/../lib/gcc/arm-none-eabi/4.5.2/../../../../arm-none-eabi/include/c++/4.5.2/bits/stl_deque.h **** 	: _Tp_alloc_type(), _M_map(0), _M_map_size(0),
 495:/opt/toolchains/arm-none-eabi/bin/../lib/gcc/arm-none-eabi/4.5.2/../../../../arm-none-eabi/include/c++/4.5.2/bits/stl_deque.h **** 	  _M_start(), _M_finish()
 496:/opt/toolchains/arm-none-eabi/bin/../lib/gcc/arm-none-eabi/4.5.2/../../../../arm-none-eabi/include/c++/4.5.2/bits/stl_deque.h **** 	{ }
 497:/opt/toolchains/arm-none-eabi/bin/../lib/gcc/arm-none-eabi/4.5.2/../../../../arm-none-eabi/include/c++/4.5.2/bits/stl_deque.h **** 
 498:/opt/toolchains/arm-none-eabi/bin/../lib/gcc/arm-none-eabi/4.5.2/../../../../arm-none-eabi/include/c++/4.5.2/bits/stl_deque.h **** 	_Deque_impl(const _Tp_alloc_type& __a)
 499:/opt/toolchains/arm-none-eabi/bin/../lib/gcc/arm-none-eabi/4.5.2/../../../../arm-none-eabi/include/c++/4.5.2/bits/stl_deque.h **** 	: _Tp_alloc_type(__a), _M_map(0), _M_map_size(0),
 500:/opt/toolchains/arm-none-eabi/bin/../lib/gcc/arm-none-eabi/4.5.2/../../../../arm-none-eabi/include/c++/4.5.2/bits/stl_deque.h **** 	  _M_start(), _M_finish()
 501:/opt/toolchains/arm-none-eabi/bin/../lib/gcc/arm-none-eabi/4.5.2/../../../../arm-none-eabi/include/c++/4.5.2/bits/stl_deque.h **** 	{ }
 502:/opt/toolchains/arm-none-eabi/bin/../lib/gcc/arm-none-eabi/4.5.2/../../../../arm-none-eabi/include/c++/4.5.2/bits/stl_deque.h ****       };
 503:/opt/toolchains/arm-none-eabi/bin/../lib/gcc/arm-none-eabi/4.5.2/../../../../arm-none-eabi/include/c++/4.5.2/bits/stl_deque.h **** 
 504:/opt/toolchains/arm-none-eabi/bin/../lib/gcc/arm-none-eabi/4.5.2/../../../../arm-none-eabi/include/c++/4.5.2/bits/stl_deque.h ****       _Tp_alloc_type&
 505:/opt/toolchains/arm-none-eabi/bin/../lib/gcc/arm-none-eabi/4.5.2/../../../../arm-none-eabi/include/c++/4.5.2/bits/stl_deque.h ****       _M_get_Tp_allocator()
 506:/opt/toolchains/arm-none-eabi/bin/../lib/gcc/arm-none-eabi/4.5.2/../../../../arm-none-eabi/include/c++/4.5.2/bits/stl_deque.h ****       { return *static_cast<_Tp_alloc_type*>(&this->_M_impl); }
 507:/opt/toolchains/arm-none-eabi/bin/../lib/gcc/arm-none-eabi/4.5.2/../../../../arm-none-eabi/include/c++/4.5.2/bits/stl_deque.h **** 
 508:/opt/toolchains/arm-none-eabi/bin/../lib/gcc/arm-none-eabi/4.5.2/../../../../arm-none-eabi/include/c++/4.5.2/bits/stl_deque.h ****       const _Tp_alloc_type&
 509:/opt/toolchains/arm-none-eabi/bin/../lib/gcc/arm-none-eabi/4.5.2/../../../../arm-none-eabi/include/c++/4.5.2/bits/stl_deque.h ****       _M_get_Tp_allocator() const
 510:/opt/toolchains/arm-none-eabi/bin/../lib/gcc/arm-none-eabi/4.5.2/../../../../arm-none-eabi/include/c++/4.5.2/bits/stl_deque.h ****       { return *static_cast<const _Tp_alloc_type*>(&this->_M_impl); }
 511:/opt/toolchains/arm-none-eabi/bin/../lib/gcc/arm-none-eabi/4.5.2/../../../../arm-none-eabi/include/c++/4.5.2/bits/stl_deque.h **** 
 512:/opt/toolchains/arm-none-eabi/bin/../lib/gcc/arm-none-eabi/4.5.2/../../../../arm-none-eabi/include/c++/4.5.2/bits/stl_deque.h ****       _Map_alloc_type
 513:/opt/toolchains/arm-none-eabi/bin/../lib/gcc/arm-none-eabi/4.5.2/../../../../arm-none-eabi/include/c++/4.5.2/bits/stl_deque.h ****       _M_get_map_allocator() const
 514:/opt/toolchains/arm-none-eabi/bin/../lib/gcc/arm-none-eabi/4.5.2/../../../../arm-none-eabi/include/c++/4.5.2/bits/stl_deque.h ****       { return _Map_alloc_type(_M_get_Tp_allocator()); }
 515:/opt/toolchains/arm-none-eabi/bin/../lib/gcc/arm-none-eabi/4.5.2/../../../../arm-none-eabi/include/c++/4.5.2/bits/stl_deque.h **** 
 516:/opt/toolchains/arm-none-eabi/bin/../lib/gcc/arm-none-eabi/4.5.2/../../../../arm-none-eabi/include/c++/4.5.2/bits/stl_deque.h ****       _Tp*
 517:/opt/toolchains/arm-none-eabi/bin/../lib/gcc/arm-none-eabi/4.5.2/../../../../arm-none-eabi/include/c++/4.5.2/bits/stl_deque.h ****       _M_allocate_node()
 518:/opt/toolchains/arm-none-eabi/bin/../lib/gcc/arm-none-eabi/4.5.2/../../../../arm-none-eabi/include/c++/4.5.2/bits/stl_deque.h ****       { 
 519:/opt/toolchains/arm-none-eabi/bin/../lib/gcc/arm-none-eabi/4.5.2/../../../../arm-none-eabi/include/c++/4.5.2/bits/stl_deque.h **** 	return _M_impl._Tp_alloc_type::allocate(__deque_buf_size(sizeof(_Tp)));
 520:/opt/toolchains/arm-none-eabi/bin/../lib/gcc/arm-none-eabi/4.5.2/../../../../arm-none-eabi/include/c++/4.5.2/bits/stl_deque.h ****       }
 521:/opt/toolchains/arm-none-eabi/bin/../lib/gcc/arm-none-eabi/4.5.2/../../../../arm-none-eabi/include/c++/4.5.2/bits/stl_deque.h **** 
 522:/opt/toolchains/arm-none-eabi/bin/../lib/gcc/arm-none-eabi/4.5.2/../../../../arm-none-eabi/include/c++/4.5.2/bits/stl_deque.h ****       void
 523:/opt/toolchains/arm-none-eabi/bin/../lib/gcc/arm-none-eabi/4.5.2/../../../../arm-none-eabi/include/c++/4.5.2/bits/stl_deque.h ****       _M_deallocate_node(_Tp* __p)
 524:/opt/toolchains/arm-none-eabi/bin/../lib/gcc/arm-none-eabi/4.5.2/../../../../arm-none-eabi/include/c++/4.5.2/bits/stl_deque.h ****       {
 525:/opt/toolchains/arm-none-eabi/bin/../lib/gcc/arm-none-eabi/4.5.2/../../../../arm-none-eabi/include/c++/4.5.2/bits/stl_deque.h **** 	_M_impl._Tp_alloc_type::deallocate(__p, __deque_buf_size(sizeof(_Tp)));
 526:/opt/toolchains/arm-none-eabi/bin/../lib/gcc/arm-none-eabi/4.5.2/../../../../arm-none-eabi/include/c++/4.5.2/bits/stl_deque.h ****       }
 527:/opt/toolchains/arm-none-eabi/bin/../lib/gcc/arm-none-eabi/4.5.2/../../../../arm-none-eabi/include/c++/4.5.2/bits/stl_deque.h **** 
 528:/opt/toolchains/arm-none-eabi/bin/../lib/gcc/arm-none-eabi/4.5.2/../../../../arm-none-eabi/include/c++/4.5.2/bits/stl_deque.h ****       _Tp**
 529:/opt/toolchains/arm-none-eabi/bin/../lib/gcc/arm-none-eabi/4.5.2/../../../../arm-none-eabi/include/c++/4.5.2/bits/stl_deque.h ****       _M_allocate_map(size_t __n)
 530:/opt/toolchains/arm-none-eabi/bin/../lib/gcc/arm-none-eabi/4.5.2/../../../../arm-none-eabi/include/c++/4.5.2/bits/stl_deque.h ****       { return _M_get_map_allocator().allocate(__n); }
 531:/opt/toolchains/arm-none-eabi/bin/../lib/gcc/arm-none-eabi/4.5.2/../../../../arm-none-eabi/include/c++/4.5.2/bits/stl_deque.h **** 
 532:/opt/toolchains/arm-none-eabi/bin/../lib/gcc/arm-none-eabi/4.5.2/../../../../arm-none-eabi/include/c++/4.5.2/bits/stl_deque.h ****       void
 533:/opt/toolchains/arm-none-eabi/bin/../lib/gcc/arm-none-eabi/4.5.2/../../../../arm-none-eabi/include/c++/4.5.2/bits/stl_deque.h ****       _M_deallocate_map(_Tp** __p, size_t __n)
 534:/opt/toolchains/arm-none-eabi/bin/../lib/gcc/arm-none-eabi/4.5.2/../../../../arm-none-eabi/include/c++/4.5.2/bits/stl_deque.h ****       { _M_get_map_allocator().deallocate(__p, __n); }
 535:/opt/toolchains/arm-none-eabi/bin/../lib/gcc/arm-none-eabi/4.5.2/../../../../arm-none-eabi/include/c++/4.5.2/bits/stl_deque.h **** 
 536:/opt/toolchains/arm-none-eabi/bin/../lib/gcc/arm-none-eabi/4.5.2/../../../../arm-none-eabi/include/c++/4.5.2/bits/stl_deque.h ****     protected:
 537:/opt/toolchains/arm-none-eabi/bin/../lib/gcc/arm-none-eabi/4.5.2/../../../../arm-none-eabi/include/c++/4.5.2/bits/stl_deque.h ****       void _M_initialize_map(size_t);
 538:/opt/toolchains/arm-none-eabi/bin/../lib/gcc/arm-none-eabi/4.5.2/../../../../arm-none-eabi/include/c++/4.5.2/bits/stl_deque.h ****       void _M_create_nodes(_Tp** __nstart, _Tp** __nfinish);
 539:/opt/toolchains/arm-none-eabi/bin/../lib/gcc/arm-none-eabi/4.5.2/../../../../arm-none-eabi/include/c++/4.5.2/bits/stl_deque.h ****       void _M_destroy_nodes(_Tp** __nstart, _Tp** __nfinish);
 540:/opt/toolchains/arm-none-eabi/bin/../lib/gcc/arm-none-eabi/4.5.2/../../../../arm-none-eabi/include/c++/4.5.2/bits/stl_deque.h ****       enum { _S_initial_map_size = 8 };
 541:/opt/toolchains/arm-none-eabi/bin/../lib/gcc/arm-none-eabi/4.5.2/../../../../arm-none-eabi/include/c++/4.5.2/bits/stl_deque.h **** 
 542:/opt/toolchains/arm-none-eabi/bin/../lib/gcc/arm-none-eabi/4.5.2/../../../../arm-none-eabi/include/c++/4.5.2/bits/stl_deque.h ****       _Deque_impl _M_impl;
 543:/opt/toolchains/arm-none-eabi/bin/../lib/gcc/arm-none-eabi/4.5.2/../../../../arm-none-eabi/include/c++/4.5.2/bits/stl_deque.h ****     };
 544:/opt/toolchains/arm-none-eabi/bin/../lib/gcc/arm-none-eabi/4.5.2/../../../../arm-none-eabi/include/c++/4.5.2/bits/stl_deque.h **** 
 545:/opt/toolchains/arm-none-eabi/bin/../lib/gcc/arm-none-eabi/4.5.2/../../../../arm-none-eabi/include/c++/4.5.2/bits/stl_deque.h ****   template<typename _Tp, typename _Alloc>
 546:/opt/toolchains/arm-none-eabi/bin/../lib/gcc/arm-none-eabi/4.5.2/../../../../arm-none-eabi/include/c++/4.5.2/bits/stl_deque.h ****     _Deque_base<_Tp, _Alloc>::
 547:/opt/toolchains/arm-none-eabi/bin/../lib/gcc/arm-none-eabi/4.5.2/../../../../arm-none-eabi/include/c++/4.5.2/bits/stl_deque.h ****     ~_Deque_base()
 548:/opt/toolchains/arm-none-eabi/bin/../lib/gcc/arm-none-eabi/4.5.2/../../../../arm-none-eabi/include/c++/4.5.2/bits/stl_deque.h ****     {
 549:/opt/toolchains/arm-none-eabi/bin/../lib/gcc/arm-none-eabi/4.5.2/../../../../arm-none-eabi/include/c++/4.5.2/bits/stl_deque.h ****       if (this->_M_impl._M_map)
 550:/opt/toolchains/arm-none-eabi/bin/../lib/gcc/arm-none-eabi/4.5.2/../../../../arm-none-eabi/include/c++/4.5.2/bits/stl_deque.h **** 	{
 551:/opt/toolchains/arm-none-eabi/bin/../lib/gcc/arm-none-eabi/4.5.2/../../../../arm-none-eabi/include/c++/4.5.2/bits/stl_deque.h **** 	  _M_destroy_nodes(this->_M_impl._M_start._M_node,
 552:/opt/toolchains/arm-none-eabi/bin/../lib/gcc/arm-none-eabi/4.5.2/../../../../arm-none-eabi/include/c++/4.5.2/bits/stl_deque.h **** 			   this->_M_impl._M_finish._M_node + 1);
 553:/opt/toolchains/arm-none-eabi/bin/../lib/gcc/arm-none-eabi/4.5.2/../../../../arm-none-eabi/include/c++/4.5.2/bits/stl_deque.h **** 	  _M_deallocate_map(this->_M_impl._M_map, this->_M_impl._M_map_size);
 554:/opt/toolchains/arm-none-eabi/bin/../lib/gcc/arm-none-eabi/4.5.2/../../../../arm-none-eabi/include/c++/4.5.2/bits/stl_deque.h **** 	}
 555:/opt/toolchains/arm-none-eabi/bin/../lib/gcc/arm-none-eabi/4.5.2/../../../../arm-none-eabi/include/c++/4.5.2/bits/stl_deque.h ****     }
 556:/opt/toolchains/arm-none-eabi/bin/../lib/gcc/arm-none-eabi/4.5.2/../../../../arm-none-eabi/include/c++/4.5.2/bits/stl_deque.h **** 
 557:/opt/toolchains/arm-none-eabi/bin/../lib/gcc/arm-none-eabi/4.5.2/../../../../arm-none-eabi/include/c++/4.5.2/bits/stl_deque.h ****   /**
 558:/opt/toolchains/arm-none-eabi/bin/../lib/gcc/arm-none-eabi/4.5.2/../../../../arm-none-eabi/include/c++/4.5.2/bits/stl_deque.h ****    *  @brief Layout storage.
 559:/opt/toolchains/arm-none-eabi/bin/../lib/gcc/arm-none-eabi/4.5.2/../../../../arm-none-eabi/include/c++/4.5.2/bits/stl_deque.h ****    *  @param  num_elements  The count of T's for which to allocate space
 560:/opt/toolchains/arm-none-eabi/bin/../lib/gcc/arm-none-eabi/4.5.2/../../../../arm-none-eabi/include/c++/4.5.2/bits/stl_deque.h ****    *                        at first.
 561:/opt/toolchains/arm-none-eabi/bin/../lib/gcc/arm-none-eabi/4.5.2/../../../../arm-none-eabi/include/c++/4.5.2/bits/stl_deque.h ****    *  @return   Nothing.
 562:/opt/toolchains/arm-none-eabi/bin/../lib/gcc/arm-none-eabi/4.5.2/../../../../arm-none-eabi/include/c++/4.5.2/bits/stl_deque.h ****    *
 563:/opt/toolchains/arm-none-eabi/bin/../lib/gcc/arm-none-eabi/4.5.2/../../../../arm-none-eabi/include/c++/4.5.2/bits/stl_deque.h ****    *  The initial underlying memory layout is a bit complicated...
 564:/opt/toolchains/arm-none-eabi/bin/../lib/gcc/arm-none-eabi/4.5.2/../../../../arm-none-eabi/include/c++/4.5.2/bits/stl_deque.h ****   */
 565:/opt/toolchains/arm-none-eabi/bin/../lib/gcc/arm-none-eabi/4.5.2/../../../../arm-none-eabi/include/c++/4.5.2/bits/stl_deque.h ****   template<typename _Tp, typename _Alloc>
 566:/opt/toolchains/arm-none-eabi/bin/../lib/gcc/arm-none-eabi/4.5.2/../../../../arm-none-eabi/include/c++/4.5.2/bits/stl_deque.h ****     void
 567:/opt/toolchains/arm-none-eabi/bin/../lib/gcc/arm-none-eabi/4.5.2/../../../../arm-none-eabi/include/c++/4.5.2/bits/stl_deque.h ****     _Deque_base<_Tp, _Alloc>::
 568:/opt/toolchains/arm-none-eabi/bin/../lib/gcc/arm-none-eabi/4.5.2/../../../../arm-none-eabi/include/c++/4.5.2/bits/stl_deque.h ****     _M_initialize_map(size_t __num_elements)
 569:/opt/toolchains/arm-none-eabi/bin/../lib/gcc/arm-none-eabi/4.5.2/../../../../arm-none-eabi/include/c++/4.5.2/bits/stl_deque.h ****     {
 570:/opt/toolchains/arm-none-eabi/bin/../lib/gcc/arm-none-eabi/4.5.2/../../../../arm-none-eabi/include/c++/4.5.2/bits/stl_deque.h ****       const size_t __num_nodes = (__num_elements/ __deque_buf_size(sizeof(_Tp))
 571:/opt/toolchains/arm-none-eabi/bin/../lib/gcc/arm-none-eabi/4.5.2/../../../../arm-none-eabi/include/c++/4.5.2/bits/stl_deque.h **** 				  + 1);
 572:/opt/toolchains/arm-none-eabi/bin/../lib/gcc/arm-none-eabi/4.5.2/../../../../arm-none-eabi/include/c++/4.5.2/bits/stl_deque.h **** 
 573:/opt/toolchains/arm-none-eabi/bin/../lib/gcc/arm-none-eabi/4.5.2/../../../../arm-none-eabi/include/c++/4.5.2/bits/stl_deque.h ****       this->_M_impl._M_map_size = std::max((size_t) _S_initial_map_size,
 574:/opt/toolchains/arm-none-eabi/bin/../lib/gcc/arm-none-eabi/4.5.2/../../../../arm-none-eabi/include/c++/4.5.2/bits/stl_deque.h **** 					   size_t(__num_nodes + 2));
 575:/opt/toolchains/arm-none-eabi/bin/../lib/gcc/arm-none-eabi/4.5.2/../../../../arm-none-eabi/include/c++/4.5.2/bits/stl_deque.h ****       this->_M_impl._M_map = _M_allocate_map(this->_M_impl._M_map_size);
 576:/opt/toolchains/arm-none-eabi/bin/../lib/gcc/arm-none-eabi/4.5.2/../../../../arm-none-eabi/include/c++/4.5.2/bits/stl_deque.h **** 
 577:/opt/toolchains/arm-none-eabi/bin/../lib/gcc/arm-none-eabi/4.5.2/../../../../arm-none-eabi/include/c++/4.5.2/bits/stl_deque.h ****       // For "small" maps (needing less than _M_map_size nodes), allocation
 578:/opt/toolchains/arm-none-eabi/bin/../lib/gcc/arm-none-eabi/4.5.2/../../../../arm-none-eabi/include/c++/4.5.2/bits/stl_deque.h ****       // starts in the middle elements and grows outwards.  So nstart may be
 579:/opt/toolchains/arm-none-eabi/bin/../lib/gcc/arm-none-eabi/4.5.2/../../../../arm-none-eabi/include/c++/4.5.2/bits/stl_deque.h ****       // the beginning of _M_map, but for small maps it may be as far in as
 580:/opt/toolchains/arm-none-eabi/bin/../lib/gcc/arm-none-eabi/4.5.2/../../../../arm-none-eabi/include/c++/4.5.2/bits/stl_deque.h ****       // _M_map+3.
 581:/opt/toolchains/arm-none-eabi/bin/../lib/gcc/arm-none-eabi/4.5.2/../../../../arm-none-eabi/include/c++/4.5.2/bits/stl_deque.h **** 
 582:/opt/toolchains/arm-none-eabi/bin/../lib/gcc/arm-none-eabi/4.5.2/../../../../arm-none-eabi/include/c++/4.5.2/bits/stl_deque.h ****       _Tp** __nstart = (this->_M_impl._M_map
 583:/opt/toolchains/arm-none-eabi/bin/../lib/gcc/arm-none-eabi/4.5.2/../../../../arm-none-eabi/include/c++/4.5.2/bits/stl_deque.h **** 			+ (this->_M_impl._M_map_size - __num_nodes) / 2);
 584:/opt/toolchains/arm-none-eabi/bin/../lib/gcc/arm-none-eabi/4.5.2/../../../../arm-none-eabi/include/c++/4.5.2/bits/stl_deque.h ****       _Tp** __nfinish = __nstart + __num_nodes;
 585:/opt/toolchains/arm-none-eabi/bin/../lib/gcc/arm-none-eabi/4.5.2/../../../../arm-none-eabi/include/c++/4.5.2/bits/stl_deque.h **** 
 586:/opt/toolchains/arm-none-eabi/bin/../lib/gcc/arm-none-eabi/4.5.2/../../../../arm-none-eabi/include/c++/4.5.2/bits/stl_deque.h ****       __try
 587:/opt/toolchains/arm-none-eabi/bin/../lib/gcc/arm-none-eabi/4.5.2/../../../../arm-none-eabi/include/c++/4.5.2/bits/stl_deque.h **** 	{ _M_create_nodes(__nstart, __nfinish); }
 588:/opt/toolchains/arm-none-eabi/bin/../lib/gcc/arm-none-eabi/4.5.2/../../../../arm-none-eabi/include/c++/4.5.2/bits/stl_deque.h ****       __catch(...)
 589:/opt/toolchains/arm-none-eabi/bin/../lib/gcc/arm-none-eabi/4.5.2/../../../../arm-none-eabi/include/c++/4.5.2/bits/stl_deque.h **** 	{
 590:/opt/toolchains/arm-none-eabi/bin/../lib/gcc/arm-none-eabi/4.5.2/../../../../arm-none-eabi/include/c++/4.5.2/bits/stl_deque.h **** 	  _M_deallocate_map(this->_M_impl._M_map, this->_M_impl._M_map_size);
 591:/opt/toolchains/arm-none-eabi/bin/../lib/gcc/arm-none-eabi/4.5.2/../../../../arm-none-eabi/include/c++/4.5.2/bits/stl_deque.h **** 	  this->_M_impl._M_map = 0;
 592:/opt/toolchains/arm-none-eabi/bin/../lib/gcc/arm-none-eabi/4.5.2/../../../../arm-none-eabi/include/c++/4.5.2/bits/stl_deque.h **** 	  this->_M_impl._M_map_size = 0;
 593:/opt/toolchains/arm-none-eabi/bin/../lib/gcc/arm-none-eabi/4.5.2/../../../../arm-none-eabi/include/c++/4.5.2/bits/stl_deque.h **** 	  __throw_exception_again;
 594:/opt/toolchains/arm-none-eabi/bin/../lib/gcc/arm-none-eabi/4.5.2/../../../../arm-none-eabi/include/c++/4.5.2/bits/stl_deque.h **** 	}
 595:/opt/toolchains/arm-none-eabi/bin/../lib/gcc/arm-none-eabi/4.5.2/../../../../arm-none-eabi/include/c++/4.5.2/bits/stl_deque.h **** 
 596:/opt/toolchains/arm-none-eabi/bin/../lib/gcc/arm-none-eabi/4.5.2/../../../../arm-none-eabi/include/c++/4.5.2/bits/stl_deque.h ****       this->_M_impl._M_start._M_set_node(__nstart);
 597:/opt/toolchains/arm-none-eabi/bin/../lib/gcc/arm-none-eabi/4.5.2/../../../../arm-none-eabi/include/c++/4.5.2/bits/stl_deque.h ****       this->_M_impl._M_finish._M_set_node(__nfinish - 1);
 598:/opt/toolchains/arm-none-eabi/bin/../lib/gcc/arm-none-eabi/4.5.2/../../../../arm-none-eabi/include/c++/4.5.2/bits/stl_deque.h ****       this->_M_impl._M_start._M_cur = _M_impl._M_start._M_first;
 599:/opt/toolchains/arm-none-eabi/bin/../lib/gcc/arm-none-eabi/4.5.2/../../../../arm-none-eabi/include/c++/4.5.2/bits/stl_deque.h ****       this->_M_impl._M_finish._M_cur = (this->_M_impl._M_finish._M_first
 600:/opt/toolchains/arm-none-eabi/bin/../lib/gcc/arm-none-eabi/4.5.2/../../../../arm-none-eabi/include/c++/4.5.2/bits/stl_deque.h **** 					+ __num_elements
 601:/opt/toolchains/arm-none-eabi/bin/../lib/gcc/arm-none-eabi/4.5.2/../../../../arm-none-eabi/include/c++/4.5.2/bits/stl_deque.h **** 					% __deque_buf_size(sizeof(_Tp)));
 602:/opt/toolchains/arm-none-eabi/bin/../lib/gcc/arm-none-eabi/4.5.2/../../../../arm-none-eabi/include/c++/4.5.2/bits/stl_deque.h ****     }
 603:/opt/toolchains/arm-none-eabi/bin/../lib/gcc/arm-none-eabi/4.5.2/../../../../arm-none-eabi/include/c++/4.5.2/bits/stl_deque.h **** 
 604:/opt/toolchains/arm-none-eabi/bin/../lib/gcc/arm-none-eabi/4.5.2/../../../../arm-none-eabi/include/c++/4.5.2/bits/stl_deque.h ****   template<typename _Tp, typename _Alloc>
 605:/opt/toolchains/arm-none-eabi/bin/../lib/gcc/arm-none-eabi/4.5.2/../../../../arm-none-eabi/include/c++/4.5.2/bits/stl_deque.h ****     void
 606:/opt/toolchains/arm-none-eabi/bin/../lib/gcc/arm-none-eabi/4.5.2/../../../../arm-none-eabi/include/c++/4.5.2/bits/stl_deque.h ****     _Deque_base<_Tp, _Alloc>::
 607:/opt/toolchains/arm-none-eabi/bin/../lib/gcc/arm-none-eabi/4.5.2/../../../../arm-none-eabi/include/c++/4.5.2/bits/stl_deque.h ****     _M_create_nodes(_Tp** __nstart, _Tp** __nfinish)
 608:/opt/toolchains/arm-none-eabi/bin/../lib/gcc/arm-none-eabi/4.5.2/../../../../arm-none-eabi/include/c++/4.5.2/bits/stl_deque.h ****     {
 609:/opt/toolchains/arm-none-eabi/bin/../lib/gcc/arm-none-eabi/4.5.2/../../../../arm-none-eabi/include/c++/4.5.2/bits/stl_deque.h ****       _Tp** __cur;
 610:/opt/toolchains/arm-none-eabi/bin/../lib/gcc/arm-none-eabi/4.5.2/../../../../arm-none-eabi/include/c++/4.5.2/bits/stl_deque.h ****       __try
 611:/opt/toolchains/arm-none-eabi/bin/../lib/gcc/arm-none-eabi/4.5.2/../../../../arm-none-eabi/include/c++/4.5.2/bits/stl_deque.h **** 	{
 612:/opt/toolchains/arm-none-eabi/bin/../lib/gcc/arm-none-eabi/4.5.2/../../../../arm-none-eabi/include/c++/4.5.2/bits/stl_deque.h **** 	  for (__cur = __nstart; __cur < __nfinish; ++__cur)
 613:/opt/toolchains/arm-none-eabi/bin/../lib/gcc/arm-none-eabi/4.5.2/../../../../arm-none-eabi/include/c++/4.5.2/bits/stl_deque.h **** 	    *__cur = this->_M_allocate_node();
 614:/opt/toolchains/arm-none-eabi/bin/../lib/gcc/arm-none-eabi/4.5.2/../../../../arm-none-eabi/include/c++/4.5.2/bits/stl_deque.h **** 	}
 615:/opt/toolchains/arm-none-eabi/bin/../lib/gcc/arm-none-eabi/4.5.2/../../../../arm-none-eabi/include/c++/4.5.2/bits/stl_deque.h ****       __catch(...)
 616:/opt/toolchains/arm-none-eabi/bin/../lib/gcc/arm-none-eabi/4.5.2/../../../../arm-none-eabi/include/c++/4.5.2/bits/stl_deque.h **** 	{
 617:/opt/toolchains/arm-none-eabi/bin/../lib/gcc/arm-none-eabi/4.5.2/../../../../arm-none-eabi/include/c++/4.5.2/bits/stl_deque.h **** 	  _M_destroy_nodes(__nstart, __cur);
 618:/opt/toolchains/arm-none-eabi/bin/../lib/gcc/arm-none-eabi/4.5.2/../../../../arm-none-eabi/include/c++/4.5.2/bits/stl_deque.h **** 	  __throw_exception_again;
 619:/opt/toolchains/arm-none-eabi/bin/../lib/gcc/arm-none-eabi/4.5.2/../../../../arm-none-eabi/include/c++/4.5.2/bits/stl_deque.h **** 	}
 620:/opt/toolchains/arm-none-eabi/bin/../lib/gcc/arm-none-eabi/4.5.2/../../../../arm-none-eabi/include/c++/4.5.2/bits/stl_deque.h ****     }
 621:/opt/toolchains/arm-none-eabi/bin/../lib/gcc/arm-none-eabi/4.5.2/../../../../arm-none-eabi/include/c++/4.5.2/bits/stl_deque.h **** 
 622:/opt/toolchains/arm-none-eabi/bin/../lib/gcc/arm-none-eabi/4.5.2/../../../../arm-none-eabi/include/c++/4.5.2/bits/stl_deque.h ****   template<typename _Tp, typename _Alloc>
 623:/opt/toolchains/arm-none-eabi/bin/../lib/gcc/arm-none-eabi/4.5.2/../../../../arm-none-eabi/include/c++/4.5.2/bits/stl_deque.h ****     void
 624:/opt/toolchains/arm-none-eabi/bin/../lib/gcc/arm-none-eabi/4.5.2/../../../../arm-none-eabi/include/c++/4.5.2/bits/stl_deque.h ****     _Deque_base<_Tp, _Alloc>::
 625:/opt/toolchains/arm-none-eabi/bin/../lib/gcc/arm-none-eabi/4.5.2/../../../../arm-none-eabi/include/c++/4.5.2/bits/stl_deque.h ****     _M_destroy_nodes(_Tp** __nstart, _Tp** __nfinish)
 626:/opt/toolchains/arm-none-eabi/bin/../lib/gcc/arm-none-eabi/4.5.2/../../../../arm-none-eabi/include/c++/4.5.2/bits/stl_deque.h ****     {
 627:/opt/toolchains/arm-none-eabi/bin/../lib/gcc/arm-none-eabi/4.5.2/../../../../arm-none-eabi/include/c++/4.5.2/bits/stl_deque.h ****       for (_Tp** __n = __nstart; __n < __nfinish; ++__n)
 628:/opt/toolchains/arm-none-eabi/bin/../lib/gcc/arm-none-eabi/4.5.2/../../../../arm-none-eabi/include/c++/4.5.2/bits/stl_deque.h **** 	_M_deallocate_node(*__n);
 629:/opt/toolchains/arm-none-eabi/bin/../lib/gcc/arm-none-eabi/4.5.2/../../../../arm-none-eabi/include/c++/4.5.2/bits/stl_deque.h ****     }
 630:/opt/toolchains/arm-none-eabi/bin/../lib/gcc/arm-none-eabi/4.5.2/../../../../arm-none-eabi/include/c++/4.5.2/bits/stl_deque.h **** 
 631:/opt/toolchains/arm-none-eabi/bin/../lib/gcc/arm-none-eabi/4.5.2/../../../../arm-none-eabi/include/c++/4.5.2/bits/stl_deque.h ****   /**
 632:/opt/toolchains/arm-none-eabi/bin/../lib/gcc/arm-none-eabi/4.5.2/../../../../arm-none-eabi/include/c++/4.5.2/bits/stl_deque.h ****    *  @brief  A standard container using fixed-size memory allocation and
 633:/opt/toolchains/arm-none-eabi/bin/../lib/gcc/arm-none-eabi/4.5.2/../../../../arm-none-eabi/include/c++/4.5.2/bits/stl_deque.h ****    *  constant-time manipulation of elements at either end.
 634:/opt/toolchains/arm-none-eabi/bin/../lib/gcc/arm-none-eabi/4.5.2/../../../../arm-none-eabi/include/c++/4.5.2/bits/stl_deque.h ****    *
 635:/opt/toolchains/arm-none-eabi/bin/../lib/gcc/arm-none-eabi/4.5.2/../../../../arm-none-eabi/include/c++/4.5.2/bits/stl_deque.h ****    *  @ingroup sequences
 636:/opt/toolchains/arm-none-eabi/bin/../lib/gcc/arm-none-eabi/4.5.2/../../../../arm-none-eabi/include/c++/4.5.2/bits/stl_deque.h ****    *
 637:/opt/toolchains/arm-none-eabi/bin/../lib/gcc/arm-none-eabi/4.5.2/../../../../arm-none-eabi/include/c++/4.5.2/bits/stl_deque.h ****    *  Meets the requirements of a <a href="tables.html#65">container</a>, a
 638:/opt/toolchains/arm-none-eabi/bin/../lib/gcc/arm-none-eabi/4.5.2/../../../../arm-none-eabi/include/c++/4.5.2/bits/stl_deque.h ****    *  <a href="tables.html#66">reversible container</a>, and a
 639:/opt/toolchains/arm-none-eabi/bin/../lib/gcc/arm-none-eabi/4.5.2/../../../../arm-none-eabi/include/c++/4.5.2/bits/stl_deque.h ****    *  <a href="tables.html#67">sequence</a>, including the
 640:/opt/toolchains/arm-none-eabi/bin/../lib/gcc/arm-none-eabi/4.5.2/../../../../arm-none-eabi/include/c++/4.5.2/bits/stl_deque.h ****    *  <a href="tables.html#68">optional sequence requirements</a>.
 641:/opt/toolchains/arm-none-eabi/bin/../lib/gcc/arm-none-eabi/4.5.2/../../../../arm-none-eabi/include/c++/4.5.2/bits/stl_deque.h ****    *
 642:/opt/toolchains/arm-none-eabi/bin/../lib/gcc/arm-none-eabi/4.5.2/../../../../arm-none-eabi/include/c++/4.5.2/bits/stl_deque.h ****    *  In previous HP/SGI versions of deque, there was an extra template
 643:/opt/toolchains/arm-none-eabi/bin/../lib/gcc/arm-none-eabi/4.5.2/../../../../arm-none-eabi/include/c++/4.5.2/bits/stl_deque.h ****    *  parameter so users could control the node size.  This extension turned
 644:/opt/toolchains/arm-none-eabi/bin/../lib/gcc/arm-none-eabi/4.5.2/../../../../arm-none-eabi/include/c++/4.5.2/bits/stl_deque.h ****    *  out to violate the C++ standard (it can be detected using template
 645:/opt/toolchains/arm-none-eabi/bin/../lib/gcc/arm-none-eabi/4.5.2/../../../../arm-none-eabi/include/c++/4.5.2/bits/stl_deque.h ****    *  template parameters), and it was removed.
 646:/opt/toolchains/arm-none-eabi/bin/../lib/gcc/arm-none-eabi/4.5.2/../../../../arm-none-eabi/include/c++/4.5.2/bits/stl_deque.h ****    *
 647:/opt/toolchains/arm-none-eabi/bin/../lib/gcc/arm-none-eabi/4.5.2/../../../../arm-none-eabi/include/c++/4.5.2/bits/stl_deque.h ****    *  Here's how a deque<Tp> manages memory.  Each deque has 4 members:
 648:/opt/toolchains/arm-none-eabi/bin/../lib/gcc/arm-none-eabi/4.5.2/../../../../arm-none-eabi/include/c++/4.5.2/bits/stl_deque.h ****    *
 649:/opt/toolchains/arm-none-eabi/bin/../lib/gcc/arm-none-eabi/4.5.2/../../../../arm-none-eabi/include/c++/4.5.2/bits/stl_deque.h ****    *  - Tp**        _M_map
 650:/opt/toolchains/arm-none-eabi/bin/../lib/gcc/arm-none-eabi/4.5.2/../../../../arm-none-eabi/include/c++/4.5.2/bits/stl_deque.h ****    *  - size_t      _M_map_size
 651:/opt/toolchains/arm-none-eabi/bin/../lib/gcc/arm-none-eabi/4.5.2/../../../../arm-none-eabi/include/c++/4.5.2/bits/stl_deque.h ****    *  - iterator    _M_start, _M_finish
 652:/opt/toolchains/arm-none-eabi/bin/../lib/gcc/arm-none-eabi/4.5.2/../../../../arm-none-eabi/include/c++/4.5.2/bits/stl_deque.h ****    *
 653:/opt/toolchains/arm-none-eabi/bin/../lib/gcc/arm-none-eabi/4.5.2/../../../../arm-none-eabi/include/c++/4.5.2/bits/stl_deque.h ****    *  map_size is at least 8.  %map is an array of map_size
 654:/opt/toolchains/arm-none-eabi/bin/../lib/gcc/arm-none-eabi/4.5.2/../../../../arm-none-eabi/include/c++/4.5.2/bits/stl_deque.h ****    *  pointers-to-@anodes.  (The name %map has nothing to do with the
 655:/opt/toolchains/arm-none-eabi/bin/../lib/gcc/arm-none-eabi/4.5.2/../../../../arm-none-eabi/include/c++/4.5.2/bits/stl_deque.h ****    *  std::map class, and @b nodes should not be confused with
 656:/opt/toolchains/arm-none-eabi/bin/../lib/gcc/arm-none-eabi/4.5.2/../../../../arm-none-eabi/include/c++/4.5.2/bits/stl_deque.h ****    *  std::list's usage of @a node.)
 657:/opt/toolchains/arm-none-eabi/bin/../lib/gcc/arm-none-eabi/4.5.2/../../../../arm-none-eabi/include/c++/4.5.2/bits/stl_deque.h ****    *
 658:/opt/toolchains/arm-none-eabi/bin/../lib/gcc/arm-none-eabi/4.5.2/../../../../arm-none-eabi/include/c++/4.5.2/bits/stl_deque.h ****    *  A @a node has no specific type name as such, but it is referred
 659:/opt/toolchains/arm-none-eabi/bin/../lib/gcc/arm-none-eabi/4.5.2/../../../../arm-none-eabi/include/c++/4.5.2/bits/stl_deque.h ****    *  to as @a node in this file.  It is a simple array-of-Tp.  If Tp
 660:/opt/toolchains/arm-none-eabi/bin/../lib/gcc/arm-none-eabi/4.5.2/../../../../arm-none-eabi/include/c++/4.5.2/bits/stl_deque.h ****    *  is very large, there will be one Tp element per node (i.e., an
 661:/opt/toolchains/arm-none-eabi/bin/../lib/gcc/arm-none-eabi/4.5.2/../../../../arm-none-eabi/include/c++/4.5.2/bits/stl_deque.h ****    *  @a array of one).  For non-huge Tp's, node size is inversely
 662:/opt/toolchains/arm-none-eabi/bin/../lib/gcc/arm-none-eabi/4.5.2/../../../../arm-none-eabi/include/c++/4.5.2/bits/stl_deque.h ****    *  related to Tp size: the larger the Tp, the fewer Tp's will fit
 663:/opt/toolchains/arm-none-eabi/bin/../lib/gcc/arm-none-eabi/4.5.2/../../../../arm-none-eabi/include/c++/4.5.2/bits/stl_deque.h ****    *  in a node.  The goal here is to keep the total size of a node
 664:/opt/toolchains/arm-none-eabi/bin/../lib/gcc/arm-none-eabi/4.5.2/../../../../arm-none-eabi/include/c++/4.5.2/bits/stl_deque.h ****    *  relatively small and constant over different Tp's, to improve
 665:/opt/toolchains/arm-none-eabi/bin/../lib/gcc/arm-none-eabi/4.5.2/../../../../arm-none-eabi/include/c++/4.5.2/bits/stl_deque.h ****    *  allocator efficiency.
 666:/opt/toolchains/arm-none-eabi/bin/../lib/gcc/arm-none-eabi/4.5.2/../../../../arm-none-eabi/include/c++/4.5.2/bits/stl_deque.h ****    *
 667:/opt/toolchains/arm-none-eabi/bin/../lib/gcc/arm-none-eabi/4.5.2/../../../../arm-none-eabi/include/c++/4.5.2/bits/stl_deque.h ****    *  Not every pointer in the %map array will point to a node.  If
 668:/opt/toolchains/arm-none-eabi/bin/../lib/gcc/arm-none-eabi/4.5.2/../../../../arm-none-eabi/include/c++/4.5.2/bits/stl_deque.h ****    *  the initial number of elements in the deque is small, the
 669:/opt/toolchains/arm-none-eabi/bin/../lib/gcc/arm-none-eabi/4.5.2/../../../../arm-none-eabi/include/c++/4.5.2/bits/stl_deque.h ****    *  /middle/ %map pointers will be valid, and the ones at the edges
 670:/opt/toolchains/arm-none-eabi/bin/../lib/gcc/arm-none-eabi/4.5.2/../../../../arm-none-eabi/include/c++/4.5.2/bits/stl_deque.h ****    *  will be unused.  This same situation will arise as the %map
 671:/opt/toolchains/arm-none-eabi/bin/../lib/gcc/arm-none-eabi/4.5.2/../../../../arm-none-eabi/include/c++/4.5.2/bits/stl_deque.h ****    *  grows: available %map pointers, if any, will be on the ends.  As
 672:/opt/toolchains/arm-none-eabi/bin/../lib/gcc/arm-none-eabi/4.5.2/../../../../arm-none-eabi/include/c++/4.5.2/bits/stl_deque.h ****    *  new nodes are created, only a subset of the %map's pointers need
 673:/opt/toolchains/arm-none-eabi/bin/../lib/gcc/arm-none-eabi/4.5.2/../../../../arm-none-eabi/include/c++/4.5.2/bits/stl_deque.h ****    *  to be copied @a outward.
 674:/opt/toolchains/arm-none-eabi/bin/../lib/gcc/arm-none-eabi/4.5.2/../../../../arm-none-eabi/include/c++/4.5.2/bits/stl_deque.h ****    *
 675:/opt/toolchains/arm-none-eabi/bin/../lib/gcc/arm-none-eabi/4.5.2/../../../../arm-none-eabi/include/c++/4.5.2/bits/stl_deque.h ****    *  Class invariants:
 676:/opt/toolchains/arm-none-eabi/bin/../lib/gcc/arm-none-eabi/4.5.2/../../../../arm-none-eabi/include/c++/4.5.2/bits/stl_deque.h ****    * - For any nonsingular iterator i:
 677:/opt/toolchains/arm-none-eabi/bin/../lib/gcc/arm-none-eabi/4.5.2/../../../../arm-none-eabi/include/c++/4.5.2/bits/stl_deque.h ****    *    - i.node points to a member of the %map array.  (Yes, you read that
 678:/opt/toolchains/arm-none-eabi/bin/../lib/gcc/arm-none-eabi/4.5.2/../../../../arm-none-eabi/include/c++/4.5.2/bits/stl_deque.h ****    *      correctly:  i.node does not actually point to a node.)  The member of
 679:/opt/toolchains/arm-none-eabi/bin/../lib/gcc/arm-none-eabi/4.5.2/../../../../arm-none-eabi/include/c++/4.5.2/bits/stl_deque.h ****    *      the %map array is what actually points to the node.
 680:/opt/toolchains/arm-none-eabi/bin/../lib/gcc/arm-none-eabi/4.5.2/../../../../arm-none-eabi/include/c++/4.5.2/bits/stl_deque.h ****    *    - i.first == *(i.node)    (This points to the node (first Tp element).)
 681:/opt/toolchains/arm-none-eabi/bin/../lib/gcc/arm-none-eabi/4.5.2/../../../../arm-none-eabi/include/c++/4.5.2/bits/stl_deque.h ****    *    - i.last  == i.first + node_size
 682:/opt/toolchains/arm-none-eabi/bin/../lib/gcc/arm-none-eabi/4.5.2/../../../../arm-none-eabi/include/c++/4.5.2/bits/stl_deque.h ****    *    - i.cur is a pointer in the range [i.first, i.last).  NOTE:
 683:/opt/toolchains/arm-none-eabi/bin/../lib/gcc/arm-none-eabi/4.5.2/../../../../arm-none-eabi/include/c++/4.5.2/bits/stl_deque.h ****    *      the implication of this is that i.cur is always a dereferenceable
 684:/opt/toolchains/arm-none-eabi/bin/../lib/gcc/arm-none-eabi/4.5.2/../../../../arm-none-eabi/include/c++/4.5.2/bits/stl_deque.h ****    *      pointer, even if i is a past-the-end iterator.
 685:/opt/toolchains/arm-none-eabi/bin/../lib/gcc/arm-none-eabi/4.5.2/../../../../arm-none-eabi/include/c++/4.5.2/bits/stl_deque.h ****    * - Start and Finish are always nonsingular iterators.  NOTE: this
 686:/opt/toolchains/arm-none-eabi/bin/../lib/gcc/arm-none-eabi/4.5.2/../../../../arm-none-eabi/include/c++/4.5.2/bits/stl_deque.h ****    * means that an empty deque must have one node, a deque with <N
 687:/opt/toolchains/arm-none-eabi/bin/../lib/gcc/arm-none-eabi/4.5.2/../../../../arm-none-eabi/include/c++/4.5.2/bits/stl_deque.h ****    * elements (where N is the node buffer size) must have one node, a
 688:/opt/toolchains/arm-none-eabi/bin/../lib/gcc/arm-none-eabi/4.5.2/../../../../arm-none-eabi/include/c++/4.5.2/bits/stl_deque.h ****    * deque with N through (2N-1) elements must have two nodes, etc.
 689:/opt/toolchains/arm-none-eabi/bin/../lib/gcc/arm-none-eabi/4.5.2/../../../../arm-none-eabi/include/c++/4.5.2/bits/stl_deque.h ****    * - For every node other than start.node and finish.node, every
 690:/opt/toolchains/arm-none-eabi/bin/../lib/gcc/arm-none-eabi/4.5.2/../../../../arm-none-eabi/include/c++/4.5.2/bits/stl_deque.h ****    * element in the node is an initialized object.  If start.node ==
 691:/opt/toolchains/arm-none-eabi/bin/../lib/gcc/arm-none-eabi/4.5.2/../../../../arm-none-eabi/include/c++/4.5.2/bits/stl_deque.h ****    * finish.node, then [start.cur, finish.cur) are initialized
 692:/opt/toolchains/arm-none-eabi/bin/../lib/gcc/arm-none-eabi/4.5.2/../../../../arm-none-eabi/include/c++/4.5.2/bits/stl_deque.h ****    * objects, and the elements outside that range are uninitialized
 693:/opt/toolchains/arm-none-eabi/bin/../lib/gcc/arm-none-eabi/4.5.2/../../../../arm-none-eabi/include/c++/4.5.2/bits/stl_deque.h ****    * storage.  Otherwise, [start.cur, start.last) and [finish.first,
 694:/opt/toolchains/arm-none-eabi/bin/../lib/gcc/arm-none-eabi/4.5.2/../../../../arm-none-eabi/include/c++/4.5.2/bits/stl_deque.h ****    * finish.cur) are initialized objects, and [start.first, start.cur)
 695:/opt/toolchains/arm-none-eabi/bin/../lib/gcc/arm-none-eabi/4.5.2/../../../../arm-none-eabi/include/c++/4.5.2/bits/stl_deque.h ****    * and [finish.cur, finish.last) are uninitialized storage.
 696:/opt/toolchains/arm-none-eabi/bin/../lib/gcc/arm-none-eabi/4.5.2/../../../../arm-none-eabi/include/c++/4.5.2/bits/stl_deque.h ****    * - [%map, %map + map_size) is a valid, non-empty range.
 697:/opt/toolchains/arm-none-eabi/bin/../lib/gcc/arm-none-eabi/4.5.2/../../../../arm-none-eabi/include/c++/4.5.2/bits/stl_deque.h ****    * - [start.node, finish.node] is a valid range contained within
 698:/opt/toolchains/arm-none-eabi/bin/../lib/gcc/arm-none-eabi/4.5.2/../../../../arm-none-eabi/include/c++/4.5.2/bits/stl_deque.h ****    *   [%map, %map + map_size).
 699:/opt/toolchains/arm-none-eabi/bin/../lib/gcc/arm-none-eabi/4.5.2/../../../../arm-none-eabi/include/c++/4.5.2/bits/stl_deque.h ****    * - A pointer in the range [%map, %map + map_size) points to an allocated
 700:/opt/toolchains/arm-none-eabi/bin/../lib/gcc/arm-none-eabi/4.5.2/../../../../arm-none-eabi/include/c++/4.5.2/bits/stl_deque.h ****    *   node if and only if the pointer is in the range
 701:/opt/toolchains/arm-none-eabi/bin/../lib/gcc/arm-none-eabi/4.5.2/../../../../arm-none-eabi/include/c++/4.5.2/bits/stl_deque.h ****    *   [start.node, finish.node].
 702:/opt/toolchains/arm-none-eabi/bin/../lib/gcc/arm-none-eabi/4.5.2/../../../../arm-none-eabi/include/c++/4.5.2/bits/stl_deque.h ****    *
 703:/opt/toolchains/arm-none-eabi/bin/../lib/gcc/arm-none-eabi/4.5.2/../../../../arm-none-eabi/include/c++/4.5.2/bits/stl_deque.h ****    *  Here's the magic:  nothing in deque is @b aware of the discontiguous
 704:/opt/toolchains/arm-none-eabi/bin/../lib/gcc/arm-none-eabi/4.5.2/../../../../arm-none-eabi/include/c++/4.5.2/bits/stl_deque.h ****    *  storage!
 705:/opt/toolchains/arm-none-eabi/bin/../lib/gcc/arm-none-eabi/4.5.2/../../../../arm-none-eabi/include/c++/4.5.2/bits/stl_deque.h ****    *
 706:/opt/toolchains/arm-none-eabi/bin/../lib/gcc/arm-none-eabi/4.5.2/../../../../arm-none-eabi/include/c++/4.5.2/bits/stl_deque.h ****    *  The memory setup and layout occurs in the parent, _Base, and the iterator
 707:/opt/toolchains/arm-none-eabi/bin/../lib/gcc/arm-none-eabi/4.5.2/../../../../arm-none-eabi/include/c++/4.5.2/bits/stl_deque.h ****    *  class is entirely responsible for @a leaping from one node to the next.
 708:/opt/toolchains/arm-none-eabi/bin/../lib/gcc/arm-none-eabi/4.5.2/../../../../arm-none-eabi/include/c++/4.5.2/bits/stl_deque.h ****    *  All the implementation routines for deque itself work only through the
 709:/opt/toolchains/arm-none-eabi/bin/../lib/gcc/arm-none-eabi/4.5.2/../../../../arm-none-eabi/include/c++/4.5.2/bits/stl_deque.h ****    *  start and finish iterators.  This keeps the routines simple and sane,
 710:/opt/toolchains/arm-none-eabi/bin/../lib/gcc/arm-none-eabi/4.5.2/../../../../arm-none-eabi/include/c++/4.5.2/bits/stl_deque.h ****    *  and we can use other standard algorithms as well.
 711:/opt/toolchains/arm-none-eabi/bin/../lib/gcc/arm-none-eabi/4.5.2/../../../../arm-none-eabi/include/c++/4.5.2/bits/stl_deque.h ****   */
 712:/opt/toolchains/arm-none-eabi/bin/../lib/gcc/arm-none-eabi/4.5.2/../../../../arm-none-eabi/include/c++/4.5.2/bits/stl_deque.h ****   template<typename _Tp, typename _Alloc = std::allocator<_Tp> >
 713:/opt/toolchains/arm-none-eabi/bin/../lib/gcc/arm-none-eabi/4.5.2/../../../../arm-none-eabi/include/c++/4.5.2/bits/stl_deque.h ****     class deque : protected _Deque_base<_Tp, _Alloc>
 714:/opt/toolchains/arm-none-eabi/bin/../lib/gcc/arm-none-eabi/4.5.2/../../../../arm-none-eabi/include/c++/4.5.2/bits/stl_deque.h ****     {
 715:/opt/toolchains/arm-none-eabi/bin/../lib/gcc/arm-none-eabi/4.5.2/../../../../arm-none-eabi/include/c++/4.5.2/bits/stl_deque.h ****       // concept requirements
 716:/opt/toolchains/arm-none-eabi/bin/../lib/gcc/arm-none-eabi/4.5.2/../../../../arm-none-eabi/include/c++/4.5.2/bits/stl_deque.h ****       typedef typename _Alloc::value_type        _Alloc_value_type;
 717:/opt/toolchains/arm-none-eabi/bin/../lib/gcc/arm-none-eabi/4.5.2/../../../../arm-none-eabi/include/c++/4.5.2/bits/stl_deque.h ****       __glibcxx_class_requires(_Tp, _SGIAssignableConcept)
 718:/opt/toolchains/arm-none-eabi/bin/../lib/gcc/arm-none-eabi/4.5.2/../../../../arm-none-eabi/include/c++/4.5.2/bits/stl_deque.h ****       __glibcxx_class_requires2(_Tp, _Alloc_value_type, _SameTypeConcept)
 719:/opt/toolchains/arm-none-eabi/bin/../lib/gcc/arm-none-eabi/4.5.2/../../../../arm-none-eabi/include/c++/4.5.2/bits/stl_deque.h **** 
 720:/opt/toolchains/arm-none-eabi/bin/../lib/gcc/arm-none-eabi/4.5.2/../../../../arm-none-eabi/include/c++/4.5.2/bits/stl_deque.h ****       typedef _Deque_base<_Tp, _Alloc>           _Base;
 721:/opt/toolchains/arm-none-eabi/bin/../lib/gcc/arm-none-eabi/4.5.2/../../../../arm-none-eabi/include/c++/4.5.2/bits/stl_deque.h ****       typedef typename _Base::_Tp_alloc_type	 _Tp_alloc_type;
 722:/opt/toolchains/arm-none-eabi/bin/../lib/gcc/arm-none-eabi/4.5.2/../../../../arm-none-eabi/include/c++/4.5.2/bits/stl_deque.h **** 
 723:/opt/toolchains/arm-none-eabi/bin/../lib/gcc/arm-none-eabi/4.5.2/../../../../arm-none-eabi/include/c++/4.5.2/bits/stl_deque.h ****     public:
 724:/opt/toolchains/arm-none-eabi/bin/../lib/gcc/arm-none-eabi/4.5.2/../../../../arm-none-eabi/include/c++/4.5.2/bits/stl_deque.h ****       typedef _Tp                                        value_type;
 725:/opt/toolchains/arm-none-eabi/bin/../lib/gcc/arm-none-eabi/4.5.2/../../../../arm-none-eabi/include/c++/4.5.2/bits/stl_deque.h ****       typedef typename _Tp_alloc_type::pointer           pointer;
 726:/opt/toolchains/arm-none-eabi/bin/../lib/gcc/arm-none-eabi/4.5.2/../../../../arm-none-eabi/include/c++/4.5.2/bits/stl_deque.h ****       typedef typename _Tp_alloc_type::const_pointer     const_pointer;
 727:/opt/toolchains/arm-none-eabi/bin/../lib/gcc/arm-none-eabi/4.5.2/../../../../arm-none-eabi/include/c++/4.5.2/bits/stl_deque.h ****       typedef typename _Tp_alloc_type::reference         reference;
 728:/opt/toolchains/arm-none-eabi/bin/../lib/gcc/arm-none-eabi/4.5.2/../../../../arm-none-eabi/include/c++/4.5.2/bits/stl_deque.h ****       typedef typename _Tp_alloc_type::const_reference   const_reference;
 729:/opt/toolchains/arm-none-eabi/bin/../lib/gcc/arm-none-eabi/4.5.2/../../../../arm-none-eabi/include/c++/4.5.2/bits/stl_deque.h ****       typedef typename _Base::iterator                   iterator;
 730:/opt/toolchains/arm-none-eabi/bin/../lib/gcc/arm-none-eabi/4.5.2/../../../../arm-none-eabi/include/c++/4.5.2/bits/stl_deque.h ****       typedef typename _Base::const_iterator             const_iterator;
 731:/opt/toolchains/arm-none-eabi/bin/../lib/gcc/arm-none-eabi/4.5.2/../../../../arm-none-eabi/include/c++/4.5.2/bits/stl_deque.h ****       typedef std::reverse_iterator<const_iterator>      const_reverse_iterator;
 732:/opt/toolchains/arm-none-eabi/bin/../lib/gcc/arm-none-eabi/4.5.2/../../../../arm-none-eabi/include/c++/4.5.2/bits/stl_deque.h ****       typedef std::reverse_iterator<iterator>            reverse_iterator;
 733:/opt/toolchains/arm-none-eabi/bin/../lib/gcc/arm-none-eabi/4.5.2/../../../../arm-none-eabi/include/c++/4.5.2/bits/stl_deque.h ****       typedef size_t                             size_type;
 734:/opt/toolchains/arm-none-eabi/bin/../lib/gcc/arm-none-eabi/4.5.2/../../../../arm-none-eabi/include/c++/4.5.2/bits/stl_deque.h ****       typedef ptrdiff_t                          difference_type;
 735:/opt/toolchains/arm-none-eabi/bin/../lib/gcc/arm-none-eabi/4.5.2/../../../../arm-none-eabi/include/c++/4.5.2/bits/stl_deque.h ****       typedef _Alloc                             allocator_type;
 736:/opt/toolchains/arm-none-eabi/bin/../lib/gcc/arm-none-eabi/4.5.2/../../../../arm-none-eabi/include/c++/4.5.2/bits/stl_deque.h **** 
 737:/opt/toolchains/arm-none-eabi/bin/../lib/gcc/arm-none-eabi/4.5.2/../../../../arm-none-eabi/include/c++/4.5.2/bits/stl_deque.h ****     protected:
 738:/opt/toolchains/arm-none-eabi/bin/../lib/gcc/arm-none-eabi/4.5.2/../../../../arm-none-eabi/include/c++/4.5.2/bits/stl_deque.h ****       typedef pointer*                           _Map_pointer;
 739:/opt/toolchains/arm-none-eabi/bin/../lib/gcc/arm-none-eabi/4.5.2/../../../../arm-none-eabi/include/c++/4.5.2/bits/stl_deque.h **** 
 740:/opt/toolchains/arm-none-eabi/bin/../lib/gcc/arm-none-eabi/4.5.2/../../../../arm-none-eabi/include/c++/4.5.2/bits/stl_deque.h ****       static size_t _S_buffer_size()
 741:/opt/toolchains/arm-none-eabi/bin/../lib/gcc/arm-none-eabi/4.5.2/../../../../arm-none-eabi/include/c++/4.5.2/bits/stl_deque.h ****       { return __deque_buf_size(sizeof(_Tp)); }
 742:/opt/toolchains/arm-none-eabi/bin/../lib/gcc/arm-none-eabi/4.5.2/../../../../arm-none-eabi/include/c++/4.5.2/bits/stl_deque.h **** 
 743:/opt/toolchains/arm-none-eabi/bin/../lib/gcc/arm-none-eabi/4.5.2/../../../../arm-none-eabi/include/c++/4.5.2/bits/stl_deque.h ****       // Functions controlling memory layout, and nothing else.
 744:/opt/toolchains/arm-none-eabi/bin/../lib/gcc/arm-none-eabi/4.5.2/../../../../arm-none-eabi/include/c++/4.5.2/bits/stl_deque.h ****       using _Base::_M_initialize_map;
 745:/opt/toolchains/arm-none-eabi/bin/../lib/gcc/arm-none-eabi/4.5.2/../../../../arm-none-eabi/include/c++/4.5.2/bits/stl_deque.h ****       using _Base::_M_create_nodes;
 746:/opt/toolchains/arm-none-eabi/bin/../lib/gcc/arm-none-eabi/4.5.2/../../../../arm-none-eabi/include/c++/4.5.2/bits/stl_deque.h ****       using _Base::_M_destroy_nodes;
 747:/opt/toolchains/arm-none-eabi/bin/../lib/gcc/arm-none-eabi/4.5.2/../../../../arm-none-eabi/include/c++/4.5.2/bits/stl_deque.h ****       using _Base::_M_allocate_node;
 748:/opt/toolchains/arm-none-eabi/bin/../lib/gcc/arm-none-eabi/4.5.2/../../../../arm-none-eabi/include/c++/4.5.2/bits/stl_deque.h ****       using _Base::_M_deallocate_node;
 749:/opt/toolchains/arm-none-eabi/bin/../lib/gcc/arm-none-eabi/4.5.2/../../../../arm-none-eabi/include/c++/4.5.2/bits/stl_deque.h ****       using _Base::_M_allocate_map;
 750:/opt/toolchains/arm-none-eabi/bin/../lib/gcc/arm-none-eabi/4.5.2/../../../../arm-none-eabi/include/c++/4.5.2/bits/stl_deque.h ****       using _Base::_M_deallocate_map;
 751:/opt/toolchains/arm-none-eabi/bin/../lib/gcc/arm-none-eabi/4.5.2/../../../../arm-none-eabi/include/c++/4.5.2/bits/stl_deque.h ****       using _Base::_M_get_Tp_allocator;
 752:/opt/toolchains/arm-none-eabi/bin/../lib/gcc/arm-none-eabi/4.5.2/../../../../arm-none-eabi/include/c++/4.5.2/bits/stl_deque.h **** 
 753:/opt/toolchains/arm-none-eabi/bin/../lib/gcc/arm-none-eabi/4.5.2/../../../../arm-none-eabi/include/c++/4.5.2/bits/stl_deque.h ****       /** 
 754:/opt/toolchains/arm-none-eabi/bin/../lib/gcc/arm-none-eabi/4.5.2/../../../../arm-none-eabi/include/c++/4.5.2/bits/stl_deque.h ****        *  A total of four data members accumulated down the hierarchy.
 755:/opt/toolchains/arm-none-eabi/bin/../lib/gcc/arm-none-eabi/4.5.2/../../../../arm-none-eabi/include/c++/4.5.2/bits/stl_deque.h ****        *  May be accessed via _M_impl.*
 756:/opt/toolchains/arm-none-eabi/bin/../lib/gcc/arm-none-eabi/4.5.2/../../../../arm-none-eabi/include/c++/4.5.2/bits/stl_deque.h ****        */
 757:/opt/toolchains/arm-none-eabi/bin/../lib/gcc/arm-none-eabi/4.5.2/../../../../arm-none-eabi/include/c++/4.5.2/bits/stl_deque.h ****       using _Base::_M_impl;
 758:/opt/toolchains/arm-none-eabi/bin/../lib/gcc/arm-none-eabi/4.5.2/../../../../arm-none-eabi/include/c++/4.5.2/bits/stl_deque.h **** 
 759:/opt/toolchains/arm-none-eabi/bin/../lib/gcc/arm-none-eabi/4.5.2/../../../../arm-none-eabi/include/c++/4.5.2/bits/stl_deque.h ****     public:
 760:/opt/toolchains/arm-none-eabi/bin/../lib/gcc/arm-none-eabi/4.5.2/../../../../arm-none-eabi/include/c++/4.5.2/bits/stl_deque.h ****       // [23.2.1.1] construct/copy/destroy
 761:/opt/toolchains/arm-none-eabi/bin/../lib/gcc/arm-none-eabi/4.5.2/../../../../arm-none-eabi/include/c++/4.5.2/bits/stl_deque.h ****       // (assign() and get_allocator() are also listed in this section)
 762:/opt/toolchains/arm-none-eabi/bin/../lib/gcc/arm-none-eabi/4.5.2/../../../../arm-none-eabi/include/c++/4.5.2/bits/stl_deque.h ****       /**
 763:/opt/toolchains/arm-none-eabi/bin/../lib/gcc/arm-none-eabi/4.5.2/../../../../arm-none-eabi/include/c++/4.5.2/bits/stl_deque.h ****        *  @brief  Default constructor creates no elements.
 764:/opt/toolchains/arm-none-eabi/bin/../lib/gcc/arm-none-eabi/4.5.2/../../../../arm-none-eabi/include/c++/4.5.2/bits/stl_deque.h ****        */
 765:/opt/toolchains/arm-none-eabi/bin/../lib/gcc/arm-none-eabi/4.5.2/../../../../arm-none-eabi/include/c++/4.5.2/bits/stl_deque.h ****       deque()
 2828              		.loc 32 765 0
 2829              		.cfi_startproc
 2830              		@ args = 0, pretend = 0, frame = 8
 2831              		@ frame_needed = 1, uses_anonymous_args = 0
 2832 0000 80B5     		push	{r7, lr}
 2833              	.LCFI66:
 2834              		.cfi_def_cfa_offset 8
 2835 0002 82B0     		sub	sp, sp, #8
 2836              	.LCFI67:
 2837              		.cfi_def_cfa_offset 16
 2838 0004 00AF     		add	r7, sp, #0
 2839              		.cfi_offset 14, -4
 2840              		.cfi_offset 7, -8
 2841              	.LCFI68:
 2842              		.cfi_def_cfa_register 7
 2843 0006 7860     		str	r0, [r7, #4]
 2844              	.LBB11:
 766:/opt/toolchains/arm-none-eabi/bin/../lib/gcc/arm-none-eabi/4.5.2/../../../../arm-none-eabi/include/c++/4.5.2/bits/stl_deque.h ****       : _Base() { }
 2845              		.loc 32 766 0
 2846 0008 7B68     		ldr	r3, [r7, #4]
 2847 000a 1846     		mov	r0, r3
 2848 000c FFF7FEFF 		bl	_ZNSt11_Deque_baseIP8IXFEventSaIS1_EEC2Ev
 2849              	.LBE11:
 2850 0010 7B68     		ldr	r3, [r7, #4]
 2851 0012 1846     		mov	r0, r3
 2852 0014 07F10807 		add	r7, r7, #8
 2853 0018 BD46     		mov	sp, r7
 2854 001a 80BD     		pop	{r7, pc}
 2855              		.cfi_endproc
 2856              	.LFE849:
 2858              		.weak	_ZNSt5dequeIP8IXFEventSaIS1_EEC1Ev
 2859              		.thumb_set _ZNSt5dequeIP8IXFEventSaIS1_EEC1Ev,_ZNSt5dequeIP8IXFEventSaIS1_EEC2Ev
 2860              		.section	.text._ZNSt5dequeIP8IXFEventSaIS1_EED2Ev,"axG",%progbits,_ZNSt5dequeIP8IXFEventSaIS1_EED5
 2861              		.align	2
 2862              		.weak	_ZNSt5dequeIP8IXFEventSaIS1_EED2Ev
 2863              		.thumb
 2864              		.thumb_func
 2866              	_ZNSt5dequeIP8IXFEventSaIS1_EED2Ev:
 2867              	.LFB852:
 767:/opt/toolchains/arm-none-eabi/bin/../lib/gcc/arm-none-eabi/4.5.2/../../../../arm-none-eabi/include/c++/4.5.2/bits/stl_deque.h **** 
 768:/opt/toolchains/arm-none-eabi/bin/../lib/gcc/arm-none-eabi/4.5.2/../../../../arm-none-eabi/include/c++/4.5.2/bits/stl_deque.h ****       /**
 769:/opt/toolchains/arm-none-eabi/bin/../lib/gcc/arm-none-eabi/4.5.2/../../../../arm-none-eabi/include/c++/4.5.2/bits/stl_deque.h ****        *  @brief  Creates a %deque with no elements.
 770:/opt/toolchains/arm-none-eabi/bin/../lib/gcc/arm-none-eabi/4.5.2/../../../../arm-none-eabi/include/c++/4.5.2/bits/stl_deque.h ****        *  @param  a  An allocator object.
 771:/opt/toolchains/arm-none-eabi/bin/../lib/gcc/arm-none-eabi/4.5.2/../../../../arm-none-eabi/include/c++/4.5.2/bits/stl_deque.h ****        */
 772:/opt/toolchains/arm-none-eabi/bin/../lib/gcc/arm-none-eabi/4.5.2/../../../../arm-none-eabi/include/c++/4.5.2/bits/stl_deque.h ****       explicit
 773:/opt/toolchains/arm-none-eabi/bin/../lib/gcc/arm-none-eabi/4.5.2/../../../../arm-none-eabi/include/c++/4.5.2/bits/stl_deque.h ****       deque(const allocator_type& __a)
 774:/opt/toolchains/arm-none-eabi/bin/../lib/gcc/arm-none-eabi/4.5.2/../../../../arm-none-eabi/include/c++/4.5.2/bits/stl_deque.h ****       : _Base(__a, 0) { }
 775:/opt/toolchains/arm-none-eabi/bin/../lib/gcc/arm-none-eabi/4.5.2/../../../../arm-none-eabi/include/c++/4.5.2/bits/stl_deque.h **** 
 776:/opt/toolchains/arm-none-eabi/bin/../lib/gcc/arm-none-eabi/4.5.2/../../../../arm-none-eabi/include/c++/4.5.2/bits/stl_deque.h ****       /**
 777:/opt/toolchains/arm-none-eabi/bin/../lib/gcc/arm-none-eabi/4.5.2/../../../../arm-none-eabi/include/c++/4.5.2/bits/stl_deque.h ****        *  @brief  Creates a %deque with copies of an exemplar element.
 778:/opt/toolchains/arm-none-eabi/bin/../lib/gcc/arm-none-eabi/4.5.2/../../../../arm-none-eabi/include/c++/4.5.2/bits/stl_deque.h ****        *  @param  n  The number of elements to initially create.
 779:/opt/toolchains/arm-none-eabi/bin/../lib/gcc/arm-none-eabi/4.5.2/../../../../arm-none-eabi/include/c++/4.5.2/bits/stl_deque.h ****        *  @param  value  An element to copy.
 780:/opt/toolchains/arm-none-eabi/bin/../lib/gcc/arm-none-eabi/4.5.2/../../../../arm-none-eabi/include/c++/4.5.2/bits/stl_deque.h ****        *  @param  a  An allocator.
 781:/opt/toolchains/arm-none-eabi/bin/../lib/gcc/arm-none-eabi/4.5.2/../../../../arm-none-eabi/include/c++/4.5.2/bits/stl_deque.h ****        *
 782:/opt/toolchains/arm-none-eabi/bin/../lib/gcc/arm-none-eabi/4.5.2/../../../../arm-none-eabi/include/c++/4.5.2/bits/stl_deque.h ****        *  This constructor fills the %deque with @a n copies of @a value.
 783:/opt/toolchains/arm-none-eabi/bin/../lib/gcc/arm-none-eabi/4.5.2/../../../../arm-none-eabi/include/c++/4.5.2/bits/stl_deque.h ****        */
 784:/opt/toolchains/arm-none-eabi/bin/../lib/gcc/arm-none-eabi/4.5.2/../../../../arm-none-eabi/include/c++/4.5.2/bits/stl_deque.h ****       explicit
 785:/opt/toolchains/arm-none-eabi/bin/../lib/gcc/arm-none-eabi/4.5.2/../../../../arm-none-eabi/include/c++/4.5.2/bits/stl_deque.h ****       deque(size_type __n, const value_type& __value = value_type(),
 786:/opt/toolchains/arm-none-eabi/bin/../lib/gcc/arm-none-eabi/4.5.2/../../../../arm-none-eabi/include/c++/4.5.2/bits/stl_deque.h **** 	    const allocator_type& __a = allocator_type())
 787:/opt/toolchains/arm-none-eabi/bin/../lib/gcc/arm-none-eabi/4.5.2/../../../../arm-none-eabi/include/c++/4.5.2/bits/stl_deque.h ****       : _Base(__a, __n)
 788:/opt/toolchains/arm-none-eabi/bin/../lib/gcc/arm-none-eabi/4.5.2/../../../../arm-none-eabi/include/c++/4.5.2/bits/stl_deque.h ****       { _M_fill_initialize(__value); }
 789:/opt/toolchains/arm-none-eabi/bin/../lib/gcc/arm-none-eabi/4.5.2/../../../../arm-none-eabi/include/c++/4.5.2/bits/stl_deque.h **** 
 790:/opt/toolchains/arm-none-eabi/bin/../lib/gcc/arm-none-eabi/4.5.2/../../../../arm-none-eabi/include/c++/4.5.2/bits/stl_deque.h ****       /**
 791:/opt/toolchains/arm-none-eabi/bin/../lib/gcc/arm-none-eabi/4.5.2/../../../../arm-none-eabi/include/c++/4.5.2/bits/stl_deque.h ****        *  @brief  %Deque copy constructor.
 792:/opt/toolchains/arm-none-eabi/bin/../lib/gcc/arm-none-eabi/4.5.2/../../../../arm-none-eabi/include/c++/4.5.2/bits/stl_deque.h ****        *  @param  x  A %deque of identical element and allocator types.
 793:/opt/toolchains/arm-none-eabi/bin/../lib/gcc/arm-none-eabi/4.5.2/../../../../arm-none-eabi/include/c++/4.5.2/bits/stl_deque.h ****        *
 794:/opt/toolchains/arm-none-eabi/bin/../lib/gcc/arm-none-eabi/4.5.2/../../../../arm-none-eabi/include/c++/4.5.2/bits/stl_deque.h ****        *  The newly-created %deque uses a copy of the allocation object used
 795:/opt/toolchains/arm-none-eabi/bin/../lib/gcc/arm-none-eabi/4.5.2/../../../../arm-none-eabi/include/c++/4.5.2/bits/stl_deque.h ****        *  by @a x.
 796:/opt/toolchains/arm-none-eabi/bin/../lib/gcc/arm-none-eabi/4.5.2/../../../../arm-none-eabi/include/c++/4.5.2/bits/stl_deque.h ****        */
 797:/opt/toolchains/arm-none-eabi/bin/../lib/gcc/arm-none-eabi/4.5.2/../../../../arm-none-eabi/include/c++/4.5.2/bits/stl_deque.h ****       deque(const deque& __x)
 798:/opt/toolchains/arm-none-eabi/bin/../lib/gcc/arm-none-eabi/4.5.2/../../../../arm-none-eabi/include/c++/4.5.2/bits/stl_deque.h ****       : _Base(__x._M_get_Tp_allocator(), __x.size())
 799:/opt/toolchains/arm-none-eabi/bin/../lib/gcc/arm-none-eabi/4.5.2/../../../../arm-none-eabi/include/c++/4.5.2/bits/stl_deque.h ****       { std::__uninitialized_copy_a(__x.begin(), __x.end(), 
 800:/opt/toolchains/arm-none-eabi/bin/../lib/gcc/arm-none-eabi/4.5.2/../../../../arm-none-eabi/include/c++/4.5.2/bits/stl_deque.h **** 				    this->_M_impl._M_start,
 801:/opt/toolchains/arm-none-eabi/bin/../lib/gcc/arm-none-eabi/4.5.2/../../../../arm-none-eabi/include/c++/4.5.2/bits/stl_deque.h **** 				    _M_get_Tp_allocator()); }
 802:/opt/toolchains/arm-none-eabi/bin/../lib/gcc/arm-none-eabi/4.5.2/../../../../arm-none-eabi/include/c++/4.5.2/bits/stl_deque.h **** 
 803:/opt/toolchains/arm-none-eabi/bin/../lib/gcc/arm-none-eabi/4.5.2/../../../../arm-none-eabi/include/c++/4.5.2/bits/stl_deque.h **** #ifdef __GXX_EXPERIMENTAL_CXX0X__
 804:/opt/toolchains/arm-none-eabi/bin/../lib/gcc/arm-none-eabi/4.5.2/../../../../arm-none-eabi/include/c++/4.5.2/bits/stl_deque.h ****       /**
 805:/opt/toolchains/arm-none-eabi/bin/../lib/gcc/arm-none-eabi/4.5.2/../../../../arm-none-eabi/include/c++/4.5.2/bits/stl_deque.h ****        *  @brief  %Deque move constructor.
 806:/opt/toolchains/arm-none-eabi/bin/../lib/gcc/arm-none-eabi/4.5.2/../../../../arm-none-eabi/include/c++/4.5.2/bits/stl_deque.h ****        *  @param  x  A %deque of identical element and allocator types.
 807:/opt/toolchains/arm-none-eabi/bin/../lib/gcc/arm-none-eabi/4.5.2/../../../../arm-none-eabi/include/c++/4.5.2/bits/stl_deque.h ****        *
 808:/opt/toolchains/arm-none-eabi/bin/../lib/gcc/arm-none-eabi/4.5.2/../../../../arm-none-eabi/include/c++/4.5.2/bits/stl_deque.h ****        *  The newly-created %deque contains the exact contents of @a x.
 809:/opt/toolchains/arm-none-eabi/bin/../lib/gcc/arm-none-eabi/4.5.2/../../../../arm-none-eabi/include/c++/4.5.2/bits/stl_deque.h ****        *  The contents of @a x are a valid, but unspecified %deque.
 810:/opt/toolchains/arm-none-eabi/bin/../lib/gcc/arm-none-eabi/4.5.2/../../../../arm-none-eabi/include/c++/4.5.2/bits/stl_deque.h ****        */
 811:/opt/toolchains/arm-none-eabi/bin/../lib/gcc/arm-none-eabi/4.5.2/../../../../arm-none-eabi/include/c++/4.5.2/bits/stl_deque.h ****       deque(deque&&  __x)
 812:/opt/toolchains/arm-none-eabi/bin/../lib/gcc/arm-none-eabi/4.5.2/../../../../arm-none-eabi/include/c++/4.5.2/bits/stl_deque.h ****       : _Base(std::forward<_Base>(__x)) { }
 813:/opt/toolchains/arm-none-eabi/bin/../lib/gcc/arm-none-eabi/4.5.2/../../../../arm-none-eabi/include/c++/4.5.2/bits/stl_deque.h **** 
 814:/opt/toolchains/arm-none-eabi/bin/../lib/gcc/arm-none-eabi/4.5.2/../../../../arm-none-eabi/include/c++/4.5.2/bits/stl_deque.h ****       /**
 815:/opt/toolchains/arm-none-eabi/bin/../lib/gcc/arm-none-eabi/4.5.2/../../../../arm-none-eabi/include/c++/4.5.2/bits/stl_deque.h ****        *  @brief  Builds a %deque from an initializer list.
 816:/opt/toolchains/arm-none-eabi/bin/../lib/gcc/arm-none-eabi/4.5.2/../../../../arm-none-eabi/include/c++/4.5.2/bits/stl_deque.h ****        *  @param  l  An initializer_list.
 817:/opt/toolchains/arm-none-eabi/bin/../lib/gcc/arm-none-eabi/4.5.2/../../../../arm-none-eabi/include/c++/4.5.2/bits/stl_deque.h ****        *  @param  a  An allocator object.
 818:/opt/toolchains/arm-none-eabi/bin/../lib/gcc/arm-none-eabi/4.5.2/../../../../arm-none-eabi/include/c++/4.5.2/bits/stl_deque.h ****        *
 819:/opt/toolchains/arm-none-eabi/bin/../lib/gcc/arm-none-eabi/4.5.2/../../../../arm-none-eabi/include/c++/4.5.2/bits/stl_deque.h ****        *  Create a %deque consisting of copies of the elements in the
 820:/opt/toolchains/arm-none-eabi/bin/../lib/gcc/arm-none-eabi/4.5.2/../../../../arm-none-eabi/include/c++/4.5.2/bits/stl_deque.h ****        *  initializer_list @a l.
 821:/opt/toolchains/arm-none-eabi/bin/../lib/gcc/arm-none-eabi/4.5.2/../../../../arm-none-eabi/include/c++/4.5.2/bits/stl_deque.h ****        *
 822:/opt/toolchains/arm-none-eabi/bin/../lib/gcc/arm-none-eabi/4.5.2/../../../../arm-none-eabi/include/c++/4.5.2/bits/stl_deque.h ****        *  This will call the element type's copy constructor N times
 823:/opt/toolchains/arm-none-eabi/bin/../lib/gcc/arm-none-eabi/4.5.2/../../../../arm-none-eabi/include/c++/4.5.2/bits/stl_deque.h ****        *  (where N is l.size()) and do no memory reallocation.
 824:/opt/toolchains/arm-none-eabi/bin/../lib/gcc/arm-none-eabi/4.5.2/../../../../arm-none-eabi/include/c++/4.5.2/bits/stl_deque.h ****        */
 825:/opt/toolchains/arm-none-eabi/bin/../lib/gcc/arm-none-eabi/4.5.2/../../../../arm-none-eabi/include/c++/4.5.2/bits/stl_deque.h ****       deque(initializer_list<value_type> __l,
 826:/opt/toolchains/arm-none-eabi/bin/../lib/gcc/arm-none-eabi/4.5.2/../../../../arm-none-eabi/include/c++/4.5.2/bits/stl_deque.h **** 	    const allocator_type& __a = allocator_type())
 827:/opt/toolchains/arm-none-eabi/bin/../lib/gcc/arm-none-eabi/4.5.2/../../../../arm-none-eabi/include/c++/4.5.2/bits/stl_deque.h **** 	: _Base(__a)
 828:/opt/toolchains/arm-none-eabi/bin/../lib/gcc/arm-none-eabi/4.5.2/../../../../arm-none-eabi/include/c++/4.5.2/bits/stl_deque.h ****         {
 829:/opt/toolchains/arm-none-eabi/bin/../lib/gcc/arm-none-eabi/4.5.2/../../../../arm-none-eabi/include/c++/4.5.2/bits/stl_deque.h **** 	  _M_range_initialize(__l.begin(), __l.end(),
 830:/opt/toolchains/arm-none-eabi/bin/../lib/gcc/arm-none-eabi/4.5.2/../../../../arm-none-eabi/include/c++/4.5.2/bits/stl_deque.h **** 			      random_access_iterator_tag());
 831:/opt/toolchains/arm-none-eabi/bin/../lib/gcc/arm-none-eabi/4.5.2/../../../../arm-none-eabi/include/c++/4.5.2/bits/stl_deque.h **** 	}
 832:/opt/toolchains/arm-none-eabi/bin/../lib/gcc/arm-none-eabi/4.5.2/../../../../arm-none-eabi/include/c++/4.5.2/bits/stl_deque.h **** #endif
 833:/opt/toolchains/arm-none-eabi/bin/../lib/gcc/arm-none-eabi/4.5.2/../../../../arm-none-eabi/include/c++/4.5.2/bits/stl_deque.h **** 
 834:/opt/toolchains/arm-none-eabi/bin/../lib/gcc/arm-none-eabi/4.5.2/../../../../arm-none-eabi/include/c++/4.5.2/bits/stl_deque.h ****       /**
 835:/opt/toolchains/arm-none-eabi/bin/../lib/gcc/arm-none-eabi/4.5.2/../../../../arm-none-eabi/include/c++/4.5.2/bits/stl_deque.h ****        *  @brief  Builds a %deque from a range.
 836:/opt/toolchains/arm-none-eabi/bin/../lib/gcc/arm-none-eabi/4.5.2/../../../../arm-none-eabi/include/c++/4.5.2/bits/stl_deque.h ****        *  @param  first  An input iterator.
 837:/opt/toolchains/arm-none-eabi/bin/../lib/gcc/arm-none-eabi/4.5.2/../../../../arm-none-eabi/include/c++/4.5.2/bits/stl_deque.h ****        *  @param  last  An input iterator.
 838:/opt/toolchains/arm-none-eabi/bin/../lib/gcc/arm-none-eabi/4.5.2/../../../../arm-none-eabi/include/c++/4.5.2/bits/stl_deque.h ****        *  @param  a  An allocator object.
 839:/opt/toolchains/arm-none-eabi/bin/../lib/gcc/arm-none-eabi/4.5.2/../../../../arm-none-eabi/include/c++/4.5.2/bits/stl_deque.h ****        *
 840:/opt/toolchains/arm-none-eabi/bin/../lib/gcc/arm-none-eabi/4.5.2/../../../../arm-none-eabi/include/c++/4.5.2/bits/stl_deque.h ****        *  Create a %deque consisting of copies of the elements from [first,
 841:/opt/toolchains/arm-none-eabi/bin/../lib/gcc/arm-none-eabi/4.5.2/../../../../arm-none-eabi/include/c++/4.5.2/bits/stl_deque.h ****        *  last).
 842:/opt/toolchains/arm-none-eabi/bin/../lib/gcc/arm-none-eabi/4.5.2/../../../../arm-none-eabi/include/c++/4.5.2/bits/stl_deque.h ****        *
 843:/opt/toolchains/arm-none-eabi/bin/../lib/gcc/arm-none-eabi/4.5.2/../../../../arm-none-eabi/include/c++/4.5.2/bits/stl_deque.h ****        *  If the iterators are forward, bidirectional, or random-access, then
 844:/opt/toolchains/arm-none-eabi/bin/../lib/gcc/arm-none-eabi/4.5.2/../../../../arm-none-eabi/include/c++/4.5.2/bits/stl_deque.h ****        *  this will call the elements' copy constructor N times (where N is
 845:/opt/toolchains/arm-none-eabi/bin/../lib/gcc/arm-none-eabi/4.5.2/../../../../arm-none-eabi/include/c++/4.5.2/bits/stl_deque.h ****        *  distance(first,last)) and do no memory reallocation.  But if only
 846:/opt/toolchains/arm-none-eabi/bin/../lib/gcc/arm-none-eabi/4.5.2/../../../../arm-none-eabi/include/c++/4.5.2/bits/stl_deque.h ****        *  input iterators are used, then this will do at most 2N calls to the
 847:/opt/toolchains/arm-none-eabi/bin/../lib/gcc/arm-none-eabi/4.5.2/../../../../arm-none-eabi/include/c++/4.5.2/bits/stl_deque.h ****        *  copy constructor, and logN memory reallocations.
 848:/opt/toolchains/arm-none-eabi/bin/../lib/gcc/arm-none-eabi/4.5.2/../../../../arm-none-eabi/include/c++/4.5.2/bits/stl_deque.h ****        */
 849:/opt/toolchains/arm-none-eabi/bin/../lib/gcc/arm-none-eabi/4.5.2/../../../../arm-none-eabi/include/c++/4.5.2/bits/stl_deque.h ****       template<typename _InputIterator>
 850:/opt/toolchains/arm-none-eabi/bin/../lib/gcc/arm-none-eabi/4.5.2/../../../../arm-none-eabi/include/c++/4.5.2/bits/stl_deque.h ****         deque(_InputIterator __first, _InputIterator __last,
 851:/opt/toolchains/arm-none-eabi/bin/../lib/gcc/arm-none-eabi/4.5.2/../../../../arm-none-eabi/include/c++/4.5.2/bits/stl_deque.h **** 	      const allocator_type& __a = allocator_type())
 852:/opt/toolchains/arm-none-eabi/bin/../lib/gcc/arm-none-eabi/4.5.2/../../../../arm-none-eabi/include/c++/4.5.2/bits/stl_deque.h **** 	: _Base(__a)
 853:/opt/toolchains/arm-none-eabi/bin/../lib/gcc/arm-none-eabi/4.5.2/../../../../arm-none-eabi/include/c++/4.5.2/bits/stl_deque.h ****         {
 854:/opt/toolchains/arm-none-eabi/bin/../lib/gcc/arm-none-eabi/4.5.2/../../../../arm-none-eabi/include/c++/4.5.2/bits/stl_deque.h **** 	  // Check whether it's an integral type.  If so, it's not an iterator.
 855:/opt/toolchains/arm-none-eabi/bin/../lib/gcc/arm-none-eabi/4.5.2/../../../../arm-none-eabi/include/c++/4.5.2/bits/stl_deque.h **** 	  typedef typename std::__is_integer<_InputIterator>::__type _Integral;
 856:/opt/toolchains/arm-none-eabi/bin/../lib/gcc/arm-none-eabi/4.5.2/../../../../arm-none-eabi/include/c++/4.5.2/bits/stl_deque.h **** 	  _M_initialize_dispatch(__first, __last, _Integral());
 857:/opt/toolchains/arm-none-eabi/bin/../lib/gcc/arm-none-eabi/4.5.2/../../../../arm-none-eabi/include/c++/4.5.2/bits/stl_deque.h **** 	}
 858:/opt/toolchains/arm-none-eabi/bin/../lib/gcc/arm-none-eabi/4.5.2/../../../../arm-none-eabi/include/c++/4.5.2/bits/stl_deque.h **** 
 859:/opt/toolchains/arm-none-eabi/bin/../lib/gcc/arm-none-eabi/4.5.2/../../../../arm-none-eabi/include/c++/4.5.2/bits/stl_deque.h ****       /**
 860:/opt/toolchains/arm-none-eabi/bin/../lib/gcc/arm-none-eabi/4.5.2/../../../../arm-none-eabi/include/c++/4.5.2/bits/stl_deque.h ****        *  The dtor only erases the elements, and note that if the elements
 861:/opt/toolchains/arm-none-eabi/bin/../lib/gcc/arm-none-eabi/4.5.2/../../../../arm-none-eabi/include/c++/4.5.2/bits/stl_deque.h ****        *  themselves are pointers, the pointed-to memory is not touched in any
 862:/opt/toolchains/arm-none-eabi/bin/../lib/gcc/arm-none-eabi/4.5.2/../../../../arm-none-eabi/include/c++/4.5.2/bits/stl_deque.h ****        *  way.  Managing the pointer is the user's responsibility.
 863:/opt/toolchains/arm-none-eabi/bin/../lib/gcc/arm-none-eabi/4.5.2/../../../../arm-none-eabi/include/c++/4.5.2/bits/stl_deque.h ****        */
 864:/opt/toolchains/arm-none-eabi/bin/../lib/gcc/arm-none-eabi/4.5.2/../../../../arm-none-eabi/include/c++/4.5.2/bits/stl_deque.h ****       ~deque()
 2868              		.loc 32 864 0
 2869              		.cfi_startproc
 2870              		@ args = 0, pretend = 0, frame = 40
 2871              		@ frame_needed = 1, uses_anonymous_args = 0
 2872 0000 80B5     		push	{r7, lr}
 2873              	.LCFI69:
 2874              		.cfi_def_cfa_offset 8
 2875 0002 8AB0     		sub	sp, sp, #40
 2876              	.LCFI70:
 2877              		.cfi_def_cfa_offset 48
 2878 0004 00AF     		add	r7, sp, #0
 2879              		.cfi_offset 14, -4
 2880              		.cfi_offset 7, -8
 2881              	.LCFI71:
 2882              		.cfi_def_cfa_register 7
 2883 0006 7860     		str	r0, [r7, #4]
 2884              	.LBB12:
 865:/opt/toolchains/arm-none-eabi/bin/../lib/gcc/arm-none-eabi/4.5.2/../../../../arm-none-eabi/include/c++/4.5.2/bits/stl_deque.h ****       { _M_destroy_data(begin(), end(), _M_get_Tp_allocator()); }
 2885              		.loc 32 865 0
 2886 0008 07F10803 		add	r3, r7, #8
 2887 000c 1846     		mov	r0, r3
 2888 000e 7968     		ldr	r1, [r7, #4]
 2889 0010 FFF7FEFF 		bl	_ZNSt5dequeIP8IXFEventSaIS1_EE5beginEv
 2890 0014 07F11803 		add	r3, r7, #24
 2891 0018 1846     		mov	r0, r3
 2892 001a 7968     		ldr	r1, [r7, #4]
 2893 001c FFF7FEFF 		bl	_ZNSt5dequeIP8IXFEventSaIS1_EE3endEv
 2894 0020 7B68     		ldr	r3, [r7, #4]
 2895 0022 1846     		mov	r0, r3
 2896 0024 FFF7FEFF 		bl	_ZNSt11_Deque_baseIP8IXFEventSaIS1_EE19_M_get_Tp_allocatorEv
 2897 0028 0346     		mov	r3, r0
 2898 002a 07F10801 		add	r1, r7, #8
 2899 002e 07F11802 		add	r2, r7, #24
 2900 0032 7868     		ldr	r0, [r7, #4]
 2901 0034 FFF7FEFF 		bl	_ZNSt5dequeIP8IXFEventSaIS1_EE15_M_destroy_dataESt15_Deque_iteratorIS1_RS1_PS1_ES7_RKS2_
 2902 0038 7B68     		ldr	r3, [r7, #4]
 2903 003a 1846     		mov	r0, r3
 2904 003c FFF7FEFF 		bl	_ZNSt11_Deque_baseIP8IXFEventSaIS1_EED2Ev
 2905              	.LBE12:
 2906 0040 7B68     		ldr	r3, [r7, #4]
 2907 0042 1846     		mov	r0, r3
 2908 0044 07F12807 		add	r7, r7, #40
 2909 0048 BD46     		mov	sp, r7
 2910 004a 80BD     		pop	{r7, pc}
 2911              		.cfi_endproc
 2912              	.LFE852:
 2914              		.weak	_ZNSt5dequeIP8IXFEventSaIS1_EED1Ev
 2915              		.thumb_set _ZNSt5dequeIP8IXFEventSaIS1_EED1Ev,_ZNSt5dequeIP8IXFEventSaIS1_EED2Ev
 2916              		.section	.text._ZNSt5queueIP8IXFEventSt5dequeIS1_SaIS1_EEEC2ERKS4_,"axG",%progbits,_ZNSt5queueIP8I
 2917              		.align	2
 2918              		.weak	_ZNSt5queueIP8IXFEventSt5dequeIS1_SaIS1_EEEC2ERKS4_
 2919              		.thumb
 2920              		.thumb_func
 2922              	_ZNSt5queueIP8IXFEventSt5dequeIS1_SaIS1_EEEC2ERKS4_:
 2923              	.LFB855:
  91:/opt/toolchains/arm-none-eabi/bin/../lib/gcc/arm-none-eabi/4.5.2/../../../../arm-none-eabi/include/c++/4.5.2/bits/stl_queue.h ****       // concept requirements
  92:/opt/toolchains/arm-none-eabi/bin/../lib/gcc/arm-none-eabi/4.5.2/../../../../arm-none-eabi/include/c++/4.5.2/bits/stl_queue.h ****       typedef typename _Sequence::value_type _Sequence_value_type;
  93:/opt/toolchains/arm-none-eabi/bin/../lib/gcc/arm-none-eabi/4.5.2/../../../../arm-none-eabi/include/c++/4.5.2/bits/stl_queue.h ****       __glibcxx_class_requires(_Tp, _SGIAssignableConcept)
  94:/opt/toolchains/arm-none-eabi/bin/../lib/gcc/arm-none-eabi/4.5.2/../../../../arm-none-eabi/include/c++/4.5.2/bits/stl_queue.h ****       __glibcxx_class_requires(_Sequence, _FrontInsertionSequenceConcept)
  95:/opt/toolchains/arm-none-eabi/bin/../lib/gcc/arm-none-eabi/4.5.2/../../../../arm-none-eabi/include/c++/4.5.2/bits/stl_queue.h ****       __glibcxx_class_requires(_Sequence, _BackInsertionSequenceConcept)
  96:/opt/toolchains/arm-none-eabi/bin/../lib/gcc/arm-none-eabi/4.5.2/../../../../arm-none-eabi/include/c++/4.5.2/bits/stl_queue.h ****       __glibcxx_class_requires2(_Tp, _Sequence_value_type, _SameTypeConcept)
  97:/opt/toolchains/arm-none-eabi/bin/../lib/gcc/arm-none-eabi/4.5.2/../../../../arm-none-eabi/include/c++/4.5.2/bits/stl_queue.h **** 
  98:/opt/toolchains/arm-none-eabi/bin/../lib/gcc/arm-none-eabi/4.5.2/../../../../arm-none-eabi/include/c++/4.5.2/bits/stl_queue.h ****       template<typename _Tp1, typename _Seq1>
  99:/opt/toolchains/arm-none-eabi/bin/../lib/gcc/arm-none-eabi/4.5.2/../../../../arm-none-eabi/include/c++/4.5.2/bits/stl_queue.h ****         friend bool
 100:/opt/toolchains/arm-none-eabi/bin/../lib/gcc/arm-none-eabi/4.5.2/../../../../arm-none-eabi/include/c++/4.5.2/bits/stl_queue.h ****         operator==(const queue<_Tp1, _Seq1>&, const queue<_Tp1, _Seq1>&);
 101:/opt/toolchains/arm-none-eabi/bin/../lib/gcc/arm-none-eabi/4.5.2/../../../../arm-none-eabi/include/c++/4.5.2/bits/stl_queue.h **** 
 102:/opt/toolchains/arm-none-eabi/bin/../lib/gcc/arm-none-eabi/4.5.2/../../../../arm-none-eabi/include/c++/4.5.2/bits/stl_queue.h ****       template<typename _Tp1, typename _Seq1>
 103:/opt/toolchains/arm-none-eabi/bin/../lib/gcc/arm-none-eabi/4.5.2/../../../../arm-none-eabi/include/c++/4.5.2/bits/stl_queue.h ****         friend bool
 104:/opt/toolchains/arm-none-eabi/bin/../lib/gcc/arm-none-eabi/4.5.2/../../../../arm-none-eabi/include/c++/4.5.2/bits/stl_queue.h ****         operator<(const queue<_Tp1, _Seq1>&, const queue<_Tp1, _Seq1>&);
 105:/opt/toolchains/arm-none-eabi/bin/../lib/gcc/arm-none-eabi/4.5.2/../../../../arm-none-eabi/include/c++/4.5.2/bits/stl_queue.h **** 
 106:/opt/toolchains/arm-none-eabi/bin/../lib/gcc/arm-none-eabi/4.5.2/../../../../arm-none-eabi/include/c++/4.5.2/bits/stl_queue.h ****     public:
 107:/opt/toolchains/arm-none-eabi/bin/../lib/gcc/arm-none-eabi/4.5.2/../../../../arm-none-eabi/include/c++/4.5.2/bits/stl_queue.h ****       typedef typename _Sequence::value_type                value_type;
 108:/opt/toolchains/arm-none-eabi/bin/../lib/gcc/arm-none-eabi/4.5.2/../../../../arm-none-eabi/include/c++/4.5.2/bits/stl_queue.h ****       typedef typename _Sequence::reference                 reference;
 109:/opt/toolchains/arm-none-eabi/bin/../lib/gcc/arm-none-eabi/4.5.2/../../../../arm-none-eabi/include/c++/4.5.2/bits/stl_queue.h ****       typedef typename _Sequence::const_reference           const_reference;
 110:/opt/toolchains/arm-none-eabi/bin/../lib/gcc/arm-none-eabi/4.5.2/../../../../arm-none-eabi/include/c++/4.5.2/bits/stl_queue.h ****       typedef typename _Sequence::size_type                 size_type;
 111:/opt/toolchains/arm-none-eabi/bin/../lib/gcc/arm-none-eabi/4.5.2/../../../../arm-none-eabi/include/c++/4.5.2/bits/stl_queue.h ****       typedef          _Sequence                            container_type;
 112:/opt/toolchains/arm-none-eabi/bin/../lib/gcc/arm-none-eabi/4.5.2/../../../../arm-none-eabi/include/c++/4.5.2/bits/stl_queue.h **** 
 113:/opt/toolchains/arm-none-eabi/bin/../lib/gcc/arm-none-eabi/4.5.2/../../../../arm-none-eabi/include/c++/4.5.2/bits/stl_queue.h ****     protected:
 114:/opt/toolchains/arm-none-eabi/bin/../lib/gcc/arm-none-eabi/4.5.2/../../../../arm-none-eabi/include/c++/4.5.2/bits/stl_queue.h ****       /**
 115:/opt/toolchains/arm-none-eabi/bin/../lib/gcc/arm-none-eabi/4.5.2/../../../../arm-none-eabi/include/c++/4.5.2/bits/stl_queue.h ****        *  'c' is the underlying container.  Maintainers wondering why
 116:/opt/toolchains/arm-none-eabi/bin/../lib/gcc/arm-none-eabi/4.5.2/../../../../arm-none-eabi/include/c++/4.5.2/bits/stl_queue.h ****        *  this isn't uglified as per style guidelines should note that
 117:/opt/toolchains/arm-none-eabi/bin/../lib/gcc/arm-none-eabi/4.5.2/../../../../arm-none-eabi/include/c++/4.5.2/bits/stl_queue.h ****        *  this name is specified in the standard, [23.2.3.1].  (Why?
 118:/opt/toolchains/arm-none-eabi/bin/../lib/gcc/arm-none-eabi/4.5.2/../../../../arm-none-eabi/include/c++/4.5.2/bits/stl_queue.h ****        *  Presumably for the same reason that it's protected instead
 119:/opt/toolchains/arm-none-eabi/bin/../lib/gcc/arm-none-eabi/4.5.2/../../../../arm-none-eabi/include/c++/4.5.2/bits/stl_queue.h ****        *  of private: to allow derivation.  But none of the other
 120:/opt/toolchains/arm-none-eabi/bin/../lib/gcc/arm-none-eabi/4.5.2/../../../../arm-none-eabi/include/c++/4.5.2/bits/stl_queue.h ****        *  containers allow for derivation.  Odd.)
 121:/opt/toolchains/arm-none-eabi/bin/../lib/gcc/arm-none-eabi/4.5.2/../../../../arm-none-eabi/include/c++/4.5.2/bits/stl_queue.h ****        */
 122:/opt/toolchains/arm-none-eabi/bin/../lib/gcc/arm-none-eabi/4.5.2/../../../../arm-none-eabi/include/c++/4.5.2/bits/stl_queue.h ****       _Sequence c;
 123:/opt/toolchains/arm-none-eabi/bin/../lib/gcc/arm-none-eabi/4.5.2/../../../../arm-none-eabi/include/c++/4.5.2/bits/stl_queue.h **** 
 124:/opt/toolchains/arm-none-eabi/bin/../lib/gcc/arm-none-eabi/4.5.2/../../../../arm-none-eabi/include/c++/4.5.2/bits/stl_queue.h ****     public:
 125:/opt/toolchains/arm-none-eabi/bin/../lib/gcc/arm-none-eabi/4.5.2/../../../../arm-none-eabi/include/c++/4.5.2/bits/stl_queue.h ****       /**
 126:/opt/toolchains/arm-none-eabi/bin/../lib/gcc/arm-none-eabi/4.5.2/../../../../arm-none-eabi/include/c++/4.5.2/bits/stl_queue.h ****        *  @brief  Default constructor creates no elements.
 127:/opt/toolchains/arm-none-eabi/bin/../lib/gcc/arm-none-eabi/4.5.2/../../../../arm-none-eabi/include/c++/4.5.2/bits/stl_queue.h ****        */
 128:/opt/toolchains/arm-none-eabi/bin/../lib/gcc/arm-none-eabi/4.5.2/../../../../arm-none-eabi/include/c++/4.5.2/bits/stl_queue.h **** #ifndef __GXX_EXPERIMENTAL_CXX0X__
 129:/opt/toolchains/arm-none-eabi/bin/../lib/gcc/arm-none-eabi/4.5.2/../../../../arm-none-eabi/include/c++/4.5.2/bits/stl_queue.h ****       explicit
 130:/opt/toolchains/arm-none-eabi/bin/../lib/gcc/arm-none-eabi/4.5.2/../../../../arm-none-eabi/include/c++/4.5.2/bits/stl_queue.h ****       queue(const _Sequence& __c = _Sequence())
 2924              		.loc 42 130 0
 2925              		.cfi_startproc
 2926              		@ args = 0, pretend = 0, frame = 8
 2927              		@ frame_needed = 1, uses_anonymous_args = 0
 2928 0000 80B5     		push	{r7, lr}
 2929              	.LCFI72:
 2930              		.cfi_def_cfa_offset 8
 2931 0002 82B0     		sub	sp, sp, #8
 2932              	.LCFI73:
 2933              		.cfi_def_cfa_offset 16
 2934 0004 00AF     		add	r7, sp, #0
 2935              		.cfi_offset 14, -4
 2936              		.cfi_offset 7, -8
 2937              	.LCFI74:
 2938              		.cfi_def_cfa_register 7
 2939 0006 7860     		str	r0, [r7, #4]
 2940 0008 3960     		str	r1, [r7, #0]
 2941              	.LBB13:
 131:/opt/toolchains/arm-none-eabi/bin/../lib/gcc/arm-none-eabi/4.5.2/../../../../arm-none-eabi/include/c++/4.5.2/bits/stl_queue.h ****       : c(__c) { }
 2942              		.loc 42 131 0
 2943 000a 7B68     		ldr	r3, [r7, #4]
 2944 000c 1846     		mov	r0, r3
 2945 000e 3968     		ldr	r1, [r7, #0]
 2946 0010 FFF7FEFF 		bl	_ZNSt5dequeIP8IXFEventSaIS1_EEC1ERKS3_
 2947              	.LBE13:
 2948 0014 7B68     		ldr	r3, [r7, #4]
 2949 0016 1846     		mov	r0, r3
 2950 0018 07F10807 		add	r7, r7, #8
 2951 001c BD46     		mov	sp, r7
 2952 001e 80BD     		pop	{r7, pc}
 2953              		.cfi_endproc
 2954              	.LFE855:
 2956              		.weak	_ZNSt5queueIP8IXFEventSt5dequeIS1_SaIS1_EEEC1ERKS4_
 2957              		.thumb_set _ZNSt5queueIP8IXFEventSt5dequeIS1_SaIS1_EEEC1ERKS4_,_ZNSt5queueIP8IXFEventSt5dequeIS1_S
 2958              		.section	.text._ZNKSt5queueIP8IXFEventSt5dequeIS1_SaIS1_EEE5emptyEv,"axG",%progbits,_ZNKSt5queueIP
 2959              		.align	2
 2960              		.weak	_ZNKSt5queueIP8IXFEventSt5dequeIS1_SaIS1_EEE5emptyEv
 2961              		.thumb
 2962              		.thumb_func
 2964              	_ZNKSt5queueIP8IXFEventSt5dequeIS1_SaIS1_EEE5emptyEv:
 2965              	.LFB857:
 132:/opt/toolchains/arm-none-eabi/bin/../lib/gcc/arm-none-eabi/4.5.2/../../../../arm-none-eabi/include/c++/4.5.2/bits/stl_queue.h **** #else
 133:/opt/toolchains/arm-none-eabi/bin/../lib/gcc/arm-none-eabi/4.5.2/../../../../arm-none-eabi/include/c++/4.5.2/bits/stl_queue.h ****       explicit
 134:/opt/toolchains/arm-none-eabi/bin/../lib/gcc/arm-none-eabi/4.5.2/../../../../arm-none-eabi/include/c++/4.5.2/bits/stl_queue.h ****       queue(const _Sequence& __c)
 135:/opt/toolchains/arm-none-eabi/bin/../lib/gcc/arm-none-eabi/4.5.2/../../../../arm-none-eabi/include/c++/4.5.2/bits/stl_queue.h ****       : c(__c) { }
 136:/opt/toolchains/arm-none-eabi/bin/../lib/gcc/arm-none-eabi/4.5.2/../../../../arm-none-eabi/include/c++/4.5.2/bits/stl_queue.h **** 
 137:/opt/toolchains/arm-none-eabi/bin/../lib/gcc/arm-none-eabi/4.5.2/../../../../arm-none-eabi/include/c++/4.5.2/bits/stl_queue.h ****       explicit
 138:/opt/toolchains/arm-none-eabi/bin/../lib/gcc/arm-none-eabi/4.5.2/../../../../arm-none-eabi/include/c++/4.5.2/bits/stl_queue.h ****       queue(_Sequence&& __c = _Sequence())
 139:/opt/toolchains/arm-none-eabi/bin/../lib/gcc/arm-none-eabi/4.5.2/../../../../arm-none-eabi/include/c++/4.5.2/bits/stl_queue.h ****       : c(std::move(__c)) { }
 140:/opt/toolchains/arm-none-eabi/bin/../lib/gcc/arm-none-eabi/4.5.2/../../../../arm-none-eabi/include/c++/4.5.2/bits/stl_queue.h **** 
 141:/opt/toolchains/arm-none-eabi/bin/../lib/gcc/arm-none-eabi/4.5.2/../../../../arm-none-eabi/include/c++/4.5.2/bits/stl_queue.h ****       queue(queue&& __q)
 142:/opt/toolchains/arm-none-eabi/bin/../lib/gcc/arm-none-eabi/4.5.2/../../../../arm-none-eabi/include/c++/4.5.2/bits/stl_queue.h ****       : c(std::move(__q.c)) { }
 143:/opt/toolchains/arm-none-eabi/bin/../lib/gcc/arm-none-eabi/4.5.2/../../../../arm-none-eabi/include/c++/4.5.2/bits/stl_queue.h **** 
 144:/opt/toolchains/arm-none-eabi/bin/../lib/gcc/arm-none-eabi/4.5.2/../../../../arm-none-eabi/include/c++/4.5.2/bits/stl_queue.h ****       queue&
 145:/opt/toolchains/arm-none-eabi/bin/../lib/gcc/arm-none-eabi/4.5.2/../../../../arm-none-eabi/include/c++/4.5.2/bits/stl_queue.h ****       operator=(queue&& __q)
 146:/opt/toolchains/arm-none-eabi/bin/../lib/gcc/arm-none-eabi/4.5.2/../../../../arm-none-eabi/include/c++/4.5.2/bits/stl_queue.h ****       {
 147:/opt/toolchains/arm-none-eabi/bin/../lib/gcc/arm-none-eabi/4.5.2/../../../../arm-none-eabi/include/c++/4.5.2/bits/stl_queue.h **** 	c = std::move(__q.c);
 148:/opt/toolchains/arm-none-eabi/bin/../lib/gcc/arm-none-eabi/4.5.2/../../../../arm-none-eabi/include/c++/4.5.2/bits/stl_queue.h **** 	return *this;
